ARM GAS  C:\Users\user\AppData\Local\Temp\ccsZLEGd.s 			page 1


   1              		.cpu cortex-m3
   2              		.eabi_attribute 20, 1	@ Tag_ABI_FP_denormal
   3              		.eabi_attribute 21, 1	@ Tag_ABI_FP_exceptions
   4              		.eabi_attribute 23, 3	@ Tag_ABI_FP_number_model
   5              		.eabi_attribute 24, 1	@ Tag_ABI_align8_needed
   6              		.eabi_attribute 25, 1	@ Tag_ABI_align8_preserved
   7              		.eabi_attribute 26, 1	@ Tag_ABI_enum_size
   8              		.eabi_attribute 30, 4	@ Tag_ABI_optimization_goals
   9              		.eabi_attribute 34, 1	@ Tag_CPU_unaligned_access
  10              		.eabi_attribute 18, 4	@ Tag_ABI_PCS_wchar_t
  11              		.file	"sensor.c"
  12              	@ GNU C17 (GNU Arm Embedded Toolchain 10.3-2021.07) version 10.3.1 20210621 (release) (arm-none-eab
  13              	@	compiled by GNU C version 7.3-win32 20180312, GMP version 6.1.0, MPFR version 3.1.4, MPC version 
  14              	
  15              	@ GGC heuristics: --param ggc-min-expand=100 --param ggc-min-heapsize=131072
  16              	@ options passed:  -I . -I ./user -I ./user/driver -I ./user/driver/modem
  17              	@ -I ./user/driver/debug -I ./user/driver/gpio -I ./user/driver/usart
  18              	@ -I ./user/driver/gps -I ./user/driver/rtc -I ./user/driver/led
  19              	@ -I ./user/driver/mux -I ./user/driver/vibration -I ./user/driver/exti
  20              	@ -I ./user/driver/adc -I ./user/driver/18B20 -I ./user/driver/http
  21              	@ -I ./user/driver/w26 -I ./user/driver/i2c -I ./user/driver/system
  22              	@ -I ./user/driver/lock -I ./user/driver/memory -I ./user/driver/spi
  23              	@ -I ./user/driver/w25q -I ./user/driver/rms -I ./user/driver/sensor
  24              	@ -I ./stm32f10x_libraries/CMSIS/CM3/CoreSupport
  25              	@ -I ./stm32f10x_libraries/CMSIS/CM3/DeviceSupport/ST/STM32F10x
  26              	@ -I ./stm32f10x_libraries/STM32F10x_StdPeriph_Driver/inc
  27              	@ -I ./stm32f10x_libraries/STM32F10x_StdPeriph_Driver -I ./freertos/include
  28              	@ -I ./freertos/portable/GCC/ARM_CM3 -imultilib thumb/v7-m/nofp
  29              	@ -iprefix c:\program files (x86)\gnu arm embedded toolchain\10 2021.07\bin\../lib/gcc/arm-none-eab
  30              	@ -isysroot c:\program files (x86)\gnu arm embedded toolchain\10 2021.07\bin\../arm-none-eabi
  31              	@ -D__USES_INITFINI__ -D STM32F10X_CL -D USE_STDPERIPH_DRIVER
  32              	@ -D HSE_VALUE=8000000 -D RUN_FROM_FLASH=1 user/driver/sensor/sensor.c
  33              	@ -mcpu=cortex-m3 -mthumb -mfloat-abi=soft -mlibarch=armv7-m -march=armv7-m
  34              	@ -auxbase-strip user/driver/sensor/sensor.o -g -gdwarf-2 -Os -Wall
  35              	@ -fomit-frame-pointer -fverbose-asm
  36              	@ options enabled:  -faggressive-loop-optimizations -fallocation-dce
  37              	@ -fauto-inc-dec -fbranch-count-reg -fcaller-saves -fcode-hoisting
  38              	@ -fcombine-stack-adjustments -fcompare-elim -fcprop-registers
  39              	@ -fcrossjumping -fcse-follow-jumps -fdefer-pop
  40              	@ -fdelete-null-pointer-checks -fdevirtualize -fdevirtualize-speculatively
  41              	@ -fdwarf2-cfi-asm -fearly-inlining -feliminate-unused-debug-symbols
  42              	@ -feliminate-unused-debug-types -fexpensive-optimizations
  43              	@ -fforward-propagate -ffp-int-builtin-inexact -ffunction-cse -fgcse
  44              	@ -fgcse-lm -fgnu-unique -fguess-branch-probability -fhoist-adjacent-loads
  45              	@ -fident -fif-conversion -fif-conversion2 -findirect-inlining -finline
  46              	@ -finline-atomics -finline-functions -finline-functions-called-once
  47              	@ -finline-small-functions -fipa-bit-cp -fipa-cp -fipa-icf
  48              	@ -fipa-icf-functions -fipa-icf-variables -fipa-profile -fipa-pure-const
  49              	@ -fipa-ra -fipa-reference -fipa-reference-addressable -fipa-sra
  50              	@ -fipa-stack-alignment -fipa-vrp -fira-hoist-pressure
  51              	@ -fira-share-save-slots -fira-share-spill-slots
  52              	@ -fisolate-erroneous-paths-dereference -fivopts -fkeep-static-consts
  53              	@ -fleading-underscore -flifetime-dse -flra-remat -fmath-errno
  54              	@ -fmerge-constants -fmerge-debug-strings -fmove-loop-invariants
  55              	@ -fomit-frame-pointer -foptimize-sibling-calls -fpartial-inlining
  56              	@ -fpeephole -fpeephole2 -fplt -fprefetch-loop-arrays -freg-struct-return
  57              	@ -freorder-blocks -freorder-functions -frerun-cse-after-loop
ARM GAS  C:\Users\user\AppData\Local\Temp\ccsZLEGd.s 			page 2


  58              	@ -fsched-critical-path-heuristic -fsched-dep-count-heuristic
  59              	@ -fsched-group-heuristic -fsched-interblock -fsched-last-insn-heuristic
  60              	@ -fsched-pressure -fsched-rank-heuristic -fsched-spec
  61              	@ -fsched-spec-insn-heuristic -fsched-stalled-insns-dep -fschedule-insns2
  62              	@ -fsection-anchors -fsemantic-interposition -fshow-column
  63              	@ -fshrink-wrap-separate -fsigned-zeros -fsplit-ivs-in-unroller
  64              	@ -fsplit-wide-types -fssa-backprop -fssa-phiopt -fstdarg-opt
  65              	@ -fstore-merging -fstrict-aliasing -fstrict-volatile-bitfields
  66              	@ -fsync-libcalls -fthread-jumps -ftoplevel-reorder -ftrapping-math
  67              	@ -ftree-bit-ccp -ftree-builtin-call-dce -ftree-ccp -ftree-ch
  68              	@ -ftree-coalesce-vars -ftree-copy-prop -ftree-cselim -ftree-dce
  69              	@ -ftree-dominator-opts -ftree-dse -ftree-forwprop -ftree-fre
  70              	@ -ftree-loop-distribute-patterns -ftree-loop-if-convert -ftree-loop-im
  71              	@ -ftree-loop-ivcanon -ftree-loop-optimize -ftree-parallelize-loops=
  72              	@ -ftree-phiprop -ftree-pre -ftree-pta -ftree-reassoc -ftree-scev-cprop
  73              	@ -ftree-sink -ftree-slsr -ftree-sra -ftree-switch-conversion
  74              	@ -ftree-tail-merge -ftree-ter -ftree-vrp -funit-at-a-time -fvar-tracking
  75              	@ -fvar-tracking-assignments -fverbose-asm -fzero-initialized-in-bss
  76              	@ -masm-syntax-unified -mbe32 -mfix-cortex-m3-ldrd -mlittle-endian
  77              	@ -mpic-data-is-text-relative -msched-prolog -mthumb -munaligned-access
  78              	@ -mvectorize-with-neon-quad
  79              	
  80              		.text
  81              	.Ltext0:
  82              		.cfi_sections	.debug_frame
  83              		.align	1
  84              		.global	SensorDebugHandler
  85              		.arch armv7-m
  86              		.syntax unified
  87              		.thumb
  88              		.thumb_func
  89              		.fpu softvfp
  90              		.type	SensorDebugHandler, %function
  91              	SensorDebugHandler:
  92              	.LVL0:
  93              	.LFB38:
  94              		.file 1 "user/driver/sensor/sensor.c"
   1:user/driver/sensor/sensor.c **** #include "vibration.h"
   2:user/driver/sensor/sensor.c **** #include <string.h>
   3:user/driver/sensor/sensor.c **** #include <stdio.h>
   4:user/driver/sensor/sensor.c **** #include <stdlib.h>
   5:user/driver/sensor/sensor.c **** #include "stm32f10x.h"
   6:user/driver/sensor/sensor.c **** #include "stm32f10x_rcc.h"
   7:user/driver/sensor/sensor.c **** #include "stm32f10x_gpio.h"
   8:user/driver/sensor/sensor.c **** #include "STM32f10x_exti.h"
   9:user/driver/sensor/sensor.c **** #include "STM32f10x_tim.h"
  10:user/driver/sensor/sensor.c **** #include "gpio.h"
  11:user/driver/sensor/sensor.c **** #include "FreeRTOS.h"
  12:user/driver/sensor/sensor.c **** #include "task.h"
  13:user/driver/sensor/sensor.c **** #include "queue.h"
  14:user/driver/sensor/sensor.c **** #include "debug.h"
  15:user/driver/sensor/sensor.c **** #include "semphr.h"
  16:user/driver/sensor/sensor.c **** #include "led.h"
  17:user/driver/sensor/sensor.c **** #include "timers.h"
  18:user/driver/sensor/sensor.c **** #include "exti.h"
  19:user/driver/sensor/sensor.c **** #include "sensor.h"
  20:user/driver/sensor/sensor.c **** #include "adc.h"
ARM GAS  C:\Users\user\AppData\Local\Temp\ccsZLEGd.s 			page 3


  21:user/driver/sensor/sensor.c **** 
  22:user/driver/sensor/sensor.c **** typedef struct
  23:user/driver/sensor/sensor.c **** {
  24:user/driver/sensor/sensor.c ****     SensorCallback callback;
  25:user/driver/sensor/sensor.c ****     AdcChannel channel;
  26:user/driver/sensor/sensor.c **** 
  27:user/driver/sensor/sensor.c ****     uint32_t temperatureval;
  28:user/driver/sensor/sensor.c ****     bool tempsense_connected;
  29:user/driver/sensor/sensor.c ****     xTimerHandle sensor_timer;
  30:user/driver/sensor/sensor.c **** 
  31:user/driver/sensor/sensor.c **** } SensorReaderPrv;
  32:user/driver/sensor/sensor.c **** 
  33:user/driver/sensor/sensor.c **** typedef struct
  34:user/driver/sensor/sensor.c **** {
  35:user/driver/sensor/sensor.c ****     SensorReaderPrv sensor;
  36:user/driver/sensor/sensor.c ****     DebugChannel dbg;
  37:user/driver/sensor/sensor.c ****     xSemaphoreHandle sensor_sem;
  38:user/driver/sensor/sensor.c **** } SensorManager;
  39:user/driver/sensor/sensor.c **** 
  40:user/driver/sensor/sensor.c **** SensorManager sensor_man;
  41:user/driver/sensor/sensor.c **** 
  42:user/driver/sensor/sensor.c **** void SensorTask(void *vibtask)
  43:user/driver/sensor/sensor.c **** {
  44:user/driver/sensor/sensor.c **** 
  45:user/driver/sensor/sensor.c ****     xTimerStart(sensor_man.sensor.sensor_timer,100);
  46:user/driver/sensor/sensor.c **** 
  47:user/driver/sensor/sensor.c ****     while (1)
  48:user/driver/sensor/sensor.c ****     {
  49:user/driver/sensor/sensor.c **** 
  50:user/driver/sensor/sensor.c ****         ChannelBuffer adata;
  51:user/driver/sensor/sensor.c ****         if (AdcChannelRead(sensor_man.sensor.channel, &adata) == ADC_STATUS_SUCCESS)
  52:user/driver/sensor/sensor.c ****         {
  53:user/driver/sensor/sensor.c ****             uint32_t temp_avg = 0;
  54:user/driver/sensor/sensor.c ****             for (size_t i = 0; i < ADC_BUFFER_MAX; i++)
  55:user/driver/sensor/sensor.c ****             {
  56:user/driver/sensor/sensor.c ****                 temp_avg = temp_avg + adata.buffer[i];
  57:user/driver/sensor/sensor.c ****             }
  58:user/driver/sensor/sensor.c **** 
  59:user/driver/sensor/sensor.c ****             uint16_t tempvoltage = temp_avg / ADC_BUFFER_MAX;
  60:user/driver/sensor/sensor.c **** 
  61:user/driver/sensor/sensor.c ****             //DebugPrintf(sensor_man.dbg, "Temperature :%d\n", tempvoltage);
  62:user/driver/sensor/sensor.c ****             sensor_man.sensor.temperatureval=tempvoltage;
  63:user/driver/sensor/sensor.c ****             
  64:user/driver/sensor/sensor.c ****         }
  65:user/driver/sensor/sensor.c **** 
  66:user/driver/sensor/sensor.c ****         if (xSemaphoreTake(sensor_man.sensor_sem, 1000) == pdTRUE)
  67:user/driver/sensor/sensor.c ****         {
  68:user/driver/sensor/sensor.c ****            
  69:user/driver/sensor/sensor.c ****             if (sensor_man.sensor.callback != NULL)
  70:user/driver/sensor/sensor.c ****             {
  71:user/driver/sensor/sensor.c ****                 //DebugPrintf(sensor_man.dbg, "Temperature :%d\n", sensor_man.sensor.temperatureval
  72:user/driver/sensor/sensor.c ****                 sensor_man.sensor.callback(0, true, sensor_man.sensor.temperatureval);  
  73:user/driver/sensor/sensor.c ****             }
  74:user/driver/sensor/sensor.c ****             
  75:user/driver/sensor/sensor.c ****         }
  76:user/driver/sensor/sensor.c ****         else
  77:user/driver/sensor/sensor.c ****         {
ARM GAS  C:\Users\user\AppData\Local\Temp\ccsZLEGd.s 			page 4


  78:user/driver/sensor/sensor.c ****         }
  79:user/driver/sensor/sensor.c ****     }
  80:user/driver/sensor/sensor.c **** }
  81:user/driver/sensor/sensor.c **** 
  82:user/driver/sensor/sensor.c **** void SensorDebugHandler(char *reply, const char **list, uint16_t len)
  83:user/driver/sensor/sensor.c **** {
  95              		.loc 1 83 1 view -0
  96              		.cfi_startproc
  97              		@ args = 0, pretend = 0, frame = 0
  98              		@ frame_needed = 0, uses_anonymous_args = 0
  99              		@ link register save eliminated.
  84:user/driver/sensor/sensor.c **** 
  85:user/driver/sensor/sensor.c **** }
 100              		.loc 1 85 1 view .LVU1
 101 0000 7047     		bx	lr	@
 102              		.cfi_endproc
 103              	.LFE38:
 104              		.size	SensorDebugHandler, .-SensorDebugHandler
 105              		.align	1
 106              		.global	SensorTask
 107              		.syntax unified
 108              		.thumb
 109              		.thumb_func
 110              		.fpu softvfp
 111              		.type	SensorTask, %function
 112              	SensorTask:
 113              	.LVL1:
 114              	.LFB37:
  43:user/driver/sensor/sensor.c **** 
 115              		.loc 1 43 1 view -0
 116              		.cfi_startproc
 117              		@ args = 0, pretend = 0, frame = 136
 118              		@ frame_needed = 0, uses_anonymous_args = 0
  45:user/driver/sensor/sensor.c **** 
 119              		.loc 1 45 5 view .LVU3
 120              	@ user/driver/sensor/sensor.c:43: {
  43:user/driver/sensor/sensor.c **** 
 121              		.loc 1 43 1 is_stmt 0 view .LVU4
 122 0002 30B5     		push	{r4, r5, lr}	@
 123              	.LCFI0:
 124              		.cfi_def_cfa_offset 12
 125              		.cfi_offset 4, -12
 126              		.cfi_offset 5, -8
 127              		.cfi_offset 14, -4
 128              	@ user/driver/sensor/sensor.c:45:     xTimerStart(sensor_man.sensor.sensor_timer,100);
  45:user/driver/sensor/sensor.c **** 
 129              		.loc 1 45 5 view .LVU5
 130 0004 164C     		ldr	r4, .L11	@ tmp129,
 131              	@ user/driver/sensor/sensor.c:43: {
  43:user/driver/sensor/sensor.c **** 
 132              		.loc 1 43 1 view .LVU6
 133 0006 A5B0     		sub	sp, sp, #148	@,,
 134              	.LCFI1:
 135              		.cfi_def_cfa_offset 160
 136              	@ user/driver/sensor/sensor.c:45:     xTimerStart(sensor_man.sensor.sensor_timer,100);
  45:user/driver/sensor/sensor.c **** 
 137              		.loc 1 45 5 view .LVU7
ARM GAS  C:\Users\user\AppData\Local\Temp\ccsZLEGd.s 			page 5


 138 0008 2569     		ldr	r5, [r4, #16]	@ _1, sensor_man.sensor.sensor_timer
 139 000a FFF7FEFF 		bl	xTaskGetTickCount		@
 140              	.LVL2:
  45:user/driver/sensor/sensor.c **** 
 141              		.loc 1 45 5 view .LVU8
 142 000e 6423     		movs	r3, #100	@ tmp130,
 143 0010 0246     		mov	r2, r0	@ tmp150,
 144 0012 0093     		str	r3, [sp]	@ tmp130,
 145 0014 2846     		mov	r0, r5	@, _1
 146 0016 0023     		movs	r3, #0	@,
 147 0018 0121     		movs	r1, #1	@,
 148 001a FFF7FEFF 		bl	xTimerGenericCommand		@
 149              	.LVL3:
 150              	.LBB2:
 151              	@ user/driver/sensor/sensor.c:51:         if (AdcChannelRead(sensor_man.sensor.channel, &adata) == 
  51:user/driver/sensor/sensor.c ****         {
 152              		.loc 1 51 13 view .LVU9
 153 001e 03AD     		add	r5, sp, #12	@ tmp131,,
 154              	.L6:
 155              	.LBE2:
  47:user/driver/sensor/sensor.c ****     {
 156              		.loc 1 47 5 is_stmt 1 view .LVU10
 157              	.LBB5:
  50:user/driver/sensor/sensor.c ****         if (AdcChannelRead(sensor_man.sensor.channel, &adata) == ADC_STATUS_SUCCESS)
 158              		.loc 1 50 9 view .LVU11
  51:user/driver/sensor/sensor.c ****         {
 159              		.loc 1 51 9 view .LVU12
 160              	@ user/driver/sensor/sensor.c:51:         if (AdcChannelRead(sensor_man.sensor.channel, &adata) == 
  51:user/driver/sensor/sensor.c ****         {
 161              		.loc 1 51 13 is_stmt 0 view .LVU13
 162 0020 2946     		mov	r1, r5	@, tmp131
 163 0022 6068     		ldr	r0, [r4, #4]	@, sensor_man.sensor.channel
 164 0024 FFF7FEFF 		bl	AdcChannelRead		@
 165              	.LVL4:
 166              	@ user/driver/sensor/sensor.c:51:         if (AdcChannelRead(sensor_man.sensor.channel, &adata) == 
  51:user/driver/sensor/sensor.c ****         {
 167              		.loc 1 51 12 view .LVU14
 168 0028 48B9     		cbnz	r0, .L3	@ tmp133,
 169 002a 0123     		movs	r3, #1	@ ivtmp.11,
 170              	.L4:
 171              	.LVL5:
 172              	.LBB3:
 173              	.LBB4:
  56:user/driver/sensor/sensor.c ****             }
 174              		.loc 1 56 17 is_stmt 1 discriminator 3 view .LVU15
 175              	@ user/driver/sensor/sensor.c:56:                 temp_avg = temp_avg + adata.buffer[i];
  56:user/driver/sensor/sensor.c ****             }
 176              		.loc 1 56 51 is_stmt 0 discriminator 3 view .LVU16
 177 002c 35F81320 		ldrh	r2, [r5, r3, lsl #1]	@ MEM[symbol: adata, index: ivtmp.11_30, step: 2, offset: 0B], MEM[symbo
 178              	@ user/driver/sensor/sensor.c:54:             for (size_t i = 0; i < ADC_BUFFER_MAX; i++)
  54:user/driver/sensor/sensor.c ****             {
 179              		.loc 1 54 13 discriminator 3 view .LVU17
 180 0030 0133     		adds	r3, r3, #1	@ ivtmp.11, ivtmp.11,
 181              	.LVL6:
  54:user/driver/sensor/sensor.c ****             {
 182              		.loc 1 54 13 discriminator 3 view .LVU18
 183 0032 412B     		cmp	r3, #65	@ ivtmp.11,
ARM GAS  C:\Users\user\AppData\Local\Temp\ccsZLEGd.s 			page 6


 184              	@ user/driver/sensor/sensor.c:56:                 temp_avg = temp_avg + adata.buffer[i];
  56:user/driver/sensor/sensor.c ****             }
 185              		.loc 1 56 26 discriminator 3 view .LVU19
 186 0034 1044     		add	r0, r0, r2	@ temp_avg, MEM[symbol: adata, index: ivtmp.11_30, step: 2, offset: 0B]
 187              	.LVL7:
  54:user/driver/sensor/sensor.c ****             {
 188              		.loc 1 54 52 is_stmt 1 discriminator 3 view .LVU20
  54:user/driver/sensor/sensor.c ****             {
 189              		.loc 1 54 32 discriminator 3 view .LVU21
 190              	@ user/driver/sensor/sensor.c:54:             for (size_t i = 0; i < ADC_BUFFER_MAX; i++)
  54:user/driver/sensor/sensor.c ****             {
 191              		.loc 1 54 13 is_stmt 0 discriminator 3 view .LVU22
 192 0036 F9D1     		bne	.L4		@,
 193              	.LBE4:
  59:user/driver/sensor/sensor.c **** 
 194              		.loc 1 59 13 is_stmt 1 view .LVU23
 195              	.LVL8:
  62:user/driver/sensor/sensor.c ****             
 196              		.loc 1 62 13 view .LVU24
 197              	@ user/driver/sensor/sensor.c:62:             sensor_man.sensor.temperatureval=tempvoltage;
  62:user/driver/sensor/sensor.c ****             
 198              		.loc 1 62 45 is_stmt 0 view .LVU25
 199 0038 C0F38F10 		ubfx	r0, r0, #6, #16	@ tmp138, temp_avg,,
 200              	.LVL9:
  62:user/driver/sensor/sensor.c ****             
 201              		.loc 1 62 45 view .LVU26
 202 003c A060     		str	r0, [r4, #8]	@ tmp138, sensor_man.sensor.temperatureval
 203              	.L3:
  62:user/driver/sensor/sensor.c ****             
 204              		.loc 1 62 45 view .LVU27
 205              	.LBE3:
  66:user/driver/sensor/sensor.c ****         {
 206              		.loc 1 66 9 is_stmt 1 view .LVU28
 207              	@ user/driver/sensor/sensor.c:66:         if (xSemaphoreTake(sensor_man.sensor_sem, 1000) == pdTRUE
  66:user/driver/sensor/sensor.c ****         {
 208              		.loc 1 66 13 is_stmt 0 view .LVU29
 209 003e 0023     		movs	r3, #0	@,
 210 0040 4FF47A72 		mov	r2, #1000	@,
 211 0044 1946     		mov	r1, r3	@,
 212 0046 A069     		ldr	r0, [r4, #24]	@, sensor_man.sensor_sem
 213 0048 FFF7FEFF 		bl	xQueueGenericReceive		@
 214              	.LVL10:
 215              	@ user/driver/sensor/sensor.c:66:         if (xSemaphoreTake(sensor_man.sensor_sem, 1000) == pdTRUE
  66:user/driver/sensor/sensor.c ****         {
 216              		.loc 1 66 12 view .LVU30
 217 004c 0128     		cmp	r0, #1	@ _9,
 218              	@ user/driver/sensor/sensor.c:66:         if (xSemaphoreTake(sensor_man.sensor_sem, 1000) == pdTRUE
  66:user/driver/sensor/sensor.c ****         {
 219              		.loc 1 66 13 view .LVU31
 220 004e 0146     		mov	r1, r0	@ _9, tmp152
 221              	@ user/driver/sensor/sensor.c:66:         if (xSemaphoreTake(sensor_man.sensor_sem, 1000) == pdTRUE
  66:user/driver/sensor/sensor.c ****         {
 222              		.loc 1 66 12 view .LVU32
 223 0050 E6D1     		bne	.L6		@,
  69:user/driver/sensor/sensor.c ****             {
 224              		.loc 1 69 13 is_stmt 1 view .LVU33
 225              	@ user/driver/sensor/sensor.c:69:             if (sensor_man.sensor.callback != NULL)
ARM GAS  C:\Users\user\AppData\Local\Temp\ccsZLEGd.s 			page 7


  69:user/driver/sensor/sensor.c ****             {
 226              		.loc 1 69 34 is_stmt 0 view .LVU34
 227 0052 2368     		ldr	r3, [r4]	@ _10, sensor_man.sensor.callback
 228              	@ user/driver/sensor/sensor.c:69:             if (sensor_man.sensor.callback != NULL)
  69:user/driver/sensor/sensor.c ****             {
 229              		.loc 1 69 16 view .LVU35
 230 0054 002B     		cmp	r3, #0	@ _10
 231 0056 E3D0     		beq	.L6	@
  72:user/driver/sensor/sensor.c ****             }
 232              		.loc 1 72 17 is_stmt 1 view .LVU36
 233 0058 0020     		movs	r0, #0	@,
 234 005a 2289     		ldrh	r2, [r4, #8]	@, sensor_man.sensor.temperatureval
 235 005c 9847     		blx	r3		@ _10
 236              	.LVL11:
  78:user/driver/sensor/sensor.c ****     }
 237              		.loc 1 78 9 view .LVU37
 238              	.LBE5:
  47:user/driver/sensor/sensor.c ****     {
 239              		.loc 1 47 11 view .LVU38
 240              	@ user/driver/sensor/sensor.c:48:     {
  48:user/driver/sensor/sensor.c **** 
 241              		.loc 1 48 5 is_stmt 0 view .LVU39
 242 005e DFE7     		b	.L6		@
 243              	.L12:
 244              		.align	2
 245              	.L11:
 246 0060 00000000 		.word	.LANCHOR0
 247              		.cfi_endproc
 248              	.LFE37:
 249              		.size	SensorTask, .-SensorTask
 250              		.align	1
 251              		.global	SensorTimerHandler
 252              		.syntax unified
 253              		.thumb
 254              		.thumb_func
 255              		.fpu softvfp
 256              		.type	SensorTimerHandler, %function
 257              	SensorTimerHandler:
 258              	.LVL12:
 259              	.LFB39:
  86:user/driver/sensor/sensor.c **** 
  87:user/driver/sensor/sensor.c **** 
  88:user/driver/sensor/sensor.c **** 
  89:user/driver/sensor/sensor.c **** void SensorTimerHandler(xTimerHandle timer)
  90:user/driver/sensor/sensor.c **** {
 260              		.loc 1 90 1 is_stmt 1 view -0
 261              		.cfi_startproc
 262              		@ args = 0, pretend = 0, frame = 0
 263              		@ frame_needed = 0, uses_anonymous_args = 0
 264              		@ link register save eliminated.
  91:user/driver/sensor/sensor.c ****    // DebugPrintf(sensor_man.dbg, "Timer ok\n");
  92:user/driver/sensor/sensor.c ****     xSemaphoreGive(sensor_man.sensor_sem);
 265              		.loc 1 92 5 view .LVU41
 266 0064 0023     		movs	r3, #0	@,
 267 0066 0348     		ldr	r0, .L14	@ tmp115,
 268              	.LVL13:
 269              		.loc 1 92 5 is_stmt 0 view .LVU42
ARM GAS  C:\Users\user\AppData\Local\Temp\ccsZLEGd.s 			page 8


 270 0068 1A46     		mov	r2, r3	@,
 271 006a 1946     		mov	r1, r3	@,
 272 006c 8069     		ldr	r0, [r0, #24]	@, sensor_man.sensor_sem
 273 006e FFF7FEBF 		b	xQueueGenericSend		@
 274              	.LVL14:
 275              	.L15:
 276 0072 00BF     		.align	2
 277              	.L14:
 278 0074 00000000 		.word	.LANCHOR0
 279              		.cfi_endproc
 280              	.LFE39:
 281              		.size	SensorTimerHandler, .-SensorTimerHandler
 282              		.section	.rodata.str1.1,"aMS",%progbits,1
 283              	.LC0:
 284 0000 53454E53 		.ascii	"SENSOR\000"
 284      4F5200
 285              	.LC1:
 286 0007 54656D70 		.ascii	"Temp\000"
 286      00
 287              	.LC2:
 288 000c 73656E73 		.ascii	"sensortimer\000"
 288      6F727469 
 288      6D657200 
 289              		.text
 290              		.align	1
 291              		.global	SensorInit
 292              		.syntax unified
 293              		.thumb
 294              		.thumb_func
 295              		.fpu softvfp
 296              		.type	SensorInit, %function
 297              	SensorInit:
 298              	.LFB40:
  93:user/driver/sensor/sensor.c **** }
  94:user/driver/sensor/sensor.c **** 
  95:user/driver/sensor/sensor.c **** 
  96:user/driver/sensor/sensor.c **** void SensorInit()
  97:user/driver/sensor/sensor.c **** {
 299              		.loc 1 97 1 is_stmt 1 view -0
 300              		.cfi_startproc
 301              		@ args = 0, pretend = 0, frame = 0
 302              		@ frame_needed = 0, uses_anonymous_args = 0
  98:user/driver/sensor/sensor.c ****     sensor_man.dbg = DebugRegister("SENSOR", SensorDebugHandler);
 303              		.loc 1 98 5 view .LVU44
 304              	@ user/driver/sensor/sensor.c:97: {
  97:user/driver/sensor/sensor.c ****     sensor_man.dbg = DebugRegister("SENSOR", SensorDebugHandler);
 305              		.loc 1 97 1 is_stmt 0 view .LVU45
 306 0078 37B5     		push	{r0, r1, r2, r4, r5, lr}	@
 307              	.LCFI2:
 308              		.cfi_def_cfa_offset 24
 309              		.cfi_offset 4, -12
 310              		.cfi_offset 5, -8
 311              		.cfi_offset 14, -4
 312              	@ user/driver/sensor/sensor.c:98:     sensor_man.dbg = DebugRegister("SENSOR", SensorDebugHandler);
 313              		.loc 1 98 22 view .LVU46
 314 007a 1149     		ldr	r1, .L17	@,
 315 007c 1148     		ldr	r0, .L17+4	@,
ARM GAS  C:\Users\user\AppData\Local\Temp\ccsZLEGd.s 			page 9


 316 007e FFF7FEFF 		bl	DebugRegister		@
 317              	.LVL15:
 318              	@ user/driver/sensor/sensor.c:100:     xTaskCreate(SensorTask, "Temp", 512, NULL, 2, NULL);
  99:user/driver/sensor/sensor.c ****     //reader_man.w26_sem = xSemaphoreCreateBinary();
 100:user/driver/sensor/sensor.c ****     xTaskCreate(SensorTask, "Temp", 512, NULL, 2, NULL);
 319              		.loc 1 100 5 view .LVU47
 320 0082 0024     		movs	r4, #0	@ tmp121,
 321 0084 0223     		movs	r3, #2	@ tmp122,
 322              	@ user/driver/sensor/sensor.c:98:     sensor_man.dbg = DebugRegister("SENSOR", SensorDebugHandler);
  98:user/driver/sensor/sensor.c ****     //reader_man.w26_sem = xSemaphoreCreateBinary();
 323              		.loc 1 98 20 view .LVU48
 324 0086 104D     		ldr	r5, .L17+8	@ tmp118,
 325              	@ user/driver/sensor/sensor.c:100:     xTaskCreate(SensorTask, "Temp", 512, NULL, 2, NULL);
 326              		.loc 1 100 5 view .LVU49
 327 0088 CDE90034 		strd	r3, r4, [sp]	@ tmp122, tmp121,
 328              	@ user/driver/sensor/sensor.c:98:     sensor_man.dbg = DebugRegister("SENSOR", SensorDebugHandler);
  98:user/driver/sensor/sensor.c ****     //reader_man.w26_sem = xSemaphoreCreateBinary();
 329              		.loc 1 98 20 view .LVU50
 330 008c 6861     		str	r0, [r5, #20]	@ tmp127, sensor_man.dbg
 331              		.loc 1 100 5 is_stmt 1 view .LVU51
 332 008e 2346     		mov	r3, r4	@, tmp121
 333 0090 4FF40072 		mov	r2, #512	@,
 334 0094 0D49     		ldr	r1, .L17+12	@,
 335 0096 0E48     		ldr	r0, .L17+16	@,
 336 0098 FFF7FEFF 		bl	xTaskCreate		@
 337              	.LVL16:
 101:user/driver/sensor/sensor.c ****     sensor_man.sensor.sensor_timer = xTimerCreate("sensortimer", 10000, pdTRUE, NULL, SensorTimerHa
 338              		.loc 1 101 5 view .LVU52
 339              	@ user/driver/sensor/sensor.c:101:     sensor_man.sensor.sensor_timer = xTimerCreate("sensortimer",
 340              		.loc 1 101 38 is_stmt 0 view .LVU53
 341 009c 0D4B     		ldr	r3, .L17+20	@ tmp124,
 342 009e 0122     		movs	r2, #1	@,
 343 00a0 0093     		str	r3, [sp]	@ tmp124,
 344 00a2 42F21071 		movw	r1, #10000	@,
 345 00a6 2346     		mov	r3, r4	@, tmp121
 346 00a8 0B48     		ldr	r0, .L17+24	@,
 347 00aa FFF7FEFF 		bl	xTimerCreate		@
 348              	.LVL17:
 349              	@ user/driver/sensor/sensor.c:102:     sensor_man.sensor_sem = xSemaphoreCreateBinary();
 102:user/driver/sensor/sensor.c ****     sensor_man.sensor_sem = xSemaphoreCreateBinary();
 350              		.loc 1 102 29 view .LVU54
 351 00ae 0322     		movs	r2, #3	@,
 352              	@ user/driver/sensor/sensor.c:101:     sensor_man.sensor.sensor_timer = xTimerCreate("sensortimer",
 101:user/driver/sensor/sensor.c ****     sensor_man.sensor.sensor_timer = xTimerCreate("sensortimer", 10000, pdTRUE, NULL, SensorTimerHa
 353              		.loc 1 101 36 view .LVU55
 354 00b0 2861     		str	r0, [r5, #16]	@ tmp128, sensor_man.sensor.sensor_timer
 355              		.loc 1 102 5 is_stmt 1 view .LVU56
 356              	@ user/driver/sensor/sensor.c:102:     sensor_man.sensor_sem = xSemaphoreCreateBinary();
 357              		.loc 1 102 29 is_stmt 0 view .LVU57
 358 00b2 2146     		mov	r1, r4	@, tmp121
 359 00b4 0120     		movs	r0, #1	@,
 360 00b6 FFF7FEFF 		bl	xQueueGenericCreate		@
 361              	.LVL18:
 362              	@ user/driver/sensor/sensor.c:102:     sensor_man.sensor_sem = xSemaphoreCreateBinary();
 363              		.loc 1 102 27 view .LVU58
 364 00ba A861     		str	r0, [r5, #24]	@ tmp129, sensor_man.sensor_sem
 365              	@ user/driver/sensor/sensor.c:103: }
ARM GAS  C:\Users\user\AppData\Local\Temp\ccsZLEGd.s 			page 10


 103:user/driver/sensor/sensor.c **** }
 366              		.loc 1 103 1 view .LVU59
 367 00bc 03B0     		add	sp, sp, #12	@,,
 368              	.LCFI3:
 369              		.cfi_def_cfa_offset 12
 370              		@ sp needed	@
 371 00be 30BD     		pop	{r4, r5, pc}	@
 372              	.L18:
 373              		.align	2
 374              	.L17:
 375 00c0 00000000 		.word	SensorDebugHandler
 376 00c4 00000000 		.word	.LC0
 377 00c8 00000000 		.word	.LANCHOR0
 378 00cc 07000000 		.word	.LC1
 379 00d0 00000000 		.word	SensorTask
 380 00d4 00000000 		.word	SensorTimerHandler
 381 00d8 0C000000 		.word	.LC2
 382              		.cfi_endproc
 383              	.LFE40:
 384              		.size	SensorInit, .-SensorInit
 385              		.align	1
 386              		.global	SensorCreate
 387              		.syntax unified
 388              		.thumb
 389              		.thumb_func
 390              		.fpu softvfp
 391              		.type	SensorCreate, %function
 392              	SensorCreate:
 393              	.LVL19:
 394              	.LFB41:
 104:user/driver/sensor/sensor.c **** 
 105:user/driver/sensor/sensor.c **** Sensor SensorCreate(SensorCallback callback, AdcChannelId ch)
 106:user/driver/sensor/sensor.c **** {
 395              		.loc 1 106 1 is_stmt 1 view -0
 396              		.cfi_startproc
 397              		@ args = 0, pretend = 0, frame = 0
 398              		@ frame_needed = 0, uses_anonymous_args = 0
 107:user/driver/sensor/sensor.c **** 	sensor_man.sensor.callback = callback;
 399              		.loc 1 107 2 view .LVU61
 400              	@ user/driver/sensor/sensor.c:106: {
 106:user/driver/sensor/sensor.c **** 	sensor_man.sensor.callback = callback;
 401              		.loc 1 106 1 is_stmt 0 view .LVU62
 402 00dc 10B5     		push	{r4, lr}	@
 403              	.LCFI4:
 404              		.cfi_def_cfa_offset 8
 405              		.cfi_offset 4, -8
 406              		.cfi_offset 14, -4
 407              	@ user/driver/sensor/sensor.c:107: 	sensor_man.sensor.callback = callback;
 408              		.loc 1 107 29 view .LVU63
 409 00de 034C     		ldr	r4, .L20	@ tmp117,
 410 00e0 2060     		str	r0, [r4]	@ tmp119, sensor_man.sensor.callback
 108:user/driver/sensor/sensor.c ****     sensor_man.sensor.channel = AdcChannelCreate(ch);
 411              		.loc 1 108 5 is_stmt 1 view .LVU64
 412              	@ user/driver/sensor/sensor.c:108:     sensor_man.sensor.channel = AdcChannelCreate(ch);
 413              		.loc 1 108 33 is_stmt 0 view .LVU65
 414 00e2 0846     		mov	r0, r1	@, tmp120
 415              	.LVL20:
ARM GAS  C:\Users\user\AppData\Local\Temp\ccsZLEGd.s 			page 11


 416              		.loc 1 108 33 view .LVU66
 417 00e4 FFF7FEFF 		bl	AdcChannelCreate		@
 418              	.LVL21:
 419              	@ user/driver/sensor/sensor.c:108:     sensor_man.sensor.channel = AdcChannelCreate(ch);
 420              		.loc 1 108 31 view .LVU67
 421 00e8 6060     		str	r0, [r4, #4]	@ tmp121, sensor_man.sensor.channel
 422              	@ user/driver/sensor/sensor.c:109: }
 109:user/driver/sensor/sensor.c **** }
 423              		.loc 1 109 1 view .LVU68
 424 00ea 10BD     		pop	{r4, pc}	@
 425              	.L21:
 426              		.align	2
 427              	.L20:
 428 00ec 00000000 		.word	.LANCHOR0
 429              		.cfi_endproc
 430              	.LFE41:
 431              		.size	SensorCreate, .-SensorCreate
 432              		.global	sensor_man
 433              		.bss
 434              		.align	2
 435              		.set	.LANCHOR0,. + 0
 436              		.type	sensor_man, %object
 437              		.size	sensor_man, 28
 438              	sensor_man:
 439 0000 00000000 		.space	28
 439      00000000 
 439      00000000 
 439      00000000 
 439      00000000 
 440              		.text
 441              	.Letext0:
 442              		.file 2 "c:\\program files (x86)\\gnu arm embedded toolchain\\10 2021.07\\arm-none-eabi\\include\\
 443              		.file 3 "c:\\program files (x86)\\gnu arm embedded toolchain\\10 2021.07\\arm-none-eabi\\include\\
 444              		.file 4 "c:\\program files (x86)\\gnu arm embedded toolchain\\10 2021.07\\lib\\gcc\\arm-none-eabi\
 445              		.file 5 "./freertos/portable/GCC/ARM_CM3/portmacro.h"
 446              		.file 6 "./freertos/include/queue.h"
 447              		.file 7 "./user/driver/debug/debug.h"
 448              		.file 8 "./freertos/include/semphr.h"
 449              		.file 9 "./freertos/include/timers.h"
 450              		.file 10 "./user/driver/adc/adc.h"
 451              		.file 11 "user/driver/sensor/sensor.h"
 452              		.file 12 "./freertos/include/task.h"