ARM GAS  C:\Users\user\AppData\Local\Temp\ccsZLEGd.s 			page 1


   1              		.cpu cortex-m3
   2              		.eabi_attribute 20, 1	@ Tag_ABI_FP_denormal
   3              		.eabi_attribute 21, 1	@ Tag_ABI_FP_exceptions
   4              		.eabi_attribute 23, 3	@ Tag_ABI_FP_number_model
   5              		.eabi_attribute 24, 1	@ Tag_ABI_align8_needed
   6              		.eabi_attribute 25, 1	@ Tag_ABI_align8_preserved
   7              		.eabi_attribute 26, 1	@ Tag_ABI_enum_size
   8              		.eabi_attribute 30, 4	@ Tag_ABI_optimization_goals
   9              		.eabi_attribute 34, 1	@ Tag_CPU_unaligned_access
  10              		.eabi_attribute 18, 4	@ Tag_ABI_PCS_wchar_t
  11              		.file	"sensor.c"
  12              	@ GNU C17 (GNU Arm Embedded Toolchain 10.3-2021.07) version 10.3.1 20210621 (release) (arm-none-eab
  13              	@	compiled by GNU C version 7.3-win32 20180312, GMP version 6.1.0, MPFR version 3.1.4, MPC version 
  14              	
  15              	@ GGC heuristics: --param ggc-min-expand=100 --param ggc-min-heapsize=131072
  16              	@ options passed:  -I . -I ./user -I ./user/driver -I ./user/driver/modem
  17              	@ -I ./user/driver/debug -I ./user/driver/gpio -I ./user/driver/usart
  18              	@ -I ./user/driver/gps -I ./user/driver/rtc -I ./user/driver/led
  19              	@ -I ./user/driver/mux -I ./user/driver/vibration -I ./user/driver/exti
  20              	@ -I ./user/driver/adc -I ./user/driver/18B20 -I ./user/driver/http
  21              	@ -I ./user/driver/w26 -I ./user/driver/i2c -I ./user/driver/system
  22              	@ -I ./user/driver/lock -I ./user/driver/memory -I ./user/driver/spi
  23              	@ -I ./user/driver/w25q -I ./user/driver/rms -I ./user/driver/sensor
  24              	@ -I ./stm32f10x_libraries/CMSIS/CM3/CoreSupport
  25              	@ -I ./stm32f10x_libraries/CMSIS/CM3/DeviceSupport/ST/STM32F10x
  26              	@ -I ./stm32f10x_libraries/STM32F10x_StdPeriph_Driver/inc
  27              	@ -I ./stm32f10x_libraries/STM32F10x_StdPeriph_Driver -I ./freertos/include
  28              	@ -I ./freertos/portable/GCC/ARM_CM3 -imultilib thumb/v7-m/nofp
  29              	@ -iprefix c:\program files (x86)\gnu arm embedded toolchain\10 2021.07\bin\../lib/gcc/arm-none-eab
  30              	@ -isysroot c:\program files (x86)\gnu arm embedded toolchain\10 2021.07\bin\../arm-none-eabi
  31              	@ -D__USES_INITFINI__ -D STM32F10X_CL -D USE_STDPERIPH_DRIVER
  32              	@ -D HSE_VALUE=8000000 -D RUN_FROM_FLASH=1 user/driver/sensor/sensor.c
  33              	@ -mcpu=cortex-m3 -mthumb -mfloat-abi=soft -mlibarch=armv7-m -march=armv7-m
  34              	@ -auxbase-strip user/driver/sensor/sensor.o -g -gdwarf-2 -Os -Wall
  35              	@ -fomit-frame-pointer -fverbose-asm
  36              	@ options enabled:  -faggressive-loop-optimizations -fallocation-dce
  37              	@ -fauto-inc-dec -fbranch-count-reg -fcaller-saves -fcode-hoisting
  38              	@ -fcombine-stack-adjustments -fcompare-elim -fcprop-registers
  39              	@ -fcrossjumping -fcse-follow-jumps -fdefer-pop
  40              	@ -fdelete-null-pointer-checks -fdevirtualize -fdevirtualize-speculatively
  41              	@ -fdwarf2-cfi-asm -fearly-inlining -feliminate-unused-debug-symbols
  42              	@ -feliminate-unused-debug-types -fexpensive-optimizations
  43              	@ -fforward-propagate -ffp-int-builtin-inexact -ffunction-cse -fgcse
  44              	@ -fgcse-lm -fgnu-unique -fguess-branch-probability -fhoist-adjacent-loads
  45              	@ -fident -fif-conversion -fif-conversion2 -findirect-inlining -finline
  46              	@ -finline-atomics -finline-functions -finline-functions-called-once
  47              	@ -finline-small-functions -fipa-bit-cp -fipa-cp -fipa-icf
  48              	@ -fipa-icf-functions -fipa-icf-variables -fipa-profile -fipa-pure-const
  49              	@ -fipa-ra -fipa-reference -fipa-reference-addressable -fipa-sra
  50              	@ -fipa-stack-alignment -fipa-vrp -fira-hoist-pressure
  51              	@ -fira-share-save-slots -fira-share-spill-slots
  52              	@ -fisolate-erroneous-paths-dereference -fivopts -fkeep-static-consts
  53              	@ -fleading-underscore -flifetime-dse -flra-remat -fmath-errno
  54              	@ -fmerge-constants -fmerge-debug-strings -fmove-loop-invariants
  55              	@ -fomit-frame-pointer -foptimize-sibling-calls -fpartial-inlining
  56              	@ -fpeephole -fpeephole2 -fplt -fprefetch-loop-arrays -freg-struct-return
  57              	@ -freorder-blocks -freorder-functions -frerun-cse-after-loop
ARM GAS  C:\Users\user\AppData\Local\Temp\ccsZLEGd.s 			page 2


  58              	@ -fsched-critical-path-heuristic -fsched-dep-count-heuristic
  59              	@ -fsched-group-heuristic -fsched-interblock -fsched-last-insn-heuristic
  60              	@ -fsched-pressure -fsched-rank-heuristic -fsched-spec
  61              	@ -fsched-spec-insn-heuristic -fsched-stalled-insns-dep -fschedule-insns2
  62              	@ -fsection-anchors -fsemantic-interposition -fshow-column
  63              	@ -fshrink-wrap-separate -fsigned-zeros -fsplit-ivs-in-unroller
  64              	@ -fsplit-wide-types -fssa-backprop -fssa-phiopt -fstdarg-opt
  65              	@ -fstore-merging -fstrict-aliasing -fstrict-volatile-bitfields
  66              	@ -fsync-libcalls -fthread-jumps -ftoplevel-reorder -ftrapping-math
  67              	@ -ftree-bit-ccp -ftree-builtin-call-dce -ftree-ccp -ftree-ch
  68              	@ -ftree-coalesce-vars -ftree-copy-prop -ftree-cselim -ftree-dce
  69              	@ -ftree-dominator-opts -ftree-dse -ftree-forwprop -ftree-fre
  70              	@ -ftree-loop-distribute-patterns -ftree-loop-if-convert -ftree-loop-im
  71              	@ -ftree-loop-ivcanon -ftree-loop-optimize -ftree-parallelize-loops=
  72              	@ -ftree-phiprop -ftree-pre -ftree-pta -ftree-reassoc -ftree-scev-cprop
  73              	@ -ftree-sink -ftree-slsr -ftree-sra -ftree-switch-conversion
  74              	@ -ftree-tail-merge -ftree-ter -ftree-vrp -funit-at-a-time -fvar-tracking
  75              	@ -fvar-tracking-assignments -fverbose-asm -fzero-initialized-in-bss
  76              	@ -masm-syntax-unified -mbe32 -mfix-cortex-m3-ldrd -mlittle-endian
  77              	@ -mpic-data-is-text-relative -msched-prolog -mthumb -munaligned-access
  78              	@ -mvectorize-with-neon-quad
  79              	
  80              		.text
  81              	.Ltext0:
  82              		.cfi_sections	.debug_frame
  83              		.align	1
  84              		.global	SensorDebugHandler
  85              		.arch armv7-m
  86              		.syntax unified
  87              		.thumb
  88              		.thumb_func
  89              		.fpu softvfp
  90              		.type	SensorDebugHandler, %function
  91              	SensorDebugHandler:
  92              	.LVL0:
  93              	.LFB38:
  94              		.file 1 "user/driver/sensor/sensor.c"
   1:user/driver/sensor/sensor.c **** #include "vibration.h"
   2:user/driver/sensor/sensor.c **** #include <string.h>
   3:user/driver/sensor/sensor.c **** #include <stdio.h>
   4:user/driver/sensor/sensor.c **** #include <stdlib.h>
   5:user/driver/sensor/sensor.c **** #include "stm32f10x.h"
   6:user/driver/sensor/sensor.c **** #include "stm32f10x_rcc.h"
   7:user/driver/sensor/sensor.c **** #include "stm32f10x_gpio.h"
   8:user/driver/sensor/sensor.c **** #include "STM32f10x_exti.h"
   9:user/driver/sensor/sensor.c **** #include "STM32f10x_tim.h"
  10:user/driver/sensor/sensor.c **** #include "gpio.h"
  11:user/driver/sensor/sensor.c **** #include "FreeRTOS.h"
  12:user/driver/sensor/sensor.c **** #include "task.h"
  13:user/driver/sensor/sensor.c **** #include "queue.h"
  14:user/driver/sensor/sensor.c **** #include "debug.h"
  15:user/driver/sensor/sensor.c **** #include "semphr.h"
  16:user/driver/sensor/sensor.c **** #include "led.h"
  17:user/driver/sensor/sensor.c **** #include "timers.h"
  18:user/driver/sensor/sensor.c **** #include "exti.h"
  19:user/driver/sensor/sensor.c **** #include "sensor.h"
  20:user/driver/sensor/sensor.c **** #include "adc.h"
ARM GAS  C:\Users\user\AppData\Local\Temp\ccsZLEGd.s 			page 3


  21:user/driver/sensor/sensor.c **** 
  22:user/driver/sensor/sensor.c **** typedef struct
  23:user/driver/sensor/sensor.c **** {
  24:user/driver/sensor/sensor.c ****     SensorCallback callback;
  25:user/driver/sensor/sensor.c ****     AdcChannel channel;
  26:user/driver/sensor/sensor.c **** 
  27:user/driver/sensor/sensor.c ****     uint32_t temperatureval;
  28:user/driver/sensor/sensor.c ****     bool tempsense_connected;
  29:user/driver/sensor/sensor.c ****     xTimerHandle sensor_timer;
  30:user/driver/sensor/sensor.c **** 
  31:user/driver/sensor/sensor.c **** } SensorReaderPrv;
  32:user/driver/sensor/sensor.c **** 
  33:user/driver/sensor/sensor.c **** typedef struct
  34:user/driver/sensor/sensor.c **** {
  35:user/driver/sensor/sensor.c ****     SensorReaderPrv sensor;
  36:user/driver/sensor/sensor.c ****     DebugChannel dbg;
  37:user/driver/sensor/sensor.c ****     xSemaphoreHandle sensor_sem;
  38:user/driver/sensor/sensor.c **** } SensorManager;
  39:user/driver/sensor/sensor.c **** 
  40:user/driver/sensor/sensor.c **** SensorManager sensor_man;
  41:user/driver/sensor/sensor.c **** 
  42:user/driver/sensor/sensor.c **** void SensorTask(void *vibtask)
  43:user/driver/sensor/sensor.c **** {
  44:user/driver/sensor/sensor.c **** 
  45:user/driver/sensor/sensor.c ****     xTimerStart(sensor_man.sensor.sensor_timer,100);
  46:user/driver/sensor/sensor.c **** 
  47:user/driver/sensor/sensor.c ****     while (1)
  48:user/driver/sensor/sensor.c ****     {
  49:user/driver/sensor/sensor.c **** 
  50:user/driver/sensor/sensor.c ****         ChannelBuffer adata;
  51:user/driver/sensor/sensor.c ****         if (AdcChannelRead(sensor_man.sensor.channel, &adata) == ADC_STATUS_SUCCESS)
  52:user/driver/sensor/sensor.c ****         {
  53:user/driver/sensor/sensor.c ****             uint32_t temp_avg = 0;
  54:user/driver/sensor/sensor.c ****             for (size_t i = 0; i < ADC_BUFFER_MAX; i++)
  55:user/driver/sensor/sensor.c ****             {
  56:user/driver/sensor/sensor.c ****                 temp_avg = temp_avg + adata.buffer[i];
  57:user/driver/sensor/sensor.c ****             }
  58:user/driver/sensor/sensor.c **** 
  59:user/driver/sensor/sensor.c ****             uint16_t tempvoltage = temp_avg / ADC_BUFFER_MAX;
  60:user/driver/sensor/sensor.c **** 
  61:user/driver/sensor/sensor.c ****             //DebugPrintf(sensor_man.dbg, "Temperature :%d\n", tempvoltage);
  62:user/driver/sensor/sensor.c ****             sensor_man.sensor.temperatureval=tempvoltage;
  63:user/driver/sensor/sensor.c ****             
  64:user/driver/sensor/sensor.c ****         }
  65:user/driver/sensor/sensor.c **** 
  66:user/driver/sensor/sensor.c ****         if (xSemaphoreTake(sensor_man.sensor_sem, 1000) == pdTRUE)
  67:user/driver/sensor/sensor.c ****         {
  68:user/driver/sensor/sensor.c ****            
  69:user/driver/sensor/sensor.c ****             if (sensor_man.sensor.callback != NULL)
  70:user/driver/sensor/sensor.c ****             {
  71:user/driver/sensor/sensor.c ****                 //DebugPrintf(sensor_man.dbg, "Temperature :%d\n", sensor_man.sensor.temperatureval
  72:user/driver/sensor/sensor.c ****                 sensor_man.sensor.callback(0, true, sensor_man.sensor.temperatureval);  
  73:user/driver/sensor/sensor.c ****             }
  74:user/driver/sensor/sensor.c ****             
  75:user/driver/sensor/sensor.c ****         }
  76:user/driver/sensor/sensor.c ****         else
  77:user/driver/sensor/sensor.c ****         {
ARM GAS  C:\Users\user\AppData\Local\Temp\ccsZLEGd.s 			page 4


  78:user/driver/sensor/sensor.c ****         }
  79:user/driver/sensor/sensor.c ****     }
  80:user/driver/sensor/sensor.c **** }
  81:user/driver/sensor/sensor.c **** 
  82:user/driver/sensor/sensor.c **** void SensorDebugHandler(char *reply, const char **list, uint16_t len)
  83:user/driver/sensor/sensor.c **** {
  95              		.loc 1 83 1 view -0
  96              		.cfi_startproc
  97              		@ args = 0, pretend = 0, frame = 0
  98              		@ frame_needed = 0, uses_anonymous_args = 0
  99              		@ link register save eliminated.
  84:user/driver/sensor/sensor.c **** 
  85:user/driver/sensor/sensor.c **** }
 100              		.loc 1 85 1 view .LVU1
 101 0000 7047     		bx	lr	@
 102              		.cfi_endproc
 103              	.LFE38:
 104              		.size	SensorDebugHandler, .-SensorDebugHandler
 105              		.align	1
 106              		.global	SensorTask
 107              		.syntax unified
 108              		.thumb
 109              		.thumb_func
 110              		.fpu softvfp
 111              		.type	SensorTask, %function
 112              	SensorTask:
 113              	.LVL1:
 114              	.LFB37:
  43:user/driver/sensor/sensor.c **** 
 115              		.loc 1 43 1 view -0
 116              		.cfi_startproc
 117              		@ args = 0, pretend = 0, frame = 136
 118              		@ frame_needed = 0, uses_anonymous_args = 0
  45:user/driver/sensor/sensor.c **** 
 119              		.loc 1 45 5 view .LVU3
 120              	@ user/driver/sensor/sensor.c:43: {
  43:user/driver/sensor/sensor.c **** 
 121              		.loc 1 43 1 is_stmt 0 view .LVU4
 122 0002 30B5     		push	{r4, r5, lr}	@
 123              	.LCFI0:
 124              		.cfi_def_cfa_offset 12
 125              		.cfi_offset 4, -12
 126              		.cfi_offset 5, -8
 127              		.cfi_offset 14, -4
 128              	@ user/driver/sensor/sensor.c:45:     xTimerStart(sensor_man.sensor.sensor_timer,100);
  45:user/driver/sensor/sensor.c **** 
 129              		.loc 1 45 5 view .LVU5
 130 0004 164C     		ldr	r4, .L11	@ tmp129,
 131              	@ user/driver/sensor/sensor.c:43: {
  43:user/driver/sensor/sensor.c **** 
 132              		.loc 1 43 1 view .LVU6
 133 0006 A5B0     		sub	sp, sp, #148	@,,
 134              	.LCFI1:
 135              		.cfi_def_cfa_offset 160
 136              	@ user/driver/sensor/sensor.c:45:     xTimerStart(sensor_man.sensor.sensor_timer,100);
  45:user/driver/sensor/sensor.c **** 
 137              		.loc 1 45 5 view .LVU7
ARM GAS  C:\Users\user\AppData\Local\Temp\ccsZLEGd.s 			page 5


 138 0008 2569     		ldr	r5, [r4, #16]	@ _1, sensor_man.sensor.sensor_timer
 139 000a FFF7FEFF 		bl	xTaskGetTickCount		@
 140              	.LVL2:
  45:user/driver/sensor/sensor.c **** 
 141              		.loc 1 45 5 view .LVU8
 142 000e 6423     		movs	r3, #100	@ tmp130,
 143 0010 0246     		mov	r2, r0	@ tmp150,
 144 0012 0093     		str	r3, [sp]	@ tmp130,
 145 0014 2846     		mov	r0, r5	@, _1
 146 0016 0023     		movs	r3, #0	@,
 147 0018 0121     		movs	r1, #1	@,
 148 001a FFF7FEFF 		bl	xTimerGenericCommand		@
 149              	.LVL3:
 150              	.LBB2:
 151              	@ user/driver/sensor/sensor.c:51:         if (AdcChannelRead(sensor_man.sensor.channel, &adata) == 
  51:user/driver/sensor/sensor.c ****         {
 152              		.loc 1 51 13 view .LVU9
 153 001e 03AD     		add	r5, sp, #12	@ tmp131,,
 154              	.L6:
 155              	.LBE2:
  47:user/driver/sensor/sensor.c ****     {
 156              		.loc 1 47 5 is_stmt 1 view .LVU10
 157              	.LBB5:
  50:user/driver/sensor/sensor.c ****         if (AdcChannelRead(sensor_man.sensor.channel, &adata) == ADC_STATUS_SUCCESS)
 158              		.loc 1 50 9 view .LVU11
  51:user/driver/sensor/sensor.c ****         {
 159              		.loc 1 51 9 view .LVU12
 160              	@ user/driver/sensor/sensor.c:51:         if (AdcChannelRead(sensor_man.sensor.channel, &adata) == 
  51:user/driver/sensor/sensor.c ****         {
 161              		.loc 1 51 13 is_stmt 0 view .LVU13
 162 0020 2946     		mov	r1, r5	@, tmp131
 163 0022 6068     		ldr	r0, [r4, #4]	@, sensor_man.sensor.channel
 164 0024 FFF7FEFF 		bl	AdcChannelRead		@
 165              	.LVL4:
 166              	@ user/driver/sensor/sensor.c:51:         if (AdcChannelRead(sensor_man.sensor.channel, &adata) == 
  51:user/driver/sensor/sensor.c ****         {
 167              		.loc 1 51 12 view .LVU14
 168 0028 48B9     		cbnz	r0, .L3	@ tmp133,
 169 002a 0123     		movs	r3, #1	@ ivtmp.11,
 170              	.L4:
 171              	.LVL5:
 172              	.LBB3:
 173              	.LBB4:
  56:user/driver/sensor/sensor.c ****             }
 174              		.loc 1 56 17 is_stmt 1 discriminator 3 view .LVU15
 175              	@ user/driver/sensor/sensor.c:56:                 temp_avg = temp_avg + adata.buffer[i];
  56:user/driver/sensor/sensor.c ****             }
 176              		.loc 1 56 51 is_stmt 0 discriminator 3 view .LVU16
 177 002c 35F81320 		ldrh	r2, [r5, r3, lsl #1]	@ MEM[symbol: adata, index: ivtmp.11_30, step: 2, offset: 0B], MEM[symbo
 178              	@ user/driver/sensor/sensor.c:54:             for (size_t i = 0; i < ADC_BUFFER_MAX; i++)
  54:user/driver/sensor/sensor.c ****             {
 179              		.loc 1 54 13 discriminator 3 view .LVU17
 180 0030 0133     		adds	r3, r3, #1	@ ivtmp.11, ivtmp.11,
 181              	.LVL6:
  54:user/driver/sensor/sensor.c ****             {
 182              		.loc 1 54 13 discriminator 3 view .LVU18
 183 0032 412B     		cmp	r3, #65	@ ivtmp.11,
ARM GAS  C:\Users\user\AppData\Local\Temp\ccsZLEGd.s 			page 6


 184              	@ user/driver/sensor/sensor.c:56:                 temp_avg = temp_avg + adata.buffer[i];
  56:user/driver/sensor/sensor.c ****             }
 185              		.loc 1 56 26 discriminator 3 view .LVU19
 186 0034 1044     		add	r0, r0, r2	@ temp_avg, MEM[symbol: adata, index: ivtmp.11_30, step: 2, offset: 0B]
 187              	.LVL7:
  54:user/driver/sensor/sensor.c ****             {
 188              		.loc 1 54 52 is_stmt 1 discriminator 3 view .LVU20
  54:user/driver/sensor/sensor.c ****             {
 189              		.loc 1 54 32 discriminator 3 view .LVU21
 190              	@ user/driver/sensor/sensor.c:54:             for (size_t i = 0; i < ADC_BUFFER_MAX; i++)
  54:user/driver/sensor/sensor.c ****             {
 191              		.loc 1 54 13 is_stmt 0 discriminator 3 view .LVU22
 192 0036 F9D1     		bne	.L4		@,
 193              	.LBE4:
  59:user/driver/sensor/sensor.c **** 
 194              		.loc 1 59 13 is_stmt 1 view .LVU23
 195              	.LVL8:
  62:user/driver/sensor/sensor.c ****             
 196              		.loc 1 62 13 view .LVU24
 197              	@ user/driver/sensor/sensor.c:62:             sensor_man.sensor.temperatureval=tempvoltage;
  62:user/driver/sensor/sensor.c ****             
 198              		.loc 1 62 45 is_stmt 0 view .LVU25
 199 0038 C0F38F10 		ubfx	r0, r0, #6, #16	@ tmp138, temp_avg,,
 200              	.LVL9:
  62:user/driver/sensor/sensor.c ****             
 201              		.loc 1 62 45 view .LVU26
 202 003c A060     		str	r0, [r4, #8]	@ tmp138, sensor_man.sensor.temperatureval
 203              	.L3:
  62:user/driver/sensor/sensor.c ****             
 204              		.loc 1 62 45 view .LVU27
 205              	.LBE3:
  66:user/driver/sensor/sensor.c ****         {
 206              		.loc 1 66 9 is_stmt 1 view .LVU28
 207              	@ user/driver/sensor/sensor.c:66:         if (xSemaphoreTake(sensor_man.sensor_sem, 1000) == pdTRUE
  66:user/driver/sensor/sensor.c ****         {
 208              		.loc 1 66 13 is_stmt 0 view .LVU29
 209 003e 0023     		movs	r3, #0	@,
 210 0040 4FF47A72 		mov	r2, #1000	@,
 211 0044 1946     		mov	r1, r3	@,
 212 0046 A069     		ldr	r0, [r4, #24]	@, sensor_man.sensor_sem
 213 0048 FFF7FEFF 		bl	xQueueGenericReceive		@
 214              	.LVL10:
 215              	@ user/driver/sensor/sensor.c:66:         if (xSemaphoreTake(sensor_man.sensor_sem, 1000) == pdTRUE
  66:user/driver/sensor/sensor.c ****         {
 216              		.loc 1 66 12 view .LVU30
 217 004c 0128     		cmp	r0, #1	@ _9,
 218              	@ user/driver/sensor/sensor.c:66:         if (xSemaphoreTake(sensor_man.sensor_sem, 1000) == pdTRUE
  66:user/driver/sensor/sensor.c ****         {
 219              		.loc 1 66 13 view .LVU31
 220 004e 0146     		mov	r1, r0	@ _9, tmp152
 221              	@ user/driver/sensor/sensor.c:66:         if (xSemaphoreTake(sensor_man.sensor_sem, 1000) == pdTRUE
  66:user/driver/sensor/sensor.c ****         {
 222              		.loc 1 66 12 view .LVU32
 223 0050 E6D1     		bne	.L6		@,
  69:user/driver/sensor/sensor.c ****             {
 224              		.loc 1 69 13 is_stmt 1 view .LVU33
 225              	@ user/driver/sensor/sensor.c:69:             if (sensor_man.sensor.callback != NULL)
ARM GAS  C:\Users\user\AppData\Local\Temp\ccsZLEGd.s 			page 7


  69:user/driver/sensor/sensor.c ****             {
 226              		.loc 1 69 34 is_stmt 0 view .LVU34
 227 0052 2368     		ldr	r3, [r4]	@ _10, sensor_man.sensor.callback
 228              	@ user/driver/sensor/sensor.c:69:             if (sensor_man.sensor.callback != NULL)
  69:user/driver/sensor/sensor.c ****             {
 229              		.loc 1 69 16 view .LVU35
 230 0054 002B     		cmp	r3, #0	@ _10
 231 0056 E3D0     		beq	.L6	@
  72:user/driver/sensor/sensor.c ****             }
 232              		.loc 1 72 17 is_stmt 1 view .LVU36
 233 0058 0020     		movs	r0, #0	@,
 234 005a 2289     		ldrh	r2, [r4, #8]	@, sensor_man.sensor.temperatureval
 235 005c 9847     		blx	r3		@ _10
 236              	.LVL11:
  78:user/driver/sensor/sensor.c ****     }
 237              		.loc 1 78 9 view .LVU37
 238              	.LBE5:
  47:user/driver/sensor/sensor.c ****     {
 239              		.loc 1 47 11 view .LVU38
 240              	@ user/driver/sensor/sensor.c:48:     {
  48:user/driver/sensor/sensor.c **** 
 241              		.loc 1 48 5 is_stmt 0 view .LVU39
 242 005e DFE7     		b	.L6		@
 243              	.L12:
 244              		.align	2
 245              	.L11:
 246 0060 00000000 		.word	.LANCHOR0
 247              		.cfi_endproc
 248              	.LFE37:
 249              		.size	SensorTask, .-SensorTask
 250              		.align	1
 251              		.global	SensorTimerHandler
 252              		.syntax unified
 253              		.thumb
 254              		.thumb_func
 255              		.fpu softvfp
 256              		.type	SensorTimerHandler, %function
 257              	SensorTimerHandler:
 258              	.LVL12:
 259              	.LFB39:
  86:user/driver/sensor/sensor.c **** 
  87:user/driver/sensor/sensor.c **** 
  88:user/driver/sensor/sensor.c **** 
  89:user/driver/sensor/sensor.c **** void SensorTimerHandler(xTimerHandle timer)
  90:user/driver/sensor/sensor.c **** {
 260              		.loc 1 90 1 is_stmt 1 view -0
 261              		.cfi_startproc
 262              		@ args = 0, pretend = 0, frame = 0
 263              		@ frame_needed = 0, uses_anonymous_args = 0
 264              		@ link register save eliminated.
  91:user/driver/sensor/sensor.c ****    // DebugPrintf(sensor_man.dbg, "Timer ok\n");
  92:user/driver/sensor/sensor.c ****     xSemaphoreGive(sensor_man.sensor_sem);
 265              		.loc 1 92 5 view .LVU41
 266 0064 0023     		movs	r3, #0	@,
 267 0066 0348     		ldr	r0, .L14	@ tmp115,
 268              	.LVL13:
 269              		.loc 1 92 5 is_stmt 0 view .LVU42
ARM GAS  C:\Users\user\AppData\Local\Temp\ccsZLEGd.s 			page 8


 270 0068 1A46     		mov	r2, r3	@,
 271 006a 1946     		mov	r1, r3	@,
 272 006c 8069     		ldr	r0, [r0, #24]	@, sensor_man.sensor_sem
 273 006e FFF7FEBF 		b	xQueueGenericSend		@
 274              	.LVL14:
 275              	.L15:
 276 0072 00BF     		.align	2
 277              	.L14:
 278 0074 00000000 		.word	.LANCHOR0
 279              		.cfi_endproc
 280              	.LFE39:
 281              		.size	SensorTimerHandler, .-SensorTimerHandler
 282              		.section	.rodata.str1.1,"aMS",%progbits,1
 283              	.LC0:
 284 0000 53454E53 		.ascii	"SENSOR\000"
 284      4F5200
 285              	.LC1:
 286 0007 54656D70 		.ascii	"Temp\000"
 286      00
 287              	.LC2:
 288 000c 73656E73 		.ascii	"sensortimer\000"
 288      6F727469 
 288      6D657200 
 289              		.text
 290              		.align	1
 291              		.global	SensorInit
 292              		.syntax unified
 293              		.thumb
 294              		.thumb_func
 295              		.fpu softvfp
 296              		.type	SensorInit, %function
 297              	SensorInit:
 298              	.LFB40:
  93:user/driver/sensor/sensor.c **** }
  94:user/driver/sensor/sensor.c **** 
  95:user/driver/sensor/sensor.c **** 
  96:user/driver/sensor/sensor.c **** void SensorInit()
  97:user/driver/sensor/sensor.c **** {
 299              		.loc 1 97 1 is_stmt 1 view -0
 300              		.cfi_startproc
 301              		@ args = 0, pretend = 0, frame = 0
 302              		@ frame_needed = 0, uses_anonymous_args = 0
  98:user/driver/sensor/sensor.c ****     sensor_man.dbg = DebugRegister("SENSOR", SensorDebugHandler);
 303              		.loc 1 98 5 view .LVU44
 304              	@ user/driver/sensor/sensor.c:97: {
  97:user/driver/sensor/sensor.c ****     sensor_man.dbg = DebugRegister("SENSOR", SensorDebugHandler);
 305              		.loc 1 97 1 is_stmt 0 view .LVU45
 306 0078 37B5     		push	{r0, r1, r2, r4, r5, lr}	@
 307              	.LCFI2:
 308              		.cfi_def_cfa_offset 24
 309              		.cfi_offset 4, -12
 310              		.cfi_offset 5, -8
 311              		.cfi_offset 14, -4
 312              	@ user/driver/sensor/sensor.c:98:     sensor_man.dbg = DebugRegister("SENSOR", SensorDebugHandler);
 313              		.loc 1 98 22 view .LVU46
 314 007a 1149     		ldr	r1, .L17	@,
 315 007c 1148     		ldr	r0, .L17+4	@,
ARM GAS  C:\Users\user\AppData\Local\Temp\ccsZLEGd.s 			page 9


 316 007e FFF7FEFF 		bl	DebugRegister		@
 317              	.LVL15:
 318              	@ user/driver/sensor/sensor.c:100:     xTaskCreate(SensorTask, "Temp", 512, NULL, 2, NULL);
  99:user/driver/sensor/sensor.c ****     //reader_man.w26_sem = xSemaphoreCreateBinary();
 100:user/driver/sensor/sensor.c ****     xTaskCreate(SensorTask, "Temp", 512, NULL, 2, NULL);
 319              		.loc 1 100 5 view .LVU47
 320 0082 0024     		movs	r4, #0	@ tmp121,
 321 0084 0223     		movs	r3, #2	@ tmp122,
 322              	@ user/driver/sensor/sensor.c:98:     sensor_man.dbg = DebugRegister("SENSOR", SensorDebugHandler);
  98:user/driver/sensor/sensor.c ****     //reader_man.w26_sem = xSemaphoreCreateBinary();
 323              		.loc 1 98 20 view .LVU48
 324 0086 104D     		ldr	r5, .L17+8	@ tmp118,
 325              	@ user/driver/sensor/sensor.c:100:     xTaskCreate(SensorTask, "Temp", 512, NULL, 2, NULL);
 326              		.loc 1 100 5 view .LVU49
 327 0088 CDE90034 		strd	r3, r4, [sp]	@ tmp122, tmp121,
 328              	@ user/driver/sensor/sensor.c:98:     sensor_man.dbg = DebugRegister("SENSOR", SensorDebugHandler);
  98:user/driver/sensor/sensor.c ****     //reader_man.w26_sem = xSemaphoreCreateBinary();
 329              		.loc 1 98 20 view .LVU50
 330 008c 6861     		str	r0, [r5, #20]	@ tmp127, sensor_man.dbg
 331              		.loc 1 100 5 is_stmt 1 view .LVU51
 332 008e 2346     		mov	r3, r4	@, tmp121
 333 0090 4FF40072 		mov	r2, #512	@,
 334 0094 0D49     		ldr	r1, .L17+12	@,
 335 0096 0E48     		ldr	r0, .L17+16	@,
 336 0098 FFF7FEFF 		bl	xTaskCreate		@
 337              	.LVL16:
 101:user/driver/sensor/sensor.c ****     sensor_man.sensor.sensor_timer = xTimerCreate("sensortimer", 10000, pdTRUE, NULL, SensorTimerHa
 338              		.loc 1 101 5 view .LVU52
 339              	@ user/driver/sensor/sensor.c:101:     sensor_man.sensor.sensor_timer = xTimerCreate("sensortimer",
 340              		.loc 1 101 38 is_stmt 0 view .LVU53
 341 009c 0D4B     		ldr	r3, .L17+20	@ tmp124,
 342 009e 0122     		movs	r2, #1	@,
 343 00a0 0093     		str	r3, [sp]	@ tmp124,
 344 00a2 42F21071 		movw	r1, #10000	@,
 345 00a6 2346     		mov	r3, r4	@, tmp121
 346 00a8 0B48     		ldr	r0, .L17+24	@,
 347 00aa FFF7FEFF 		bl	xTimerCreate		@
 348              	.LVL17:
 349              	@ user/driver/sensor/sensor.c:102:     sensor_man.sensor_sem = xSemaphoreCreateBinary();
 102:user/driver/sensor/sensor.c ****     sensor_man.sensor_sem = xSemaphoreCreateBinary();
 350              		.loc 1 102 29 view .LVU54
 351 00ae 0322     		movs	r2, #3	@,
 352              	@ user/driver/sensor/sensor.c:101:     sensor_man.sensor.sensor_timer = xTimerCreate("sensortimer",
 101:user/driver/sensor/sensor.c ****     sensor_man.sensor.sensor_timer = xTimerCreate("sensortimer", 10000, pdTRUE, NULL, SensorTimerHa
 353              		.loc 1 101 36 view .LVU55
 354 00b0 2861     		str	r0, [r5, #16]	@ tmp128, sensor_man.sensor.sensor_timer
 355              		.loc 1 102 5 is_stmt 1 view .LVU56
 356              	@ user/driver/sensor/sensor.c:102:     sensor_man.sensor_sem = xSemaphoreCreateBinary();
 357              		.loc 1 102 29 is_stmt 0 view .LVU57
 358 00b2 2146     		mov	r1, r4	@, tmp121
 359 00b4 0120     		movs	r0, #1	@,
 360 00b6 FFF7FEFF 		bl	xQueueGenericCreate		@
 361              	.LVL18:
 362              	@ user/driver/sensor/sensor.c:102:     sensor_man.sensor_sem = xSemaphoreCreateBinary();
 363              		.loc 1 102 27 view .LVU58
 364 00ba A861     		str	r0, [r5, #24]	@ tmp129, sensor_man.sensor_sem
 365              	@ user/driver/sensor/sensor.c:103: }
ARM GAS  C:\Users\user\AppData\Local\Temp\ccsZLEGd.s 			page 10


 103:user/driver/sensor/sensor.c **** }
 366              		.loc 1 103 1 view .LVU59
 367 00bc 03B0     		add	sp, sp, #12	@,,
 368              	.LCFI3:
 369              		.cfi_def_cfa_offset 12
 370              		@ sp needed	@
 371 00be 30BD     		pop	{r4, r5, pc}	@
 372              	.L18:
 373              		.align	2
 374              	.L17:
 375 00c0 00000000 		.word	SensorDebugHandler
 376 00c4 00000000 		.word	.LC0
 377 00c8 00000000 		.word	.LANCHOR0
 378 00cc 07000000 		.word	.LC1
 379 00d0 00000000 		.word	SensorTask
 380 00d4 00000000 		.word	SensorTimerHandler
 381 00d8 0C000000 		.word	.LC2
 382              		.cfi_endproc
 383              	.LFE40:
 384              		.size	SensorInit, .-SensorInit
 385              		.align	1
 386              		.global	SensorCreate
 387              		.syntax unified
 388              		.thumb
 389              		.thumb_func
 390              		.fpu softvfp
 391              		.type	SensorCreate, %function
 392              	SensorCreate:
 393              	.LVL19:
 394              	.LFB41:
 104:user/driver/sensor/sensor.c **** 
 105:user/driver/sensor/sensor.c **** Sensor SensorCreate(SensorCallback callback, AdcChannelId ch)
 106:user/driver/sensor/sensor.c **** {
 395              		.loc 1 106 1 is_stmt 1 view -0
 396              		.cfi_startproc
 397              		@ args = 0, pretend = 0, frame = 0
 398              		@ frame_needed = 0, uses_anonymous_args = 0
 107:user/driver/sensor/sensor.c **** 	sensor_man.sensor.callback = callback;
 399              		.loc 1 107 2 view .LVU61
 400              	@ user/driver/sensor/sensor.c:106: {
 106:user/driver/sensor/sensor.c **** 	sensor_man.sensor.callback = callback;
 401              		.loc 1 106 1 is_stmt 0 view .LVU62
 402 00dc 10B5     		push	{r4, lr}	@
 403              	.LCFI4:
 404              		.cfi_def_cfa_offset 8
 405              		.cfi_offset 4, -8
 406              		.cfi_offset 14, -4
 407              	@ user/driver/sensor/sensor.c:107: 	sensor_man.sensor.callback = callback;
 408              		.loc 1 107 29 view .LVU63
 409 00de 034C     		ldr	r4, .L20	@ tmp117,
 410 00e0 2060     		str	r0, [r4]	@ tmp119, sensor_man.sensor.callback
 108:user/driver/sensor/sensor.c ****     sensor_man.sensor.channel = AdcChannelCreate(ch);
 411              		.loc 1 108 5 is_stmt 1 view .LVU64
 412              	@ user/driver/sensor/sensor.c:108:     sensor_man.sensor.channel = AdcChannelCreate(ch);
 413              		.loc 1 108 33 is_stmt 0 view .LVU65
 414 00e2 0846     		mov	r0, r1	@, tmp120
 415              	.LVL20:
ARM GAS  C:\Users\user\AppData\Local\Temp\ccsZLEGd.s 			page 11


 416              		.loc 1 108 33 view .LVU66
 417 00e4 FFF7FEFF 		bl	AdcChannelCreate		@
 418              	.LVL21:
 419              	@ user/driver/sensor/sensor.c:108:     sensor_man.sensor.channel = AdcChannelCreate(ch);
 420              		.loc 1 108 31 view .LVU67
 421 00e8 6060     		str	r0, [r4, #4]	@ tmp121, sensor_man.sensor.channel
 422              	@ user/driver/sensor/sensor.c:109: }
 109:user/driver/sensor/sensor.c **** }
 423              		.loc 1 109 1 view .LVU68
 424 00ea 10BD     		pop	{r4, pc}	@
 425              	.L21:
 426              		.align	2
 427              	.L20:
 428 00ec 00000000 		.word	.LANCHOR0
 429              		.cfi_endproc
 430              	.LFE41:
 431              		.size	SensorCreate, .-SensorCreate
 432              		.global	sensor_man
 433              		.bss
 434              		.align	2
 435              		.set	.LANCHOR0,. + 0
 436              		.type	sensor_man, %object
 437              		.size	sensor_man, 28
 438              	sensor_man:
 439 0000 00000000 		.space	28
 439      00000000 
 439      00000000 
 439      00000000 
 439      00000000 
 440              		.text
 441              	.Letext0:
 442              		.file 2 "c:\\program files (x86)\\gnu arm embedded toolchain\\10 2021.07\\arm-none-eabi\\include\\
 443              		.file 3 "c:\\program files (x86)\\gnu arm embedded toolchain\\10 2021.07\\arm-none-eabi\\include\\
 444              		.file 4 "c:\\program files (x86)\\gnu arm embedded toolchain\\10 2021.07\\lib\\gcc\\arm-none-eabi\
 445              		.file 5 "./freertos/portable/GCC/ARM_CM3/portmacro.h"
 446              		.file 6 "./freertos/include/queue.h"
 447              		.file 7 "./user/driver/debug/debug.h"
 448              		.file 8 "./freertos/include/semphr.h"
 449              		.file 9 "./freertos/include/timers.h"
 450              		.file 10 "./user/driver/adc/adc.h"
 451              		.file 11 "user/driver/sensor/sensor.h"
 452              		.file 12 "./freertos/include/task.h"
 453              		.section	.debug_info,"",%progbits
 454              	.Ldebug_info0:
 455 0000 5D060000 		.4byte	0x65d
 456 0004 0200     		.2byte	0x2
 457 0006 00000000 		.4byte	.Ldebug_abbrev0
 458 000a 04       		.byte	0x4
 459 000b 01       		.uleb128 0x1
 460 000c 71040000 		.4byte	.LASF83
 461 0010 0C       		.byte	0xc
 462 0011 33040000 		.4byte	.LASF84
 463 0015 E2030000 		.4byte	.LASF85
 464 0019 00000000 		.4byte	.Ltext0
 465 001d F0000000 		.4byte	.Letext0
 466 0021 00000000 		.4byte	.Ldebug_line0
 467 0025 02       		.uleb128 0x2
ARM GAS  C:\Users\user\AppData\Local\Temp\ccsZLEGd.s 			page 12


 468 0026 01       		.byte	0x1
 469 0027 06       		.byte	0x6
 470 0028 CE020000 		.4byte	.LASF0
 471 002c 03       		.uleb128 0x3
 472 002d DD010000 		.4byte	.LASF3
 473 0031 02       		.byte	0x2
 474 0032 2B       		.byte	0x2b
 475 0033 18       		.byte	0x18
 476 0034 38000000 		.4byte	0x38
 477 0038 02       		.uleb128 0x2
 478 0039 01       		.byte	0x1
 479 003a 08       		.byte	0x8
 480 003b 58020000 		.4byte	.LASF1
 481 003f 02       		.uleb128 0x2
 482 0040 02       		.byte	0x2
 483 0041 05       		.byte	0x5
 484 0042 5B000000 		.4byte	.LASF2
 485 0046 03       		.uleb128 0x3
 486 0047 F5000000 		.4byte	.LASF4
 487 004b 02       		.byte	0x2
 488 004c 39       		.byte	0x39
 489 004d 19       		.byte	0x19
 490 004e 52000000 		.4byte	0x52
 491 0052 02       		.uleb128 0x2
 492 0053 02       		.byte	0x2
 493 0054 07       		.byte	0x7
 494 0055 30030000 		.4byte	.LASF5
 495 0059 02       		.uleb128 0x2
 496 005a 04       		.byte	0x4
 497 005b 05       		.byte	0x5
 498 005c C3010000 		.4byte	.LASF6
 499 0060 03       		.uleb128 0x3
 500 0061 EA000000 		.4byte	.LASF7
 501 0065 02       		.byte	0x2
 502 0066 4F       		.byte	0x4f
 503 0067 19       		.byte	0x19
 504 0068 6C000000 		.4byte	0x6c
 505 006c 02       		.uleb128 0x2
 506 006d 04       		.byte	0x4
 507 006e 07       		.byte	0x7
 508 006f B6030000 		.4byte	.LASF8
 509 0073 02       		.uleb128 0x2
 510 0074 08       		.byte	0x8
 511 0075 05       		.byte	0x5
 512 0076 6B010000 		.4byte	.LASF9
 513 007a 02       		.uleb128 0x2
 514 007b 08       		.byte	0x8
 515 007c 07       		.byte	0x7
 516 007d DA020000 		.4byte	.LASF10
 517 0081 04       		.uleb128 0x4
 518 0082 04       		.byte	0x4
 519 0083 05       		.byte	0x5
 520 0084 696E7400 		.ascii	"int\000"
 521 0088 02       		.uleb128 0x2
 522 0089 04       		.byte	0x4
 523 008a 07       		.byte	0x7
 524 008b 0F030000 		.4byte	.LASF11
ARM GAS  C:\Users\user\AppData\Local\Temp\ccsZLEGd.s 			page 13


 525 008f 03       		.uleb128 0x3
 526 0090 00010000 		.4byte	.LASF12
 527 0094 03       		.byte	0x3
 528 0095 18       		.byte	0x18
 529 0096 13       		.byte	0x13
 530 0097 2C000000 		.4byte	0x2c
 531 009b 03       		.uleb128 0x3
 532 009c 1C030000 		.4byte	.LASF13
 533 00a0 03       		.byte	0x3
 534 00a1 24       		.byte	0x24
 535 00a2 14       		.byte	0x14
 536 00a3 46000000 		.4byte	0x46
 537 00a7 03       		.uleb128 0x3
 538 00a8 F1020000 		.4byte	.LASF14
 539 00ac 03       		.byte	0x3
 540 00ad 30       		.byte	0x30
 541 00ae 14       		.byte	0x14
 542 00af 60000000 		.4byte	0x60
 543 00b3 05       		.uleb128 0x5
 544 00b4 04       		.byte	0x4
 545 00b5 03       		.uleb128 0x3
 546 00b6 65000000 		.4byte	.LASF15
 547 00ba 04       		.byte	0x4
 548 00bb D1       		.byte	0xd1
 549 00bc 17       		.byte	0x17
 550 00bd 88000000 		.4byte	0x88
 551 00c1 02       		.uleb128 0x2
 552 00c2 08       		.byte	0x8
 553 00c3 04       		.byte	0x4
 554 00c4 19020000 		.4byte	.LASF16
 555 00c8 06       		.uleb128 0x6
 556 00c9 04       		.byte	0x4
 557 00ca CE000000 		.4byte	0xce
 558 00ce 02       		.uleb128 0x2
 559 00cf 01       		.byte	0x1
 560 00d0 08       		.byte	0x8
 561 00d1 43030000 		.4byte	.LASF17
 562 00d5 07       		.uleb128 0x7
 563 00d6 CE000000 		.4byte	0xce
 564 00da 06       		.uleb128 0x6
 565 00db 04       		.byte	0x4
 566 00dc D5000000 		.4byte	0xd5
 567 00e0 03       		.uleb128 0x3
 568 00e1 25030000 		.4byte	.LASF18
 569 00e5 05       		.byte	0x5
 570 00e6 62       		.byte	0x62
 571 00e7 0E       		.byte	0xe
 572 00e8 59000000 		.4byte	0x59
 573 00ec 03       		.uleb128 0x3
 574 00ed D6030000 		.4byte	.LASF19
 575 00f1 05       		.byte	0x5
 576 00f2 63       		.byte	0x63
 577 00f3 17       		.byte	0x17
 578 00f4 6C000000 		.4byte	0x6c
 579 00f8 03       		.uleb128 0x3
 580 00f9 0E020000 		.4byte	.LASF20
 581 00fd 05       		.byte	0x5
ARM GAS  C:\Users\user\AppData\Local\Temp\ccsZLEGd.s 			page 14


 582 00fe 69       		.byte	0x69
 583 00ff 13       		.byte	0x13
 584 0100 A7000000 		.4byte	0xa7
 585 0104 03       		.uleb128 0x3
 586 0105 F9010000 		.4byte	.LASF21
 587 0109 06       		.byte	0x6
 588 010a 58       		.byte	0x58
 589 010b 10       		.byte	0x10
 590 010c B3000000 		.4byte	0xb3
 591 0110 03       		.uleb128 0x3
 592 0111 DD000000 		.4byte	.LASF22
 593 0115 07       		.byte	0x7
 594 0116 09       		.byte	0x9
 595 0117 10       		.byte	0x10
 596 0118 B3000000 		.4byte	0xb3
 597 011c 06       		.uleb128 0x6
 598 011d 04       		.byte	0x4
 599 011e DA000000 		.4byte	0xda
 600 0122 03       		.uleb128 0x3
 601 0123 39020000 		.4byte	.LASF23
 602 0127 08       		.byte	0x8
 603 0128 4F       		.byte	0x4f
 604 0129 17       		.byte	0x17
 605 012a 04010000 		.4byte	0x104
 606 012e 03       		.uleb128 0x3
 607 012f 3E000000 		.4byte	.LASF24
 608 0133 09       		.byte	0x9
 609 0134 76       		.byte	0x76
 610 0135 10       		.byte	0x10
 611 0136 B3000000 		.4byte	0xb3
 612 013a 03       		.uleb128 0x3
 613 013b 05040000 		.4byte	.LASF25
 614 013f 0A       		.byte	0xa
 615 0140 0B       		.byte	0xb
 616 0141 10       		.byte	0x10
 617 0142 B3000000 		.4byte	0xb3
 618 0146 08       		.uleb128 0x8
 619 0147 07       		.byte	0x7
 620 0148 01       		.byte	0x1
 621 0149 38000000 		.4byte	0x38
 622 014d 0A       		.byte	0xa
 623 014e 0F       		.byte	0xf
 624 014f 01       		.byte	0x1
 625 0150 C1010000 		.4byte	0x1c1
 626 0154 09       		.uleb128 0x9
 627 0155 4B020000 		.4byte	.LASF26
 628 0159 00       		.byte	0
 629 015a 09       		.uleb128 0x9
 630 015b 1E000000 		.4byte	.LASF27
 631 015f 01       		.byte	0x1
 632 0160 09       		.uleb128 0x9
 633 0161 66020000 		.4byte	.LASF28
 634 0165 02       		.byte	0x2
 635 0166 09       		.uleb128 0x9
 636 0167 73020000 		.4byte	.LASF29
 637 016b 03       		.byte	0x3
 638 016c 09       		.uleb128 0x9
ARM GAS  C:\Users\user\AppData\Local\Temp\ccsZLEGd.s 			page 15


 639 016d 80020000 		.4byte	.LASF30
 640 0171 04       		.byte	0x4
 641 0172 09       		.uleb128 0x9
 642 0173 8D020000 		.4byte	.LASF31
 643 0177 05       		.byte	0x5
 644 0178 09       		.uleb128 0x9
 645 0179 9A020000 		.4byte	.LASF32
 646 017d 06       		.byte	0x6
 647 017e 09       		.uleb128 0x9
 648 017f A7020000 		.4byte	.LASF33
 649 0183 07       		.byte	0x7
 650 0184 09       		.uleb128 0x9
 651 0185 B4020000 		.4byte	.LASF34
 652 0189 08       		.byte	0x8
 653 018a 09       		.uleb128 0x9
 654 018b C1020000 		.4byte	.LASF35
 655 018f 09       		.byte	0x9
 656 0190 09       		.uleb128 0x9
 657 0191 73000000 		.4byte	.LASF36
 658 0195 0A       		.byte	0xa
 659 0196 09       		.uleb128 0x9
 660 0197 81000000 		.4byte	.LASF37
 661 019b 0B       		.byte	0xb
 662 019c 09       		.uleb128 0x9
 663 019d 8F000000 		.4byte	.LASF38
 664 01a1 0C       		.byte	0xc
 665 01a2 09       		.uleb128 0x9
 666 01a3 9D000000 		.4byte	.LASF39
 667 01a7 0D       		.byte	0xd
 668 01a8 09       		.uleb128 0x9
 669 01a9 AB000000 		.4byte	.LASF40
 670 01ad 0E       		.byte	0xe
 671 01ae 09       		.uleb128 0x9
 672 01af C8030000 		.4byte	.LASF41
 673 01b3 0F       		.byte	0xf
 674 01b4 09       		.uleb128 0x9
 675 01b5 C1000000 		.4byte	.LASF42
 676 01b9 10       		.byte	0x10
 677 01ba 09       		.uleb128 0x9
 678 01bb CF000000 		.4byte	.LASF43
 679 01bf 11       		.byte	0x11
 680 01c0 00       		.byte	0
 681 01c1 03       		.uleb128 0x3
 682 01c2 34010000 		.4byte	.LASF44
 683 01c6 0A       		.byte	0xa
 684 01c7 22       		.byte	0x22
 685 01c8 02       		.byte	0x2
 686 01c9 46010000 		.4byte	0x146
 687 01cd 08       		.uleb128 0x8
 688 01ce 07       		.byte	0x7
 689 01cf 01       		.byte	0x1
 690 01d0 38000000 		.4byte	0x38
 691 01d4 0A       		.byte	0xa
 692 01d5 26       		.byte	0x26
 693 01d6 01       		.byte	0x1
 694 01d7 F4010000 		.4byte	0x1f4
 695 01db 09       		.uleb128 0x9
ARM GAS  C:\Users\user\AppData\Local\Temp\ccsZLEGd.s 			page 16


 696 01dc 79010000 		.4byte	.LASF45
 697 01e0 00       		.byte	0
 698 01e1 09       		.uleb128 0x9
 699 01e2 8C010000 		.4byte	.LASF46
 700 01e6 01       		.byte	0x1
 701 01e7 09       		.uleb128 0x9
 702 01e8 9D010000 		.4byte	.LASF47
 703 01ec 02       		.byte	0x2
 704 01ed 09       		.uleb128 0x9
 705 01ee B0010000 		.4byte	.LASF48
 706 01f2 03       		.byte	0x3
 707 01f3 00       		.byte	0
 708 01f4 0A       		.uleb128 0xa
 709 01f5 82       		.byte	0x82
 710 01f6 0A       		.byte	0xa
 711 01f7 2E       		.byte	0x2e
 712 01f8 09       		.byte	0x9
 713 01f9 1B020000 		.4byte	0x21b
 714 01fd 0B       		.uleb128 0xb
 715 01fe 696400   		.ascii	"id\000"
 716 0201 0A       		.byte	0xa
 717 0202 30       		.byte	0x30
 718 0203 12       		.byte	0x12
 719 0204 C1010000 		.4byte	0x1c1
 720 0208 02       		.byte	0x2
 721 0209 23       		.byte	0x23
 722 020a 00       		.uleb128 0
 723 020b 0C       		.uleb128 0xc
 724 020c 94030000 		.4byte	.LASF49
 725 0210 0A       		.byte	0xa
 726 0211 31       		.byte	0x31
 727 0212 0E       		.byte	0xe
 728 0213 1B020000 		.4byte	0x21b
 729 0217 02       		.byte	0x2
 730 0218 23       		.byte	0x23
 731 0219 02       		.uleb128 0x2
 732 021a 00       		.byte	0
 733 021b 0D       		.uleb128 0xd
 734 021c 9B000000 		.4byte	0x9b
 735 0220 2B020000 		.4byte	0x22b
 736 0224 0E       		.uleb128 0xe
 737 0225 88000000 		.4byte	0x88
 738 0229 3F       		.byte	0x3f
 739 022a 00       		.byte	0
 740 022b 03       		.uleb128 0x3
 741 022c 1B010000 		.4byte	.LASF50
 742 0230 0A       		.byte	0xa
 743 0231 32       		.byte	0x32
 744 0232 02       		.byte	0x2
 745 0233 F4010000 		.4byte	0x1f4
 746 0237 03       		.uleb128 0x3
 747 0238 07020000 		.4byte	.LASF51
 748 023c 0B       		.byte	0xb
 749 023d 09       		.byte	0x9
 750 023e 10       		.byte	0x10
 751 023f B3000000 		.4byte	0xb3
 752 0243 03       		.uleb128 0x3
ARM GAS  C:\Users\user\AppData\Local\Temp\ccsZLEGd.s 			page 17


 753 0244 4C000000 		.4byte	.LASF52
 754 0248 0B       		.byte	0xb
 755 0249 0A       		.byte	0xa
 756 024a 10       		.byte	0x10
 757 024b 4F020000 		.4byte	0x24f
 758 024f 06       		.uleb128 0x6
 759 0250 04       		.byte	0x4
 760 0251 55020000 		.4byte	0x255
 761 0255 0F       		.uleb128 0xf
 762 0256 01       		.byte	0x1
 763 0257 6B020000 		.4byte	0x26b
 764 025b 10       		.uleb128 0x10
 765 025c 81000000 		.4byte	0x81
 766 0260 10       		.uleb128 0x10
 767 0261 6B020000 		.4byte	0x26b
 768 0265 10       		.uleb128 0x10
 769 0266 9B000000 		.4byte	0x9b
 770 026a 00       		.byte	0
 771 026b 02       		.uleb128 0x2
 772 026c 01       		.byte	0x1
 773 026d 02       		.byte	0x2
 774 026e 61030000 		.4byte	.LASF53
 775 0272 0A       		.uleb128 0xa
 776 0273 14       		.byte	0x14
 777 0274 01       		.byte	0x1
 778 0275 16       		.byte	0x16
 779 0276 09       		.byte	0x9
 780 0277 C7020000 		.4byte	0x2c7
 781 027b 0C       		.uleb128 0xc
 782 027c 04050000 		.4byte	.LASF54
 783 0280 01       		.byte	0x1
 784 0281 18       		.byte	0x18
 785 0282 14       		.byte	0x14
 786 0283 43020000 		.4byte	0x243
 787 0287 02       		.byte	0x2
 788 0288 23       		.byte	0x23
 789 0289 00       		.uleb128 0
 790 028a 0C       		.uleb128 0xc
 791 028b 73030000 		.4byte	.LASF55
 792 028f 01       		.byte	0x1
 793 0290 19       		.byte	0x19
 794 0291 10       		.byte	0x10
 795 0292 3A010000 		.4byte	0x13a
 796 0296 02       		.byte	0x2
 797 0297 23       		.byte	0x23
 798 0298 04       		.uleb128 0x4
 799 0299 0C       		.uleb128 0xc
 800 029a 0F000000 		.4byte	.LASF56
 801 029e 01       		.byte	0x1
 802 029f 1B       		.byte	0x1b
 803 02a0 0E       		.byte	0xe
 804 02a1 A7000000 		.4byte	0xa7
 805 02a5 02       		.byte	0x2
 806 02a6 23       		.byte	0x23
 807 02a7 08       		.uleb128 0x8
 808 02a8 0C       		.uleb128 0xc
 809 02a9 5D040000 		.4byte	.LASF57
ARM GAS  C:\Users\user\AppData\Local\Temp\ccsZLEGd.s 			page 18


 810 02ad 01       		.byte	0x1
 811 02ae 1C       		.byte	0x1c
 812 02af 0A       		.byte	0xa
 813 02b0 6B020000 		.4byte	0x26b
 814 02b4 02       		.byte	0x2
 815 02b5 23       		.byte	0x23
 816 02b6 0C       		.uleb128 0xc
 817 02b7 0C       		.uleb128 0xc
 818 02b8 5E010000 		.4byte	.LASF58
 819 02bc 01       		.byte	0x1
 820 02bd 1D       		.byte	0x1d
 821 02be 12       		.byte	0x12
 822 02bf 2E010000 		.4byte	0x12e
 823 02c3 02       		.byte	0x2
 824 02c4 23       		.byte	0x23
 825 02c5 10       		.uleb128 0x10
 826 02c6 00       		.byte	0
 827 02c7 03       		.uleb128 0x3
 828 02c8 9B030000 		.4byte	.LASF59
 829 02cc 01       		.byte	0x1
 830 02cd 1F       		.byte	0x1f
 831 02ce 03       		.byte	0x3
 832 02cf 72020000 		.4byte	0x272
 833 02d3 0A       		.uleb128 0xa
 834 02d4 1C       		.byte	0x1c
 835 02d5 01       		.byte	0x1
 836 02d6 21       		.byte	0x21
 837 02d7 09       		.byte	0x9
 838 02d8 0A030000 		.4byte	0x30a
 839 02dc 0C       		.uleb128 0xc
 840 02dd 6C000000 		.4byte	.LASF60
 841 02e1 01       		.byte	0x1
 842 02e2 23       		.byte	0x23
 843 02e3 15       		.byte	0x15
 844 02e4 C7020000 		.4byte	0x2c7
 845 02e8 02       		.byte	0x2
 846 02e9 23       		.byte	0x23
 847 02ea 00       		.uleb128 0
 848 02eb 0B       		.uleb128 0xb
 849 02ec 64626700 		.ascii	"dbg\000"
 850 02f0 01       		.byte	0x1
 851 02f1 24       		.byte	0x24
 852 02f2 12       		.byte	0x12
 853 02f3 10010000 		.4byte	0x110
 854 02f7 02       		.byte	0x2
 855 02f8 23       		.byte	0x23
 856 02f9 14       		.uleb128 0x14
 857 02fa 0C       		.uleb128 0xc
 858 02fb 4D030000 		.4byte	.LASF61
 859 02ff 01       		.byte	0x1
 860 0300 25       		.byte	0x25
 861 0301 16       		.byte	0x16
 862 0302 22010000 		.4byte	0x122
 863 0306 02       		.byte	0x2
 864 0307 23       		.byte	0x23
 865 0308 18       		.uleb128 0x18
 866 0309 00       		.byte	0
ARM GAS  C:\Users\user\AppData\Local\Temp\ccsZLEGd.s 			page 19


 867 030a 03       		.uleb128 0x3
 868 030b 10040000 		.4byte	.LASF62
 869 030f 01       		.byte	0x1
 870 0310 26       		.byte	0x26
 871 0311 03       		.byte	0x3
 872 0312 D3020000 		.4byte	0x2d3
 873 0316 11       		.uleb128 0x11
 874 0317 53010000 		.4byte	.LASF70
 875 031b 01       		.byte	0x1
 876 031c 28       		.byte	0x28
 877 031d 0F       		.byte	0xf
 878 031e 0A030000 		.4byte	0x30a
 879 0322 01       		.byte	0x1
 880 0323 05       		.byte	0x5
 881 0324 03       		.byte	0x3
 882 0325 00000000 		.4byte	sensor_man
 883 0329 12       		.uleb128 0x12
 884 032a 01       		.byte	0x1
 885 032b 2B000000 		.4byte	.LASF86
 886 032f 01       		.byte	0x1
 887 0330 69       		.byte	0x69
 888 0331 08       		.byte	0x8
 889 0332 01       		.byte	0x1
 890 0333 37020000 		.4byte	0x237
 891 0337 DC000000 		.4byte	.LFB41
 892 033b F0000000 		.4byte	.LFE41
 893 033f 00000000 		.4byte	.LLST7
 894 0343 01       		.byte	0x1
 895 0344 79030000 		.4byte	0x379
 896 0348 13       		.uleb128 0x13
 897 0349 04050000 		.4byte	.LASF54
 898 034d 01       		.byte	0x1
 899 034e 69       		.byte	0x69
 900 034f 24       		.byte	0x24
 901 0350 43020000 		.4byte	0x243
 902 0354 26000000 		.4byte	.LLST8
 903 0358 20000000 		.4byte	.LVUS8
 904 035c 14       		.uleb128 0x14
 905 035d 636800   		.ascii	"ch\000"
 906 0360 01       		.byte	0x1
 907 0361 69       		.byte	0x69
 908 0362 3B       		.byte	0x3b
 909 0363 C1010000 		.4byte	0x1c1
 910 0367 5A000000 		.4byte	.LLST9
 911 036b 56000000 		.4byte	.LVUS9
 912 036f 15       		.uleb128 0x15
 913 0370 E8000000 		.4byte	.LVL21
 914 0374 CD050000 		.4byte	0x5cd
 915 0378 00       		.byte	0
 916 0379 16       		.uleb128 0x16
 917 037a 01       		.byte	0x1
 918 037b AB030000 		.4byte	.LASF87
 919 037f 01       		.byte	0x1
 920 0380 60       		.byte	0x60
 921 0381 06       		.byte	0x6
 922 0382 78000000 		.4byte	.LFB40
 923 0386 DC000000 		.4byte	.LFE40
ARM GAS  C:\Users\user\AppData\Local\Temp\ccsZLEGd.s 			page 20


 924 038a 7B000000 		.4byte	.LLST6
 925 038e 01       		.byte	0x1
 926 038f 3B040000 		.4byte	0x43b
 927 0393 17       		.uleb128 0x17
 928 0394 82000000 		.4byte	.LVL15
 929 0398 DB050000 		.4byte	0x5db
 930 039c B3030000 		.4byte	0x3b3
 931 03a0 18       		.uleb128 0x18
 932 03a1 01       		.byte	0x1
 933 03a2 50       		.byte	0x50
 934 03a3 05       		.byte	0x5
 935 03a4 03       		.byte	0x3
 936 03a5 00000000 		.4byte	.LC0
 937 03a9 18       		.uleb128 0x18
 938 03aa 01       		.byte	0x1
 939 03ab 51       		.byte	0x51
 940 03ac 05       		.byte	0x5
 941 03ad 03       		.byte	0x3
 942 03ae 00000000 		.4byte	SensorDebugHandler
 943 03b2 00       		.byte	0
 944 03b3 17       		.uleb128 0x17
 945 03b4 9C000000 		.4byte	.LVL16
 946 03b8 E9050000 		.4byte	0x5e9
 947 03bc ED030000 		.4byte	0x3ed
 948 03c0 18       		.uleb128 0x18
 949 03c1 01       		.byte	0x1
 950 03c2 50       		.byte	0x50
 951 03c3 05       		.byte	0x5
 952 03c4 03       		.byte	0x3
 953 03c5 00000000 		.4byte	SensorTask
 954 03c9 18       		.uleb128 0x18
 955 03ca 01       		.byte	0x1
 956 03cb 51       		.byte	0x51
 957 03cc 05       		.byte	0x5
 958 03cd 03       		.byte	0x3
 959 03ce 07000000 		.4byte	.LC1
 960 03d2 18       		.uleb128 0x18
 961 03d3 01       		.byte	0x1
 962 03d4 52       		.byte	0x52
 963 03d5 03       		.byte	0x3
 964 03d6 0A       		.byte	0xa
 965 03d7 0002     		.2byte	0x200
 966 03d9 18       		.uleb128 0x18
 967 03da 01       		.byte	0x1
 968 03db 53       		.byte	0x53
 969 03dc 02       		.byte	0x2
 970 03dd 74       		.byte	0x74
 971 03de 00       		.sleb128 0
 972 03df 18       		.uleb128 0x18
 973 03e0 02       		.byte	0x2
 974 03e1 7D       		.byte	0x7d
 975 03e2 00       		.sleb128 0
 976 03e3 01       		.byte	0x1
 977 03e4 32       		.byte	0x32
 978 03e5 18       		.uleb128 0x18
 979 03e6 02       		.byte	0x2
 980 03e7 7D       		.byte	0x7d
ARM GAS  C:\Users\user\AppData\Local\Temp\ccsZLEGd.s 			page 21


 981 03e8 04       		.sleb128 4
 982 03e9 02       		.byte	0x2
 983 03ea 74       		.byte	0x74
 984 03eb 00       		.sleb128 0
 985 03ec 00       		.byte	0
 986 03ed 17       		.uleb128 0x17
 987 03ee AE000000 		.4byte	.LVL17
 988 03f2 F8050000 		.4byte	0x5f8
 989 03f6 20040000 		.4byte	0x420
 990 03fa 18       		.uleb128 0x18
 991 03fb 01       		.byte	0x1
 992 03fc 50       		.byte	0x50
 993 03fd 05       		.byte	0x5
 994 03fe 03       		.byte	0x3
 995 03ff 0C000000 		.4byte	.LC2
 996 0403 18       		.uleb128 0x18
 997 0404 01       		.byte	0x1
 998 0405 51       		.byte	0x51
 999 0406 03       		.byte	0x3
 1000 0407 0A       		.byte	0xa
 1001 0408 1027     		.2byte	0x2710
 1002 040a 18       		.uleb128 0x18
 1003 040b 01       		.byte	0x1
 1004 040c 52       		.byte	0x52
 1005 040d 01       		.byte	0x1
 1006 040e 31       		.byte	0x31
 1007 040f 18       		.uleb128 0x18
 1008 0410 01       		.byte	0x1
 1009 0411 53       		.byte	0x53
 1010 0412 02       		.byte	0x2
 1011 0413 74       		.byte	0x74
 1012 0414 00       		.sleb128 0
 1013 0415 18       		.uleb128 0x18
 1014 0416 02       		.byte	0x2
 1015 0417 7D       		.byte	0x7d
 1016 0418 00       		.sleb128 0
 1017 0419 05       		.byte	0x5
 1018 041a 03       		.byte	0x3
 1019 041b 00000000 		.4byte	SensorTimerHandler
 1020 041f 00       		.byte	0
 1021 0420 19       		.uleb128 0x19
 1022 0421 BA000000 		.4byte	.LVL18
 1023 0425 07060000 		.4byte	0x607
 1024 0429 18       		.uleb128 0x18
 1025 042a 01       		.byte	0x1
 1026 042b 50       		.byte	0x50
 1027 042c 01       		.byte	0x1
 1028 042d 31       		.byte	0x31
 1029 042e 18       		.uleb128 0x18
 1030 042f 01       		.byte	0x1
 1031 0430 51       		.byte	0x51
 1032 0431 02       		.byte	0x2
 1033 0432 74       		.byte	0x74
 1034 0433 00       		.sleb128 0
 1035 0434 18       		.uleb128 0x18
 1036 0435 01       		.byte	0x1
 1037 0436 52       		.byte	0x52
ARM GAS  C:\Users\user\AppData\Local\Temp\ccsZLEGd.s 			page 22


 1038 0437 01       		.byte	0x1
 1039 0438 33       		.byte	0x33
 1040 0439 00       		.byte	0
 1041 043a 00       		.byte	0
 1042 043b 1A       		.uleb128 0x1a
 1043 043c 01       		.byte	0x1
 1044 043d 81030000 		.4byte	.LASF64
 1045 0441 01       		.byte	0x1
 1046 0442 59       		.byte	0x59
 1047 0443 06       		.byte	0x6
 1048 0444 01       		.byte	0x1
 1049 0445 64000000 		.4byte	.LFB39
 1050 0449 78000000 		.4byte	.LFE39
 1051 044d 02       		.byte	0x2
 1052 044e 7D       		.byte	0x7d
 1053 044f 00       		.sleb128 0
 1054 0450 01       		.byte	0x1
 1055 0451 84040000 		.4byte	0x484
 1056 0455 13       		.uleb128 0x13
 1057 0456 08010000 		.4byte	.LASF63
 1058 045a 01       		.byte	0x1
 1059 045b 59       		.byte	0x59
 1060 045c 26       		.byte	0x26
 1061 045d 2E010000 		.4byte	0x12e
 1062 0461 AB000000 		.4byte	.LLST5
 1063 0465 A7000000 		.4byte	.LVUS5
 1064 0469 1B       		.uleb128 0x1b
 1065 046a 72000000 		.4byte	.LVL14
 1066 046e 01       		.byte	0x1
 1067 046f 16060000 		.4byte	0x616
 1068 0473 18       		.uleb128 0x18
 1069 0474 01       		.byte	0x1
 1070 0475 51       		.byte	0x51
 1071 0476 01       		.byte	0x1
 1072 0477 30       		.byte	0x30
 1073 0478 18       		.uleb128 0x18
 1074 0479 01       		.byte	0x1
 1075 047a 52       		.byte	0x52
 1076 047b 01       		.byte	0x1
 1077 047c 30       		.byte	0x30
 1078 047d 18       		.uleb128 0x18
 1079 047e 01       		.byte	0x1
 1080 047f 53       		.byte	0x53
 1081 0480 01       		.byte	0x1
 1082 0481 30       		.byte	0x30
 1083 0482 00       		.byte	0
 1084 0483 00       		.byte	0
 1085 0484 1A       		.uleb128 0x1a
 1086 0485 01       		.byte	0x1
 1087 0486 F1040000 		.4byte	.LASF65
 1088 048a 01       		.byte	0x1
 1089 048b 52       		.byte	0x52
 1090 048c 06       		.byte	0x6
 1091 048d 01       		.byte	0x1
 1092 048e 00000000 		.4byte	.LFB38
 1093 0492 02000000 		.4byte	.LFE38
 1094 0496 02       		.byte	0x2
ARM GAS  C:\Users\user\AppData\Local\Temp\ccsZLEGd.s 			page 23


 1095 0497 7D       		.byte	0x7d
 1096 0498 00       		.sleb128 0
 1097 0499 01       		.byte	0x1
 1098 049a C9040000 		.4byte	0x4c9
 1099 049e 1C       		.uleb128 0x1c
 1100 049f 38000000 		.4byte	.LASF66
 1101 04a3 01       		.byte	0x1
 1102 04a4 52       		.byte	0x52
 1103 04a5 1F       		.byte	0x1f
 1104 04a6 C8000000 		.4byte	0xc8
 1105 04aa 01       		.byte	0x1
 1106 04ab 50       		.byte	0x50
 1107 04ac 1C       		.uleb128 0x1c
 1108 04ad 48030000 		.4byte	.LASF67
 1109 04b1 01       		.byte	0x1
 1110 04b2 52       		.byte	0x52
 1111 04b3 33       		.byte	0x33
 1112 04b4 1C010000 		.4byte	0x11c
 1113 04b8 01       		.byte	0x1
 1114 04b9 51       		.byte	0x51
 1115 04ba 1D       		.uleb128 0x1d
 1116 04bb 6C656E00 		.ascii	"len\000"
 1117 04bf 01       		.byte	0x1
 1118 04c0 52       		.byte	0x52
 1119 04c1 42       		.byte	0x42
 1120 04c2 9B000000 		.4byte	0x9b
 1121 04c6 01       		.byte	0x1
 1122 04c7 52       		.byte	0x52
 1123 04c8 00       		.byte	0
 1124 04c9 1E       		.uleb128 0x1e
 1125 04ca 01       		.byte	0x1
 1126 04cb 29010000 		.4byte	.LASF68
 1127 04cf 01       		.byte	0x1
 1128 04d0 2A       		.byte	0x2a
 1129 04d1 06       		.byte	0x6
 1130 04d2 01       		.byte	0x1
 1131 04d3 02000000 		.4byte	.LFB37
 1132 04d7 64000000 		.4byte	.LFE37
 1133 04db CC000000 		.4byte	.LLST0
 1134 04df 01       		.byte	0x1
 1135 04e0 CD050000 		.4byte	0x5cd
 1136 04e4 13       		.uleb128 0x13
 1137 04e5 B9000000 		.4byte	.LASF69
 1138 04e9 01       		.byte	0x1
 1139 04ea 2A       		.byte	0x2a
 1140 04eb 17       		.byte	0x17
 1141 04ec B3000000 		.4byte	0xb3
 1142 04f0 FD000000 		.4byte	.LLST1
 1143 04f4 F9000000 		.4byte	.LVUS1
 1144 04f8 1F       		.uleb128 0x1f
 1145 04f9 00000000 		.4byte	.Ldebug_ranges0+0
 1146 04fd A2050000 		.4byte	0x5a2
 1147 0501 20       		.uleb128 0x20
 1148 0502 7B030000 		.4byte	.LASF88
 1149 0506 01       		.byte	0x1
 1150 0507 32       		.byte	0x32
 1151 0508 17       		.byte	0x17
ARM GAS  C:\Users\user\AppData\Local\Temp\ccsZLEGd.s 			page 24


 1152 0509 2B020000 		.4byte	0x22b
 1153 050d 03       		.byte	0x3
 1154 050e 91       		.byte	0x91
 1155 050f EC7E     		.sleb128 -148
 1156 0511 21       		.uleb128 0x21
 1157 0512 2C000000 		.4byte	.LBB3
 1158 0516 3E000000 		.4byte	.LBE3
 1159 051a 63050000 		.4byte	0x563
 1160 051e 22       		.uleb128 0x22
 1161 051f 58030000 		.4byte	.LASF71
 1162 0523 01       		.byte	0x1
 1163 0524 35       		.byte	0x35
 1164 0525 16       		.byte	0x16
 1165 0526 A7000000 		.4byte	0xa7
 1166 052a 20010000 		.4byte	.LLST2
 1167 052e 1E010000 		.4byte	.LVUS2
 1168 0532 22       		.uleb128 0x22
 1169 0533 F9030000 		.4byte	.LASF72
 1170 0537 01       		.byte	0x1
 1171 0538 3B       		.byte	0x3b
 1172 0539 16       		.byte	0x16
 1173 053a 9B000000 		.4byte	0x9b
 1174 053e 35010000 		.4byte	.LLST3
 1175 0542 33010000 		.4byte	.LVUS3
 1176 0546 23       		.uleb128 0x23
 1177 0547 2C000000 		.4byte	.LBB4
 1178 054b 38000000 		.4byte	.LBE4
 1179 054f 24       		.uleb128 0x24
 1180 0550 6900     		.ascii	"i\000"
 1181 0552 01       		.byte	0x1
 1182 0553 36       		.byte	0x36
 1183 0554 19       		.byte	0x19
 1184 0555 B5000000 		.4byte	0xb5
 1185 0559 50010000 		.4byte	.LLST4
 1186 055d 4C010000 		.4byte	.LVUS4
 1187 0561 00       		.byte	0
 1188 0562 00       		.byte	0
 1189 0563 17       		.uleb128 0x17
 1190 0564 28000000 		.4byte	.LVL4
 1191 0568 25060000 		.4byte	0x625
 1192 056c 77050000 		.4byte	0x577
 1193 0570 18       		.uleb128 0x18
 1194 0571 01       		.byte	0x1
 1195 0572 51       		.byte	0x51
 1196 0573 02       		.byte	0x2
 1197 0574 75       		.byte	0x75
 1198 0575 00       		.sleb128 0
 1199 0576 00       		.byte	0
 1200 0577 17       		.uleb128 0x17
 1201 0578 4C000000 		.4byte	.LVL10
 1202 057c 33060000 		.4byte	0x633
 1203 0580 96050000 		.4byte	0x596
 1204 0584 18       		.uleb128 0x18
 1205 0585 01       		.byte	0x1
 1206 0586 51       		.byte	0x51
 1207 0587 01       		.byte	0x1
 1208 0588 30       		.byte	0x30
ARM GAS  C:\Users\user\AppData\Local\Temp\ccsZLEGd.s 			page 25


 1209 0589 18       		.uleb128 0x18
 1210 058a 01       		.byte	0x1
 1211 058b 52       		.byte	0x52
 1212 058c 03       		.byte	0x3
 1213 058d 0A       		.byte	0xa
 1214 058e E803     		.2byte	0x3e8
 1215 0590 18       		.uleb128 0x18
 1216 0591 01       		.byte	0x1
 1217 0592 53       		.byte	0x53
 1218 0593 01       		.byte	0x1
 1219 0594 30       		.byte	0x30
 1220 0595 00       		.byte	0
 1221 0596 25       		.uleb128 0x25
 1222 0597 5E000000 		.4byte	.LVL11
 1223 059b 18       		.uleb128 0x18
 1224 059c 01       		.byte	0x1
 1225 059d 50       		.byte	0x50
 1226 059e 01       		.byte	0x1
 1227 059f 30       		.byte	0x30
 1228 05a0 00       		.byte	0
 1229 05a1 00       		.byte	0
 1230 05a2 15       		.uleb128 0x15
 1231 05a3 0E000000 		.4byte	.LVL2
 1232 05a7 42060000 		.4byte	0x642
 1233 05ab 19       		.uleb128 0x19
 1234 05ac 1E000000 		.4byte	.LVL3
 1235 05b0 51060000 		.4byte	0x651
 1236 05b4 18       		.uleb128 0x18
 1237 05b5 01       		.byte	0x1
 1238 05b6 50       		.byte	0x50
 1239 05b7 02       		.byte	0x2
 1240 05b8 75       		.byte	0x75
 1241 05b9 00       		.sleb128 0
 1242 05ba 18       		.uleb128 0x18
 1243 05bb 01       		.byte	0x1
 1244 05bc 51       		.byte	0x51
 1245 05bd 01       		.byte	0x1
 1246 05be 31       		.byte	0x31
 1247 05bf 18       		.uleb128 0x18
 1248 05c0 01       		.byte	0x1
 1249 05c1 53       		.byte	0x53
 1250 05c2 01       		.byte	0x1
 1251 05c3 30       		.byte	0x30
 1252 05c4 18       		.uleb128 0x18
 1253 05c5 02       		.byte	0x2
 1254 05c6 7D       		.byte	0x7d
 1255 05c7 00       		.sleb128 0
 1256 05c8 02       		.byte	0x2
 1257 05c9 08       		.byte	0x8
 1258 05ca 64       		.byte	0x64
 1259 05cb 00       		.byte	0
 1260 05cc 00       		.byte	0
 1261 05cd 26       		.uleb128 0x26
 1262 05ce 01       		.byte	0x1
 1263 05cf 01       		.byte	0x1
 1264 05d0 CC010000 		.4byte	.LASF73
 1265 05d4 CC010000 		.4byte	.LASF73
ARM GAS  C:\Users\user\AppData\Local\Temp\ccsZLEGd.s 			page 26


 1266 05d8 0A       		.byte	0xa
 1267 05d9 38       		.byte	0x38
 1268 05da 0C       		.byte	0xc
 1269 05db 26       		.uleb128 0x26
 1270 05dc 01       		.byte	0x1
 1271 05dd 01       		.byte	0x1
 1272 05de 4F040000 		.4byte	.LASF74
 1273 05e2 4F040000 		.4byte	.LASF74
 1274 05e6 07       		.byte	0x7
 1275 05e7 0E       		.byte	0xe
 1276 05e8 0E       		.byte	0xe
 1277 05e9 27       		.uleb128 0x27
 1278 05ea 01       		.byte	0x1
 1279 05eb 01       		.byte	0x1
 1280 05ec 67030000 		.4byte	.LASF75
 1281 05f0 67030000 		.4byte	.LASF75
 1282 05f4 0C       		.byte	0xc
 1283 05f5 6801     		.2byte	0x168
 1284 05f7 0D       		.byte	0xd
 1285 05f8 27       		.uleb128 0x27
 1286 05f9 01       		.byte	0x1
 1287 05fa 01       		.byte	0x1
 1288 05fb 0E010000 		.4byte	.LASF76
 1289 05ff 0E010000 		.4byte	.LASF76
 1290 0603 09       		.byte	0x9
 1291 0604 0D01     		.2byte	0x10d
 1292 0606 10       		.byte	0x10
 1293 0607 27       		.uleb128 0x27
 1294 0608 01       		.byte	0x1
 1295 0609 01       		.byte	0x1
 1296 060a 25020000 		.4byte	.LASF77
 1297 060e 25020000 		.4byte	.LASF77
 1298 0612 06       		.byte	0x6
 1299 0613 6706     		.2byte	0x667
 1300 0615 10       		.byte	0x10
 1301 0616 27       		.uleb128 0x27
 1302 0617 01       		.byte	0x1
 1303 0618 01       		.byte	0x1
 1304 0619 41010000 		.4byte	.LASF78
 1305 061d 41010000 		.4byte	.LASF78
 1306 0621 06       		.byte	0x6
 1307 0622 B402     		.2byte	0x2b4
 1308 0624 0C       		.byte	0xc
 1309 0625 26       		.uleb128 0x26
 1310 0626 01       		.byte	0x1
 1311 0627 01       		.byte	0x1
 1312 0628 00000000 		.4byte	.LASF79
 1313 062c 00000000 		.4byte	.LASF79
 1314 0630 0A       		.byte	0xa
 1315 0631 39       		.byte	0x39
 1316 0632 0B       		.byte	0xb
 1317 0633 27       		.uleb128 0x27
 1318 0634 01       		.byte	0x1
 1319 0635 01       		.byte	0x1
 1320 0636 1E040000 		.4byte	.LASF80
 1321 063a 1E040000 		.4byte	.LASF80
 1322 063e 06       		.byte	0x6
ARM GAS  C:\Users\user\AppData\Local\Temp\ccsZLEGd.s 			page 27


 1323 063f F503     		.2byte	0x3f5
 1324 0641 0C       		.byte	0xc
 1325 0642 27       		.uleb128 0x27
 1326 0643 01       		.byte	0x1
 1327 0644 01       		.byte	0x1
 1328 0645 E7010000 		.4byte	.LASF81
 1329 0649 E7010000 		.4byte	.LASF81
 1330 064d 0C       		.byte	0xc
 1331 064e 0805     		.2byte	0x508
 1332 0650 0C       		.byte	0xc
 1333 0651 27       		.uleb128 0x27
 1334 0652 01       		.byte	0x1
 1335 0653 01       		.byte	0x1
 1336 0654 FA020000 		.4byte	.LASF82
 1337 0658 FA020000 		.4byte	.LASF82
 1338 065c 09       		.byte	0x9
 1339 065d 1A05     		.2byte	0x51a
 1340 065f 0C       		.byte	0xc
 1341 0660 00       		.byte	0
 1342              		.section	.debug_abbrev,"",%progbits
 1343              	.Ldebug_abbrev0:
 1344 0000 01       		.uleb128 0x1
 1345 0001 11       		.uleb128 0x11
 1346 0002 01       		.byte	0x1
 1347 0003 25       		.uleb128 0x25
 1348 0004 0E       		.uleb128 0xe
 1349 0005 13       		.uleb128 0x13
 1350 0006 0B       		.uleb128 0xb
 1351 0007 03       		.uleb128 0x3
 1352 0008 0E       		.uleb128 0xe
 1353 0009 1B       		.uleb128 0x1b
 1354 000a 0E       		.uleb128 0xe
 1355 000b 11       		.uleb128 0x11
 1356 000c 01       		.uleb128 0x1
 1357 000d 12       		.uleb128 0x12
 1358 000e 01       		.uleb128 0x1
 1359 000f 10       		.uleb128 0x10
 1360 0010 06       		.uleb128 0x6
 1361 0011 00       		.byte	0
 1362 0012 00       		.byte	0
 1363 0013 02       		.uleb128 0x2
 1364 0014 24       		.uleb128 0x24
 1365 0015 00       		.byte	0
 1366 0016 0B       		.uleb128 0xb
 1367 0017 0B       		.uleb128 0xb
 1368 0018 3E       		.uleb128 0x3e
 1369 0019 0B       		.uleb128 0xb
 1370 001a 03       		.uleb128 0x3
 1371 001b 0E       		.uleb128 0xe
 1372 001c 00       		.byte	0
 1373 001d 00       		.byte	0
 1374 001e 03       		.uleb128 0x3
 1375 001f 16       		.uleb128 0x16
 1376 0020 00       		.byte	0
 1377 0021 03       		.uleb128 0x3
 1378 0022 0E       		.uleb128 0xe
 1379 0023 3A       		.uleb128 0x3a
ARM GAS  C:\Users\user\AppData\Local\Temp\ccsZLEGd.s 			page 28


 1380 0024 0B       		.uleb128 0xb
 1381 0025 3B       		.uleb128 0x3b
 1382 0026 0B       		.uleb128 0xb
 1383 0027 39       		.uleb128 0x39
 1384 0028 0B       		.uleb128 0xb
 1385 0029 49       		.uleb128 0x49
 1386 002a 13       		.uleb128 0x13
 1387 002b 00       		.byte	0
 1388 002c 00       		.byte	0
 1389 002d 04       		.uleb128 0x4
 1390 002e 24       		.uleb128 0x24
 1391 002f 00       		.byte	0
 1392 0030 0B       		.uleb128 0xb
 1393 0031 0B       		.uleb128 0xb
 1394 0032 3E       		.uleb128 0x3e
 1395 0033 0B       		.uleb128 0xb
 1396 0034 03       		.uleb128 0x3
 1397 0035 08       		.uleb128 0x8
 1398 0036 00       		.byte	0
 1399 0037 00       		.byte	0
 1400 0038 05       		.uleb128 0x5
 1401 0039 0F       		.uleb128 0xf
 1402 003a 00       		.byte	0
 1403 003b 0B       		.uleb128 0xb
 1404 003c 0B       		.uleb128 0xb
 1405 003d 00       		.byte	0
 1406 003e 00       		.byte	0
 1407 003f 06       		.uleb128 0x6
 1408 0040 0F       		.uleb128 0xf
 1409 0041 00       		.byte	0
 1410 0042 0B       		.uleb128 0xb
 1411 0043 0B       		.uleb128 0xb
 1412 0044 49       		.uleb128 0x49
 1413 0045 13       		.uleb128 0x13
 1414 0046 00       		.byte	0
 1415 0047 00       		.byte	0
 1416 0048 07       		.uleb128 0x7
 1417 0049 26       		.uleb128 0x26
 1418 004a 00       		.byte	0
 1419 004b 49       		.uleb128 0x49
 1420 004c 13       		.uleb128 0x13
 1421 004d 00       		.byte	0
 1422 004e 00       		.byte	0
 1423 004f 08       		.uleb128 0x8
 1424 0050 04       		.uleb128 0x4
 1425 0051 01       		.byte	0x1
 1426 0052 3E       		.uleb128 0x3e
 1427 0053 0B       		.uleb128 0xb
 1428 0054 0B       		.uleb128 0xb
 1429 0055 0B       		.uleb128 0xb
 1430 0056 49       		.uleb128 0x49
 1431 0057 13       		.uleb128 0x13
 1432 0058 3A       		.uleb128 0x3a
 1433 0059 0B       		.uleb128 0xb
 1434 005a 3B       		.uleb128 0x3b
 1435 005b 0B       		.uleb128 0xb
 1436 005c 39       		.uleb128 0x39
ARM GAS  C:\Users\user\AppData\Local\Temp\ccsZLEGd.s 			page 29


 1437 005d 0B       		.uleb128 0xb
 1438 005e 01       		.uleb128 0x1
 1439 005f 13       		.uleb128 0x13
 1440 0060 00       		.byte	0
 1441 0061 00       		.byte	0
 1442 0062 09       		.uleb128 0x9
 1443 0063 28       		.uleb128 0x28
 1444 0064 00       		.byte	0
 1445 0065 03       		.uleb128 0x3
 1446 0066 0E       		.uleb128 0xe
 1447 0067 1C       		.uleb128 0x1c
 1448 0068 0B       		.uleb128 0xb
 1449 0069 00       		.byte	0
 1450 006a 00       		.byte	0
 1451 006b 0A       		.uleb128 0xa
 1452 006c 13       		.uleb128 0x13
 1453 006d 01       		.byte	0x1
 1454 006e 0B       		.uleb128 0xb
 1455 006f 0B       		.uleb128 0xb
 1456 0070 3A       		.uleb128 0x3a
 1457 0071 0B       		.uleb128 0xb
 1458 0072 3B       		.uleb128 0x3b
 1459 0073 0B       		.uleb128 0xb
 1460 0074 39       		.uleb128 0x39
 1461 0075 0B       		.uleb128 0xb
 1462 0076 01       		.uleb128 0x1
 1463 0077 13       		.uleb128 0x13
 1464 0078 00       		.byte	0
 1465 0079 00       		.byte	0
 1466 007a 0B       		.uleb128 0xb
 1467 007b 0D       		.uleb128 0xd
 1468 007c 00       		.byte	0
 1469 007d 03       		.uleb128 0x3
 1470 007e 08       		.uleb128 0x8
 1471 007f 3A       		.uleb128 0x3a
 1472 0080 0B       		.uleb128 0xb
 1473 0081 3B       		.uleb128 0x3b
 1474 0082 0B       		.uleb128 0xb
 1475 0083 39       		.uleb128 0x39
 1476 0084 0B       		.uleb128 0xb
 1477 0085 49       		.uleb128 0x49
 1478 0086 13       		.uleb128 0x13
 1479 0087 38       		.uleb128 0x38
 1480 0088 0A       		.uleb128 0xa
 1481 0089 00       		.byte	0
 1482 008a 00       		.byte	0
 1483 008b 0C       		.uleb128 0xc
 1484 008c 0D       		.uleb128 0xd
 1485 008d 00       		.byte	0
 1486 008e 03       		.uleb128 0x3
 1487 008f 0E       		.uleb128 0xe
 1488 0090 3A       		.uleb128 0x3a
 1489 0091 0B       		.uleb128 0xb
 1490 0092 3B       		.uleb128 0x3b
 1491 0093 0B       		.uleb128 0xb
 1492 0094 39       		.uleb128 0x39
 1493 0095 0B       		.uleb128 0xb
ARM GAS  C:\Users\user\AppData\Local\Temp\ccsZLEGd.s 			page 30


 1494 0096 49       		.uleb128 0x49
 1495 0097 13       		.uleb128 0x13
 1496 0098 38       		.uleb128 0x38
 1497 0099 0A       		.uleb128 0xa
 1498 009a 00       		.byte	0
 1499 009b 00       		.byte	0
 1500 009c 0D       		.uleb128 0xd
 1501 009d 01       		.uleb128 0x1
 1502 009e 01       		.byte	0x1
 1503 009f 49       		.uleb128 0x49
 1504 00a0 13       		.uleb128 0x13
 1505 00a1 01       		.uleb128 0x1
 1506 00a2 13       		.uleb128 0x13
 1507 00a3 00       		.byte	0
 1508 00a4 00       		.byte	0
 1509 00a5 0E       		.uleb128 0xe
 1510 00a6 21       		.uleb128 0x21
 1511 00a7 00       		.byte	0
 1512 00a8 49       		.uleb128 0x49
 1513 00a9 13       		.uleb128 0x13
 1514 00aa 2F       		.uleb128 0x2f
 1515 00ab 0B       		.uleb128 0xb
 1516 00ac 00       		.byte	0
 1517 00ad 00       		.byte	0
 1518 00ae 0F       		.uleb128 0xf
 1519 00af 15       		.uleb128 0x15
 1520 00b0 01       		.byte	0x1
 1521 00b1 27       		.uleb128 0x27
 1522 00b2 0C       		.uleb128 0xc
 1523 00b3 01       		.uleb128 0x1
 1524 00b4 13       		.uleb128 0x13
 1525 00b5 00       		.byte	0
 1526 00b6 00       		.byte	0
 1527 00b7 10       		.uleb128 0x10
 1528 00b8 05       		.uleb128 0x5
 1529 00b9 00       		.byte	0
 1530 00ba 49       		.uleb128 0x49
 1531 00bb 13       		.uleb128 0x13
 1532 00bc 00       		.byte	0
 1533 00bd 00       		.byte	0
 1534 00be 11       		.uleb128 0x11
 1535 00bf 34       		.uleb128 0x34
 1536 00c0 00       		.byte	0
 1537 00c1 03       		.uleb128 0x3
 1538 00c2 0E       		.uleb128 0xe
 1539 00c3 3A       		.uleb128 0x3a
 1540 00c4 0B       		.uleb128 0xb
 1541 00c5 3B       		.uleb128 0x3b
 1542 00c6 0B       		.uleb128 0xb
 1543 00c7 39       		.uleb128 0x39
 1544 00c8 0B       		.uleb128 0xb
 1545 00c9 49       		.uleb128 0x49
 1546 00ca 13       		.uleb128 0x13
 1547 00cb 3F       		.uleb128 0x3f
 1548 00cc 0C       		.uleb128 0xc
 1549 00cd 02       		.uleb128 0x2
 1550 00ce 0A       		.uleb128 0xa
ARM GAS  C:\Users\user\AppData\Local\Temp\ccsZLEGd.s 			page 31


 1551 00cf 00       		.byte	0
 1552 00d0 00       		.byte	0
 1553 00d1 12       		.uleb128 0x12
 1554 00d2 2E       		.uleb128 0x2e
 1555 00d3 01       		.byte	0x1
 1556 00d4 3F       		.uleb128 0x3f
 1557 00d5 0C       		.uleb128 0xc
 1558 00d6 03       		.uleb128 0x3
 1559 00d7 0E       		.uleb128 0xe
 1560 00d8 3A       		.uleb128 0x3a
 1561 00d9 0B       		.uleb128 0xb
 1562 00da 3B       		.uleb128 0x3b
 1563 00db 0B       		.uleb128 0xb
 1564 00dc 39       		.uleb128 0x39
 1565 00dd 0B       		.uleb128 0xb
 1566 00de 27       		.uleb128 0x27
 1567 00df 0C       		.uleb128 0xc
 1568 00e0 49       		.uleb128 0x49
 1569 00e1 13       		.uleb128 0x13
 1570 00e2 11       		.uleb128 0x11
 1571 00e3 01       		.uleb128 0x1
 1572 00e4 12       		.uleb128 0x12
 1573 00e5 01       		.uleb128 0x1
 1574 00e6 40       		.uleb128 0x40
 1575 00e7 06       		.uleb128 0x6
 1576 00e8 9742     		.uleb128 0x2117
 1577 00ea 0C       		.uleb128 0xc
 1578 00eb 01       		.uleb128 0x1
 1579 00ec 13       		.uleb128 0x13
 1580 00ed 00       		.byte	0
 1581 00ee 00       		.byte	0
 1582 00ef 13       		.uleb128 0x13
 1583 00f0 05       		.uleb128 0x5
 1584 00f1 00       		.byte	0
 1585 00f2 03       		.uleb128 0x3
 1586 00f3 0E       		.uleb128 0xe
 1587 00f4 3A       		.uleb128 0x3a
 1588 00f5 0B       		.uleb128 0xb
 1589 00f6 3B       		.uleb128 0x3b
 1590 00f7 0B       		.uleb128 0xb
 1591 00f8 39       		.uleb128 0x39
 1592 00f9 0B       		.uleb128 0xb
 1593 00fa 49       		.uleb128 0x49
 1594 00fb 13       		.uleb128 0x13
 1595 00fc 02       		.uleb128 0x2
 1596 00fd 06       		.uleb128 0x6
 1597 00fe B742     		.uleb128 0x2137
 1598 0100 06       		.uleb128 0x6
 1599 0101 00       		.byte	0
 1600 0102 00       		.byte	0
 1601 0103 14       		.uleb128 0x14
 1602 0104 05       		.uleb128 0x5
 1603 0105 00       		.byte	0
 1604 0106 03       		.uleb128 0x3
 1605 0107 08       		.uleb128 0x8
 1606 0108 3A       		.uleb128 0x3a
 1607 0109 0B       		.uleb128 0xb
ARM GAS  C:\Users\user\AppData\Local\Temp\ccsZLEGd.s 			page 32


 1608 010a 3B       		.uleb128 0x3b
 1609 010b 0B       		.uleb128 0xb
 1610 010c 39       		.uleb128 0x39
 1611 010d 0B       		.uleb128 0xb
 1612 010e 49       		.uleb128 0x49
 1613 010f 13       		.uleb128 0x13
 1614 0110 02       		.uleb128 0x2
 1615 0111 06       		.uleb128 0x6
 1616 0112 B742     		.uleb128 0x2137
 1617 0114 06       		.uleb128 0x6
 1618 0115 00       		.byte	0
 1619 0116 00       		.byte	0
 1620 0117 15       		.uleb128 0x15
 1621 0118 898201   		.uleb128 0x4109
 1622 011b 00       		.byte	0
 1623 011c 11       		.uleb128 0x11
 1624 011d 01       		.uleb128 0x1
 1625 011e 31       		.uleb128 0x31
 1626 011f 13       		.uleb128 0x13
 1627 0120 00       		.byte	0
 1628 0121 00       		.byte	0
 1629 0122 16       		.uleb128 0x16
 1630 0123 2E       		.uleb128 0x2e
 1631 0124 01       		.byte	0x1
 1632 0125 3F       		.uleb128 0x3f
 1633 0126 0C       		.uleb128 0xc
 1634 0127 03       		.uleb128 0x3
 1635 0128 0E       		.uleb128 0xe
 1636 0129 3A       		.uleb128 0x3a
 1637 012a 0B       		.uleb128 0xb
 1638 012b 3B       		.uleb128 0x3b
 1639 012c 0B       		.uleb128 0xb
 1640 012d 39       		.uleb128 0x39
 1641 012e 0B       		.uleb128 0xb
 1642 012f 11       		.uleb128 0x11
 1643 0130 01       		.uleb128 0x1
 1644 0131 12       		.uleb128 0x12
 1645 0132 01       		.uleb128 0x1
 1646 0133 40       		.uleb128 0x40
 1647 0134 06       		.uleb128 0x6
 1648 0135 9742     		.uleb128 0x2117
 1649 0137 0C       		.uleb128 0xc
 1650 0138 01       		.uleb128 0x1
 1651 0139 13       		.uleb128 0x13
 1652 013a 00       		.byte	0
 1653 013b 00       		.byte	0
 1654 013c 17       		.uleb128 0x17
 1655 013d 898201   		.uleb128 0x4109
 1656 0140 01       		.byte	0x1
 1657 0141 11       		.uleb128 0x11
 1658 0142 01       		.uleb128 0x1
 1659 0143 31       		.uleb128 0x31
 1660 0144 13       		.uleb128 0x13
 1661 0145 01       		.uleb128 0x1
 1662 0146 13       		.uleb128 0x13
 1663 0147 00       		.byte	0
 1664 0148 00       		.byte	0
ARM GAS  C:\Users\user\AppData\Local\Temp\ccsZLEGd.s 			page 33


 1665 0149 18       		.uleb128 0x18
 1666 014a 8A8201   		.uleb128 0x410a
 1667 014d 00       		.byte	0
 1668 014e 02       		.uleb128 0x2
 1669 014f 0A       		.uleb128 0xa
 1670 0150 9142     		.uleb128 0x2111
 1671 0152 0A       		.uleb128 0xa
 1672 0153 00       		.byte	0
 1673 0154 00       		.byte	0
 1674 0155 19       		.uleb128 0x19
 1675 0156 898201   		.uleb128 0x4109
 1676 0159 01       		.byte	0x1
 1677 015a 11       		.uleb128 0x11
 1678 015b 01       		.uleb128 0x1
 1679 015c 31       		.uleb128 0x31
 1680 015d 13       		.uleb128 0x13
 1681 015e 00       		.byte	0
 1682 015f 00       		.byte	0
 1683 0160 1A       		.uleb128 0x1a
 1684 0161 2E       		.uleb128 0x2e
 1685 0162 01       		.byte	0x1
 1686 0163 3F       		.uleb128 0x3f
 1687 0164 0C       		.uleb128 0xc
 1688 0165 03       		.uleb128 0x3
 1689 0166 0E       		.uleb128 0xe
 1690 0167 3A       		.uleb128 0x3a
 1691 0168 0B       		.uleb128 0xb
 1692 0169 3B       		.uleb128 0x3b
 1693 016a 0B       		.uleb128 0xb
 1694 016b 39       		.uleb128 0x39
 1695 016c 0B       		.uleb128 0xb
 1696 016d 27       		.uleb128 0x27
 1697 016e 0C       		.uleb128 0xc
 1698 016f 11       		.uleb128 0x11
 1699 0170 01       		.uleb128 0x1
 1700 0171 12       		.uleb128 0x12
 1701 0172 01       		.uleb128 0x1
 1702 0173 40       		.uleb128 0x40
 1703 0174 0A       		.uleb128 0xa
 1704 0175 9742     		.uleb128 0x2117
 1705 0177 0C       		.uleb128 0xc
 1706 0178 01       		.uleb128 0x1
 1707 0179 13       		.uleb128 0x13
 1708 017a 00       		.byte	0
 1709 017b 00       		.byte	0
 1710 017c 1B       		.uleb128 0x1b
 1711 017d 898201   		.uleb128 0x4109
 1712 0180 01       		.byte	0x1
 1713 0181 11       		.uleb128 0x11
 1714 0182 01       		.uleb128 0x1
 1715 0183 9542     		.uleb128 0x2115
 1716 0185 0C       		.uleb128 0xc
 1717 0186 31       		.uleb128 0x31
 1718 0187 13       		.uleb128 0x13
 1719 0188 00       		.byte	0
 1720 0189 00       		.byte	0
 1721 018a 1C       		.uleb128 0x1c
ARM GAS  C:\Users\user\AppData\Local\Temp\ccsZLEGd.s 			page 34


 1722 018b 05       		.uleb128 0x5
 1723 018c 00       		.byte	0
 1724 018d 03       		.uleb128 0x3
 1725 018e 0E       		.uleb128 0xe
 1726 018f 3A       		.uleb128 0x3a
 1727 0190 0B       		.uleb128 0xb
 1728 0191 3B       		.uleb128 0x3b
 1729 0192 0B       		.uleb128 0xb
 1730 0193 39       		.uleb128 0x39
 1731 0194 0B       		.uleb128 0xb
 1732 0195 49       		.uleb128 0x49
 1733 0196 13       		.uleb128 0x13
 1734 0197 02       		.uleb128 0x2
 1735 0198 0A       		.uleb128 0xa
 1736 0199 00       		.byte	0
 1737 019a 00       		.byte	0
 1738 019b 1D       		.uleb128 0x1d
 1739 019c 05       		.uleb128 0x5
 1740 019d 00       		.byte	0
 1741 019e 03       		.uleb128 0x3
 1742 019f 08       		.uleb128 0x8
 1743 01a0 3A       		.uleb128 0x3a
 1744 01a1 0B       		.uleb128 0xb
 1745 01a2 3B       		.uleb128 0x3b
 1746 01a3 0B       		.uleb128 0xb
 1747 01a4 39       		.uleb128 0x39
 1748 01a5 0B       		.uleb128 0xb
 1749 01a6 49       		.uleb128 0x49
 1750 01a7 13       		.uleb128 0x13
 1751 01a8 02       		.uleb128 0x2
 1752 01a9 0A       		.uleb128 0xa
 1753 01aa 00       		.byte	0
 1754 01ab 00       		.byte	0
 1755 01ac 1E       		.uleb128 0x1e
 1756 01ad 2E       		.uleb128 0x2e
 1757 01ae 01       		.byte	0x1
 1758 01af 3F       		.uleb128 0x3f
 1759 01b0 0C       		.uleb128 0xc
 1760 01b1 03       		.uleb128 0x3
 1761 01b2 0E       		.uleb128 0xe
 1762 01b3 3A       		.uleb128 0x3a
 1763 01b4 0B       		.uleb128 0xb
 1764 01b5 3B       		.uleb128 0x3b
 1765 01b6 0B       		.uleb128 0xb
 1766 01b7 39       		.uleb128 0x39
 1767 01b8 0B       		.uleb128 0xb
 1768 01b9 27       		.uleb128 0x27
 1769 01ba 0C       		.uleb128 0xc
 1770 01bb 11       		.uleb128 0x11
 1771 01bc 01       		.uleb128 0x1
 1772 01bd 12       		.uleb128 0x12
 1773 01be 01       		.uleb128 0x1
 1774 01bf 40       		.uleb128 0x40
 1775 01c0 06       		.uleb128 0x6
 1776 01c1 9742     		.uleb128 0x2117
 1777 01c3 0C       		.uleb128 0xc
 1778 01c4 01       		.uleb128 0x1
ARM GAS  C:\Users\user\AppData\Local\Temp\ccsZLEGd.s 			page 35


 1779 01c5 13       		.uleb128 0x13
 1780 01c6 00       		.byte	0
 1781 01c7 00       		.byte	0
 1782 01c8 1F       		.uleb128 0x1f
 1783 01c9 0B       		.uleb128 0xb
 1784 01ca 01       		.byte	0x1
 1785 01cb 55       		.uleb128 0x55
 1786 01cc 06       		.uleb128 0x6
 1787 01cd 01       		.uleb128 0x1
 1788 01ce 13       		.uleb128 0x13
 1789 01cf 00       		.byte	0
 1790 01d0 00       		.byte	0
 1791 01d1 20       		.uleb128 0x20
 1792 01d2 34       		.uleb128 0x34
 1793 01d3 00       		.byte	0
 1794 01d4 03       		.uleb128 0x3
 1795 01d5 0E       		.uleb128 0xe
 1796 01d6 3A       		.uleb128 0x3a
 1797 01d7 0B       		.uleb128 0xb
 1798 01d8 3B       		.uleb128 0x3b
 1799 01d9 0B       		.uleb128 0xb
 1800 01da 39       		.uleb128 0x39
 1801 01db 0B       		.uleb128 0xb
 1802 01dc 49       		.uleb128 0x49
 1803 01dd 13       		.uleb128 0x13
 1804 01de 02       		.uleb128 0x2
 1805 01df 0A       		.uleb128 0xa
 1806 01e0 00       		.byte	0
 1807 01e1 00       		.byte	0
 1808 01e2 21       		.uleb128 0x21
 1809 01e3 0B       		.uleb128 0xb
 1810 01e4 01       		.byte	0x1
 1811 01e5 11       		.uleb128 0x11
 1812 01e6 01       		.uleb128 0x1
 1813 01e7 12       		.uleb128 0x12
 1814 01e8 01       		.uleb128 0x1
 1815 01e9 01       		.uleb128 0x1
 1816 01ea 13       		.uleb128 0x13
 1817 01eb 00       		.byte	0
 1818 01ec 00       		.byte	0
 1819 01ed 22       		.uleb128 0x22
 1820 01ee 34       		.uleb128 0x34
 1821 01ef 00       		.byte	0
 1822 01f0 03       		.uleb128 0x3
 1823 01f1 0E       		.uleb128 0xe
 1824 01f2 3A       		.uleb128 0x3a
 1825 01f3 0B       		.uleb128 0xb
 1826 01f4 3B       		.uleb128 0x3b
 1827 01f5 0B       		.uleb128 0xb
 1828 01f6 39       		.uleb128 0x39
 1829 01f7 0B       		.uleb128 0xb
 1830 01f8 49       		.uleb128 0x49
 1831 01f9 13       		.uleb128 0x13
 1832 01fa 02       		.uleb128 0x2
 1833 01fb 06       		.uleb128 0x6
 1834 01fc B742     		.uleb128 0x2137
 1835 01fe 06       		.uleb128 0x6
ARM GAS  C:\Users\user\AppData\Local\Temp\ccsZLEGd.s 			page 36


 1836 01ff 00       		.byte	0
 1837 0200 00       		.byte	0
 1838 0201 23       		.uleb128 0x23
 1839 0202 0B       		.uleb128 0xb
 1840 0203 01       		.byte	0x1
 1841 0204 11       		.uleb128 0x11
 1842 0205 01       		.uleb128 0x1
 1843 0206 12       		.uleb128 0x12
 1844 0207 01       		.uleb128 0x1
 1845 0208 00       		.byte	0
 1846 0209 00       		.byte	0
 1847 020a 24       		.uleb128 0x24
 1848 020b 34       		.uleb128 0x34
 1849 020c 00       		.byte	0
 1850 020d 03       		.uleb128 0x3
 1851 020e 08       		.uleb128 0x8
 1852 020f 3A       		.uleb128 0x3a
 1853 0210 0B       		.uleb128 0xb
 1854 0211 3B       		.uleb128 0x3b
 1855 0212 0B       		.uleb128 0xb
 1856 0213 39       		.uleb128 0x39
 1857 0214 0B       		.uleb128 0xb
 1858 0215 49       		.uleb128 0x49
 1859 0216 13       		.uleb128 0x13
 1860 0217 02       		.uleb128 0x2
 1861 0218 06       		.uleb128 0x6
 1862 0219 B742     		.uleb128 0x2137
 1863 021b 06       		.uleb128 0x6
 1864 021c 00       		.byte	0
 1865 021d 00       		.byte	0
 1866 021e 25       		.uleb128 0x25
 1867 021f 898201   		.uleb128 0x4109
 1868 0222 01       		.byte	0x1
 1869 0223 11       		.uleb128 0x11
 1870 0224 01       		.uleb128 0x1
 1871 0225 00       		.byte	0
 1872 0226 00       		.byte	0
 1873 0227 26       		.uleb128 0x26
 1874 0228 2E       		.uleb128 0x2e
 1875 0229 00       		.byte	0
 1876 022a 3F       		.uleb128 0x3f
 1877 022b 0C       		.uleb128 0xc
 1878 022c 3C       		.uleb128 0x3c
 1879 022d 0C       		.uleb128 0xc
 1880 022e 8740     		.uleb128 0x2007
 1881 0230 0E       		.uleb128 0xe
 1882 0231 03       		.uleb128 0x3
 1883 0232 0E       		.uleb128 0xe
 1884 0233 3A       		.uleb128 0x3a
 1885 0234 0B       		.uleb128 0xb
 1886 0235 3B       		.uleb128 0x3b
 1887 0236 0B       		.uleb128 0xb
 1888 0237 39       		.uleb128 0x39
 1889 0238 0B       		.uleb128 0xb
 1890 0239 00       		.byte	0
 1891 023a 00       		.byte	0
 1892 023b 27       		.uleb128 0x27
ARM GAS  C:\Users\user\AppData\Local\Temp\ccsZLEGd.s 			page 37


 1893 023c 2E       		.uleb128 0x2e
 1894 023d 00       		.byte	0
 1895 023e 3F       		.uleb128 0x3f
 1896 023f 0C       		.uleb128 0xc
 1897 0240 3C       		.uleb128 0x3c
 1898 0241 0C       		.uleb128 0xc
 1899 0242 8740     		.uleb128 0x2007
 1900 0244 0E       		.uleb128 0xe
 1901 0245 03       		.uleb128 0x3
 1902 0246 0E       		.uleb128 0xe
 1903 0247 3A       		.uleb128 0x3a
 1904 0248 0B       		.uleb128 0xb
 1905 0249 3B       		.uleb128 0x3b
 1906 024a 05       		.uleb128 0x5
 1907 024b 39       		.uleb128 0x39
 1908 024c 0B       		.uleb128 0xb
 1909 024d 00       		.byte	0
 1910 024e 00       		.byte	0
 1911 024f 00       		.byte	0
 1912              		.section	.debug_loc,"",%progbits
 1913              	.Ldebug_loc0:
 1914              	.LLST7:
 1915 0000 DC000000 		.4byte	.LFB41-.Ltext0
 1916 0004 DE000000 		.4byte	.LCFI4-.Ltext0
 1917 0008 0200     		.2byte	0x2
 1918 000a 7D       		.byte	0x7d
 1919 000b 00       		.sleb128 0
 1920 000c DE000000 		.4byte	.LCFI4-.Ltext0
 1921 0010 F0000000 		.4byte	.LFE41-.Ltext0
 1922 0014 0200     		.2byte	0x2
 1923 0016 7D       		.byte	0x7d
 1924 0017 08       		.sleb128 8
 1925 0018 00000000 		.4byte	0
 1926 001c 00000000 		.4byte	0
 1927              	.LVUS8:
 1928 0020 00       		.uleb128 0
 1929 0021 00       		.uleb128 .LVU66
 1930 0022 00       		.uleb128 .LVU66
 1931 0023 00       		.uleb128 .LVU67
 1932 0024 00       		.uleb128 .LVU67
 1933 0025 00       		.uleb128 0
 1934              	.LLST8:
 1935 0026 DC000000 		.4byte	.LVL19-.Ltext0
 1936 002a E4000000 		.4byte	.LVL20-.Ltext0
 1937 002e 0100     		.2byte	0x1
 1938 0030 50       		.byte	0x50
 1939 0031 E4000000 		.4byte	.LVL20-.Ltext0
 1940 0035 E7000000 		.4byte	.LVL21-1-.Ltext0
 1941 0039 0500     		.2byte	0x5
 1942 003b 03       		.byte	0x3
 1943 003c 00000000 		.4byte	sensor_man
 1944 0040 E7000000 		.4byte	.LVL21-1-.Ltext0
 1945 0044 F0000000 		.4byte	.LFE41-.Ltext0
 1946 0048 0400     		.2byte	0x4
 1947 004a F3       		.byte	0xf3
 1948 004b 01       		.uleb128 0x1
 1949 004c 50       		.byte	0x50
ARM GAS  C:\Users\user\AppData\Local\Temp\ccsZLEGd.s 			page 38


 1950 004d 9F       		.byte	0x9f
 1951 004e 00000000 		.4byte	0
 1952 0052 00000000 		.4byte	0
 1953              	.LVUS9:
 1954 0056 00       		.uleb128 0
 1955 0057 00       		.uleb128 .LVU67
 1956 0058 00       		.uleb128 .LVU67
 1957 0059 00       		.uleb128 0
 1958              	.LLST9:
 1959 005a DC000000 		.4byte	.LVL19-.Ltext0
 1960 005e E7000000 		.4byte	.LVL21-1-.Ltext0
 1961 0062 0100     		.2byte	0x1
 1962 0064 51       		.byte	0x51
 1963 0065 E7000000 		.4byte	.LVL21-1-.Ltext0
 1964 0069 F0000000 		.4byte	.LFE41-.Ltext0
 1965 006d 0400     		.2byte	0x4
 1966 006f F3       		.byte	0xf3
 1967 0070 01       		.uleb128 0x1
 1968 0071 51       		.byte	0x51
 1969 0072 9F       		.byte	0x9f
 1970 0073 00000000 		.4byte	0
 1971 0077 00000000 		.4byte	0
 1972              	.LLST6:
 1973 007b 78000000 		.4byte	.LFB40-.Ltext0
 1974 007f 7A000000 		.4byte	.LCFI2-.Ltext0
 1975 0083 0200     		.2byte	0x2
 1976 0085 7D       		.byte	0x7d
 1977 0086 00       		.sleb128 0
 1978 0087 7A000000 		.4byte	.LCFI2-.Ltext0
 1979 008b BE000000 		.4byte	.LCFI3-.Ltext0
 1980 008f 0200     		.2byte	0x2
 1981 0091 7D       		.byte	0x7d
 1982 0092 18       		.sleb128 24
 1983 0093 BE000000 		.4byte	.LCFI3-.Ltext0
 1984 0097 DC000000 		.4byte	.LFE40-.Ltext0
 1985 009b 0200     		.2byte	0x2
 1986 009d 7D       		.byte	0x7d
 1987 009e 0C       		.sleb128 12
 1988 009f 00000000 		.4byte	0
 1989 00a3 00000000 		.4byte	0
 1990              	.LVUS5:
 1991 00a7 00       		.uleb128 0
 1992 00a8 00       		.uleb128 .LVU42
 1993 00a9 00       		.uleb128 .LVU42
 1994 00aa 00       		.uleb128 0
 1995              	.LLST5:
 1996 00ab 64000000 		.4byte	.LVL12-.Ltext0
 1997 00af 68000000 		.4byte	.LVL13-.Ltext0
 1998 00b3 0100     		.2byte	0x1
 1999 00b5 50       		.byte	0x50
 2000 00b6 68000000 		.4byte	.LVL13-.Ltext0
 2001 00ba 78000000 		.4byte	.LFE39-.Ltext0
 2002 00be 0400     		.2byte	0x4
 2003 00c0 F3       		.byte	0xf3
 2004 00c1 01       		.uleb128 0x1
 2005 00c2 50       		.byte	0x50
 2006 00c3 9F       		.byte	0x9f
ARM GAS  C:\Users\user\AppData\Local\Temp\ccsZLEGd.s 			page 39


 2007 00c4 00000000 		.4byte	0
 2008 00c8 00000000 		.4byte	0
 2009              	.LLST0:
 2010 00cc 02000000 		.4byte	.LFB37-.Ltext0
 2011 00d0 04000000 		.4byte	.LCFI0-.Ltext0
 2012 00d4 0200     		.2byte	0x2
 2013 00d6 7D       		.byte	0x7d
 2014 00d7 00       		.sleb128 0
 2015 00d8 04000000 		.4byte	.LCFI0-.Ltext0
 2016 00dc 08000000 		.4byte	.LCFI1-.Ltext0
 2017 00e0 0200     		.2byte	0x2
 2018 00e2 7D       		.byte	0x7d
 2019 00e3 0C       		.sleb128 12
 2020 00e4 08000000 		.4byte	.LCFI1-.Ltext0
 2021 00e8 64000000 		.4byte	.LFE37-.Ltext0
 2022 00ec 0300     		.2byte	0x3
 2023 00ee 7D       		.byte	0x7d
 2024 00ef A001     		.sleb128 160
 2025 00f1 00000000 		.4byte	0
 2026 00f5 00000000 		.4byte	0
 2027              	.LVUS1:
 2028 00f9 00       		.uleb128 0
 2029 00fa 00       		.uleb128 .LVU8
 2030 00fb 00       		.uleb128 .LVU8
 2031 00fc 00       		.uleb128 0
 2032              	.LLST1:
 2033 00fd 02000000 		.4byte	.LVL1-.Ltext0
 2034 0101 0D000000 		.4byte	.LVL2-1-.Ltext0
 2035 0105 0100     		.2byte	0x1
 2036 0107 50       		.byte	0x50
 2037 0108 0D000000 		.4byte	.LVL2-1-.Ltext0
 2038 010c 64000000 		.4byte	.LFE37-.Ltext0
 2039 0110 0400     		.2byte	0x4
 2040 0112 F3       		.byte	0xf3
 2041 0113 01       		.uleb128 0x1
 2042 0114 50       		.byte	0x50
 2043 0115 9F       		.byte	0x9f
 2044 0116 00000000 		.4byte	0
 2045 011a 00000000 		.4byte	0
 2046              	.LVUS2:
 2047 011e 00       		.uleb128 .LVU15
 2048 011f 00       		.uleb128 .LVU26
 2049              	.LLST2:
 2050 0120 2C000000 		.4byte	.LVL5-.Ltext0
 2051 0124 3C000000 		.4byte	.LVL9-.Ltext0
 2052 0128 0100     		.2byte	0x1
 2053 012a 50       		.byte	0x50
 2054 012b 00000000 		.4byte	0
 2055 012f 00000000 		.4byte	0
 2056              	.LVUS3:
 2057 0133 01       		.uleb128 .LVU24
 2058 0134 00       		.uleb128 .LVU26
 2059              	.LLST3:
 2060 0135 38000000 		.4byte	.LVL8-.Ltext0
 2061 0139 3C000000 		.4byte	.LVL9-.Ltext0
 2062 013d 0500     		.2byte	0x5
 2063 013f 70       		.byte	0x70
ARM GAS  C:\Users\user\AppData\Local\Temp\ccsZLEGd.s 			page 40


 2064 0140 00       		.sleb128 0
 2065 0141 36       		.byte	0x36
 2066 0142 25       		.byte	0x25
 2067 0143 9F       		.byte	0x9f
 2068 0144 00000000 		.4byte	0
 2069 0148 00000000 		.4byte	0
 2070              	.LVUS4:
 2071 014c 00       		.uleb128 .LVU15
 2072 014d 00       		.uleb128 .LVU18
 2073 014e 00       		.uleb128 .LVU18
 2074 014f 01       		.uleb128 .LVU21
 2075              	.LLST4:
 2076 0150 2C000000 		.4byte	.LVL5-.Ltext0
 2077 0154 32000000 		.4byte	.LVL6-.Ltext0
 2078 0158 0300     		.2byte	0x3
 2079 015a 73       		.byte	0x73
 2080 015b 7F       		.sleb128 -1
 2081 015c 9F       		.byte	0x9f
 2082 015d 32000000 		.4byte	.LVL6-.Ltext0
 2083 0161 36000000 		.4byte	.LVL7-.Ltext0
 2084 0165 0300     		.2byte	0x3
 2085 0167 73       		.byte	0x73
 2086 0168 7E       		.sleb128 -2
 2087 0169 9F       		.byte	0x9f
 2088 016a 00000000 		.4byte	0
 2089 016e 00000000 		.4byte	0
 2090              		.section	.debug_aranges,"",%progbits
 2091 0000 1C000000 		.4byte	0x1c
 2092 0004 0200     		.2byte	0x2
 2093 0006 00000000 		.4byte	.Ldebug_info0
 2094 000a 04       		.byte	0x4
 2095 000b 00       		.byte	0
 2096 000c 0000     		.2byte	0
 2097 000e 0000     		.2byte	0
 2098 0010 00000000 		.4byte	.Ltext0
 2099 0014 F0000000 		.4byte	.Letext0-.Ltext0
 2100 0018 00000000 		.4byte	0
 2101 001c 00000000 		.4byte	0
 2102              		.section	.debug_ranges,"",%progbits
 2103              	.Ldebug_ranges0:
 2104 0000 1E000000 		.4byte	.LBB2-.Ltext0
 2105 0004 20000000 		.4byte	.LBE2-.Ltext0
 2106 0008 20000000 		.4byte	.LBB5-.Ltext0
 2107 000c 5E000000 		.4byte	.LBE5-.Ltext0
 2108 0010 00000000 		.4byte	0
 2109 0014 00000000 		.4byte	0
 2110              		.section	.debug_line,"",%progbits
 2111              	.Ldebug_line0:
 2112 0000 4F030000 		.section	.debug_str,"MS",%progbits,1
 2112      03002802 
 2112      00000201 
 2112      FB0E0D00 
 2112      01010101 
 2113              	.LASF79:
 2114 0000 41646343 		.ascii	"AdcChannelRead\000"
 2114      68616E6E 
 2114      656C5265 
ARM GAS  C:\Users\user\AppData\Local\Temp\ccsZLEGd.s 			page 41


 2114      616400
 2115              	.LASF56:
 2116 000f 74656D70 		.ascii	"temperatureval\000"
 2116      65726174 
 2116      75726576 
 2116      616C00
 2117              	.LASF27:
 2118 001e 4144435F 		.ascii	"ADC_CHANNEL1\000"
 2118      4348414E 
 2118      4E454C31 
 2118      00
 2119              	.LASF86:
 2120 002b 53656E73 		.ascii	"SensorCreate\000"
 2120      6F724372 
 2120      65617465 
 2120      00
 2121              	.LASF66:
 2122 0038 7265706C 		.ascii	"reply\000"
 2122      7900
 2123              	.LASF24:
 2124 003e 54696D65 		.ascii	"TimerHandle_t\000"
 2124      7248616E 
 2124      646C655F 
 2124      7400
 2125              	.LASF52:
 2126 004c 53656E73 		.ascii	"SensorCallback\000"
 2126      6F724361 
 2126      6C6C6261 
 2126      636B00
 2127              	.LASF2:
 2128 005b 73686F72 		.ascii	"short int\000"
 2128      7420696E 
 2128      7400
 2129              	.LASF15:
 2130 0065 73697A65 		.ascii	"size_t\000"
 2130      5F7400
 2131              	.LASF60:
 2132 006c 73656E73 		.ascii	"sensor\000"
 2132      6F7200
 2133              	.LASF36:
 2134 0073 4144435F 		.ascii	"ADC_CHANNEL10\000"
 2134      4348414E 
 2134      4E454C31 
 2134      3000
 2135              	.LASF37:
 2136 0081 4144435F 		.ascii	"ADC_CHANNEL11\000"
 2136      4348414E 
 2136      4E454C31 
 2136      3100
 2137              	.LASF38:
 2138 008f 4144435F 		.ascii	"ADC_CHANNEL12\000"
 2138      4348414E 
 2138      4E454C31 
 2138      3200
 2139              	.LASF39:
 2140 009d 4144435F 		.ascii	"ADC_CHANNEL13\000"
 2140      4348414E 
ARM GAS  C:\Users\user\AppData\Local\Temp\ccsZLEGd.s 			page 42


 2140      4E454C31 
 2140      3300
 2141              	.LASF40:
 2142 00ab 4144435F 		.ascii	"ADC_CHANNEL14\000"
 2142      4348414E 
 2142      4E454C31 
 2142      3400
 2143              	.LASF69:
 2144 00b9 76696274 		.ascii	"vibtask\000"
 2144      61736B00 
 2145              	.LASF42:
 2146 00c1 4144435F 		.ascii	"ADC_CHANNEL16\000"
 2146      4348414E 
 2146      4E454C31 
 2146      3600
 2147              	.LASF43:
 2148 00cf 4144435F 		.ascii	"ADC_CHANNEL17\000"
 2148      4348414E 
 2148      4E454C31 
 2148      3700
 2149              	.LASF22:
 2150 00dd 44656275 		.ascii	"DebugChannel\000"
 2150      67436861 
 2150      6E6E656C 
 2150      00
 2151              	.LASF7:
 2152 00ea 5F5F7569 		.ascii	"__uint32_t\000"
 2152      6E743332 
 2152      5F7400
 2153              	.LASF4:
 2154 00f5 5F5F7569 		.ascii	"__uint16_t\000"
 2154      6E743136 
 2154      5F7400
 2155              	.LASF12:
 2156 0100 75696E74 		.ascii	"uint8_t\000"
 2156      385F7400 
 2157              	.LASF63:
 2158 0108 74696D65 		.ascii	"timer\000"
 2158      7200
 2159              	.LASF76:
 2160 010e 7854696D 		.ascii	"xTimerCreate\000"
 2160      65724372 
 2160      65617465 
 2160      00
 2161              	.LASF50:
 2162 011b 4368616E 		.ascii	"ChannelBuffer\000"
 2162      6E656C42 
 2162      75666665 
 2162      7200
 2163              	.LASF68:
 2164 0129 53656E73 		.ascii	"SensorTask\000"
 2164      6F725461 
 2164      736B00
 2165              	.LASF44:
 2166 0134 41646343 		.ascii	"AdcChannelId\000"
 2166      68616E6E 
 2166      656C4964 
ARM GAS  C:\Users\user\AppData\Local\Temp\ccsZLEGd.s 			page 43


 2166      00
 2167              	.LASF78:
 2168 0141 78517565 		.ascii	"xQueueGenericSend\000"
 2168      75654765 
 2168      6E657269 
 2168      6353656E 
 2168      6400
 2169              	.LASF70:
 2170 0153 73656E73 		.ascii	"sensor_man\000"
 2170      6F725F6D 
 2170      616E00
 2171              	.LASF58:
 2172 015e 73656E73 		.ascii	"sensor_timer\000"
 2172      6F725F74 
 2172      696D6572 
 2172      00
 2173              	.LASF9:
 2174 016b 6C6F6E67 		.ascii	"long long int\000"
 2174      206C6F6E 
 2174      6720696E 
 2174      7400
 2175              	.LASF45:
 2176 0179 4144435F 		.ascii	"ADC_STATUS_SUCCESS\000"
 2176      53544154 
 2176      55535F53 
 2176      55434345 
 2176      535300
 2177              	.LASF46:
 2178 018c 4144435F 		.ascii	"ADC_STATUS_ERROR\000"
 2178      53544154 
 2178      55535F45 
 2178      52524F52 
 2178      00
 2179              	.LASF47:
 2180 019d 4144435F 		.ascii	"ADC_STATUS_BAD_PTR\000"
 2180      53544154 
 2180      55535F42 
 2180      41445F50 
 2180      545200
 2181              	.LASF48:
 2182 01b0 4144435F 		.ascii	"ADC_STATUS_TIMEOUT\000"
 2182      53544154 
 2182      55535F54 
 2182      494D454F 
 2182      555400
 2183              	.LASF6:
 2184 01c3 6C6F6E67 		.ascii	"long int\000"
 2184      20696E74 
 2184      00
 2185              	.LASF73:
 2186 01cc 41646343 		.ascii	"AdcChannelCreate\000"
 2186      68616E6E 
 2186      656C4372 
 2186      65617465 
 2186      00
 2187              	.LASF3:
 2188 01dd 5F5F7569 		.ascii	"__uint8_t\000"
ARM GAS  C:\Users\user\AppData\Local\Temp\ccsZLEGd.s 			page 44


 2188      6E74385F 
 2188      7400
 2189              	.LASF81:
 2190 01e7 78546173 		.ascii	"xTaskGetTickCount\000"
 2190      6B476574 
 2190      5469636B 
 2190      436F756E 
 2190      7400
 2191              	.LASF21:
 2192 01f9 51756575 		.ascii	"QueueHandle_t\000"
 2192      6548616E 
 2192      646C655F 
 2192      7400
 2193              	.LASF51:
 2194 0207 53656E73 		.ascii	"Sensor\000"
 2194      6F7200
 2195              	.LASF20:
 2196 020e 5469636B 		.ascii	"TickType_t\000"
 2196      54797065 
 2196      5F7400
 2197              	.LASF16:
 2198 0219 6C6F6E67 		.ascii	"long double\000"
 2198      20646F75 
 2198      626C6500 
 2199              	.LASF77:
 2200 0225 78517565 		.ascii	"xQueueGenericCreate\000"
 2200      75654765 
 2200      6E657269 
 2200      63437265 
 2200      61746500 
 2201              	.LASF23:
 2202 0239 53656D61 		.ascii	"SemaphoreHandle_t\000"
 2202      70686F72 
 2202      6548616E 
 2202      646C655F 
 2202      7400
 2203              	.LASF26:
 2204 024b 4144435F 		.ascii	"ADC_CHANNEL0\000"
 2204      4348414E 
 2204      4E454C30 
 2204      00
 2205              	.LASF1:
 2206 0258 756E7369 		.ascii	"unsigned char\000"
 2206      676E6564 
 2206      20636861 
 2206      7200
 2207              	.LASF28:
 2208 0266 4144435F 		.ascii	"ADC_CHANNEL2\000"
 2208      4348414E 
 2208      4E454C32 
 2208      00
 2209              	.LASF29:
 2210 0273 4144435F 		.ascii	"ADC_CHANNEL3\000"
 2210      4348414E 
 2210      4E454C33 
 2210      00
 2211              	.LASF30:
ARM GAS  C:\Users\user\AppData\Local\Temp\ccsZLEGd.s 			page 45


 2212 0280 4144435F 		.ascii	"ADC_CHANNEL4\000"
 2212      4348414E 
 2212      4E454C34 
 2212      00
 2213              	.LASF31:
 2214 028d 4144435F 		.ascii	"ADC_CHANNEL5\000"
 2214      4348414E 
 2214      4E454C35 
 2214      00
 2215              	.LASF32:
 2216 029a 4144435F 		.ascii	"ADC_CHANNEL6\000"
 2216      4348414E 
 2216      4E454C36 
 2216      00
 2217              	.LASF33:
 2218 02a7 4144435F 		.ascii	"ADC_CHANNEL7\000"
 2218      4348414E 
 2218      4E454C37 
 2218      00
 2219              	.LASF34:
 2220 02b4 4144435F 		.ascii	"ADC_CHANNEL8\000"
 2220      4348414E 
 2220      4E454C38 
 2220      00
 2221              	.LASF35:
 2222 02c1 4144435F 		.ascii	"ADC_CHANNEL9\000"
 2222      4348414E 
 2222      4E454C39 
 2222      00
 2223              	.LASF0:
 2224 02ce 7369676E 		.ascii	"signed char\000"
 2224      65642063 
 2224      68617200 
 2225              	.LASF10:
 2226 02da 6C6F6E67 		.ascii	"long long unsigned int\000"
 2226      206C6F6E 
 2226      6720756E 
 2226      7369676E 
 2226      65642069 
 2227              	.LASF14:
 2228 02f1 75696E74 		.ascii	"uint32_t\000"
 2228      33325F74 
 2228      00
 2229              	.LASF82:
 2230 02fa 7854696D 		.ascii	"xTimerGenericCommand\000"
 2230      65724765 
 2230      6E657269 
 2230      63436F6D 
 2230      6D616E64 
 2231              	.LASF11:
 2232 030f 756E7369 		.ascii	"unsigned int\000"
 2232      676E6564 
 2232      20696E74 
 2232      00
 2233              	.LASF13:
 2234 031c 75696E74 		.ascii	"uint16_t\000"
 2234      31365F74 
ARM GAS  C:\Users\user\AppData\Local\Temp\ccsZLEGd.s 			page 46


 2234      00
 2235              	.LASF18:
 2236 0325 42617365 		.ascii	"BaseType_t\000"
 2236      54797065 
 2236      5F7400
 2237              	.LASF5:
 2238 0330 73686F72 		.ascii	"short unsigned int\000"
 2238      7420756E 
 2238      7369676E 
 2238      65642069 
 2238      6E7400
 2239              	.LASF17:
 2240 0343 63686172 		.ascii	"char\000"
 2240      00
 2241              	.LASF67:
 2242 0348 6C697374 		.ascii	"list\000"
 2242      00
 2243              	.LASF61:
 2244 034d 73656E73 		.ascii	"sensor_sem\000"
 2244      6F725F73 
 2244      656D00
 2245              	.LASF71:
 2246 0358 74656D70 		.ascii	"temp_avg\000"
 2246      5F617667 
 2246      00
 2247              	.LASF53:
 2248 0361 5F426F6F 		.ascii	"_Bool\000"
 2248      6C00
 2249              	.LASF75:
 2250 0367 78546173 		.ascii	"xTaskCreate\000"
 2250      6B437265 
 2250      61746500 
 2251              	.LASF55:
 2252 0373 6368616E 		.ascii	"channel\000"
 2252      6E656C00 
 2253              	.LASF88:
 2254 037b 61646174 		.ascii	"adata\000"
 2254      6100
 2255              	.LASF64:
 2256 0381 53656E73 		.ascii	"SensorTimerHandler\000"
 2256      6F725469 
 2256      6D657248 
 2256      616E646C 
 2256      657200
 2257              	.LASF49:
 2258 0394 62756666 		.ascii	"buffer\000"
 2258      657200
 2259              	.LASF59:
 2260 039b 53656E73 		.ascii	"SensorReaderPrv\000"
 2260      6F725265 
 2260      61646572 
 2260      50727600 
 2261              	.LASF87:
 2262 03ab 53656E73 		.ascii	"SensorInit\000"
 2262      6F72496E 
 2262      697400
 2263              	.LASF8:
ARM GAS  C:\Users\user\AppData\Local\Temp\ccsZLEGd.s 			page 47


 2264 03b6 6C6F6E67 		.ascii	"long unsigned int\000"
 2264      20756E73 
 2264      69676E65 
 2264      6420696E 
 2264      7400
 2265              	.LASF41:
 2266 03c8 4144435F 		.ascii	"ADC_CHANNEL15\000"
 2266      4348414E 
 2266      4E454C31 
 2266      3500
 2267              	.LASF19:
 2268 03d6 55426173 		.ascii	"UBaseType_t\000"
 2268      65547970 
 2268      655F7400 
 2269              	.LASF85:
 2270 03e2 443A5C47 		.ascii	"D:\\Git Codes\\Lock\\Lock\000"
 2270      69742043 
 2270      6F646573 
 2270      5C4C6F63 
 2270      6B5C4C6F 
 2271              	.LASF72:
 2272 03f9 74656D70 		.ascii	"tempvoltage\000"
 2272      766F6C74 
 2272      61676500 
 2273              	.LASF25:
 2274 0405 41646343 		.ascii	"AdcChannel\000"
 2274      68616E6E 
 2274      656C00
 2275              	.LASF62:
 2276 0410 53656E73 		.ascii	"SensorManager\000"
 2276      6F724D61 
 2276      6E616765 
 2276      7200
 2277              	.LASF80:
 2278 041e 78517565 		.ascii	"xQueueGenericReceive\000"
 2278      75654765 
 2278      6E657269 
 2278      63526563 
 2278      65697665 
 2279              	.LASF84:
 2280 0433 75736572 		.ascii	"user/driver/sensor/sensor.c\000"
 2280      2F647269 
 2280      7665722F 
 2280      73656E73 
 2280      6F722F73 
 2281              	.LASF74:
 2282 044f 44656275 		.ascii	"DebugRegister\000"
 2282      67526567 
 2282      69737465 
 2282      7200
 2283              	.LASF57:
 2284 045d 74656D70 		.ascii	"tempsense_connected\000"
 2284      73656E73 
 2284      655F636F 
 2284      6E6E6563 
 2284      74656400 
 2285              	.LASF83:
ARM GAS  C:\Users\user\AppData\Local\Temp\ccsZLEGd.s 			page 48


 2286 0471 474E5520 		.ascii	"GNU C17 10.3.1 20210621 (release) -mcpu=cortex-m3 -"
 2286      43313720 
 2286      31302E33 
 2286      2E312032 
 2286      30323130 
 2287 04a4 6D746875 		.ascii	"mthumb -mfloat-abi=soft -march=armv7-m -g -gdwarf-2"
 2287      6D62202D 
 2287      6D666C6F 
 2287      61742D61 
 2287      62693D73 
 2288 04d7 202D4F73 		.ascii	" -Os -fomit-frame-pointer\000"
 2288      202D666F 
 2288      6D69742D 
 2288      6672616D 
 2288      652D706F 
 2289              	.LASF65:
 2290 04f1 53656E73 		.ascii	"SensorDebugHandler\000"
 2290      6F724465 
 2290      62756748 
 2290      616E646C 
 2290      657200
 2291              	.LASF54:
 2292 0504 63616C6C 		.ascii	"callback\000"
 2292      6261636B 
 2292      00
 2293              		.ident	"GCC: (GNU Arm Embedded Toolchain 10.3-2021.07) 10.3.1 20210621 (release)"
ARM GAS  C:\Users\user\AppData\Local\Temp\ccsZLEGd.s 			page 49


DEFINED SYMBOLS
                            *ABS*:00000000 sensor.c
C:\Users\user\AppData\Local\Temp\ccsZLEGd.s:83     .text:00000000 $t
C:\Users\user\AppData\Local\Temp\ccsZLEGd.s:91     .text:00000000 SensorDebugHandler
C:\Users\user\AppData\Local\Temp\ccsZLEGd.s:112    .text:00000002 SensorTask
C:\Users\user\AppData\Local\Temp\ccsZLEGd.s:246    .text:00000060 $d
C:\Users\user\AppData\Local\Temp\ccsZLEGd.s:250    .text:00000064 $t
C:\Users\user\AppData\Local\Temp\ccsZLEGd.s:257    .text:00000064 SensorTimerHandler
C:\Users\user\AppData\Local\Temp\ccsZLEGd.s:278    .text:00000074 $d
C:\Users\user\AppData\Local\Temp\ccsZLEGd.s:290    .text:00000078 $t
C:\Users\user\AppData\Local\Temp\ccsZLEGd.s:297    .text:00000078 SensorInit
C:\Users\user\AppData\Local\Temp\ccsZLEGd.s:375    .text:000000c0 $d
C:\Users\user\AppData\Local\Temp\ccsZLEGd.s:385    .text:000000dc $t
C:\Users\user\AppData\Local\Temp\ccsZLEGd.s:392    .text:000000dc SensorCreate
C:\Users\user\AppData\Local\Temp\ccsZLEGd.s:428    .text:000000ec $d
C:\Users\user\AppData\Local\Temp\ccsZLEGd.s:438    .bss:00000000 sensor_man
C:\Users\user\AppData\Local\Temp\ccsZLEGd.s:434    .bss:00000000 $d

UNDEFINED SYMBOLS
xTaskGetTickCount
xTimerGenericCommand
AdcChannelRead
xQueueGenericReceive
xQueueGenericSend
DebugRegister
xTaskCreate
xTimerCreate
xQueueGenericCreate
AdcChannelCreate
