ARM GAS  C:\Users\user\AppData\Local\Temp\ccH9wMRW.s 			page 1


   1              		.cpu cortex-m3
   2              		.eabi_attribute 20, 1	@ Tag_ABI_FP_denormal
   3              		.eabi_attribute 21, 1	@ Tag_ABI_FP_exceptions
   4              		.eabi_attribute 23, 3	@ Tag_ABI_FP_number_model
   5              		.eabi_attribute 24, 1	@ Tag_ABI_align8_needed
   6              		.eabi_attribute 25, 1	@ Tag_ABI_align8_preserved
   7              		.eabi_attribute 26, 1	@ Tag_ABI_enum_size
   8              		.eabi_attribute 30, 4	@ Tag_ABI_optimization_goals
   9              		.eabi_attribute 34, 1	@ Tag_CPU_unaligned_access
  10              		.eabi_attribute 18, 4	@ Tag_ABI_PCS_wchar_t
  11              		.file	"adc.c"
  12              	@ GNU C17 (GNU Arm Embedded Toolchain 10.3-2021.07) version 10.3.1 20210621 (release) (arm-none-eab
  13              	@	compiled by GNU C version 7.3-win32 20180312, GMP version 6.1.0, MPFR version 3.1.4, MPC version 
  14              	
  15              	@ GGC heuristics: --param ggc-min-expand=100 --param ggc-min-heapsize=131072
  16              	@ options passed:  -I . -I ./user -I ./user/driver -I ./user/driver/modem
  17              	@ -I ./user/driver/debug -I ./user/driver/gpio -I ./user/driver/usart
  18              	@ -I ./user/driver/gps -I ./user/driver/rtc -I ./user/driver/led
  19              	@ -I ./user/driver/mux -I ./user/driver/vibration -I ./user/driver/exti
  20              	@ -I ./user/driver/adc -I ./user/driver/18B20 -I ./user/driver/http
  21              	@ -I ./user/driver/w26 -I ./user/driver/i2c -I ./user/driver/system
  22              	@ -I ./user/driver/lock -I ./user/driver/memory -I ./user/driver/spi
  23              	@ -I ./user/driver/w25q -I ./user/driver/rms -I ./user/driver/sensor
  24              	@ -I ./stm32f10x_libraries/CMSIS/CM3/CoreSupport
  25              	@ -I ./stm32f10x_libraries/CMSIS/CM3/DeviceSupport/ST/STM32F10x
  26              	@ -I ./stm32f10x_libraries/STM32F10x_StdPeriph_Driver/inc
  27              	@ -I ./stm32f10x_libraries/STM32F10x_StdPeriph_Driver -I ./freertos/include
  28              	@ -I ./freertos/portable/GCC/ARM_CM3 -imultilib thumb/v7-m/nofp
  29              	@ -iprefix c:\program files (x86)\gnu arm embedded toolchain\10 2021.07\bin\../lib/gcc/arm-none-eab
  30              	@ -isysroot c:\program files (x86)\gnu arm embedded toolchain\10 2021.07\bin\../arm-none-eabi
  31              	@ -D__USES_INITFINI__ -D STM32F10X_CL -D USE_STDPERIPH_DRIVER
  32              	@ -D HSE_VALUE=8000000 -D RUN_FROM_FLASH=1 user/driver/adc/adc.c
  33              	@ -mcpu=cortex-m3 -mthumb -mfloat-abi=soft -mlibarch=armv7-m -march=armv7-m
  34              	@ -auxbase-strip user/driver/adc/adc.o -g -gdwarf-2 -Os -Wall
  35              	@ -fomit-frame-pointer -fverbose-asm
  36              	@ options enabled:  -faggressive-loop-optimizations -fallocation-dce
  37              	@ -fauto-inc-dec -fbranch-count-reg -fcaller-saves -fcode-hoisting
  38              	@ -fcombine-stack-adjustments -fcompare-elim -fcprop-registers
  39              	@ -fcrossjumping -fcse-follow-jumps -fdefer-pop
  40              	@ -fdelete-null-pointer-checks -fdevirtualize -fdevirtualize-speculatively
  41              	@ -fdwarf2-cfi-asm -fearly-inlining -feliminate-unused-debug-symbols
  42              	@ -feliminate-unused-debug-types -fexpensive-optimizations
  43              	@ -fforward-propagate -ffp-int-builtin-inexact -ffunction-cse -fgcse
  44              	@ -fgcse-lm -fgnu-unique -fguess-branch-probability -fhoist-adjacent-loads
  45              	@ -fident -fif-conversion -fif-conversion2 -findirect-inlining -finline
  46              	@ -finline-atomics -finline-functions -finline-functions-called-once
  47              	@ -finline-small-functions -fipa-bit-cp -fipa-cp -fipa-icf
  48              	@ -fipa-icf-functions -fipa-icf-variables -fipa-profile -fipa-pure-const
  49              	@ -fipa-ra -fipa-reference -fipa-reference-addressable -fipa-sra
  50              	@ -fipa-stack-alignment -fipa-vrp -fira-hoist-pressure
  51              	@ -fira-share-save-slots -fira-share-spill-slots
  52              	@ -fisolate-erroneous-paths-dereference -fivopts -fkeep-static-consts
  53              	@ -fleading-underscore -flifetime-dse -flra-remat -fmath-errno
  54              	@ -fmerge-constants -fmerge-debug-strings -fmove-loop-invariants
  55              	@ -fomit-frame-pointer -foptimize-sibling-calls -fpartial-inlining
  56              	@ -fpeephole -fpeephole2 -fplt -fprefetch-loop-arrays -freg-struct-return
  57              	@ -freorder-blocks -freorder-functions -frerun-cse-after-loop
ARM GAS  C:\Users\user\AppData\Local\Temp\ccH9wMRW.s 			page 2


  58              	@ -fsched-critical-path-heuristic -fsched-dep-count-heuristic
  59              	@ -fsched-group-heuristic -fsched-interblock -fsched-last-insn-heuristic
  60              	@ -fsched-pressure -fsched-rank-heuristic -fsched-spec
  61              	@ -fsched-spec-insn-heuristic -fsched-stalled-insns-dep -fschedule-insns2
  62              	@ -fsection-anchors -fsemantic-interposition -fshow-column
  63              	@ -fshrink-wrap-separate -fsigned-zeros -fsplit-ivs-in-unroller
  64              	@ -fsplit-wide-types -fssa-backprop -fssa-phiopt -fstdarg-opt
  65              	@ -fstore-merging -fstrict-aliasing -fstrict-volatile-bitfields
  66              	@ -fsync-libcalls -fthread-jumps -ftoplevel-reorder -ftrapping-math
  67              	@ -ftree-bit-ccp -ftree-builtin-call-dce -ftree-ccp -ftree-ch
  68              	@ -ftree-coalesce-vars -ftree-copy-prop -ftree-cselim -ftree-dce
  69              	@ -ftree-dominator-opts -ftree-dse -ftree-forwprop -ftree-fre
  70              	@ -ftree-loop-distribute-patterns -ftree-loop-if-convert -ftree-loop-im
  71              	@ -ftree-loop-ivcanon -ftree-loop-optimize -ftree-parallelize-loops=
  72              	@ -ftree-phiprop -ftree-pre -ftree-pta -ftree-reassoc -ftree-scev-cprop
  73              	@ -ftree-sink -ftree-slsr -ftree-sra -ftree-switch-conversion
  74              	@ -ftree-tail-merge -ftree-ter -ftree-vrp -funit-at-a-time -fvar-tracking
  75              	@ -fvar-tracking-assignments -fverbose-asm -fzero-initialized-in-bss
  76              	@ -masm-syntax-unified -mbe32 -mfix-cortex-m3-ldrd -mlittle-endian
  77              	@ -mpic-data-is-text-relative -msched-prolog -mthumb -munaligned-access
  78              	@ -mvectorize-with-neon-quad
  79              	
  80              		.text
  81              	.Ltext0:
  82              		.cfi_sections	.debug_frame
  83              		.align	1
  84              		.global	AdcInit
  85              		.arch armv7-m
  86              		.syntax unified
  87              		.thumb
  88              		.thumb_func
  89              		.fpu softvfp
  90              		.type	AdcInit, %function
  91              	AdcInit:
  92              	.LFB34:
  93              		.file 1 "user/driver/adc/adc.c"
   1:user/driver/adc/adc.c **** 
   2:user/driver/adc/adc.c **** #include <stdint.h>
   3:user/driver/adc/adc.c **** #include <string.h>
   4:user/driver/adc/adc.c **** #include "adc.h"
   5:user/driver/adc/adc.c **** #include "FreeRTOS.h"
   6:user/driver/adc/adc.c **** #include "queue.h"
   7:user/driver/adc/adc.c **** #include "semphr.h"
   8:user/driver/adc/adc.c **** #include "stm32f10x.h"
   9:user/driver/adc/adc.c **** #include "stm32f10x_adc.h"
  10:user/driver/adc/adc.c **** #include "stm32f10x_rcc.h"
  11:user/driver/adc/adc.c **** #include "stm32f10x_gpio.h"
  12:user/driver/adc/adc.c **** #include "gpio.h"
  13:user/driver/adc/adc.c **** 
  14:user/driver/adc/adc.c **** typedef struct _NNde
  15:user/driver/adc/adc.c **** {
  16:user/driver/adc/adc.c ****     AdcChannel ch;
  17:user/driver/adc/adc.c ****     struct _NNde *pNext;
  18:user/driver/adc/adc.c **** } ChannelNode;
  19:user/driver/adc/adc.c **** 
  20:user/driver/adc/adc.c **** typedef struct
  21:user/driver/adc/adc.c **** {
ARM GAS  C:\Users\user\AppData\Local\Temp\ccH9wMRW.s 			page 3


  22:user/driver/adc/adc.c ****     AdcChannel current_ch;
  23:user/driver/adc/adc.c ****     xSemaphoreHandle sem_lock;
  24:user/driver/adc/adc.c ****     xSemaphoreHandle done_lock;
  25:user/driver/adc/adc.c ****     ChannelBuffer data;
  26:user/driver/adc/adc.c ****     uint16_t idx;
  27:user/driver/adc/adc.c **** } AdcManager;
  28:user/driver/adc/adc.c **** 
  29:user/driver/adc/adc.c **** AdcManager adc_man;
  30:user/driver/adc/adc.c **** 
  31:user/driver/adc/adc.c **** typedef struct
  32:user/driver/adc/adc.c **** {
  33:user/driver/adc/adc.c ****     AdcChannelId id;
  34:user/driver/adc/adc.c ****     ChannelBuffer data;
  35:user/driver/adc/adc.c ****     bool data_available;
  36:user/driver/adc/adc.c **** } Channel;
  37:user/driver/adc/adc.c **** 
  38:user/driver/adc/adc.c **** uint16_t AdcHchannel(AdcChannel id);
  39:user/driver/adc/adc.c **** 
  40:user/driver/adc/adc.c **** void AdcInit()
  41:user/driver/adc/adc.c **** {
  94              		.loc 1 41 1 view -0
  95              		.cfi_startproc
  96              		@ args = 0, pretend = 0, frame = 24
  97              		@ frame_needed = 0, uses_anonymous_args = 0
  42:user/driver/adc/adc.c ****     // adc_man.data_buffer = xQueueCreate(2, sizeof(ChannelBuffer));
  43:user/driver/adc/adc.c ****     adc_man.current_ch = NULL;
  98              		.loc 1 43 5 view .LVU1
  99              	@ user/driver/adc/adc.c:41: {
  41:user/driver/adc/adc.c ****     // adc_man.data_buffer = xQueueCreate(2, sizeof(ChannelBuffer));
 100              		.loc 1 41 1 is_stmt 0 view .LVU2
 101 0000 F0B5     		push	{r4, r5, r6, r7, lr}	@
 102              	.LCFI0:
 103              		.cfi_def_cfa_offset 20
 104              		.cfi_offset 4, -20
 105              		.cfi_offset 5, -16
 106              		.cfi_offset 6, -12
 107              		.cfi_offset 7, -8
 108              		.cfi_offset 14, -4
 109              	@ user/driver/adc/adc.c:43:     adc_man.current_ch = NULL;
 110              		.loc 1 43 24 view .LVU3
 111 0002 0024     		movs	r4, #0	@ tmp117,
 112 0004 224D     		ldr	r5, .L2	@ tmp116,
 113              	@ user/driver/adc/adc.c:41: {
  41:user/driver/adc/adc.c ****     // adc_man.data_buffer = xQueueCreate(2, sizeof(ChannelBuffer));
 114              		.loc 1 41 1 view .LVU4
 115 0006 87B0     		sub	sp, sp, #28	@,,
 116              	.LCFI1:
 117              		.cfi_def_cfa_offset 48
 118              	@ user/driver/adc/adc.c:45:     adc_man.sem_lock = xSemaphoreCreateBinary();
  44:user/driver/adc/adc.c ****     //adc_man.active_node_list = NULL;
  45:user/driver/adc/adc.c ****     adc_man.sem_lock = xSemaphoreCreateBinary();
 119              		.loc 1 45 24 view .LVU5
 120 0008 2146     		mov	r1, r4	@, tmp117
 121 000a 0322     		movs	r2, #3	@,
 122 000c 0120     		movs	r0, #1	@,
 123              	@ user/driver/adc/adc.c:43:     adc_man.current_ch = NULL;
  43:user/driver/adc/adc.c ****     //adc_man.active_node_list = NULL;
ARM GAS  C:\Users\user\AppData\Local\Temp\ccH9wMRW.s 			page 4


 124              		.loc 1 43 24 view .LVU6
 125 000e 2C60     		str	r4, [r5]	@ tmp117, adc_man.current_ch
 126              		.loc 1 45 5 is_stmt 1 view .LVU7
 127              	@ user/driver/adc/adc.c:45:     adc_man.sem_lock = xSemaphoreCreateBinary();
 128              		.loc 1 45 24 is_stmt 0 view .LVU8
 129 0010 FFF7FEFF 		bl	xQueueGenericCreate		@
 130              	.LVL0:
 131              	@ user/driver/adc/adc.c:46:     adc_man.done_lock = xSemaphoreCreateBinary();
  46:user/driver/adc/adc.c ****     adc_man.done_lock = xSemaphoreCreateBinary();
 132              		.loc 1 46 25 view .LVU9
 133 0014 0322     		movs	r2, #3	@,
 134 0016 2146     		mov	r1, r4	@, tmp117
 135              	@ user/driver/adc/adc.c:45:     adc_man.sem_lock = xSemaphoreCreateBinary();
  45:user/driver/adc/adc.c ****     adc_man.done_lock = xSemaphoreCreateBinary();
 136              		.loc 1 45 22 view .LVU10
 137 0018 6860     		str	r0, [r5, #4]	@ tmp142, adc_man.sem_lock
 138              		.loc 1 46 5 is_stmt 1 view .LVU11
 139              	@ user/driver/adc/adc.c:46:     adc_man.done_lock = xSemaphoreCreateBinary();
 140              		.loc 1 46 25 is_stmt 0 view .LVU12
 141 001a 0120     		movs	r0, #1	@,
 142 001c FFF7FEFF 		bl	xQueueGenericCreate		@
 143              	.LVL1:
 144              	@ user/driver/adc/adc.c:47:     RCC_APB2PeriphClockCmd(RCC_APB2Periph_ADC1, ENABLE);
  47:user/driver/adc/adc.c ****     RCC_APB2PeriphClockCmd(RCC_APB2Periph_ADC1, ENABLE);
 145              		.loc 1 47 5 view .LVU13
 146 0020 0121     		movs	r1, #1	@,
 147              	@ user/driver/adc/adc.c:46:     adc_man.done_lock = xSemaphoreCreateBinary();
  46:user/driver/adc/adc.c ****     adc_man.done_lock = xSemaphoreCreateBinary();
 148              		.loc 1 46 23 view .LVU14
 149 0022 A860     		str	r0, [r5, #8]	@ tmp143, adc_man.done_lock
 150              		.loc 1 47 5 is_stmt 1 view .LVU15
 151 0024 4FF40070 		mov	r0, #512	@,
 152 0028 FFF7FEFF 		bl	RCC_APB2PeriphClockCmd		@
 153              	.LVL2:
  48:user/driver/adc/adc.c **** 
  49:user/driver/adc/adc.c ****     RCC_APB2PeriphClockCmd(RCC_APB2Periph_GPIOA, ENABLE);
 154              		.loc 1 49 5 view .LVU16
 155 002c 0121     		movs	r1, #1	@,
 156 002e 0420     		movs	r0, #4	@,
 157 0030 FFF7FEFF 		bl	RCC_APB2PeriphClockCmd		@
 158              	.LVL3:
  50:user/driver/adc/adc.c **** 
  51:user/driver/adc/adc.c ****     GPIO_InitTypeDef gpio;
 159              		.loc 1 51 5 view .LVU17
  52:user/driver/adc/adc.c ****     gpio.GPIO_Mode = GPIO_Mode_AIN;
 160              		.loc 1 52 5 view .LVU18
  53:user/driver/adc/adc.c ****     gpio.GPIO_Pin = GPIO_Pin_0;
 161              		.loc 1 53 5 view .LVU19
  54:user/driver/adc/adc.c ****     gpio.GPIO_Speed = GPIO_Speed_50MHz;
 162              		.loc 1 54 5 view .LVU20
 163              	@ user/driver/adc/adc.c:53:     gpio.GPIO_Pin = GPIO_Pin_0;
  53:user/driver/adc/adc.c ****     gpio.GPIO_Pin = GPIO_Pin_0;
 164              		.loc 1 53 19 is_stmt 0 view .LVU21
 165 0034 0126     		movs	r6, #1	@ tmp121,
 166              	@ user/driver/adc/adc.c:54:     gpio.GPIO_Speed = GPIO_Speed_50MHz;
 167              		.loc 1 54 21 view .LVU22
 168 0036 0323     		movs	r3, #3	@ tmp123,
ARM GAS  C:\Users\user\AppData\Local\Temp\ccH9wMRW.s 			page 5


 169              	@ user/driver/adc/adc.c:55:     GPIO_Init(GPIOA, &gpio);
  55:user/driver/adc/adc.c ****     GPIO_Init(GPIOA, &gpio);
 170              		.loc 1 55 5 view .LVU23
 171 0038 6946     		mov	r1, sp	@,
 172 003a 1648     		ldr	r0, .L2+4	@,
 173              	@ user/driver/adc/adc.c:54:     gpio.GPIO_Speed = GPIO_Speed_50MHz;
  54:user/driver/adc/adc.c ****     gpio.GPIO_Speed = GPIO_Speed_50MHz;
 174              		.loc 1 54 21 view .LVU24
 175 003c ADF80230 		strh	r3, [sp, #2]	@ movhi	@ tmp123, MEM <unsigned short> [(void *)&gpio + 2B]
 176              		.loc 1 55 5 is_stmt 1 view .LVU25
 177              	@ user/driver/adc/adc.c:53:     gpio.GPIO_Pin = GPIO_Pin_0;
  53:user/driver/adc/adc.c ****     gpio.GPIO_Pin = GPIO_Pin_0;
 178              		.loc 1 53 19 is_stmt 0 view .LVU26
 179 0040 ADF80060 		strh	r6, [sp]	@ movhi	@ tmp121, gpio.GPIO_Pin
 180              	@ user/driver/adc/adc.c:55:     GPIO_Init(GPIOA, &gpio);
 181              		.loc 1 55 5 view .LVU27
 182 0044 FFF7FEFF 		bl	GPIO_Init		@
 183              	.LVL4:
  56:user/driver/adc/adc.c **** 
  57:user/driver/adc/adc.c ****     ADC_InitTypeDef adc_config;
 184              		.loc 1 57 5 is_stmt 1 view .LVU28
  58:user/driver/adc/adc.c **** 
  59:user/driver/adc/adc.c ****     adc_config.ADC_Mode = ADC_Mode_Independent;
 185              		.loc 1 59 5 view .LVU29
  60:user/driver/adc/adc.c ****     adc_config.ADC_ContinuousConvMode = DISABLE;
 186              		.loc 1 60 5 view .LVU30
  61:user/driver/adc/adc.c ****     adc_config.ADC_NbrOfChannel = 1;
 187              		.loc 1 61 5 view .LVU31
 188              	@ user/driver/adc/adc.c:63:     adc_config.ADC_ExternalTrigConv = ADC_ExternalTrigConv_None;
  62:user/driver/adc/adc.c ****     adc_config.ADC_DataAlign = ADC_DataAlign_Right;
  63:user/driver/adc/adc.c ****     adc_config.ADC_ExternalTrigConv = ADC_ExternalTrigConv_None;
 189              		.loc 1 63 37 is_stmt 0 view .LVU32
 190 0048 4FF46023 		mov	r3, #917504	@ tmp129,
 191              	@ user/driver/adc/adc.c:66:     ADC_Init(ADC1, &adc_config);
  64:user/driver/adc/adc.c ****     adc_config.ADC_ScanConvMode = DISABLE;
  65:user/driver/adc/adc.c **** 
  66:user/driver/adc/adc.c ****     ADC_Init(ADC1, &adc_config);
 192              		.loc 1 66 5 view .LVU33
 193 004c 124F     		ldr	r7, .L2+8	@ tmp134,
 194 004e 01A9     		add	r1, sp, #4	@,,
 195 0050 3846     		mov	r0, r7	@, tmp134
 196              	@ user/driver/adc/adc.c:63:     adc_config.ADC_ExternalTrigConv = ADC_ExternalTrigConv_None;
  63:user/driver/adc/adc.c ****     adc_config.ADC_ScanConvMode = DISABLE;
 197              		.loc 1 63 37 view .LVU34
 198 0052 0393     		str	r3, [sp, #12]	@ tmp129, adc_config.ADC_ExternalTrigConv
 199              	@ user/driver/adc/adc.c:61:     adc_config.ADC_NbrOfChannel = 1;
  61:user/driver/adc/adc.c ****     adc_config.ADC_DataAlign = ADC_DataAlign_Right;
 200              		.loc 1 61 33 view .LVU35
 201 0054 8DF81460 		strb	r6, [sp, #20]	@ tmp121, adc_config.ADC_NbrOfChannel
  62:user/driver/adc/adc.c ****     adc_config.ADC_ExternalTrigConv = ADC_ExternalTrigConv_None;
 202              		.loc 1 62 5 is_stmt 1 view .LVU36
 203              	@ user/driver/adc/adc.c:62:     adc_config.ADC_DataAlign = ADC_DataAlign_Right;
  62:user/driver/adc/adc.c ****     adc_config.ADC_ExternalTrigConv = ADC_ExternalTrigConv_None;
 204              		.loc 1 62 30 is_stmt 0 view .LVU37
 205 0058 0494     		str	r4, [sp, #16]	@ tmp117, adc_config.ADC_DataAlign
  63:user/driver/adc/adc.c ****     adc_config.ADC_ScanConvMode = DISABLE;
 206              		.loc 1 63 5 is_stmt 1 view .LVU38
ARM GAS  C:\Users\user\AppData\Local\Temp\ccH9wMRW.s 			page 6


  64:user/driver/adc/adc.c **** 
 207              		.loc 1 64 5 view .LVU39
 208              	@ user/driver/adc/adc.c:59:     adc_config.ADC_Mode = ADC_Mode_Independent;
  59:user/driver/adc/adc.c ****     adc_config.ADC_ContinuousConvMode = DISABLE;
 209              		.loc 1 59 25 is_stmt 0 view .LVU40
 210 005a 0194     		str	r4, [sp, #4]	@ tmp117, adc_config.ADC_Mode
 211              	@ user/driver/adc/adc.c:64:     adc_config.ADC_ScanConvMode = DISABLE;
  64:user/driver/adc/adc.c **** 
 212              		.loc 1 64 33 view .LVU41
 213 005c ADF80840 		strh	r4, [sp, #8]	@ movhi	@ tmp117, MEM <unsigned short> [(<unnamed type> *)&adc_config + 4B]
 214              		.loc 1 66 5 is_stmt 1 view .LVU42
 215 0060 FFF7FEFF 		bl	ADC_Init		@
 216              	.LVL5:
  67:user/driver/adc/adc.c **** 
  68:user/driver/adc/adc.c ****     ADC_ITConfig(ADC1, ADC_IT_EOC, ENABLE);
 217              		.loc 1 68 5 view .LVU43
 218 0064 3246     		mov	r2, r6	@, tmp121
 219 0066 3846     		mov	r0, r7	@, tmp134
 220 0068 4FF40871 		mov	r1, #544	@,
 221 006c FFF7FEFF 		bl	ADC_ITConfig		@
 222              	.LVL6:
  69:user/driver/adc/adc.c ****     NVIC_EnableIRQ(ADC1_2_IRQn);
 223              		.loc 1 69 5 view .LVU44
 224              	.LBB7:
 225              	.LBI7:
 226              		.file 2 "./stm32f10x_libraries/CMSIS/CM3/CoreSupport/core_cm3.h"
   1:./stm32f10x_libraries/CMSIS/CM3/CoreSupport/core_cm3.h **** /**************************************************************************//**
   2:./stm32f10x_libraries/CMSIS/CM3/CoreSupport/core_cm3.h ****  * @file     core_cm3.h
   3:./stm32f10x_libraries/CMSIS/CM3/CoreSupport/core_cm3.h ****  * @brief    CMSIS Cortex-M3 Core Peripheral Access Layer Header File
   4:./stm32f10x_libraries/CMSIS/CM3/CoreSupport/core_cm3.h ****  * @version  V1.30
   5:./stm32f10x_libraries/CMSIS/CM3/CoreSupport/core_cm3.h ****  * @date     30. October 2009
   6:./stm32f10x_libraries/CMSIS/CM3/CoreSupport/core_cm3.h ****  *
   7:./stm32f10x_libraries/CMSIS/CM3/CoreSupport/core_cm3.h ****  * @note
   8:./stm32f10x_libraries/CMSIS/CM3/CoreSupport/core_cm3.h ****  * Copyright (C) 2009 ARM Limited. All rights reserved.
   9:./stm32f10x_libraries/CMSIS/CM3/CoreSupport/core_cm3.h ****  *
  10:./stm32f10x_libraries/CMSIS/CM3/CoreSupport/core_cm3.h ****  * @par
  11:./stm32f10x_libraries/CMSIS/CM3/CoreSupport/core_cm3.h ****  * ARM Limited (ARM) is supplying this software for use with Cortex-M 
  12:./stm32f10x_libraries/CMSIS/CM3/CoreSupport/core_cm3.h ****  * processor based microcontrollers.  This file can be freely distributed 
  13:./stm32f10x_libraries/CMSIS/CM3/CoreSupport/core_cm3.h ****  * within development tools that are supporting such ARM based processors. 
  14:./stm32f10x_libraries/CMSIS/CM3/CoreSupport/core_cm3.h ****  *
  15:./stm32f10x_libraries/CMSIS/CM3/CoreSupport/core_cm3.h ****  * @par
  16:./stm32f10x_libraries/CMSIS/CM3/CoreSupport/core_cm3.h ****  * THIS SOFTWARE IS PROVIDED "AS IS".  NO WARRANTIES, WHETHER EXPRESS, IMPLIED
  17:./stm32f10x_libraries/CMSIS/CM3/CoreSupport/core_cm3.h ****  * OR STATUTORY, INCLUDING, BUT NOT LIMITED TO, IMPLIED WARRANTIES OF
  18:./stm32f10x_libraries/CMSIS/CM3/CoreSupport/core_cm3.h ****  * MERCHANTABILITY AND FITNESS FOR A PARTICULAR PURPOSE APPLY TO THIS SOFTWARE.
  19:./stm32f10x_libraries/CMSIS/CM3/CoreSupport/core_cm3.h ****  * ARM SHALL NOT, IN ANY CIRCUMSTANCES, BE LIABLE FOR SPECIAL, INCIDENTAL, OR
  20:./stm32f10x_libraries/CMSIS/CM3/CoreSupport/core_cm3.h ****  * CONSEQUENTIAL DAMAGES, FOR ANY REASON WHATSOEVER.
  21:./stm32f10x_libraries/CMSIS/CM3/CoreSupport/core_cm3.h ****  *
  22:./stm32f10x_libraries/CMSIS/CM3/CoreSupport/core_cm3.h ****  ******************************************************************************/
  23:./stm32f10x_libraries/CMSIS/CM3/CoreSupport/core_cm3.h **** 
  24:./stm32f10x_libraries/CMSIS/CM3/CoreSupport/core_cm3.h **** #ifndef __CM3_CORE_H__
  25:./stm32f10x_libraries/CMSIS/CM3/CoreSupport/core_cm3.h **** #define __CM3_CORE_H__
  26:./stm32f10x_libraries/CMSIS/CM3/CoreSupport/core_cm3.h **** 
  27:./stm32f10x_libraries/CMSIS/CM3/CoreSupport/core_cm3.h **** /** @addtogroup CMSIS_CM3_core_LintCinfiguration CMSIS CM3 Core Lint Configuration
  28:./stm32f10x_libraries/CMSIS/CM3/CoreSupport/core_cm3.h ****  *
  29:./stm32f10x_libraries/CMSIS/CM3/CoreSupport/core_cm3.h ****  * List of Lint messages which will be suppressed and not shown:
  30:./stm32f10x_libraries/CMSIS/CM3/CoreSupport/core_cm3.h ****  *   - Error 10: \n
  31:./stm32f10x_libraries/CMSIS/CM3/CoreSupport/core_cm3.h ****  *     register uint32_t __regBasePri         __asm("basepri"); \n
ARM GAS  C:\Users\user\AppData\Local\Temp\ccH9wMRW.s 			page 7


  32:./stm32f10x_libraries/CMSIS/CM3/CoreSupport/core_cm3.h ****  *     Error 10: Expecting ';'
  33:./stm32f10x_libraries/CMSIS/CM3/CoreSupport/core_cm3.h ****  * .
  34:./stm32f10x_libraries/CMSIS/CM3/CoreSupport/core_cm3.h ****  *   - Error 530: \n
  35:./stm32f10x_libraries/CMSIS/CM3/CoreSupport/core_cm3.h ****  *     return(__regBasePri); \n
  36:./stm32f10x_libraries/CMSIS/CM3/CoreSupport/core_cm3.h ****  *     Warning 530: Symbol '__regBasePri' (line 264) not initialized
  37:./stm32f10x_libraries/CMSIS/CM3/CoreSupport/core_cm3.h ****  * . 
  38:./stm32f10x_libraries/CMSIS/CM3/CoreSupport/core_cm3.h ****  *   - Error 550: \n
  39:./stm32f10x_libraries/CMSIS/CM3/CoreSupport/core_cm3.h ****  *     __regBasePri = (basePri & 0x1ff); \n
  40:./stm32f10x_libraries/CMSIS/CM3/CoreSupport/core_cm3.h ****  *     Warning 550: Symbol '__regBasePri' (line 271) not accessed
  41:./stm32f10x_libraries/CMSIS/CM3/CoreSupport/core_cm3.h ****  * .
  42:./stm32f10x_libraries/CMSIS/CM3/CoreSupport/core_cm3.h ****  *   - Error 754: \n
  43:./stm32f10x_libraries/CMSIS/CM3/CoreSupport/core_cm3.h ****  *     uint32_t RESERVED0[24]; \n
  44:./stm32f10x_libraries/CMSIS/CM3/CoreSupport/core_cm3.h ****  *     Info 754: local structure member '<some, not used in the HAL>' (line 109, file ./cm3_core.h)
  45:./stm32f10x_libraries/CMSIS/CM3/CoreSupport/core_cm3.h ****  * .
  46:./stm32f10x_libraries/CMSIS/CM3/CoreSupport/core_cm3.h ****  *   - Error 750: \n
  47:./stm32f10x_libraries/CMSIS/CM3/CoreSupport/core_cm3.h ****  *     #define __CM3_CORE_H__ \n
  48:./stm32f10x_libraries/CMSIS/CM3/CoreSupport/core_cm3.h ****  *     Info 750: local macro '__CM3_CORE_H__' (line 43, file./cm3_core.h) not referenced
  49:./stm32f10x_libraries/CMSIS/CM3/CoreSupport/core_cm3.h ****  * .
  50:./stm32f10x_libraries/CMSIS/CM3/CoreSupport/core_cm3.h ****  *   - Error 528: \n
  51:./stm32f10x_libraries/CMSIS/CM3/CoreSupport/core_cm3.h ****  *     static __INLINE void NVIC_DisableIRQ(uint32_t IRQn) \n
  52:./stm32f10x_libraries/CMSIS/CM3/CoreSupport/core_cm3.h ****  *     Warning 528: Symbol 'NVIC_DisableIRQ(unsigned int)' (line 419, file ./cm3_core.h) not refere
  53:./stm32f10x_libraries/CMSIS/CM3/CoreSupport/core_cm3.h ****  * .
  54:./stm32f10x_libraries/CMSIS/CM3/CoreSupport/core_cm3.h ****  *   - Error 751: \n
  55:./stm32f10x_libraries/CMSIS/CM3/CoreSupport/core_cm3.h ****  *     } InterruptType_Type; \n
  56:./stm32f10x_libraries/CMSIS/CM3/CoreSupport/core_cm3.h ****  *     Info 751: local typedef 'InterruptType_Type' (line 170, file ./cm3_core.h) not referenced
  57:./stm32f10x_libraries/CMSIS/CM3/CoreSupport/core_cm3.h ****  * .
  58:./stm32f10x_libraries/CMSIS/CM3/CoreSupport/core_cm3.h ****  * Note:  To re-enable a Message, insert a space before 'lint' *
  59:./stm32f10x_libraries/CMSIS/CM3/CoreSupport/core_cm3.h ****  *
  60:./stm32f10x_libraries/CMSIS/CM3/CoreSupport/core_cm3.h ****  */
  61:./stm32f10x_libraries/CMSIS/CM3/CoreSupport/core_cm3.h **** 
  62:./stm32f10x_libraries/CMSIS/CM3/CoreSupport/core_cm3.h **** /*lint -save */
  63:./stm32f10x_libraries/CMSIS/CM3/CoreSupport/core_cm3.h **** /*lint -e10  */
  64:./stm32f10x_libraries/CMSIS/CM3/CoreSupport/core_cm3.h **** /*lint -e530 */
  65:./stm32f10x_libraries/CMSIS/CM3/CoreSupport/core_cm3.h **** /*lint -e550 */
  66:./stm32f10x_libraries/CMSIS/CM3/CoreSupport/core_cm3.h **** /*lint -e754 */
  67:./stm32f10x_libraries/CMSIS/CM3/CoreSupport/core_cm3.h **** /*lint -e750 */
  68:./stm32f10x_libraries/CMSIS/CM3/CoreSupport/core_cm3.h **** /*lint -e528 */
  69:./stm32f10x_libraries/CMSIS/CM3/CoreSupport/core_cm3.h **** /*lint -e751 */
  70:./stm32f10x_libraries/CMSIS/CM3/CoreSupport/core_cm3.h **** 
  71:./stm32f10x_libraries/CMSIS/CM3/CoreSupport/core_cm3.h **** 
  72:./stm32f10x_libraries/CMSIS/CM3/CoreSupport/core_cm3.h **** /** @addtogroup CMSIS_CM3_core_definitions CM3 Core Definitions
  73:./stm32f10x_libraries/CMSIS/CM3/CoreSupport/core_cm3.h ****   This file defines all structures and symbols for CMSIS core:
  74:./stm32f10x_libraries/CMSIS/CM3/CoreSupport/core_cm3.h ****     - CMSIS version number
  75:./stm32f10x_libraries/CMSIS/CM3/CoreSupport/core_cm3.h ****     - Cortex-M core registers and bitfields
  76:./stm32f10x_libraries/CMSIS/CM3/CoreSupport/core_cm3.h ****     - Cortex-M core peripheral base address
  77:./stm32f10x_libraries/CMSIS/CM3/CoreSupport/core_cm3.h ****   @{
  78:./stm32f10x_libraries/CMSIS/CM3/CoreSupport/core_cm3.h ****  */
  79:./stm32f10x_libraries/CMSIS/CM3/CoreSupport/core_cm3.h **** 
  80:./stm32f10x_libraries/CMSIS/CM3/CoreSupport/core_cm3.h **** #ifdef __cplusplus
  81:./stm32f10x_libraries/CMSIS/CM3/CoreSupport/core_cm3.h ****  extern "C" {
  82:./stm32f10x_libraries/CMSIS/CM3/CoreSupport/core_cm3.h **** #endif 
  83:./stm32f10x_libraries/CMSIS/CM3/CoreSupport/core_cm3.h **** 
  84:./stm32f10x_libraries/CMSIS/CM3/CoreSupport/core_cm3.h **** #define __CM3_CMSIS_VERSION_MAIN  (0x01)                                                       /*!<
  85:./stm32f10x_libraries/CMSIS/CM3/CoreSupport/core_cm3.h **** #define __CM3_CMSIS_VERSION_SUB   (0x30)                                                       /*!<
  86:./stm32f10x_libraries/CMSIS/CM3/CoreSupport/core_cm3.h **** #define __CM3_CMSIS_VERSION       ((__CM3_CMSIS_VERSION_MAIN << 16) | __CM3_CMSIS_VERSION_SUB) /*!<
  87:./stm32f10x_libraries/CMSIS/CM3/CoreSupport/core_cm3.h **** 
  88:./stm32f10x_libraries/CMSIS/CM3/CoreSupport/core_cm3.h **** #define __CORTEX_M                (0x03)                                                       /*!<
ARM GAS  C:\Users\user\AppData\Local\Temp\ccH9wMRW.s 			page 8


  89:./stm32f10x_libraries/CMSIS/CM3/CoreSupport/core_cm3.h **** 
  90:./stm32f10x_libraries/CMSIS/CM3/CoreSupport/core_cm3.h **** #include <stdint.h>                           /* Include standard types */
  91:./stm32f10x_libraries/CMSIS/CM3/CoreSupport/core_cm3.h **** 
  92:./stm32f10x_libraries/CMSIS/CM3/CoreSupport/core_cm3.h **** #if defined (__ICCARM__)
  93:./stm32f10x_libraries/CMSIS/CM3/CoreSupport/core_cm3.h ****   #include <intrinsics.h>                     /* IAR Intrinsics   */
  94:./stm32f10x_libraries/CMSIS/CM3/CoreSupport/core_cm3.h **** #endif
  95:./stm32f10x_libraries/CMSIS/CM3/CoreSupport/core_cm3.h **** 
  96:./stm32f10x_libraries/CMSIS/CM3/CoreSupport/core_cm3.h **** 
  97:./stm32f10x_libraries/CMSIS/CM3/CoreSupport/core_cm3.h **** #ifndef __NVIC_PRIO_BITS
  98:./stm32f10x_libraries/CMSIS/CM3/CoreSupport/core_cm3.h ****   #define __NVIC_PRIO_BITS    4               /*!< standard definition for NVIC Priority Bits */
  99:./stm32f10x_libraries/CMSIS/CM3/CoreSupport/core_cm3.h **** #endif
 100:./stm32f10x_libraries/CMSIS/CM3/CoreSupport/core_cm3.h **** 
 101:./stm32f10x_libraries/CMSIS/CM3/CoreSupport/core_cm3.h **** 
 102:./stm32f10x_libraries/CMSIS/CM3/CoreSupport/core_cm3.h **** 
 103:./stm32f10x_libraries/CMSIS/CM3/CoreSupport/core_cm3.h **** 
 104:./stm32f10x_libraries/CMSIS/CM3/CoreSupport/core_cm3.h **** /**
 105:./stm32f10x_libraries/CMSIS/CM3/CoreSupport/core_cm3.h ****  * IO definitions
 106:./stm32f10x_libraries/CMSIS/CM3/CoreSupport/core_cm3.h ****  *
 107:./stm32f10x_libraries/CMSIS/CM3/CoreSupport/core_cm3.h ****  * define access restrictions to peripheral registers
 108:./stm32f10x_libraries/CMSIS/CM3/CoreSupport/core_cm3.h ****  */
 109:./stm32f10x_libraries/CMSIS/CM3/CoreSupport/core_cm3.h **** 
 110:./stm32f10x_libraries/CMSIS/CM3/CoreSupport/core_cm3.h **** #ifdef __cplusplus
 111:./stm32f10x_libraries/CMSIS/CM3/CoreSupport/core_cm3.h ****   #define     __I     volatile                /*!< defines 'read only' permissions      */
 112:./stm32f10x_libraries/CMSIS/CM3/CoreSupport/core_cm3.h **** #else
 113:./stm32f10x_libraries/CMSIS/CM3/CoreSupport/core_cm3.h ****   #define     __I     volatile const          /*!< defines 'read only' permissions      */
 114:./stm32f10x_libraries/CMSIS/CM3/CoreSupport/core_cm3.h **** #endif
 115:./stm32f10x_libraries/CMSIS/CM3/CoreSupport/core_cm3.h **** #define     __O     volatile                  /*!< defines 'write only' permissions     */
 116:./stm32f10x_libraries/CMSIS/CM3/CoreSupport/core_cm3.h **** #define     __IO    volatile                  /*!< defines 'read / write' permissions   */
 117:./stm32f10x_libraries/CMSIS/CM3/CoreSupport/core_cm3.h **** 
 118:./stm32f10x_libraries/CMSIS/CM3/CoreSupport/core_cm3.h **** 
 119:./stm32f10x_libraries/CMSIS/CM3/CoreSupport/core_cm3.h **** 
 120:./stm32f10x_libraries/CMSIS/CM3/CoreSupport/core_cm3.h **** /*******************************************************************************
 121:./stm32f10x_libraries/CMSIS/CM3/CoreSupport/core_cm3.h ****  *                 Register Abstraction
 122:./stm32f10x_libraries/CMSIS/CM3/CoreSupport/core_cm3.h ****  ******************************************************************************/
 123:./stm32f10x_libraries/CMSIS/CM3/CoreSupport/core_cm3.h **** /** @addtogroup CMSIS_CM3_core_register CMSIS CM3 Core Register
 124:./stm32f10x_libraries/CMSIS/CM3/CoreSupport/core_cm3.h ****  @{
 125:./stm32f10x_libraries/CMSIS/CM3/CoreSupport/core_cm3.h **** */
 126:./stm32f10x_libraries/CMSIS/CM3/CoreSupport/core_cm3.h **** 
 127:./stm32f10x_libraries/CMSIS/CM3/CoreSupport/core_cm3.h **** 
 128:./stm32f10x_libraries/CMSIS/CM3/CoreSupport/core_cm3.h **** /** @addtogroup CMSIS_CM3_NVIC CMSIS CM3 NVIC
 129:./stm32f10x_libraries/CMSIS/CM3/CoreSupport/core_cm3.h ****   memory mapped structure for Nested Vectored Interrupt Controller (NVIC)
 130:./stm32f10x_libraries/CMSIS/CM3/CoreSupport/core_cm3.h ****   @{
 131:./stm32f10x_libraries/CMSIS/CM3/CoreSupport/core_cm3.h ****  */
 132:./stm32f10x_libraries/CMSIS/CM3/CoreSupport/core_cm3.h **** typedef struct
 133:./stm32f10x_libraries/CMSIS/CM3/CoreSupport/core_cm3.h **** {
 134:./stm32f10x_libraries/CMSIS/CM3/CoreSupport/core_cm3.h ****   __IO uint32_t ISER[8];                      /*!< Offset: 0x000  Interrupt Set Enable Register    
 135:./stm32f10x_libraries/CMSIS/CM3/CoreSupport/core_cm3.h ****        uint32_t RESERVED0[24];                                   
 136:./stm32f10x_libraries/CMSIS/CM3/CoreSupport/core_cm3.h ****   __IO uint32_t ICER[8];                      /*!< Offset: 0x080  Interrupt Clear Enable Register  
 137:./stm32f10x_libraries/CMSIS/CM3/CoreSupport/core_cm3.h ****        uint32_t RSERVED1[24];                                    
 138:./stm32f10x_libraries/CMSIS/CM3/CoreSupport/core_cm3.h ****   __IO uint32_t ISPR[8];                      /*!< Offset: 0x100  Interrupt Set Pending Register   
 139:./stm32f10x_libraries/CMSIS/CM3/CoreSupport/core_cm3.h ****        uint32_t RESERVED2[24];                                   
 140:./stm32f10x_libraries/CMSIS/CM3/CoreSupport/core_cm3.h ****   __IO uint32_t ICPR[8];                      /*!< Offset: 0x180  Interrupt Clear Pending Register 
 141:./stm32f10x_libraries/CMSIS/CM3/CoreSupport/core_cm3.h ****        uint32_t RESERVED3[24];                                   
 142:./stm32f10x_libraries/CMSIS/CM3/CoreSupport/core_cm3.h ****   __IO uint32_t IABR[8];                      /*!< Offset: 0x200  Interrupt Active bit Register    
 143:./stm32f10x_libraries/CMSIS/CM3/CoreSupport/core_cm3.h ****        uint32_t RESERVED4[56];                                   
 144:./stm32f10x_libraries/CMSIS/CM3/CoreSupport/core_cm3.h ****   __IO uint8_t  IP[240];                      /*!< Offset: 0x300  Interrupt Priority Register (8Bit
 145:./stm32f10x_libraries/CMSIS/CM3/CoreSupport/core_cm3.h ****        uint32_t RESERVED5[644];                                  
ARM GAS  C:\Users\user\AppData\Local\Temp\ccH9wMRW.s 			page 9


 146:./stm32f10x_libraries/CMSIS/CM3/CoreSupport/core_cm3.h ****   __O  uint32_t STIR;                         /*!< Offset: 0xE00  Software Trigger Interrupt Regist
 147:./stm32f10x_libraries/CMSIS/CM3/CoreSupport/core_cm3.h **** }  NVIC_Type;                                               
 148:./stm32f10x_libraries/CMSIS/CM3/CoreSupport/core_cm3.h **** /*@}*/ /* end of group CMSIS_CM3_NVIC */
 149:./stm32f10x_libraries/CMSIS/CM3/CoreSupport/core_cm3.h **** 
 150:./stm32f10x_libraries/CMSIS/CM3/CoreSupport/core_cm3.h **** 
 151:./stm32f10x_libraries/CMSIS/CM3/CoreSupport/core_cm3.h **** /** @addtogroup CMSIS_CM3_SCB CMSIS CM3 SCB
 152:./stm32f10x_libraries/CMSIS/CM3/CoreSupport/core_cm3.h ****   memory mapped structure for System Control Block (SCB)
 153:./stm32f10x_libraries/CMSIS/CM3/CoreSupport/core_cm3.h ****   @{
 154:./stm32f10x_libraries/CMSIS/CM3/CoreSupport/core_cm3.h ****  */
 155:./stm32f10x_libraries/CMSIS/CM3/CoreSupport/core_cm3.h **** typedef struct
 156:./stm32f10x_libraries/CMSIS/CM3/CoreSupport/core_cm3.h **** {
 157:./stm32f10x_libraries/CMSIS/CM3/CoreSupport/core_cm3.h ****   __I  uint32_t CPUID;                        /*!< Offset: 0x00  CPU ID Base Register              
 158:./stm32f10x_libraries/CMSIS/CM3/CoreSupport/core_cm3.h ****   __IO uint32_t ICSR;                         /*!< Offset: 0x04  Interrupt Control State Register  
 159:./stm32f10x_libraries/CMSIS/CM3/CoreSupport/core_cm3.h ****   __IO uint32_t VTOR;                         /*!< Offset: 0x08  Vector Table Offset Register      
 160:./stm32f10x_libraries/CMSIS/CM3/CoreSupport/core_cm3.h ****   __IO uint32_t AIRCR;                        /*!< Offset: 0x0C  Application Interrupt / Reset Cont
 161:./stm32f10x_libraries/CMSIS/CM3/CoreSupport/core_cm3.h ****   __IO uint32_t SCR;                          /*!< Offset: 0x10  System Control Register           
 162:./stm32f10x_libraries/CMSIS/CM3/CoreSupport/core_cm3.h ****   __IO uint32_t CCR;                          /*!< Offset: 0x14  Configuration Control Register    
 163:./stm32f10x_libraries/CMSIS/CM3/CoreSupport/core_cm3.h ****   __IO uint8_t  SHP[12];                      /*!< Offset: 0x18  System Handlers Priority Registers
 164:./stm32f10x_libraries/CMSIS/CM3/CoreSupport/core_cm3.h ****   __IO uint32_t SHCSR;                        /*!< Offset: 0x24  System Handler Control and State R
 165:./stm32f10x_libraries/CMSIS/CM3/CoreSupport/core_cm3.h ****   __IO uint32_t CFSR;                         /*!< Offset: 0x28  Configurable Fault Status Register
 166:./stm32f10x_libraries/CMSIS/CM3/CoreSupport/core_cm3.h ****   __IO uint32_t HFSR;                         /*!< Offset: 0x2C  Hard Fault Status Register        
 167:./stm32f10x_libraries/CMSIS/CM3/CoreSupport/core_cm3.h ****   __IO uint32_t DFSR;                         /*!< Offset: 0x30  Debug Fault Status Register       
 168:./stm32f10x_libraries/CMSIS/CM3/CoreSupport/core_cm3.h ****   __IO uint32_t MMFAR;                        /*!< Offset: 0x34  Mem Manage Address Register       
 169:./stm32f10x_libraries/CMSIS/CM3/CoreSupport/core_cm3.h ****   __IO uint32_t BFAR;                         /*!< Offset: 0x38  Bus Fault Address Register        
 170:./stm32f10x_libraries/CMSIS/CM3/CoreSupport/core_cm3.h ****   __IO uint32_t AFSR;                         /*!< Offset: 0x3C  Auxiliary Fault Status Register   
 171:./stm32f10x_libraries/CMSIS/CM3/CoreSupport/core_cm3.h ****   __I  uint32_t PFR[2];                       /*!< Offset: 0x40  Processor Feature Register        
 172:./stm32f10x_libraries/CMSIS/CM3/CoreSupport/core_cm3.h ****   __I  uint32_t DFR;                          /*!< Offset: 0x48  Debug Feature Register            
 173:./stm32f10x_libraries/CMSIS/CM3/CoreSupport/core_cm3.h ****   __I  uint32_t ADR;                          /*!< Offset: 0x4C  Auxiliary Feature Register        
 174:./stm32f10x_libraries/CMSIS/CM3/CoreSupport/core_cm3.h ****   __I  uint32_t MMFR[4];                      /*!< Offset: 0x50  Memory Model Feature Register     
 175:./stm32f10x_libraries/CMSIS/CM3/CoreSupport/core_cm3.h ****   __I  uint32_t ISAR[5];                      /*!< Offset: 0x60  ISA Feature Register              
 176:./stm32f10x_libraries/CMSIS/CM3/CoreSupport/core_cm3.h **** } SCB_Type;                                                
 177:./stm32f10x_libraries/CMSIS/CM3/CoreSupport/core_cm3.h **** 
 178:./stm32f10x_libraries/CMSIS/CM3/CoreSupport/core_cm3.h **** /* SCB CPUID Register Definitions */
 179:./stm32f10x_libraries/CMSIS/CM3/CoreSupport/core_cm3.h **** #define SCB_CPUID_IMPLEMENTER_Pos          24                                             /*!< SCB 
 180:./stm32f10x_libraries/CMSIS/CM3/CoreSupport/core_cm3.h **** #define SCB_CPUID_IMPLEMENTER_Msk          (0xFFul << SCB_CPUID_IMPLEMENTER_Pos)          /*!< SCB 
 181:./stm32f10x_libraries/CMSIS/CM3/CoreSupport/core_cm3.h **** 
 182:./stm32f10x_libraries/CMSIS/CM3/CoreSupport/core_cm3.h **** #define SCB_CPUID_VARIANT_Pos              20                                             /*!< SCB 
 183:./stm32f10x_libraries/CMSIS/CM3/CoreSupport/core_cm3.h **** #define SCB_CPUID_VARIANT_Msk              (0xFul << SCB_CPUID_VARIANT_Pos)               /*!< SCB 
 184:./stm32f10x_libraries/CMSIS/CM3/CoreSupport/core_cm3.h **** 
 185:./stm32f10x_libraries/CMSIS/CM3/CoreSupport/core_cm3.h **** #define SCB_CPUID_PARTNO_Pos                4                                             /*!< SCB 
 186:./stm32f10x_libraries/CMSIS/CM3/CoreSupport/core_cm3.h **** #define SCB_CPUID_PARTNO_Msk               (0xFFFul << SCB_CPUID_PARTNO_Pos)              /*!< SCB 
 187:./stm32f10x_libraries/CMSIS/CM3/CoreSupport/core_cm3.h **** 
 188:./stm32f10x_libraries/CMSIS/CM3/CoreSupport/core_cm3.h **** #define SCB_CPUID_REVISION_Pos              0                                             /*!< SCB 
 189:./stm32f10x_libraries/CMSIS/CM3/CoreSupport/core_cm3.h **** #define SCB_CPUID_REVISION_Msk             (0xFul << SCB_CPUID_REVISION_Pos)              /*!< SCB 
 190:./stm32f10x_libraries/CMSIS/CM3/CoreSupport/core_cm3.h **** 
 191:./stm32f10x_libraries/CMSIS/CM3/CoreSupport/core_cm3.h **** /* SCB Interrupt Control State Register Definitions */
 192:./stm32f10x_libraries/CMSIS/CM3/CoreSupport/core_cm3.h **** #define SCB_ICSR_NMIPENDSET_Pos            31                                             /*!< SCB 
 193:./stm32f10x_libraries/CMSIS/CM3/CoreSupport/core_cm3.h **** #define SCB_ICSR_NMIPENDSET_Msk            (1ul << SCB_ICSR_NMIPENDSET_Pos)               /*!< SCB 
 194:./stm32f10x_libraries/CMSIS/CM3/CoreSupport/core_cm3.h **** 
 195:./stm32f10x_libraries/CMSIS/CM3/CoreSupport/core_cm3.h **** #define SCB_ICSR_PENDSVSET_Pos             28                                             /*!< SCB 
 196:./stm32f10x_libraries/CMSIS/CM3/CoreSupport/core_cm3.h **** #define SCB_ICSR_PENDSVSET_Msk             (1ul << SCB_ICSR_PENDSVSET_Pos)                /*!< SCB 
 197:./stm32f10x_libraries/CMSIS/CM3/CoreSupport/core_cm3.h **** 
 198:./stm32f10x_libraries/CMSIS/CM3/CoreSupport/core_cm3.h **** #define SCB_ICSR_PENDSVCLR_Pos             27                                             /*!< SCB 
 199:./stm32f10x_libraries/CMSIS/CM3/CoreSupport/core_cm3.h **** #define SCB_ICSR_PENDSVCLR_Msk             (1ul << SCB_ICSR_PENDSVCLR_Pos)                /*!< SCB 
 200:./stm32f10x_libraries/CMSIS/CM3/CoreSupport/core_cm3.h **** 
 201:./stm32f10x_libraries/CMSIS/CM3/CoreSupport/core_cm3.h **** #define SCB_ICSR_PENDSTSET_Pos             26                                             /*!< SCB 
 202:./stm32f10x_libraries/CMSIS/CM3/CoreSupport/core_cm3.h **** #define SCB_ICSR_PENDSTSET_Msk             (1ul << SCB_ICSR_PENDSTSET_Pos)                /*!< SCB 
ARM GAS  C:\Users\user\AppData\Local\Temp\ccH9wMRW.s 			page 10


 203:./stm32f10x_libraries/CMSIS/CM3/CoreSupport/core_cm3.h **** 
 204:./stm32f10x_libraries/CMSIS/CM3/CoreSupport/core_cm3.h **** #define SCB_ICSR_PENDSTCLR_Pos             25                                             /*!< SCB 
 205:./stm32f10x_libraries/CMSIS/CM3/CoreSupport/core_cm3.h **** #define SCB_ICSR_PENDSTCLR_Msk             (1ul << SCB_ICSR_PENDSTCLR_Pos)                /*!< SCB 
 206:./stm32f10x_libraries/CMSIS/CM3/CoreSupport/core_cm3.h **** 
 207:./stm32f10x_libraries/CMSIS/CM3/CoreSupport/core_cm3.h **** #define SCB_ICSR_ISRPREEMPT_Pos            23                                             /*!< SCB 
 208:./stm32f10x_libraries/CMSIS/CM3/CoreSupport/core_cm3.h **** #define SCB_ICSR_ISRPREEMPT_Msk            (1ul << SCB_ICSR_ISRPREEMPT_Pos)               /*!< SCB 
 209:./stm32f10x_libraries/CMSIS/CM3/CoreSupport/core_cm3.h **** 
 210:./stm32f10x_libraries/CMSIS/CM3/CoreSupport/core_cm3.h **** #define SCB_ICSR_ISRPENDING_Pos            22                                             /*!< SCB 
 211:./stm32f10x_libraries/CMSIS/CM3/CoreSupport/core_cm3.h **** #define SCB_ICSR_ISRPENDING_Msk            (1ul << SCB_ICSR_ISRPENDING_Pos)               /*!< SCB 
 212:./stm32f10x_libraries/CMSIS/CM3/CoreSupport/core_cm3.h **** 
 213:./stm32f10x_libraries/CMSIS/CM3/CoreSupport/core_cm3.h **** #define SCB_ICSR_VECTPENDING_Pos           12                                             /*!< SCB 
 214:./stm32f10x_libraries/CMSIS/CM3/CoreSupport/core_cm3.h **** #define SCB_ICSR_VECTPENDING_Msk           (0x1FFul << SCB_ICSR_VECTPENDING_Pos)          /*!< SCB 
 215:./stm32f10x_libraries/CMSIS/CM3/CoreSupport/core_cm3.h **** 
 216:./stm32f10x_libraries/CMSIS/CM3/CoreSupport/core_cm3.h **** #define SCB_ICSR_RETTOBASE_Pos             11                                             /*!< SCB 
 217:./stm32f10x_libraries/CMSIS/CM3/CoreSupport/core_cm3.h **** #define SCB_ICSR_RETTOBASE_Msk             (1ul << SCB_ICSR_RETTOBASE_Pos)                /*!< SCB 
 218:./stm32f10x_libraries/CMSIS/CM3/CoreSupport/core_cm3.h **** 
 219:./stm32f10x_libraries/CMSIS/CM3/CoreSupport/core_cm3.h **** #define SCB_ICSR_VECTACTIVE_Pos             0                                             /*!< SCB 
 220:./stm32f10x_libraries/CMSIS/CM3/CoreSupport/core_cm3.h **** #define SCB_ICSR_VECTACTIVE_Msk            (0x1FFul << SCB_ICSR_VECTACTIVE_Pos)           /*!< SCB 
 221:./stm32f10x_libraries/CMSIS/CM3/CoreSupport/core_cm3.h **** 
 222:./stm32f10x_libraries/CMSIS/CM3/CoreSupport/core_cm3.h **** /* SCB Interrupt Control State Register Definitions */
 223:./stm32f10x_libraries/CMSIS/CM3/CoreSupport/core_cm3.h **** #define SCB_VTOR_TBLBASE_Pos               29                                             /*!< SCB 
 224:./stm32f10x_libraries/CMSIS/CM3/CoreSupport/core_cm3.h **** #define SCB_VTOR_TBLBASE_Msk               (0x1FFul << SCB_VTOR_TBLBASE_Pos)              /*!< SCB 
 225:./stm32f10x_libraries/CMSIS/CM3/CoreSupport/core_cm3.h **** 
 226:./stm32f10x_libraries/CMSIS/CM3/CoreSupport/core_cm3.h **** #define SCB_VTOR_TBLOFF_Pos                 7                                             /*!< SCB 
 227:./stm32f10x_libraries/CMSIS/CM3/CoreSupport/core_cm3.h **** #define SCB_VTOR_TBLOFF_Msk                (0x3FFFFFul << SCB_VTOR_TBLOFF_Pos)            /*!< SCB 
 228:./stm32f10x_libraries/CMSIS/CM3/CoreSupport/core_cm3.h **** 
 229:./stm32f10x_libraries/CMSIS/CM3/CoreSupport/core_cm3.h **** /* SCB Application Interrupt and Reset Control Register Definitions */
 230:./stm32f10x_libraries/CMSIS/CM3/CoreSupport/core_cm3.h **** #define SCB_AIRCR_VECTKEY_Pos              16                                             /*!< SCB 
 231:./stm32f10x_libraries/CMSIS/CM3/CoreSupport/core_cm3.h **** #define SCB_AIRCR_VECTKEY_Msk              (0xFFFFul << SCB_AIRCR_VECTKEY_Pos)            /*!< SCB 
 232:./stm32f10x_libraries/CMSIS/CM3/CoreSupport/core_cm3.h **** 
 233:./stm32f10x_libraries/CMSIS/CM3/CoreSupport/core_cm3.h **** #define SCB_AIRCR_VECTKEYSTAT_Pos          16                                             /*!< SCB 
 234:./stm32f10x_libraries/CMSIS/CM3/CoreSupport/core_cm3.h **** #define SCB_AIRCR_VECTKEYSTAT_Msk          (0xFFFFul << SCB_AIRCR_VECTKEYSTAT_Pos)        /*!< SCB 
 235:./stm32f10x_libraries/CMSIS/CM3/CoreSupport/core_cm3.h **** 
 236:./stm32f10x_libraries/CMSIS/CM3/CoreSupport/core_cm3.h **** #define SCB_AIRCR_ENDIANESS_Pos            15                                             /*!< SCB 
 237:./stm32f10x_libraries/CMSIS/CM3/CoreSupport/core_cm3.h **** #define SCB_AIRCR_ENDIANESS_Msk            (1ul << SCB_AIRCR_ENDIANESS_Pos)               /*!< SCB 
 238:./stm32f10x_libraries/CMSIS/CM3/CoreSupport/core_cm3.h **** 
 239:./stm32f10x_libraries/CMSIS/CM3/CoreSupport/core_cm3.h **** #define SCB_AIRCR_PRIGROUP_Pos              8                                             /*!< SCB 
 240:./stm32f10x_libraries/CMSIS/CM3/CoreSupport/core_cm3.h **** #define SCB_AIRCR_PRIGROUP_Msk             (7ul << SCB_AIRCR_PRIGROUP_Pos)                /*!< SCB 
 241:./stm32f10x_libraries/CMSIS/CM3/CoreSupport/core_cm3.h **** 
 242:./stm32f10x_libraries/CMSIS/CM3/CoreSupport/core_cm3.h **** #define SCB_AIRCR_SYSRESETREQ_Pos           2                                             /*!< SCB 
 243:./stm32f10x_libraries/CMSIS/CM3/CoreSupport/core_cm3.h **** #define SCB_AIRCR_SYSRESETREQ_Msk          (1ul << SCB_AIRCR_SYSRESETREQ_Pos)             /*!< SCB 
 244:./stm32f10x_libraries/CMSIS/CM3/CoreSupport/core_cm3.h **** 
 245:./stm32f10x_libraries/CMSIS/CM3/CoreSupport/core_cm3.h **** #define SCB_AIRCR_VECTCLRACTIVE_Pos         1                                             /*!< SCB 
 246:./stm32f10x_libraries/CMSIS/CM3/CoreSupport/core_cm3.h **** #define SCB_AIRCR_VECTCLRACTIVE_Msk        (1ul << SCB_AIRCR_VECTCLRACTIVE_Pos)           /*!< SCB 
 247:./stm32f10x_libraries/CMSIS/CM3/CoreSupport/core_cm3.h **** 
 248:./stm32f10x_libraries/CMSIS/CM3/CoreSupport/core_cm3.h **** #define SCB_AIRCR_VECTRESET_Pos             0                                             /*!< SCB 
 249:./stm32f10x_libraries/CMSIS/CM3/CoreSupport/core_cm3.h **** #define SCB_AIRCR_VECTRESET_Msk            (1ul << SCB_AIRCR_VECTRESET_Pos)               /*!< SCB 
 250:./stm32f10x_libraries/CMSIS/CM3/CoreSupport/core_cm3.h **** 
 251:./stm32f10x_libraries/CMSIS/CM3/CoreSupport/core_cm3.h **** /* SCB System Control Register Definitions */
 252:./stm32f10x_libraries/CMSIS/CM3/CoreSupport/core_cm3.h **** #define SCB_SCR_SEVONPEND_Pos               4                                             /*!< SCB 
 253:./stm32f10x_libraries/CMSIS/CM3/CoreSupport/core_cm3.h **** #define SCB_SCR_SEVONPEND_Msk              (1ul << SCB_SCR_SEVONPEND_Pos)                 /*!< SCB 
 254:./stm32f10x_libraries/CMSIS/CM3/CoreSupport/core_cm3.h **** 
 255:./stm32f10x_libraries/CMSIS/CM3/CoreSupport/core_cm3.h **** #define SCB_SCR_SLEEPDEEP_Pos               2                                             /*!< SCB 
 256:./stm32f10x_libraries/CMSIS/CM3/CoreSupport/core_cm3.h **** #define SCB_SCR_SLEEPDEEP_Msk              (1ul << SCB_SCR_SLEEPDEEP_Pos)                 /*!< SCB 
 257:./stm32f10x_libraries/CMSIS/CM3/CoreSupport/core_cm3.h **** 
 258:./stm32f10x_libraries/CMSIS/CM3/CoreSupport/core_cm3.h **** #define SCB_SCR_SLEEPONEXIT_Pos             1                                             /*!< SCB 
 259:./stm32f10x_libraries/CMSIS/CM3/CoreSupport/core_cm3.h **** #define SCB_SCR_SLEEPONEXIT_Msk            (1ul << SCB_SCR_SLEEPONEXIT_Pos)               /*!< SCB 
ARM GAS  C:\Users\user\AppData\Local\Temp\ccH9wMRW.s 			page 11


 260:./stm32f10x_libraries/CMSIS/CM3/CoreSupport/core_cm3.h **** 
 261:./stm32f10x_libraries/CMSIS/CM3/CoreSupport/core_cm3.h **** /* SCB Configuration Control Register Definitions */
 262:./stm32f10x_libraries/CMSIS/CM3/CoreSupport/core_cm3.h **** #define SCB_CCR_STKALIGN_Pos                9                                             /*!< SCB 
 263:./stm32f10x_libraries/CMSIS/CM3/CoreSupport/core_cm3.h **** #define SCB_CCR_STKALIGN_Msk               (1ul << SCB_CCR_STKALIGN_Pos)                  /*!< SCB 
 264:./stm32f10x_libraries/CMSIS/CM3/CoreSupport/core_cm3.h **** 
 265:./stm32f10x_libraries/CMSIS/CM3/CoreSupport/core_cm3.h **** #define SCB_CCR_BFHFNMIGN_Pos               8                                             /*!< SCB 
 266:./stm32f10x_libraries/CMSIS/CM3/CoreSupport/core_cm3.h **** #define SCB_CCR_BFHFNMIGN_Msk              (1ul << SCB_CCR_BFHFNMIGN_Pos)                 /*!< SCB 
 267:./stm32f10x_libraries/CMSIS/CM3/CoreSupport/core_cm3.h **** 
 268:./stm32f10x_libraries/CMSIS/CM3/CoreSupport/core_cm3.h **** #define SCB_CCR_DIV_0_TRP_Pos               4                                             /*!< SCB 
 269:./stm32f10x_libraries/CMSIS/CM3/CoreSupport/core_cm3.h **** #define SCB_CCR_DIV_0_TRP_Msk              (1ul << SCB_CCR_DIV_0_TRP_Pos)                 /*!< SCB 
 270:./stm32f10x_libraries/CMSIS/CM3/CoreSupport/core_cm3.h **** 
 271:./stm32f10x_libraries/CMSIS/CM3/CoreSupport/core_cm3.h **** #define SCB_CCR_UNALIGN_TRP_Pos             3                                             /*!< SCB 
 272:./stm32f10x_libraries/CMSIS/CM3/CoreSupport/core_cm3.h **** #define SCB_CCR_UNALIGN_TRP_Msk            (1ul << SCB_CCR_UNALIGN_TRP_Pos)               /*!< SCB 
 273:./stm32f10x_libraries/CMSIS/CM3/CoreSupport/core_cm3.h **** 
 274:./stm32f10x_libraries/CMSIS/CM3/CoreSupport/core_cm3.h **** #define SCB_CCR_USERSETMPEND_Pos            1                                             /*!< SCB 
 275:./stm32f10x_libraries/CMSIS/CM3/CoreSupport/core_cm3.h **** #define SCB_CCR_USERSETMPEND_Msk           (1ul << SCB_CCR_USERSETMPEND_Pos)              /*!< SCB 
 276:./stm32f10x_libraries/CMSIS/CM3/CoreSupport/core_cm3.h **** 
 277:./stm32f10x_libraries/CMSIS/CM3/CoreSupport/core_cm3.h **** #define SCB_CCR_NONBASETHRDENA_Pos          0                                             /*!< SCB 
 278:./stm32f10x_libraries/CMSIS/CM3/CoreSupport/core_cm3.h **** #define SCB_CCR_NONBASETHRDENA_Msk         (1ul << SCB_CCR_NONBASETHRDENA_Pos)            /*!< SCB 
 279:./stm32f10x_libraries/CMSIS/CM3/CoreSupport/core_cm3.h **** 
 280:./stm32f10x_libraries/CMSIS/CM3/CoreSupport/core_cm3.h **** /* SCB System Handler Control and State Register Definitions */
 281:./stm32f10x_libraries/CMSIS/CM3/CoreSupport/core_cm3.h **** #define SCB_SHCSR_USGFAULTENA_Pos          18                                             /*!< SCB 
 282:./stm32f10x_libraries/CMSIS/CM3/CoreSupport/core_cm3.h **** #define SCB_SHCSR_USGFAULTENA_Msk          (1ul << SCB_SHCSR_USGFAULTENA_Pos)             /*!< SCB 
 283:./stm32f10x_libraries/CMSIS/CM3/CoreSupport/core_cm3.h **** 
 284:./stm32f10x_libraries/CMSIS/CM3/CoreSupport/core_cm3.h **** #define SCB_SHCSR_BUSFAULTENA_Pos          17                                             /*!< SCB 
 285:./stm32f10x_libraries/CMSIS/CM3/CoreSupport/core_cm3.h **** #define SCB_SHCSR_BUSFAULTENA_Msk          (1ul << SCB_SHCSR_BUSFAULTENA_Pos)             /*!< SCB 
 286:./stm32f10x_libraries/CMSIS/CM3/CoreSupport/core_cm3.h **** 
 287:./stm32f10x_libraries/CMSIS/CM3/CoreSupport/core_cm3.h **** #define SCB_SHCSR_MEMFAULTENA_Pos          16                                             /*!< SCB 
 288:./stm32f10x_libraries/CMSIS/CM3/CoreSupport/core_cm3.h **** #define SCB_SHCSR_MEMFAULTENA_Msk          (1ul << SCB_SHCSR_MEMFAULTENA_Pos)             /*!< SCB 
 289:./stm32f10x_libraries/CMSIS/CM3/CoreSupport/core_cm3.h **** 
 290:./stm32f10x_libraries/CMSIS/CM3/CoreSupport/core_cm3.h **** #define SCB_SHCSR_SVCALLPENDED_Pos         15                                             /*!< SCB 
 291:./stm32f10x_libraries/CMSIS/CM3/CoreSupport/core_cm3.h **** #define SCB_SHCSR_SVCALLPENDED_Msk         (1ul << SCB_SHCSR_SVCALLPENDED_Pos)            /*!< SCB 
 292:./stm32f10x_libraries/CMSIS/CM3/CoreSupport/core_cm3.h **** 
 293:./stm32f10x_libraries/CMSIS/CM3/CoreSupport/core_cm3.h **** #define SCB_SHCSR_BUSFAULTPENDED_Pos       14                                             /*!< SCB 
 294:./stm32f10x_libraries/CMSIS/CM3/CoreSupport/core_cm3.h **** #define SCB_SHCSR_BUSFAULTPENDED_Msk       (1ul << SCB_SHCSR_BUSFAULTPENDED_Pos)          /*!< SCB 
 295:./stm32f10x_libraries/CMSIS/CM3/CoreSupport/core_cm3.h **** 
 296:./stm32f10x_libraries/CMSIS/CM3/CoreSupport/core_cm3.h **** #define SCB_SHCSR_MEMFAULTPENDED_Pos       13                                             /*!< SCB 
 297:./stm32f10x_libraries/CMSIS/CM3/CoreSupport/core_cm3.h **** #define SCB_SHCSR_MEMFAULTPENDED_Msk       (1ul << SCB_SHCSR_MEMFAULTPENDED_Pos)          /*!< SCB 
 298:./stm32f10x_libraries/CMSIS/CM3/CoreSupport/core_cm3.h **** 
 299:./stm32f10x_libraries/CMSIS/CM3/CoreSupport/core_cm3.h **** #define SCB_SHCSR_USGFAULTPENDED_Pos       12                                             /*!< SCB 
 300:./stm32f10x_libraries/CMSIS/CM3/CoreSupport/core_cm3.h **** #define SCB_SHCSR_USGFAULTPENDED_Msk       (1ul << SCB_SHCSR_USGFAULTPENDED_Pos)          /*!< SCB 
 301:./stm32f10x_libraries/CMSIS/CM3/CoreSupport/core_cm3.h **** 
 302:./stm32f10x_libraries/CMSIS/CM3/CoreSupport/core_cm3.h **** #define SCB_SHCSR_SYSTICKACT_Pos           11                                             /*!< SCB 
 303:./stm32f10x_libraries/CMSIS/CM3/CoreSupport/core_cm3.h **** #define SCB_SHCSR_SYSTICKACT_Msk           (1ul << SCB_SHCSR_SYSTICKACT_Pos)              /*!< SCB 
 304:./stm32f10x_libraries/CMSIS/CM3/CoreSupport/core_cm3.h **** 
 305:./stm32f10x_libraries/CMSIS/CM3/CoreSupport/core_cm3.h **** #define SCB_SHCSR_PENDSVACT_Pos            10                                             /*!< SCB 
 306:./stm32f10x_libraries/CMSIS/CM3/CoreSupport/core_cm3.h **** #define SCB_SHCSR_PENDSVACT_Msk            (1ul << SCB_SHCSR_PENDSVACT_Pos)               /*!< SCB 
 307:./stm32f10x_libraries/CMSIS/CM3/CoreSupport/core_cm3.h **** 
 308:./stm32f10x_libraries/CMSIS/CM3/CoreSupport/core_cm3.h **** #define SCB_SHCSR_MONITORACT_Pos            8                                             /*!< SCB 
 309:./stm32f10x_libraries/CMSIS/CM3/CoreSupport/core_cm3.h **** #define SCB_SHCSR_MONITORACT_Msk           (1ul << SCB_SHCSR_MONITORACT_Pos)              /*!< SCB 
 310:./stm32f10x_libraries/CMSIS/CM3/CoreSupport/core_cm3.h **** 
 311:./stm32f10x_libraries/CMSIS/CM3/CoreSupport/core_cm3.h **** #define SCB_SHCSR_SVCALLACT_Pos             7                                             /*!< SCB 
 312:./stm32f10x_libraries/CMSIS/CM3/CoreSupport/core_cm3.h **** #define SCB_SHCSR_SVCALLACT_Msk            (1ul << SCB_SHCSR_SVCALLACT_Pos)               /*!< SCB 
 313:./stm32f10x_libraries/CMSIS/CM3/CoreSupport/core_cm3.h ****                                      
 314:./stm32f10x_libraries/CMSIS/CM3/CoreSupport/core_cm3.h **** #define SCB_SHCSR_USGFAULTACT_Pos           3                                             /*!< SCB 
 315:./stm32f10x_libraries/CMSIS/CM3/CoreSupport/core_cm3.h **** #define SCB_SHCSR_USGFAULTACT_Msk          (1ul << SCB_SHCSR_USGFAULTACT_Pos)             /*!< SCB 
 316:./stm32f10x_libraries/CMSIS/CM3/CoreSupport/core_cm3.h **** 
ARM GAS  C:\Users\user\AppData\Local\Temp\ccH9wMRW.s 			page 12


 317:./stm32f10x_libraries/CMSIS/CM3/CoreSupport/core_cm3.h **** #define SCB_SHCSR_BUSFAULTACT_Pos           1                                             /*!< SCB 
 318:./stm32f10x_libraries/CMSIS/CM3/CoreSupport/core_cm3.h **** #define SCB_SHCSR_BUSFAULTACT_Msk          (1ul << SCB_SHCSR_BUSFAULTACT_Pos)             /*!< SCB 
 319:./stm32f10x_libraries/CMSIS/CM3/CoreSupport/core_cm3.h **** 
 320:./stm32f10x_libraries/CMSIS/CM3/CoreSupport/core_cm3.h **** #define SCB_SHCSR_MEMFAULTACT_Pos           0                                             /*!< SCB 
 321:./stm32f10x_libraries/CMSIS/CM3/CoreSupport/core_cm3.h **** #define SCB_SHCSR_MEMFAULTACT_Msk          (1ul << SCB_SHCSR_MEMFAULTACT_Pos)             /*!< SCB 
 322:./stm32f10x_libraries/CMSIS/CM3/CoreSupport/core_cm3.h **** 
 323:./stm32f10x_libraries/CMSIS/CM3/CoreSupport/core_cm3.h **** /* SCB Configurable Fault Status Registers Definitions */
 324:./stm32f10x_libraries/CMSIS/CM3/CoreSupport/core_cm3.h **** #define SCB_CFSR_USGFAULTSR_Pos            16                                             /*!< SCB 
 325:./stm32f10x_libraries/CMSIS/CM3/CoreSupport/core_cm3.h **** #define SCB_CFSR_USGFAULTSR_Msk            (0xFFFFul << SCB_CFSR_USGFAULTSR_Pos)          /*!< SCB 
 326:./stm32f10x_libraries/CMSIS/CM3/CoreSupport/core_cm3.h **** 
 327:./stm32f10x_libraries/CMSIS/CM3/CoreSupport/core_cm3.h **** #define SCB_CFSR_BUSFAULTSR_Pos             8                                             /*!< SCB 
 328:./stm32f10x_libraries/CMSIS/CM3/CoreSupport/core_cm3.h **** #define SCB_CFSR_BUSFAULTSR_Msk            (0xFFul << SCB_CFSR_BUSFAULTSR_Pos)            /*!< SCB 
 329:./stm32f10x_libraries/CMSIS/CM3/CoreSupport/core_cm3.h **** 
 330:./stm32f10x_libraries/CMSIS/CM3/CoreSupport/core_cm3.h **** #define SCB_CFSR_MEMFAULTSR_Pos             0                                             /*!< SCB 
 331:./stm32f10x_libraries/CMSIS/CM3/CoreSupport/core_cm3.h **** #define SCB_CFSR_MEMFAULTSR_Msk            (0xFFul << SCB_CFSR_MEMFAULTSR_Pos)            /*!< SCB 
 332:./stm32f10x_libraries/CMSIS/CM3/CoreSupport/core_cm3.h **** 
 333:./stm32f10x_libraries/CMSIS/CM3/CoreSupport/core_cm3.h **** /* SCB Hard Fault Status Registers Definitions */
 334:./stm32f10x_libraries/CMSIS/CM3/CoreSupport/core_cm3.h **** #define SCB_HFSR_DEBUGEVT_Pos              31                                             /*!< SCB 
 335:./stm32f10x_libraries/CMSIS/CM3/CoreSupport/core_cm3.h **** #define SCB_HFSR_DEBUGEVT_Msk              (1ul << SCB_HFSR_DEBUGEVT_Pos)                 /*!< SCB 
 336:./stm32f10x_libraries/CMSIS/CM3/CoreSupport/core_cm3.h **** 
 337:./stm32f10x_libraries/CMSIS/CM3/CoreSupport/core_cm3.h **** #define SCB_HFSR_FORCED_Pos                30                                             /*!< SCB 
 338:./stm32f10x_libraries/CMSIS/CM3/CoreSupport/core_cm3.h **** #define SCB_HFSR_FORCED_Msk                (1ul << SCB_HFSR_FORCED_Pos)                   /*!< SCB 
 339:./stm32f10x_libraries/CMSIS/CM3/CoreSupport/core_cm3.h **** 
 340:./stm32f10x_libraries/CMSIS/CM3/CoreSupport/core_cm3.h **** #define SCB_HFSR_VECTTBL_Pos                1                                             /*!< SCB 
 341:./stm32f10x_libraries/CMSIS/CM3/CoreSupport/core_cm3.h **** #define SCB_HFSR_VECTTBL_Msk               (1ul << SCB_HFSR_VECTTBL_Pos)                  /*!< SCB 
 342:./stm32f10x_libraries/CMSIS/CM3/CoreSupport/core_cm3.h **** 
 343:./stm32f10x_libraries/CMSIS/CM3/CoreSupport/core_cm3.h **** /* SCB Debug Fault Status Register Definitions */
 344:./stm32f10x_libraries/CMSIS/CM3/CoreSupport/core_cm3.h **** #define SCB_DFSR_EXTERNAL_Pos               4                                             /*!< SCB 
 345:./stm32f10x_libraries/CMSIS/CM3/CoreSupport/core_cm3.h **** #define SCB_DFSR_EXTERNAL_Msk              (1ul << SCB_DFSR_EXTERNAL_Pos)                 /*!< SCB 
 346:./stm32f10x_libraries/CMSIS/CM3/CoreSupport/core_cm3.h **** 
 347:./stm32f10x_libraries/CMSIS/CM3/CoreSupport/core_cm3.h **** #define SCB_DFSR_VCATCH_Pos                 3                                             /*!< SCB 
 348:./stm32f10x_libraries/CMSIS/CM3/CoreSupport/core_cm3.h **** #define SCB_DFSR_VCATCH_Msk                (1ul << SCB_DFSR_VCATCH_Pos)                   /*!< SCB 
 349:./stm32f10x_libraries/CMSIS/CM3/CoreSupport/core_cm3.h **** 
 350:./stm32f10x_libraries/CMSIS/CM3/CoreSupport/core_cm3.h **** #define SCB_DFSR_DWTTRAP_Pos                2                                             /*!< SCB 
 351:./stm32f10x_libraries/CMSIS/CM3/CoreSupport/core_cm3.h **** #define SCB_DFSR_DWTTRAP_Msk               (1ul << SCB_DFSR_DWTTRAP_Pos)                  /*!< SCB 
 352:./stm32f10x_libraries/CMSIS/CM3/CoreSupport/core_cm3.h **** 
 353:./stm32f10x_libraries/CMSIS/CM3/CoreSupport/core_cm3.h **** #define SCB_DFSR_BKPT_Pos                   1                                             /*!< SCB 
 354:./stm32f10x_libraries/CMSIS/CM3/CoreSupport/core_cm3.h **** #define SCB_DFSR_BKPT_Msk                  (1ul << SCB_DFSR_BKPT_Pos)                     /*!< SCB 
 355:./stm32f10x_libraries/CMSIS/CM3/CoreSupport/core_cm3.h **** 
 356:./stm32f10x_libraries/CMSIS/CM3/CoreSupport/core_cm3.h **** #define SCB_DFSR_HALTED_Pos                 0                                             /*!< SCB 
 357:./stm32f10x_libraries/CMSIS/CM3/CoreSupport/core_cm3.h **** #define SCB_DFSR_HALTED_Msk                (1ul << SCB_DFSR_HALTED_Pos)                   /*!< SCB 
 358:./stm32f10x_libraries/CMSIS/CM3/CoreSupport/core_cm3.h **** /*@}*/ /* end of group CMSIS_CM3_SCB */
 359:./stm32f10x_libraries/CMSIS/CM3/CoreSupport/core_cm3.h **** 
 360:./stm32f10x_libraries/CMSIS/CM3/CoreSupport/core_cm3.h **** 
 361:./stm32f10x_libraries/CMSIS/CM3/CoreSupport/core_cm3.h **** /** @addtogroup CMSIS_CM3_SysTick CMSIS CM3 SysTick
 362:./stm32f10x_libraries/CMSIS/CM3/CoreSupport/core_cm3.h ****   memory mapped structure for SysTick
 363:./stm32f10x_libraries/CMSIS/CM3/CoreSupport/core_cm3.h ****   @{
 364:./stm32f10x_libraries/CMSIS/CM3/CoreSupport/core_cm3.h ****  */
 365:./stm32f10x_libraries/CMSIS/CM3/CoreSupport/core_cm3.h **** typedef struct
 366:./stm32f10x_libraries/CMSIS/CM3/CoreSupport/core_cm3.h **** {
 367:./stm32f10x_libraries/CMSIS/CM3/CoreSupport/core_cm3.h ****   __IO uint32_t CTRL;                         /*!< Offset: 0x00  SysTick Control and Status Registe
 368:./stm32f10x_libraries/CMSIS/CM3/CoreSupport/core_cm3.h ****   __IO uint32_t LOAD;                         /*!< Offset: 0x04  SysTick Reload Value Register     
 369:./stm32f10x_libraries/CMSIS/CM3/CoreSupport/core_cm3.h ****   __IO uint32_t VAL;                          /*!< Offset: 0x08  SysTick Current Value Register    
 370:./stm32f10x_libraries/CMSIS/CM3/CoreSupport/core_cm3.h ****   __I  uint32_t CALIB;                        /*!< Offset: 0x0C  SysTick Calibration Register      
 371:./stm32f10x_libraries/CMSIS/CM3/CoreSupport/core_cm3.h **** } SysTick_Type;
 372:./stm32f10x_libraries/CMSIS/CM3/CoreSupport/core_cm3.h **** 
 373:./stm32f10x_libraries/CMSIS/CM3/CoreSupport/core_cm3.h **** /* SysTick Control / Status Register Definitions */
ARM GAS  C:\Users\user\AppData\Local\Temp\ccH9wMRW.s 			page 13


 374:./stm32f10x_libraries/CMSIS/CM3/CoreSupport/core_cm3.h **** #define SysTick_CTRL_COUNTFLAG_Pos         16                                             /*!< SysT
 375:./stm32f10x_libraries/CMSIS/CM3/CoreSupport/core_cm3.h **** #define SysTick_CTRL_COUNTFLAG_Msk         (1ul << SysTick_CTRL_COUNTFLAG_Pos)            /*!< SysT
 376:./stm32f10x_libraries/CMSIS/CM3/CoreSupport/core_cm3.h **** 
 377:./stm32f10x_libraries/CMSIS/CM3/CoreSupport/core_cm3.h **** #define SysTick_CTRL_CLKSOURCE_Pos          2                                             /*!< SysT
 378:./stm32f10x_libraries/CMSIS/CM3/CoreSupport/core_cm3.h **** #define SysTick_CTRL_CLKSOURCE_Msk         (1ul << SysTick_CTRL_CLKSOURCE_Pos)            /*!< SysT
 379:./stm32f10x_libraries/CMSIS/CM3/CoreSupport/core_cm3.h **** 
 380:./stm32f10x_libraries/CMSIS/CM3/CoreSupport/core_cm3.h **** #define SysTick_CTRL_TICKINT_Pos            1                                             /*!< SysT
 381:./stm32f10x_libraries/CMSIS/CM3/CoreSupport/core_cm3.h **** #define SysTick_CTRL_TICKINT_Msk           (1ul << SysTick_CTRL_TICKINT_Pos)              /*!< SysT
 382:./stm32f10x_libraries/CMSIS/CM3/CoreSupport/core_cm3.h **** 
 383:./stm32f10x_libraries/CMSIS/CM3/CoreSupport/core_cm3.h **** #define SysTick_CTRL_ENABLE_Pos             0                                             /*!< SysT
 384:./stm32f10x_libraries/CMSIS/CM3/CoreSupport/core_cm3.h **** #define SysTick_CTRL_ENABLE_Msk            (1ul << SysTick_CTRL_ENABLE_Pos)               /*!< SysT
 385:./stm32f10x_libraries/CMSIS/CM3/CoreSupport/core_cm3.h **** 
 386:./stm32f10x_libraries/CMSIS/CM3/CoreSupport/core_cm3.h **** /* SysTick Reload Register Definitions */
 387:./stm32f10x_libraries/CMSIS/CM3/CoreSupport/core_cm3.h **** #define SysTick_LOAD_RELOAD_Pos             0                                             /*!< SysT
 388:./stm32f10x_libraries/CMSIS/CM3/CoreSupport/core_cm3.h **** #define SysTick_LOAD_RELOAD_Msk            (0xFFFFFFul << SysTick_LOAD_RELOAD_Pos)        /*!< SysT
 389:./stm32f10x_libraries/CMSIS/CM3/CoreSupport/core_cm3.h **** 
 390:./stm32f10x_libraries/CMSIS/CM3/CoreSupport/core_cm3.h **** /* SysTick Current Register Definitions */
 391:./stm32f10x_libraries/CMSIS/CM3/CoreSupport/core_cm3.h **** #define SysTick_VAL_CURRENT_Pos             0                                             /*!< SysT
 392:./stm32f10x_libraries/CMSIS/CM3/CoreSupport/core_cm3.h **** #define SysTick_VAL_CURRENT_Msk            (0xFFFFFFul << SysTick_VAL_CURRENT_Pos)        /*!< SysT
 393:./stm32f10x_libraries/CMSIS/CM3/CoreSupport/core_cm3.h **** 
 394:./stm32f10x_libraries/CMSIS/CM3/CoreSupport/core_cm3.h **** /* SysTick Calibration Register Definitions */
 395:./stm32f10x_libraries/CMSIS/CM3/CoreSupport/core_cm3.h **** #define SysTick_CALIB_NOREF_Pos            31                                             /*!< SysT
 396:./stm32f10x_libraries/CMSIS/CM3/CoreSupport/core_cm3.h **** #define SysTick_CALIB_NOREF_Msk            (1ul << SysTick_CALIB_NOREF_Pos)               /*!< SysT
 397:./stm32f10x_libraries/CMSIS/CM3/CoreSupport/core_cm3.h **** 
 398:./stm32f10x_libraries/CMSIS/CM3/CoreSupport/core_cm3.h **** #define SysTick_CALIB_SKEW_Pos             30                                             /*!< SysT
 399:./stm32f10x_libraries/CMSIS/CM3/CoreSupport/core_cm3.h **** #define SysTick_CALIB_SKEW_Msk             (1ul << SysTick_CALIB_SKEW_Pos)                /*!< SysT
 400:./stm32f10x_libraries/CMSIS/CM3/CoreSupport/core_cm3.h **** 
 401:./stm32f10x_libraries/CMSIS/CM3/CoreSupport/core_cm3.h **** #define SysTick_CALIB_TENMS_Pos             0                                             /*!< SysT
 402:./stm32f10x_libraries/CMSIS/CM3/CoreSupport/core_cm3.h **** #define SysTick_CALIB_TENMS_Msk            (0xFFFFFFul << SysTick_VAL_CURRENT_Pos)        /*!< SysT
 403:./stm32f10x_libraries/CMSIS/CM3/CoreSupport/core_cm3.h **** /*@}*/ /* end of group CMSIS_CM3_SysTick */
 404:./stm32f10x_libraries/CMSIS/CM3/CoreSupport/core_cm3.h **** 
 405:./stm32f10x_libraries/CMSIS/CM3/CoreSupport/core_cm3.h **** 
 406:./stm32f10x_libraries/CMSIS/CM3/CoreSupport/core_cm3.h **** /** @addtogroup CMSIS_CM3_ITM CMSIS CM3 ITM
 407:./stm32f10x_libraries/CMSIS/CM3/CoreSupport/core_cm3.h ****   memory mapped structure for Instrumentation Trace Macrocell (ITM)
 408:./stm32f10x_libraries/CMSIS/CM3/CoreSupport/core_cm3.h ****   @{
 409:./stm32f10x_libraries/CMSIS/CM3/CoreSupport/core_cm3.h ****  */
 410:./stm32f10x_libraries/CMSIS/CM3/CoreSupport/core_cm3.h **** typedef struct
 411:./stm32f10x_libraries/CMSIS/CM3/CoreSupport/core_cm3.h **** {
 412:./stm32f10x_libraries/CMSIS/CM3/CoreSupport/core_cm3.h ****   __O  union  
 413:./stm32f10x_libraries/CMSIS/CM3/CoreSupport/core_cm3.h ****   {
 414:./stm32f10x_libraries/CMSIS/CM3/CoreSupport/core_cm3.h ****     __O  uint8_t    u8;                       /*!< Offset:       ITM Stimulus Port 8-bit           
 415:./stm32f10x_libraries/CMSIS/CM3/CoreSupport/core_cm3.h ****     __O  uint16_t   u16;                      /*!< Offset:       ITM Stimulus Port 16-bit          
 416:./stm32f10x_libraries/CMSIS/CM3/CoreSupport/core_cm3.h ****     __O  uint32_t   u32;                      /*!< Offset:       ITM Stimulus Port 32-bit          
 417:./stm32f10x_libraries/CMSIS/CM3/CoreSupport/core_cm3.h ****   }  PORT [32];                               /*!< Offset: 0x00  ITM Stimulus Port Registers       
 418:./stm32f10x_libraries/CMSIS/CM3/CoreSupport/core_cm3.h ****        uint32_t RESERVED0[864];                                 
 419:./stm32f10x_libraries/CMSIS/CM3/CoreSupport/core_cm3.h ****   __IO uint32_t TER;                          /*!< Offset:       ITM Trace Enable Register         
 420:./stm32f10x_libraries/CMSIS/CM3/CoreSupport/core_cm3.h ****        uint32_t RESERVED1[15];                                  
 421:./stm32f10x_libraries/CMSIS/CM3/CoreSupport/core_cm3.h ****   __IO uint32_t TPR;                          /*!< Offset:       ITM Trace Privilege Register      
 422:./stm32f10x_libraries/CMSIS/CM3/CoreSupport/core_cm3.h ****        uint32_t RESERVED2[15];                                  
 423:./stm32f10x_libraries/CMSIS/CM3/CoreSupport/core_cm3.h ****   __IO uint32_t TCR;                          /*!< Offset:       ITM Trace Control Register        
 424:./stm32f10x_libraries/CMSIS/CM3/CoreSupport/core_cm3.h ****        uint32_t RESERVED3[29];                                  
 425:./stm32f10x_libraries/CMSIS/CM3/CoreSupport/core_cm3.h ****   __IO uint32_t IWR;                          /*!< Offset:       ITM Integration Write Register    
 426:./stm32f10x_libraries/CMSIS/CM3/CoreSupport/core_cm3.h ****   __IO uint32_t IRR;                          /*!< Offset:       ITM Integration Read Register     
 427:./stm32f10x_libraries/CMSIS/CM3/CoreSupport/core_cm3.h ****   __IO uint32_t IMCR;                         /*!< Offset:       ITM Integration Mode Control Regis
 428:./stm32f10x_libraries/CMSIS/CM3/CoreSupport/core_cm3.h ****        uint32_t RESERVED4[43];                                  
 429:./stm32f10x_libraries/CMSIS/CM3/CoreSupport/core_cm3.h ****   __IO uint32_t LAR;                          /*!< Offset:       ITM Lock Access Register          
 430:./stm32f10x_libraries/CMSIS/CM3/CoreSupport/core_cm3.h ****   __IO uint32_t LSR;                          /*!< Offset:       ITM Lock Status Register          
ARM GAS  C:\Users\user\AppData\Local\Temp\ccH9wMRW.s 			page 14


 431:./stm32f10x_libraries/CMSIS/CM3/CoreSupport/core_cm3.h ****        uint32_t RESERVED5[6];                                   
 432:./stm32f10x_libraries/CMSIS/CM3/CoreSupport/core_cm3.h ****   __I  uint32_t PID4;                         /*!< Offset:       ITM Peripheral Identification Regi
 433:./stm32f10x_libraries/CMSIS/CM3/CoreSupport/core_cm3.h ****   __I  uint32_t PID5;                         /*!< Offset:       ITM Peripheral Identification Regi
 434:./stm32f10x_libraries/CMSIS/CM3/CoreSupport/core_cm3.h ****   __I  uint32_t PID6;                         /*!< Offset:       ITM Peripheral Identification Regi
 435:./stm32f10x_libraries/CMSIS/CM3/CoreSupport/core_cm3.h ****   __I  uint32_t PID7;                         /*!< Offset:       ITM Peripheral Identification Regi
 436:./stm32f10x_libraries/CMSIS/CM3/CoreSupport/core_cm3.h ****   __I  uint32_t PID0;                         /*!< Offset:       ITM Peripheral Identification Regi
 437:./stm32f10x_libraries/CMSIS/CM3/CoreSupport/core_cm3.h ****   __I  uint32_t PID1;                         /*!< Offset:       ITM Peripheral Identification Regi
 438:./stm32f10x_libraries/CMSIS/CM3/CoreSupport/core_cm3.h ****   __I  uint32_t PID2;                         /*!< Offset:       ITM Peripheral Identification Regi
 439:./stm32f10x_libraries/CMSIS/CM3/CoreSupport/core_cm3.h ****   __I  uint32_t PID3;                         /*!< Offset:       ITM Peripheral Identification Regi
 440:./stm32f10x_libraries/CMSIS/CM3/CoreSupport/core_cm3.h ****   __I  uint32_t CID0;                         /*!< Offset:       ITM Component  Identification Regi
 441:./stm32f10x_libraries/CMSIS/CM3/CoreSupport/core_cm3.h ****   __I  uint32_t CID1;                         /*!< Offset:       ITM Component  Identification Regi
 442:./stm32f10x_libraries/CMSIS/CM3/CoreSupport/core_cm3.h ****   __I  uint32_t CID2;                         /*!< Offset:       ITM Component  Identification Regi
 443:./stm32f10x_libraries/CMSIS/CM3/CoreSupport/core_cm3.h ****   __I  uint32_t CID3;                         /*!< Offset:       ITM Component  Identification Regi
 444:./stm32f10x_libraries/CMSIS/CM3/CoreSupport/core_cm3.h **** } ITM_Type;                                                
 445:./stm32f10x_libraries/CMSIS/CM3/CoreSupport/core_cm3.h **** 
 446:./stm32f10x_libraries/CMSIS/CM3/CoreSupport/core_cm3.h **** /* ITM Trace Privilege Register Definitions */
 447:./stm32f10x_libraries/CMSIS/CM3/CoreSupport/core_cm3.h **** #define ITM_TPR_PRIVMASK_Pos                0                                             /*!< ITM 
 448:./stm32f10x_libraries/CMSIS/CM3/CoreSupport/core_cm3.h **** #define ITM_TPR_PRIVMASK_Msk               (0xFul << ITM_TPR_PRIVMASK_Pos)                /*!< ITM 
 449:./stm32f10x_libraries/CMSIS/CM3/CoreSupport/core_cm3.h **** 
 450:./stm32f10x_libraries/CMSIS/CM3/CoreSupport/core_cm3.h **** /* ITM Trace Control Register Definitions */
 451:./stm32f10x_libraries/CMSIS/CM3/CoreSupport/core_cm3.h **** #define ITM_TCR_BUSY_Pos                   23                                             /*!< ITM 
 452:./stm32f10x_libraries/CMSIS/CM3/CoreSupport/core_cm3.h **** #define ITM_TCR_BUSY_Msk                   (1ul << ITM_TCR_BUSY_Pos)                      /*!< ITM 
 453:./stm32f10x_libraries/CMSIS/CM3/CoreSupport/core_cm3.h **** 
 454:./stm32f10x_libraries/CMSIS/CM3/CoreSupport/core_cm3.h **** #define ITM_TCR_ATBID_Pos                  16                                             /*!< ITM 
 455:./stm32f10x_libraries/CMSIS/CM3/CoreSupport/core_cm3.h **** #define ITM_TCR_ATBID_Msk                  (0x7Ful << ITM_TCR_ATBID_Pos)                  /*!< ITM 
 456:./stm32f10x_libraries/CMSIS/CM3/CoreSupport/core_cm3.h **** 
 457:./stm32f10x_libraries/CMSIS/CM3/CoreSupport/core_cm3.h **** #define ITM_TCR_TSPrescale_Pos              8                                             /*!< ITM 
 458:./stm32f10x_libraries/CMSIS/CM3/CoreSupport/core_cm3.h **** #define ITM_TCR_TSPrescale_Msk             (3ul << ITM_TCR_TSPrescale_Pos)                /*!< ITM 
 459:./stm32f10x_libraries/CMSIS/CM3/CoreSupport/core_cm3.h **** 
 460:./stm32f10x_libraries/CMSIS/CM3/CoreSupport/core_cm3.h **** #define ITM_TCR_SWOENA_Pos                  4                                             /*!< ITM 
 461:./stm32f10x_libraries/CMSIS/CM3/CoreSupport/core_cm3.h **** #define ITM_TCR_SWOENA_Msk                 (1ul << ITM_TCR_SWOENA_Pos)                    /*!< ITM 
 462:./stm32f10x_libraries/CMSIS/CM3/CoreSupport/core_cm3.h **** 
 463:./stm32f10x_libraries/CMSIS/CM3/CoreSupport/core_cm3.h **** #define ITM_TCR_DWTENA_Pos                  3                                             /*!< ITM 
 464:./stm32f10x_libraries/CMSIS/CM3/CoreSupport/core_cm3.h **** #define ITM_TCR_DWTENA_Msk                 (1ul << ITM_TCR_DWTENA_Pos)                    /*!< ITM 
 465:./stm32f10x_libraries/CMSIS/CM3/CoreSupport/core_cm3.h **** 
 466:./stm32f10x_libraries/CMSIS/CM3/CoreSupport/core_cm3.h **** #define ITM_TCR_SYNCENA_Pos                 2                                             /*!< ITM 
 467:./stm32f10x_libraries/CMSIS/CM3/CoreSupport/core_cm3.h **** #define ITM_TCR_SYNCENA_Msk                (1ul << ITM_TCR_SYNCENA_Pos)                   /*!< ITM 
 468:./stm32f10x_libraries/CMSIS/CM3/CoreSupport/core_cm3.h **** 
 469:./stm32f10x_libraries/CMSIS/CM3/CoreSupport/core_cm3.h **** #define ITM_TCR_TSENA_Pos                   1                                             /*!< ITM 
 470:./stm32f10x_libraries/CMSIS/CM3/CoreSupport/core_cm3.h **** #define ITM_TCR_TSENA_Msk                  (1ul << ITM_TCR_TSENA_Pos)                     /*!< ITM 
 471:./stm32f10x_libraries/CMSIS/CM3/CoreSupport/core_cm3.h **** 
 472:./stm32f10x_libraries/CMSIS/CM3/CoreSupport/core_cm3.h **** #define ITM_TCR_ITMENA_Pos                  0                                             /*!< ITM 
 473:./stm32f10x_libraries/CMSIS/CM3/CoreSupport/core_cm3.h **** #define ITM_TCR_ITMENA_Msk                 (1ul << ITM_TCR_ITMENA_Pos)                    /*!< ITM 
 474:./stm32f10x_libraries/CMSIS/CM3/CoreSupport/core_cm3.h **** 
 475:./stm32f10x_libraries/CMSIS/CM3/CoreSupport/core_cm3.h **** /* ITM Integration Write Register Definitions */
 476:./stm32f10x_libraries/CMSIS/CM3/CoreSupport/core_cm3.h **** #define ITM_IWR_ATVALIDM_Pos                0                                             /*!< ITM 
 477:./stm32f10x_libraries/CMSIS/CM3/CoreSupport/core_cm3.h **** #define ITM_IWR_ATVALIDM_Msk               (1ul << ITM_IWR_ATVALIDM_Pos)                  /*!< ITM 
 478:./stm32f10x_libraries/CMSIS/CM3/CoreSupport/core_cm3.h **** 
 479:./stm32f10x_libraries/CMSIS/CM3/CoreSupport/core_cm3.h **** /* ITM Integration Read Register Definitions */
 480:./stm32f10x_libraries/CMSIS/CM3/CoreSupport/core_cm3.h **** #define ITM_IRR_ATREADYM_Pos                0                                             /*!< ITM 
 481:./stm32f10x_libraries/CMSIS/CM3/CoreSupport/core_cm3.h **** #define ITM_IRR_ATREADYM_Msk               (1ul << ITM_IRR_ATREADYM_Pos)                  /*!< ITM 
 482:./stm32f10x_libraries/CMSIS/CM3/CoreSupport/core_cm3.h **** 
 483:./stm32f10x_libraries/CMSIS/CM3/CoreSupport/core_cm3.h **** /* ITM Integration Mode Control Register Definitions */
 484:./stm32f10x_libraries/CMSIS/CM3/CoreSupport/core_cm3.h **** #define ITM_IMCR_INTEGRATION_Pos            0                                             /*!< ITM 
 485:./stm32f10x_libraries/CMSIS/CM3/CoreSupport/core_cm3.h **** #define ITM_IMCR_INTEGRATION_Msk           (1ul << ITM_IMCR_INTEGRATION_Pos)              /*!< ITM 
 486:./stm32f10x_libraries/CMSIS/CM3/CoreSupport/core_cm3.h **** 
 487:./stm32f10x_libraries/CMSIS/CM3/CoreSupport/core_cm3.h **** /* ITM Lock Status Register Definitions */
ARM GAS  C:\Users\user\AppData\Local\Temp\ccH9wMRW.s 			page 15


 488:./stm32f10x_libraries/CMSIS/CM3/CoreSupport/core_cm3.h **** #define ITM_LSR_ByteAcc_Pos                 2                                             /*!< ITM 
 489:./stm32f10x_libraries/CMSIS/CM3/CoreSupport/core_cm3.h **** #define ITM_LSR_ByteAcc_Msk                (1ul << ITM_LSR_ByteAcc_Pos)                   /*!< ITM 
 490:./stm32f10x_libraries/CMSIS/CM3/CoreSupport/core_cm3.h **** 
 491:./stm32f10x_libraries/CMSIS/CM3/CoreSupport/core_cm3.h **** #define ITM_LSR_Access_Pos                  1                                             /*!< ITM 
 492:./stm32f10x_libraries/CMSIS/CM3/CoreSupport/core_cm3.h **** #define ITM_LSR_Access_Msk                 (1ul << ITM_LSR_Access_Pos)                    /*!< ITM 
 493:./stm32f10x_libraries/CMSIS/CM3/CoreSupport/core_cm3.h **** 
 494:./stm32f10x_libraries/CMSIS/CM3/CoreSupport/core_cm3.h **** #define ITM_LSR_Present_Pos                 0                                             /*!< ITM 
 495:./stm32f10x_libraries/CMSIS/CM3/CoreSupport/core_cm3.h **** #define ITM_LSR_Present_Msk                (1ul << ITM_LSR_Present_Pos)                   /*!< ITM 
 496:./stm32f10x_libraries/CMSIS/CM3/CoreSupport/core_cm3.h **** /*@}*/ /* end of group CMSIS_CM3_ITM */
 497:./stm32f10x_libraries/CMSIS/CM3/CoreSupport/core_cm3.h **** 
 498:./stm32f10x_libraries/CMSIS/CM3/CoreSupport/core_cm3.h **** 
 499:./stm32f10x_libraries/CMSIS/CM3/CoreSupport/core_cm3.h **** /** @addtogroup CMSIS_CM3_InterruptType CMSIS CM3 Interrupt Type
 500:./stm32f10x_libraries/CMSIS/CM3/CoreSupport/core_cm3.h ****   memory mapped structure for Interrupt Type
 501:./stm32f10x_libraries/CMSIS/CM3/CoreSupport/core_cm3.h ****   @{
 502:./stm32f10x_libraries/CMSIS/CM3/CoreSupport/core_cm3.h ****  */
 503:./stm32f10x_libraries/CMSIS/CM3/CoreSupport/core_cm3.h **** typedef struct
 504:./stm32f10x_libraries/CMSIS/CM3/CoreSupport/core_cm3.h **** {
 505:./stm32f10x_libraries/CMSIS/CM3/CoreSupport/core_cm3.h ****        uint32_t RESERVED0;
 506:./stm32f10x_libraries/CMSIS/CM3/CoreSupport/core_cm3.h ****   __I  uint32_t ICTR;                         /*!< Offset: 0x04  Interrupt Control Type Register */
 507:./stm32f10x_libraries/CMSIS/CM3/CoreSupport/core_cm3.h **** #if ((defined __CM3_REV) && (__CM3_REV >= 0x200))
 508:./stm32f10x_libraries/CMSIS/CM3/CoreSupport/core_cm3.h ****   __IO uint32_t ACTLR;                        /*!< Offset: 0x08  Auxiliary Control Register      */
 509:./stm32f10x_libraries/CMSIS/CM3/CoreSupport/core_cm3.h **** #else
 510:./stm32f10x_libraries/CMSIS/CM3/CoreSupport/core_cm3.h ****        uint32_t RESERVED1;
 511:./stm32f10x_libraries/CMSIS/CM3/CoreSupport/core_cm3.h **** #endif
 512:./stm32f10x_libraries/CMSIS/CM3/CoreSupport/core_cm3.h **** } InterruptType_Type;
 513:./stm32f10x_libraries/CMSIS/CM3/CoreSupport/core_cm3.h **** 
 514:./stm32f10x_libraries/CMSIS/CM3/CoreSupport/core_cm3.h **** /* Interrupt Controller Type Register Definitions */
 515:./stm32f10x_libraries/CMSIS/CM3/CoreSupport/core_cm3.h **** #define InterruptType_ICTR_INTLINESNUM_Pos  0                                             /*!< Inte
 516:./stm32f10x_libraries/CMSIS/CM3/CoreSupport/core_cm3.h **** #define InterruptType_ICTR_INTLINESNUM_Msk (0x1Ful << InterruptType_ICTR_INTLINESNUM_Pos) /*!< Inte
 517:./stm32f10x_libraries/CMSIS/CM3/CoreSupport/core_cm3.h **** 
 518:./stm32f10x_libraries/CMSIS/CM3/CoreSupport/core_cm3.h **** /* Auxiliary Control Register Definitions */
 519:./stm32f10x_libraries/CMSIS/CM3/CoreSupport/core_cm3.h **** #define InterruptType_ACTLR_DISFOLD_Pos     2                                             /*!< Inte
 520:./stm32f10x_libraries/CMSIS/CM3/CoreSupport/core_cm3.h **** #define InterruptType_ACTLR_DISFOLD_Msk    (1ul << InterruptType_ACTLR_DISFOLD_Pos)       /*!< Inte
 521:./stm32f10x_libraries/CMSIS/CM3/CoreSupport/core_cm3.h **** 
 522:./stm32f10x_libraries/CMSIS/CM3/CoreSupport/core_cm3.h **** #define InterruptType_ACTLR_DISDEFWBUF_Pos  1                                             /*!< Inte
 523:./stm32f10x_libraries/CMSIS/CM3/CoreSupport/core_cm3.h **** #define InterruptType_ACTLR_DISDEFWBUF_Msk (1ul << InterruptType_ACTLR_DISDEFWBUF_Pos)    /*!< Inte
 524:./stm32f10x_libraries/CMSIS/CM3/CoreSupport/core_cm3.h **** 
 525:./stm32f10x_libraries/CMSIS/CM3/CoreSupport/core_cm3.h **** #define InterruptType_ACTLR_DISMCYCINT_Pos  0                                             /*!< Inte
 526:./stm32f10x_libraries/CMSIS/CM3/CoreSupport/core_cm3.h **** #define InterruptType_ACTLR_DISMCYCINT_Msk (1ul << InterruptType_ACTLR_DISMCYCINT_Pos)    /*!< Inte
 527:./stm32f10x_libraries/CMSIS/CM3/CoreSupport/core_cm3.h **** /*@}*/ /* end of group CMSIS_CM3_InterruptType */
 528:./stm32f10x_libraries/CMSIS/CM3/CoreSupport/core_cm3.h **** 
 529:./stm32f10x_libraries/CMSIS/CM3/CoreSupport/core_cm3.h **** 
 530:./stm32f10x_libraries/CMSIS/CM3/CoreSupport/core_cm3.h **** #if defined (__MPU_PRESENT) && (__MPU_PRESENT == 1)
 531:./stm32f10x_libraries/CMSIS/CM3/CoreSupport/core_cm3.h **** /** @addtogroup CMSIS_CM3_MPU CMSIS CM3 MPU
 532:./stm32f10x_libraries/CMSIS/CM3/CoreSupport/core_cm3.h ****   memory mapped structure for Memory Protection Unit (MPU)
 533:./stm32f10x_libraries/CMSIS/CM3/CoreSupport/core_cm3.h ****   @{
 534:./stm32f10x_libraries/CMSIS/CM3/CoreSupport/core_cm3.h ****  */
 535:./stm32f10x_libraries/CMSIS/CM3/CoreSupport/core_cm3.h **** typedef struct
 536:./stm32f10x_libraries/CMSIS/CM3/CoreSupport/core_cm3.h **** {
 537:./stm32f10x_libraries/CMSIS/CM3/CoreSupport/core_cm3.h ****   __I  uint32_t TYPE;                         /*!< Offset: 0x00  MPU Type Register                 
 538:./stm32f10x_libraries/CMSIS/CM3/CoreSupport/core_cm3.h ****   __IO uint32_t CTRL;                         /*!< Offset: 0x04  MPU Control Register              
 539:./stm32f10x_libraries/CMSIS/CM3/CoreSupport/core_cm3.h ****   __IO uint32_t RNR;                          /*!< Offset: 0x08  MPU Region RNRber Register        
 540:./stm32f10x_libraries/CMSIS/CM3/CoreSupport/core_cm3.h ****   __IO uint32_t RBAR;                         /*!< Offset: 0x0C  MPU Region Base Address Register  
 541:./stm32f10x_libraries/CMSIS/CM3/CoreSupport/core_cm3.h ****   __IO uint32_t RASR;                         /*!< Offset: 0x10  MPU Region Attribute and Size Regi
 542:./stm32f10x_libraries/CMSIS/CM3/CoreSupport/core_cm3.h ****   __IO uint32_t RBAR_A1;                      /*!< Offset: 0x14  MPU Alias 1 Region Base Address Re
 543:./stm32f10x_libraries/CMSIS/CM3/CoreSupport/core_cm3.h ****   __IO uint32_t RASR_A1;                      /*!< Offset: 0x18  MPU Alias 1 Region Attribute and S
 544:./stm32f10x_libraries/CMSIS/CM3/CoreSupport/core_cm3.h ****   __IO uint32_t RBAR_A2;                      /*!< Offset: 0x1C  MPU Alias 2 Region Base Address Re
ARM GAS  C:\Users\user\AppData\Local\Temp\ccH9wMRW.s 			page 16


 545:./stm32f10x_libraries/CMSIS/CM3/CoreSupport/core_cm3.h ****   __IO uint32_t RASR_A2;                      /*!< Offset: 0x20  MPU Alias 2 Region Attribute and S
 546:./stm32f10x_libraries/CMSIS/CM3/CoreSupport/core_cm3.h ****   __IO uint32_t RBAR_A3;                      /*!< Offset: 0x24  MPU Alias 3 Region Base Address Re
 547:./stm32f10x_libraries/CMSIS/CM3/CoreSupport/core_cm3.h ****   __IO uint32_t RASR_A3;                      /*!< Offset: 0x28  MPU Alias 3 Region Attribute and S
 548:./stm32f10x_libraries/CMSIS/CM3/CoreSupport/core_cm3.h **** } MPU_Type;                                                
 549:./stm32f10x_libraries/CMSIS/CM3/CoreSupport/core_cm3.h **** 
 550:./stm32f10x_libraries/CMSIS/CM3/CoreSupport/core_cm3.h **** /* MPU Type Register */
 551:./stm32f10x_libraries/CMSIS/CM3/CoreSupport/core_cm3.h **** #define MPU_TYPE_IREGION_Pos               16                                             /*!< MPU 
 552:./stm32f10x_libraries/CMSIS/CM3/CoreSupport/core_cm3.h **** #define MPU_TYPE_IREGION_Msk               (0xFFul << MPU_TYPE_IREGION_Pos)               /*!< MPU 
 553:./stm32f10x_libraries/CMSIS/CM3/CoreSupport/core_cm3.h **** 
 554:./stm32f10x_libraries/CMSIS/CM3/CoreSupport/core_cm3.h **** #define MPU_TYPE_DREGION_Pos                8                                             /*!< MPU 
 555:./stm32f10x_libraries/CMSIS/CM3/CoreSupport/core_cm3.h **** #define MPU_TYPE_DREGION_Msk               (0xFFul << MPU_TYPE_DREGION_Pos)               /*!< MPU 
 556:./stm32f10x_libraries/CMSIS/CM3/CoreSupport/core_cm3.h **** 
 557:./stm32f10x_libraries/CMSIS/CM3/CoreSupport/core_cm3.h **** #define MPU_TYPE_SEPARATE_Pos               0                                             /*!< MPU 
 558:./stm32f10x_libraries/CMSIS/CM3/CoreSupport/core_cm3.h **** #define MPU_TYPE_SEPARATE_Msk              (1ul << MPU_TYPE_SEPARATE_Pos)                 /*!< MPU 
 559:./stm32f10x_libraries/CMSIS/CM3/CoreSupport/core_cm3.h **** 
 560:./stm32f10x_libraries/CMSIS/CM3/CoreSupport/core_cm3.h **** /* MPU Control Register */
 561:./stm32f10x_libraries/CMSIS/CM3/CoreSupport/core_cm3.h **** #define MPU_CTRL_PRIVDEFENA_Pos             2                                             /*!< MPU 
 562:./stm32f10x_libraries/CMSIS/CM3/CoreSupport/core_cm3.h **** #define MPU_CTRL_PRIVDEFENA_Msk            (1ul << MPU_CTRL_PRIVDEFENA_Pos)               /*!< MPU 
 563:./stm32f10x_libraries/CMSIS/CM3/CoreSupport/core_cm3.h **** 
 564:./stm32f10x_libraries/CMSIS/CM3/CoreSupport/core_cm3.h **** #define MPU_CTRL_HFNMIENA_Pos               1                                             /*!< MPU 
 565:./stm32f10x_libraries/CMSIS/CM3/CoreSupport/core_cm3.h **** #define MPU_CTRL_HFNMIENA_Msk              (1ul << MPU_CTRL_HFNMIENA_Pos)                 /*!< MPU 
 566:./stm32f10x_libraries/CMSIS/CM3/CoreSupport/core_cm3.h **** 
 567:./stm32f10x_libraries/CMSIS/CM3/CoreSupport/core_cm3.h **** #define MPU_CTRL_ENABLE_Pos                 0                                             /*!< MPU 
 568:./stm32f10x_libraries/CMSIS/CM3/CoreSupport/core_cm3.h **** #define MPU_CTRL_ENABLE_Msk                (1ul << MPU_CTRL_ENABLE_Pos)                   /*!< MPU 
 569:./stm32f10x_libraries/CMSIS/CM3/CoreSupport/core_cm3.h **** 
 570:./stm32f10x_libraries/CMSIS/CM3/CoreSupport/core_cm3.h **** /* MPU Region Number Register */
 571:./stm32f10x_libraries/CMSIS/CM3/CoreSupport/core_cm3.h **** #define MPU_RNR_REGION_Pos                  0                                             /*!< MPU 
 572:./stm32f10x_libraries/CMSIS/CM3/CoreSupport/core_cm3.h **** #define MPU_RNR_REGION_Msk                 (0xFFul << MPU_RNR_REGION_Pos)                 /*!< MPU 
 573:./stm32f10x_libraries/CMSIS/CM3/CoreSupport/core_cm3.h **** 
 574:./stm32f10x_libraries/CMSIS/CM3/CoreSupport/core_cm3.h **** /* MPU Region Base Address Register */
 575:./stm32f10x_libraries/CMSIS/CM3/CoreSupport/core_cm3.h **** #define MPU_RBAR_ADDR_Pos                   5                                             /*!< MPU 
 576:./stm32f10x_libraries/CMSIS/CM3/CoreSupport/core_cm3.h **** #define MPU_RBAR_ADDR_Msk                  (0x7FFFFFFul << MPU_RBAR_ADDR_Pos)             /*!< MPU 
 577:./stm32f10x_libraries/CMSIS/CM3/CoreSupport/core_cm3.h **** 
 578:./stm32f10x_libraries/CMSIS/CM3/CoreSupport/core_cm3.h **** #define MPU_RBAR_VALID_Pos                  4                                             /*!< MPU 
 579:./stm32f10x_libraries/CMSIS/CM3/CoreSupport/core_cm3.h **** #define MPU_RBAR_VALID_Msk                 (1ul << MPU_RBAR_VALID_Pos)                    /*!< MPU 
 580:./stm32f10x_libraries/CMSIS/CM3/CoreSupport/core_cm3.h **** 
 581:./stm32f10x_libraries/CMSIS/CM3/CoreSupport/core_cm3.h **** #define MPU_RBAR_REGION_Pos                 0                                             /*!< MPU 
 582:./stm32f10x_libraries/CMSIS/CM3/CoreSupport/core_cm3.h **** #define MPU_RBAR_REGION_Msk                (0xFul << MPU_RBAR_REGION_Pos)                 /*!< MPU 
 583:./stm32f10x_libraries/CMSIS/CM3/CoreSupport/core_cm3.h **** 
 584:./stm32f10x_libraries/CMSIS/CM3/CoreSupport/core_cm3.h **** /* MPU Region Attribute and Size Register */
 585:./stm32f10x_libraries/CMSIS/CM3/CoreSupport/core_cm3.h **** #define MPU_RASR_XN_Pos                    28                                             /*!< MPU 
 586:./stm32f10x_libraries/CMSIS/CM3/CoreSupport/core_cm3.h **** #define MPU_RASR_XN_Msk                    (1ul << MPU_RASR_XN_Pos)                       /*!< MPU 
 587:./stm32f10x_libraries/CMSIS/CM3/CoreSupport/core_cm3.h **** 
 588:./stm32f10x_libraries/CMSIS/CM3/CoreSupport/core_cm3.h **** #define MPU_RASR_AP_Pos                    24                                             /*!< MPU 
 589:./stm32f10x_libraries/CMSIS/CM3/CoreSupport/core_cm3.h **** #define MPU_RASR_AP_Msk                    (7ul << MPU_RASR_AP_Pos)                       /*!< MPU 
 590:./stm32f10x_libraries/CMSIS/CM3/CoreSupport/core_cm3.h **** 
 591:./stm32f10x_libraries/CMSIS/CM3/CoreSupport/core_cm3.h **** #define MPU_RASR_TEX_Pos                   19                                             /*!< MPU 
 592:./stm32f10x_libraries/CMSIS/CM3/CoreSupport/core_cm3.h **** #define MPU_RASR_TEX_Msk                   (7ul << MPU_RASR_TEX_Pos)                      /*!< MPU 
 593:./stm32f10x_libraries/CMSIS/CM3/CoreSupport/core_cm3.h **** 
 594:./stm32f10x_libraries/CMSIS/CM3/CoreSupport/core_cm3.h **** #define MPU_RASR_S_Pos                     18                                             /*!< MPU 
 595:./stm32f10x_libraries/CMSIS/CM3/CoreSupport/core_cm3.h **** #define MPU_RASR_S_Msk                     (1ul << MPU_RASR_S_Pos)                        /*!< MPU 
 596:./stm32f10x_libraries/CMSIS/CM3/CoreSupport/core_cm3.h **** 
 597:./stm32f10x_libraries/CMSIS/CM3/CoreSupport/core_cm3.h **** #define MPU_RASR_C_Pos                     17                                             /*!< MPU 
 598:./stm32f10x_libraries/CMSIS/CM3/CoreSupport/core_cm3.h **** #define MPU_RASR_C_Msk                     (1ul << MPU_RASR_C_Pos)                        /*!< MPU 
 599:./stm32f10x_libraries/CMSIS/CM3/CoreSupport/core_cm3.h **** 
 600:./stm32f10x_libraries/CMSIS/CM3/CoreSupport/core_cm3.h **** #define MPU_RASR_B_Pos                     16                                             /*!< MPU 
 601:./stm32f10x_libraries/CMSIS/CM3/CoreSupport/core_cm3.h **** #define MPU_RASR_B_Msk                     (1ul << MPU_RASR_B_Pos)                        /*!< MPU 
ARM GAS  C:\Users\user\AppData\Local\Temp\ccH9wMRW.s 			page 17


 602:./stm32f10x_libraries/CMSIS/CM3/CoreSupport/core_cm3.h **** 
 603:./stm32f10x_libraries/CMSIS/CM3/CoreSupport/core_cm3.h **** #define MPU_RASR_SRD_Pos                    8                                             /*!< MPU 
 604:./stm32f10x_libraries/CMSIS/CM3/CoreSupport/core_cm3.h **** #define MPU_RASR_SRD_Msk                   (0xFFul << MPU_RASR_SRD_Pos)                   /*!< MPU 
 605:./stm32f10x_libraries/CMSIS/CM3/CoreSupport/core_cm3.h **** 
 606:./stm32f10x_libraries/CMSIS/CM3/CoreSupport/core_cm3.h **** #define MPU_RASR_SIZE_Pos                   1                                             /*!< MPU 
 607:./stm32f10x_libraries/CMSIS/CM3/CoreSupport/core_cm3.h **** #define MPU_RASR_SIZE_Msk                  (0x1Ful << MPU_RASR_SIZE_Pos)                  /*!< MPU 
 608:./stm32f10x_libraries/CMSIS/CM3/CoreSupport/core_cm3.h **** 
 609:./stm32f10x_libraries/CMSIS/CM3/CoreSupport/core_cm3.h **** #define MPU_RASR_ENA_Pos                     0                                            /*!< MPU 
 610:./stm32f10x_libraries/CMSIS/CM3/CoreSupport/core_cm3.h **** #define MPU_RASR_ENA_Msk                    (0x1Ful << MPU_RASR_ENA_Pos)                  /*!< MPU 
 611:./stm32f10x_libraries/CMSIS/CM3/CoreSupport/core_cm3.h **** 
 612:./stm32f10x_libraries/CMSIS/CM3/CoreSupport/core_cm3.h **** /*@}*/ /* end of group CMSIS_CM3_MPU */
 613:./stm32f10x_libraries/CMSIS/CM3/CoreSupport/core_cm3.h **** #endif
 614:./stm32f10x_libraries/CMSIS/CM3/CoreSupport/core_cm3.h **** 
 615:./stm32f10x_libraries/CMSIS/CM3/CoreSupport/core_cm3.h **** 
 616:./stm32f10x_libraries/CMSIS/CM3/CoreSupport/core_cm3.h **** /** @addtogroup CMSIS_CM3_CoreDebug CMSIS CM3 Core Debug
 617:./stm32f10x_libraries/CMSIS/CM3/CoreSupport/core_cm3.h ****   memory mapped structure for Core Debug Register
 618:./stm32f10x_libraries/CMSIS/CM3/CoreSupport/core_cm3.h ****   @{
 619:./stm32f10x_libraries/CMSIS/CM3/CoreSupport/core_cm3.h ****  */
 620:./stm32f10x_libraries/CMSIS/CM3/CoreSupport/core_cm3.h **** typedef struct
 621:./stm32f10x_libraries/CMSIS/CM3/CoreSupport/core_cm3.h **** {
 622:./stm32f10x_libraries/CMSIS/CM3/CoreSupport/core_cm3.h ****   __IO uint32_t DHCSR;                        /*!< Offset: 0x00  Debug Halting Control and Status R
 623:./stm32f10x_libraries/CMSIS/CM3/CoreSupport/core_cm3.h ****   __O  uint32_t DCRSR;                        /*!< Offset: 0x04  Debug Core Register Selector Regis
 624:./stm32f10x_libraries/CMSIS/CM3/CoreSupport/core_cm3.h ****   __IO uint32_t DCRDR;                        /*!< Offset: 0x08  Debug Core Register Data Register 
 625:./stm32f10x_libraries/CMSIS/CM3/CoreSupport/core_cm3.h ****   __IO uint32_t DEMCR;                        /*!< Offset: 0x0C  Debug Exception and Monitor Contro
 626:./stm32f10x_libraries/CMSIS/CM3/CoreSupport/core_cm3.h **** } CoreDebug_Type;
 627:./stm32f10x_libraries/CMSIS/CM3/CoreSupport/core_cm3.h **** 
 628:./stm32f10x_libraries/CMSIS/CM3/CoreSupport/core_cm3.h **** /* Debug Halting Control and Status Register */
 629:./stm32f10x_libraries/CMSIS/CM3/CoreSupport/core_cm3.h **** #define CoreDebug_DHCSR_DBGKEY_Pos         16                                             /*!< Core
 630:./stm32f10x_libraries/CMSIS/CM3/CoreSupport/core_cm3.h **** #define CoreDebug_DHCSR_DBGKEY_Msk         (0xFFFFul << CoreDebug_DHCSR_DBGKEY_Pos)       /*!< Core
 631:./stm32f10x_libraries/CMSIS/CM3/CoreSupport/core_cm3.h **** 
 632:./stm32f10x_libraries/CMSIS/CM3/CoreSupport/core_cm3.h **** #define CoreDebug_DHCSR_S_RESET_ST_Pos     25                                             /*!< Core
 633:./stm32f10x_libraries/CMSIS/CM3/CoreSupport/core_cm3.h **** #define CoreDebug_DHCSR_S_RESET_ST_Msk     (1ul << CoreDebug_DHCSR_S_RESET_ST_Pos)        /*!< Core
 634:./stm32f10x_libraries/CMSIS/CM3/CoreSupport/core_cm3.h **** 
 635:./stm32f10x_libraries/CMSIS/CM3/CoreSupport/core_cm3.h **** #define CoreDebug_DHCSR_S_RETIRE_ST_Pos    24                                             /*!< Core
 636:./stm32f10x_libraries/CMSIS/CM3/CoreSupport/core_cm3.h **** #define CoreDebug_DHCSR_S_RETIRE_ST_Msk    (1ul << CoreDebug_DHCSR_S_RETIRE_ST_Pos)       /*!< Core
 637:./stm32f10x_libraries/CMSIS/CM3/CoreSupport/core_cm3.h **** 
 638:./stm32f10x_libraries/CMSIS/CM3/CoreSupport/core_cm3.h **** #define CoreDebug_DHCSR_S_LOCKUP_Pos       19                                             /*!< Core
 639:./stm32f10x_libraries/CMSIS/CM3/CoreSupport/core_cm3.h **** #define CoreDebug_DHCSR_S_LOCKUP_Msk       (1ul << CoreDebug_DHCSR_S_LOCKUP_Pos)          /*!< Core
 640:./stm32f10x_libraries/CMSIS/CM3/CoreSupport/core_cm3.h **** 
 641:./stm32f10x_libraries/CMSIS/CM3/CoreSupport/core_cm3.h **** #define CoreDebug_DHCSR_S_SLEEP_Pos        18                                             /*!< Core
 642:./stm32f10x_libraries/CMSIS/CM3/CoreSupport/core_cm3.h **** #define CoreDebug_DHCSR_S_SLEEP_Msk        (1ul << CoreDebug_DHCSR_S_SLEEP_Pos)           /*!< Core
 643:./stm32f10x_libraries/CMSIS/CM3/CoreSupport/core_cm3.h **** 
 644:./stm32f10x_libraries/CMSIS/CM3/CoreSupport/core_cm3.h **** #define CoreDebug_DHCSR_S_HALT_Pos         17                                             /*!< Core
 645:./stm32f10x_libraries/CMSIS/CM3/CoreSupport/core_cm3.h **** #define CoreDebug_DHCSR_S_HALT_Msk         (1ul << CoreDebug_DHCSR_S_HALT_Pos)            /*!< Core
 646:./stm32f10x_libraries/CMSIS/CM3/CoreSupport/core_cm3.h **** 
 647:./stm32f10x_libraries/CMSIS/CM3/CoreSupport/core_cm3.h **** #define CoreDebug_DHCSR_S_REGRDY_Pos       16                                             /*!< Core
 648:./stm32f10x_libraries/CMSIS/CM3/CoreSupport/core_cm3.h **** #define CoreDebug_DHCSR_S_REGRDY_Msk       (1ul << CoreDebug_DHCSR_S_REGRDY_Pos)          /*!< Core
 649:./stm32f10x_libraries/CMSIS/CM3/CoreSupport/core_cm3.h **** 
 650:./stm32f10x_libraries/CMSIS/CM3/CoreSupport/core_cm3.h **** #define CoreDebug_DHCSR_C_SNAPSTALL_Pos     5                                             /*!< Core
 651:./stm32f10x_libraries/CMSIS/CM3/CoreSupport/core_cm3.h **** #define CoreDebug_DHCSR_C_SNAPSTALL_Msk    (1ul << CoreDebug_DHCSR_C_SNAPSTALL_Pos)       /*!< Core
 652:./stm32f10x_libraries/CMSIS/CM3/CoreSupport/core_cm3.h **** 
 653:./stm32f10x_libraries/CMSIS/CM3/CoreSupport/core_cm3.h **** #define CoreDebug_DHCSR_C_MASKINTS_Pos      3                                             /*!< Core
 654:./stm32f10x_libraries/CMSIS/CM3/CoreSupport/core_cm3.h **** #define CoreDebug_DHCSR_C_MASKINTS_Msk     (1ul << CoreDebug_DHCSR_C_MASKINTS_Pos)        /*!< Core
 655:./stm32f10x_libraries/CMSIS/CM3/CoreSupport/core_cm3.h **** 
 656:./stm32f10x_libraries/CMSIS/CM3/CoreSupport/core_cm3.h **** #define CoreDebug_DHCSR_C_STEP_Pos          2                                             /*!< Core
 657:./stm32f10x_libraries/CMSIS/CM3/CoreSupport/core_cm3.h **** #define CoreDebug_DHCSR_C_STEP_Msk         (1ul << CoreDebug_DHCSR_C_STEP_Pos)            /*!< Core
 658:./stm32f10x_libraries/CMSIS/CM3/CoreSupport/core_cm3.h **** 
ARM GAS  C:\Users\user\AppData\Local\Temp\ccH9wMRW.s 			page 18


 659:./stm32f10x_libraries/CMSIS/CM3/CoreSupport/core_cm3.h **** #define CoreDebug_DHCSR_C_HALT_Pos          1                                             /*!< Core
 660:./stm32f10x_libraries/CMSIS/CM3/CoreSupport/core_cm3.h **** #define CoreDebug_DHCSR_C_HALT_Msk         (1ul << CoreDebug_DHCSR_C_HALT_Pos)            /*!< Core
 661:./stm32f10x_libraries/CMSIS/CM3/CoreSupport/core_cm3.h **** 
 662:./stm32f10x_libraries/CMSIS/CM3/CoreSupport/core_cm3.h **** #define CoreDebug_DHCSR_C_DEBUGEN_Pos       0                                             /*!< Core
 663:./stm32f10x_libraries/CMSIS/CM3/CoreSupport/core_cm3.h **** #define CoreDebug_DHCSR_C_DEBUGEN_Msk      (1ul << CoreDebug_DHCSR_C_DEBUGEN_Pos)         /*!< Core
 664:./stm32f10x_libraries/CMSIS/CM3/CoreSupport/core_cm3.h **** 
 665:./stm32f10x_libraries/CMSIS/CM3/CoreSupport/core_cm3.h **** /* Debug Core Register Selector Register */
 666:./stm32f10x_libraries/CMSIS/CM3/CoreSupport/core_cm3.h **** #define CoreDebug_DCRSR_REGWnR_Pos         16                                             /*!< Core
 667:./stm32f10x_libraries/CMSIS/CM3/CoreSupport/core_cm3.h **** #define CoreDebug_DCRSR_REGWnR_Msk         (1ul << CoreDebug_DCRSR_REGWnR_Pos)            /*!< Core
 668:./stm32f10x_libraries/CMSIS/CM3/CoreSupport/core_cm3.h **** 
 669:./stm32f10x_libraries/CMSIS/CM3/CoreSupport/core_cm3.h **** #define CoreDebug_DCRSR_REGSEL_Pos          0                                             /*!< Core
 670:./stm32f10x_libraries/CMSIS/CM3/CoreSupport/core_cm3.h **** #define CoreDebug_DCRSR_REGSEL_Msk         (0x1Ful << CoreDebug_DCRSR_REGSEL_Pos)         /*!< Core
 671:./stm32f10x_libraries/CMSIS/CM3/CoreSupport/core_cm3.h **** 
 672:./stm32f10x_libraries/CMSIS/CM3/CoreSupport/core_cm3.h **** /* Debug Exception and Monitor Control Register */
 673:./stm32f10x_libraries/CMSIS/CM3/CoreSupport/core_cm3.h **** #define CoreDebug_DEMCR_TRCENA_Pos         24                                             /*!< Core
 674:./stm32f10x_libraries/CMSIS/CM3/CoreSupport/core_cm3.h **** #define CoreDebug_DEMCR_TRCENA_Msk         (1ul << CoreDebug_DEMCR_TRCENA_Pos)            /*!< Core
 675:./stm32f10x_libraries/CMSIS/CM3/CoreSupport/core_cm3.h **** 
 676:./stm32f10x_libraries/CMSIS/CM3/CoreSupport/core_cm3.h **** #define CoreDebug_DEMCR_MON_REQ_Pos        19                                             /*!< Core
 677:./stm32f10x_libraries/CMSIS/CM3/CoreSupport/core_cm3.h **** #define CoreDebug_DEMCR_MON_REQ_Msk        (1ul << CoreDebug_DEMCR_MON_REQ_Pos)           /*!< Core
 678:./stm32f10x_libraries/CMSIS/CM3/CoreSupport/core_cm3.h **** 
 679:./stm32f10x_libraries/CMSIS/CM3/CoreSupport/core_cm3.h **** #define CoreDebug_DEMCR_MON_STEP_Pos       18                                             /*!< Core
 680:./stm32f10x_libraries/CMSIS/CM3/CoreSupport/core_cm3.h **** #define CoreDebug_DEMCR_MON_STEP_Msk       (1ul << CoreDebug_DEMCR_MON_STEP_Pos)          /*!< Core
 681:./stm32f10x_libraries/CMSIS/CM3/CoreSupport/core_cm3.h **** 
 682:./stm32f10x_libraries/CMSIS/CM3/CoreSupport/core_cm3.h **** #define CoreDebug_DEMCR_MON_PEND_Pos       17                                             /*!< Core
 683:./stm32f10x_libraries/CMSIS/CM3/CoreSupport/core_cm3.h **** #define CoreDebug_DEMCR_MON_PEND_Msk       (1ul << CoreDebug_DEMCR_MON_PEND_Pos)          /*!< Core
 684:./stm32f10x_libraries/CMSIS/CM3/CoreSupport/core_cm3.h **** 
 685:./stm32f10x_libraries/CMSIS/CM3/CoreSupport/core_cm3.h **** #define CoreDebug_DEMCR_MON_EN_Pos         16                                             /*!< Core
 686:./stm32f10x_libraries/CMSIS/CM3/CoreSupport/core_cm3.h **** #define CoreDebug_DEMCR_MON_EN_Msk         (1ul << CoreDebug_DEMCR_MON_EN_Pos)            /*!< Core
 687:./stm32f10x_libraries/CMSIS/CM3/CoreSupport/core_cm3.h **** 
 688:./stm32f10x_libraries/CMSIS/CM3/CoreSupport/core_cm3.h **** #define CoreDebug_DEMCR_VC_HARDERR_Pos     10                                             /*!< Core
 689:./stm32f10x_libraries/CMSIS/CM3/CoreSupport/core_cm3.h **** #define CoreDebug_DEMCR_VC_HARDERR_Msk     (1ul << CoreDebug_DEMCR_VC_HARDERR_Pos)        /*!< Core
 690:./stm32f10x_libraries/CMSIS/CM3/CoreSupport/core_cm3.h **** 
 691:./stm32f10x_libraries/CMSIS/CM3/CoreSupport/core_cm3.h **** #define CoreDebug_DEMCR_VC_INTERR_Pos       9                                             /*!< Core
 692:./stm32f10x_libraries/CMSIS/CM3/CoreSupport/core_cm3.h **** #define CoreDebug_DEMCR_VC_INTERR_Msk      (1ul << CoreDebug_DEMCR_VC_INTERR_Pos)         /*!< Core
 693:./stm32f10x_libraries/CMSIS/CM3/CoreSupport/core_cm3.h **** 
 694:./stm32f10x_libraries/CMSIS/CM3/CoreSupport/core_cm3.h **** #define CoreDebug_DEMCR_VC_BUSERR_Pos       8                                             /*!< Core
 695:./stm32f10x_libraries/CMSIS/CM3/CoreSupport/core_cm3.h **** #define CoreDebug_DEMCR_VC_BUSERR_Msk      (1ul << CoreDebug_DEMCR_VC_BUSERR_Pos)         /*!< Core
 696:./stm32f10x_libraries/CMSIS/CM3/CoreSupport/core_cm3.h **** 
 697:./stm32f10x_libraries/CMSIS/CM3/CoreSupport/core_cm3.h **** #define CoreDebug_DEMCR_VC_STATERR_Pos      7                                             /*!< Core
 698:./stm32f10x_libraries/CMSIS/CM3/CoreSupport/core_cm3.h **** #define CoreDebug_DEMCR_VC_STATERR_Msk     (1ul << CoreDebug_DEMCR_VC_STATERR_Pos)        /*!< Core
 699:./stm32f10x_libraries/CMSIS/CM3/CoreSupport/core_cm3.h **** 
 700:./stm32f10x_libraries/CMSIS/CM3/CoreSupport/core_cm3.h **** #define CoreDebug_DEMCR_VC_CHKERR_Pos       6                                             /*!< Core
 701:./stm32f10x_libraries/CMSIS/CM3/CoreSupport/core_cm3.h **** #define CoreDebug_DEMCR_VC_CHKERR_Msk      (1ul << CoreDebug_DEMCR_VC_CHKERR_Pos)         /*!< Core
 702:./stm32f10x_libraries/CMSIS/CM3/CoreSupport/core_cm3.h **** 
 703:./stm32f10x_libraries/CMSIS/CM3/CoreSupport/core_cm3.h **** #define CoreDebug_DEMCR_VC_NOCPERR_Pos      5                                             /*!< Core
 704:./stm32f10x_libraries/CMSIS/CM3/CoreSupport/core_cm3.h **** #define CoreDebug_DEMCR_VC_NOCPERR_Msk     (1ul << CoreDebug_DEMCR_VC_NOCPERR_Pos)        /*!< Core
 705:./stm32f10x_libraries/CMSIS/CM3/CoreSupport/core_cm3.h **** 
 706:./stm32f10x_libraries/CMSIS/CM3/CoreSupport/core_cm3.h **** #define CoreDebug_DEMCR_VC_MMERR_Pos        4                                             /*!< Core
 707:./stm32f10x_libraries/CMSIS/CM3/CoreSupport/core_cm3.h **** #define CoreDebug_DEMCR_VC_MMERR_Msk       (1ul << CoreDebug_DEMCR_VC_MMERR_Pos)          /*!< Core
 708:./stm32f10x_libraries/CMSIS/CM3/CoreSupport/core_cm3.h **** 
 709:./stm32f10x_libraries/CMSIS/CM3/CoreSupport/core_cm3.h **** #define CoreDebug_DEMCR_VC_CORERESET_Pos    0                                             /*!< Core
 710:./stm32f10x_libraries/CMSIS/CM3/CoreSupport/core_cm3.h **** #define CoreDebug_DEMCR_VC_CORERESET_Msk   (1ul << CoreDebug_DEMCR_VC_CORERESET_Pos)      /*!< Core
 711:./stm32f10x_libraries/CMSIS/CM3/CoreSupport/core_cm3.h **** /*@}*/ /* end of group CMSIS_CM3_CoreDebug */
 712:./stm32f10x_libraries/CMSIS/CM3/CoreSupport/core_cm3.h **** 
 713:./stm32f10x_libraries/CMSIS/CM3/CoreSupport/core_cm3.h **** 
 714:./stm32f10x_libraries/CMSIS/CM3/CoreSupport/core_cm3.h **** /* Memory mapping of Cortex-M3 Hardware */
 715:./stm32f10x_libraries/CMSIS/CM3/CoreSupport/core_cm3.h **** #define SCS_BASE            (0xE000E000)                              /*!< System Control Space Bas
ARM GAS  C:\Users\user\AppData\Local\Temp\ccH9wMRW.s 			page 19


 716:./stm32f10x_libraries/CMSIS/CM3/CoreSupport/core_cm3.h **** #define ITM_BASE            (0xE0000000)                              /*!< ITM Base Address        
 717:./stm32f10x_libraries/CMSIS/CM3/CoreSupport/core_cm3.h **** #define CoreDebug_BASE      (0xE000EDF0)                              /*!< Core Debug Base Address 
 718:./stm32f10x_libraries/CMSIS/CM3/CoreSupport/core_cm3.h **** #define SysTick_BASE        (SCS_BASE +  0x0010)                      /*!< SysTick Base Address    
 719:./stm32f10x_libraries/CMSIS/CM3/CoreSupport/core_cm3.h **** #define NVIC_BASE           (SCS_BASE +  0x0100)                      /*!< NVIC Base Address       
 720:./stm32f10x_libraries/CMSIS/CM3/CoreSupport/core_cm3.h **** #define SCB_BASE            (SCS_BASE +  0x0D00)                      /*!< System Control Block Bas
 721:./stm32f10x_libraries/CMSIS/CM3/CoreSupport/core_cm3.h **** 
 722:./stm32f10x_libraries/CMSIS/CM3/CoreSupport/core_cm3.h **** #define InterruptType       ((InterruptType_Type *) SCS_BASE)         /*!< Interrupt Type Register 
 723:./stm32f10x_libraries/CMSIS/CM3/CoreSupport/core_cm3.h **** #define SCB                 ((SCB_Type *)           SCB_BASE)         /*!< SCB configuration struct
 724:./stm32f10x_libraries/CMSIS/CM3/CoreSupport/core_cm3.h **** #define SysTick             ((SysTick_Type *)       SysTick_BASE)     /*!< SysTick configuration st
 725:./stm32f10x_libraries/CMSIS/CM3/CoreSupport/core_cm3.h **** #define NVIC                ((NVIC_Type *)          NVIC_BASE)        /*!< NVIC configuration struc
 726:./stm32f10x_libraries/CMSIS/CM3/CoreSupport/core_cm3.h **** #define ITM                 ((ITM_Type *)           ITM_BASE)         /*!< ITM configuration struct
 727:./stm32f10x_libraries/CMSIS/CM3/CoreSupport/core_cm3.h **** #define CoreDebug           ((CoreDebug_Type *)     CoreDebug_BASE)   /*!< Core Debug configuration
 728:./stm32f10x_libraries/CMSIS/CM3/CoreSupport/core_cm3.h **** 
 729:./stm32f10x_libraries/CMSIS/CM3/CoreSupport/core_cm3.h **** #if defined (__MPU_PRESENT) && (__MPU_PRESENT == 1)
 730:./stm32f10x_libraries/CMSIS/CM3/CoreSupport/core_cm3.h ****   #define MPU_BASE          (SCS_BASE +  0x0D90)                      /*!< Memory Protection Unit  
 731:./stm32f10x_libraries/CMSIS/CM3/CoreSupport/core_cm3.h ****   #define MPU               ((MPU_Type*)            MPU_BASE)         /*!< Memory Protection Unit  
 732:./stm32f10x_libraries/CMSIS/CM3/CoreSupport/core_cm3.h **** #endif
 733:./stm32f10x_libraries/CMSIS/CM3/CoreSupport/core_cm3.h **** 
 734:./stm32f10x_libraries/CMSIS/CM3/CoreSupport/core_cm3.h **** /*@}*/ /* end of group CMSIS_CM3_core_register */
 735:./stm32f10x_libraries/CMSIS/CM3/CoreSupport/core_cm3.h **** 
 736:./stm32f10x_libraries/CMSIS/CM3/CoreSupport/core_cm3.h **** 
 737:./stm32f10x_libraries/CMSIS/CM3/CoreSupport/core_cm3.h **** /*******************************************************************************
 738:./stm32f10x_libraries/CMSIS/CM3/CoreSupport/core_cm3.h ****  *                Hardware Abstraction Layer
 739:./stm32f10x_libraries/CMSIS/CM3/CoreSupport/core_cm3.h ****  ******************************************************************************/
 740:./stm32f10x_libraries/CMSIS/CM3/CoreSupport/core_cm3.h **** 
 741:./stm32f10x_libraries/CMSIS/CM3/CoreSupport/core_cm3.h **** #if defined ( __CC_ARM   )
 742:./stm32f10x_libraries/CMSIS/CM3/CoreSupport/core_cm3.h ****   #define __ASM            __asm                                      /*!< asm keyword for ARM Comp
 743:./stm32f10x_libraries/CMSIS/CM3/CoreSupport/core_cm3.h ****   #define __INLINE         __inline                                   /*!< inline keyword for ARM C
 744:./stm32f10x_libraries/CMSIS/CM3/CoreSupport/core_cm3.h **** 
 745:./stm32f10x_libraries/CMSIS/CM3/CoreSupport/core_cm3.h **** #elif defined ( __ICCARM__ )
 746:./stm32f10x_libraries/CMSIS/CM3/CoreSupport/core_cm3.h ****   #define __ASM           __asm                                       /*!< asm keyword for IAR Comp
 747:./stm32f10x_libraries/CMSIS/CM3/CoreSupport/core_cm3.h ****   #define __INLINE        inline                                      /*!< inline keyword for IAR C
 748:./stm32f10x_libraries/CMSIS/CM3/CoreSupport/core_cm3.h **** 
 749:./stm32f10x_libraries/CMSIS/CM3/CoreSupport/core_cm3.h **** #elif defined   (  __GNUC__  )
 750:./stm32f10x_libraries/CMSIS/CM3/CoreSupport/core_cm3.h ****   #define __ASM            __asm                                      /*!< asm keyword for GNU Comp
 751:./stm32f10x_libraries/CMSIS/CM3/CoreSupport/core_cm3.h ****   #define __INLINE         inline                                     /*!< inline keyword for GNU C
 752:./stm32f10x_libraries/CMSIS/CM3/CoreSupport/core_cm3.h **** 
 753:./stm32f10x_libraries/CMSIS/CM3/CoreSupport/core_cm3.h **** #elif defined   (  __TASKING__  )
 754:./stm32f10x_libraries/CMSIS/CM3/CoreSupport/core_cm3.h ****   #define __ASM            __asm                                      /*!< asm keyword for TASKING 
 755:./stm32f10x_libraries/CMSIS/CM3/CoreSupport/core_cm3.h ****   #define __INLINE         inline                                     /*!< inline keyword for TASKI
 756:./stm32f10x_libraries/CMSIS/CM3/CoreSupport/core_cm3.h **** 
 757:./stm32f10x_libraries/CMSIS/CM3/CoreSupport/core_cm3.h **** #endif
 758:./stm32f10x_libraries/CMSIS/CM3/CoreSupport/core_cm3.h **** 
 759:./stm32f10x_libraries/CMSIS/CM3/CoreSupport/core_cm3.h **** 
 760:./stm32f10x_libraries/CMSIS/CM3/CoreSupport/core_cm3.h **** /* ###################  Compiler specific Intrinsics  ########################### */
 761:./stm32f10x_libraries/CMSIS/CM3/CoreSupport/core_cm3.h **** 
 762:./stm32f10x_libraries/CMSIS/CM3/CoreSupport/core_cm3.h **** #if defined ( __CC_ARM   ) /*------------------RealView Compiler -----------------*/
 763:./stm32f10x_libraries/CMSIS/CM3/CoreSupport/core_cm3.h **** /* ARM armcc specific functions */
 764:./stm32f10x_libraries/CMSIS/CM3/CoreSupport/core_cm3.h **** 
 765:./stm32f10x_libraries/CMSIS/CM3/CoreSupport/core_cm3.h **** #define __enable_fault_irq                __enable_fiq
 766:./stm32f10x_libraries/CMSIS/CM3/CoreSupport/core_cm3.h **** #define __disable_fault_irq               __disable_fiq
 767:./stm32f10x_libraries/CMSIS/CM3/CoreSupport/core_cm3.h **** 
 768:./stm32f10x_libraries/CMSIS/CM3/CoreSupport/core_cm3.h **** #define __NOP                             __nop
 769:./stm32f10x_libraries/CMSIS/CM3/CoreSupport/core_cm3.h **** #define __WFI                             __wfi
 770:./stm32f10x_libraries/CMSIS/CM3/CoreSupport/core_cm3.h **** #define __WFE                             __wfe
 771:./stm32f10x_libraries/CMSIS/CM3/CoreSupport/core_cm3.h **** #define __SEV                             __sev
 772:./stm32f10x_libraries/CMSIS/CM3/CoreSupport/core_cm3.h **** #define __ISB()                           __isb(0)
ARM GAS  C:\Users\user\AppData\Local\Temp\ccH9wMRW.s 			page 20


 773:./stm32f10x_libraries/CMSIS/CM3/CoreSupport/core_cm3.h **** #define __DSB()                           __dsb(0)
 774:./stm32f10x_libraries/CMSIS/CM3/CoreSupport/core_cm3.h **** #define __DMB()                           __dmb(0)
 775:./stm32f10x_libraries/CMSIS/CM3/CoreSupport/core_cm3.h **** #define __REV                             __rev
 776:./stm32f10x_libraries/CMSIS/CM3/CoreSupport/core_cm3.h **** #define __RBIT                            __rbit
 777:./stm32f10x_libraries/CMSIS/CM3/CoreSupport/core_cm3.h **** #define __LDREXB(ptr)                     ((unsigned char ) __ldrex(ptr))
 778:./stm32f10x_libraries/CMSIS/CM3/CoreSupport/core_cm3.h **** #define __LDREXH(ptr)                     ((unsigned short) __ldrex(ptr))
 779:./stm32f10x_libraries/CMSIS/CM3/CoreSupport/core_cm3.h **** #define __LDREXW(ptr)                     ((unsigned int  ) __ldrex(ptr))
 780:./stm32f10x_libraries/CMSIS/CM3/CoreSupport/core_cm3.h **** #define __STREXB(value, ptr)              __strex(value, ptr)
 781:./stm32f10x_libraries/CMSIS/CM3/CoreSupport/core_cm3.h **** #define __STREXH(value, ptr)              __strex(value, ptr)
 782:./stm32f10x_libraries/CMSIS/CM3/CoreSupport/core_cm3.h **** #define __STREXW(value, ptr)              __strex(value, ptr)
 783:./stm32f10x_libraries/CMSIS/CM3/CoreSupport/core_cm3.h **** 
 784:./stm32f10x_libraries/CMSIS/CM3/CoreSupport/core_cm3.h **** 
 785:./stm32f10x_libraries/CMSIS/CM3/CoreSupport/core_cm3.h **** /* intrinsic unsigned long long __ldrexd(volatile void *ptr) */
 786:./stm32f10x_libraries/CMSIS/CM3/CoreSupport/core_cm3.h **** /* intrinsic int __strexd(unsigned long long val, volatile void *ptr) */
 787:./stm32f10x_libraries/CMSIS/CM3/CoreSupport/core_cm3.h **** /* intrinsic void __enable_irq();     */
 788:./stm32f10x_libraries/CMSIS/CM3/CoreSupport/core_cm3.h **** /* intrinsic void __disable_irq();    */
 789:./stm32f10x_libraries/CMSIS/CM3/CoreSupport/core_cm3.h **** 
 790:./stm32f10x_libraries/CMSIS/CM3/CoreSupport/core_cm3.h **** 
 791:./stm32f10x_libraries/CMSIS/CM3/CoreSupport/core_cm3.h **** /**
 792:./stm32f10x_libraries/CMSIS/CM3/CoreSupport/core_cm3.h ****  * @brief  Return the Process Stack Pointer
 793:./stm32f10x_libraries/CMSIS/CM3/CoreSupport/core_cm3.h ****  *
 794:./stm32f10x_libraries/CMSIS/CM3/CoreSupport/core_cm3.h ****  * @return ProcessStackPointer
 795:./stm32f10x_libraries/CMSIS/CM3/CoreSupport/core_cm3.h ****  *
 796:./stm32f10x_libraries/CMSIS/CM3/CoreSupport/core_cm3.h ****  * Return the actual process stack pointer
 797:./stm32f10x_libraries/CMSIS/CM3/CoreSupport/core_cm3.h ****  */
 798:./stm32f10x_libraries/CMSIS/CM3/CoreSupport/core_cm3.h **** extern uint32_t __get_PSP(void);
 799:./stm32f10x_libraries/CMSIS/CM3/CoreSupport/core_cm3.h **** 
 800:./stm32f10x_libraries/CMSIS/CM3/CoreSupport/core_cm3.h **** /**
 801:./stm32f10x_libraries/CMSIS/CM3/CoreSupport/core_cm3.h ****  * @brief  Set the Process Stack Pointer
 802:./stm32f10x_libraries/CMSIS/CM3/CoreSupport/core_cm3.h ****  *
 803:./stm32f10x_libraries/CMSIS/CM3/CoreSupport/core_cm3.h ****  * @param  topOfProcStack  Process Stack Pointer
 804:./stm32f10x_libraries/CMSIS/CM3/CoreSupport/core_cm3.h ****  *
 805:./stm32f10x_libraries/CMSIS/CM3/CoreSupport/core_cm3.h ****  * Assign the value ProcessStackPointer to the MSP 
 806:./stm32f10x_libraries/CMSIS/CM3/CoreSupport/core_cm3.h ****  * (process stack pointer) Cortex processor register
 807:./stm32f10x_libraries/CMSIS/CM3/CoreSupport/core_cm3.h ****  */
 808:./stm32f10x_libraries/CMSIS/CM3/CoreSupport/core_cm3.h **** extern void __set_PSP(uint32_t topOfProcStack);
 809:./stm32f10x_libraries/CMSIS/CM3/CoreSupport/core_cm3.h **** 
 810:./stm32f10x_libraries/CMSIS/CM3/CoreSupport/core_cm3.h **** /**
 811:./stm32f10x_libraries/CMSIS/CM3/CoreSupport/core_cm3.h ****  * @brief  Return the Main Stack Pointer
 812:./stm32f10x_libraries/CMSIS/CM3/CoreSupport/core_cm3.h ****  *
 813:./stm32f10x_libraries/CMSIS/CM3/CoreSupport/core_cm3.h ****  * @return Main Stack Pointer
 814:./stm32f10x_libraries/CMSIS/CM3/CoreSupport/core_cm3.h ****  *
 815:./stm32f10x_libraries/CMSIS/CM3/CoreSupport/core_cm3.h ****  * Return the current value of the MSP (main stack pointer)
 816:./stm32f10x_libraries/CMSIS/CM3/CoreSupport/core_cm3.h ****  * Cortex processor register
 817:./stm32f10x_libraries/CMSIS/CM3/CoreSupport/core_cm3.h ****  */
 818:./stm32f10x_libraries/CMSIS/CM3/CoreSupport/core_cm3.h **** extern uint32_t __get_MSP(void);
 819:./stm32f10x_libraries/CMSIS/CM3/CoreSupport/core_cm3.h **** 
 820:./stm32f10x_libraries/CMSIS/CM3/CoreSupport/core_cm3.h **** /**
 821:./stm32f10x_libraries/CMSIS/CM3/CoreSupport/core_cm3.h ****  * @brief  Set the Main Stack Pointer
 822:./stm32f10x_libraries/CMSIS/CM3/CoreSupport/core_cm3.h ****  *
 823:./stm32f10x_libraries/CMSIS/CM3/CoreSupport/core_cm3.h ****  * @param  topOfMainStack  Main Stack Pointer
 824:./stm32f10x_libraries/CMSIS/CM3/CoreSupport/core_cm3.h ****  *
 825:./stm32f10x_libraries/CMSIS/CM3/CoreSupport/core_cm3.h ****  * Assign the value mainStackPointer to the MSP 
 826:./stm32f10x_libraries/CMSIS/CM3/CoreSupport/core_cm3.h ****  * (main stack pointer) Cortex processor register
 827:./stm32f10x_libraries/CMSIS/CM3/CoreSupport/core_cm3.h ****  */
 828:./stm32f10x_libraries/CMSIS/CM3/CoreSupport/core_cm3.h **** extern void __set_MSP(uint32_t topOfMainStack);
 829:./stm32f10x_libraries/CMSIS/CM3/CoreSupport/core_cm3.h **** 
ARM GAS  C:\Users\user\AppData\Local\Temp\ccH9wMRW.s 			page 21


 830:./stm32f10x_libraries/CMSIS/CM3/CoreSupport/core_cm3.h **** /**
 831:./stm32f10x_libraries/CMSIS/CM3/CoreSupport/core_cm3.h ****  * @brief  Reverse byte order in unsigned short value
 832:./stm32f10x_libraries/CMSIS/CM3/CoreSupport/core_cm3.h ****  *
 833:./stm32f10x_libraries/CMSIS/CM3/CoreSupport/core_cm3.h ****  * @param   value  value to reverse
 834:./stm32f10x_libraries/CMSIS/CM3/CoreSupport/core_cm3.h ****  * @return         reversed value
 835:./stm32f10x_libraries/CMSIS/CM3/CoreSupport/core_cm3.h ****  *
 836:./stm32f10x_libraries/CMSIS/CM3/CoreSupport/core_cm3.h ****  * Reverse byte order in unsigned short value
 837:./stm32f10x_libraries/CMSIS/CM3/CoreSupport/core_cm3.h ****  */
 838:./stm32f10x_libraries/CMSIS/CM3/CoreSupport/core_cm3.h **** extern uint32_t __REV16(uint16_t value);
 839:./stm32f10x_libraries/CMSIS/CM3/CoreSupport/core_cm3.h **** 
 840:./stm32f10x_libraries/CMSIS/CM3/CoreSupport/core_cm3.h **** /**
 841:./stm32f10x_libraries/CMSIS/CM3/CoreSupport/core_cm3.h ****  * @brief  Reverse byte order in signed short value with sign extension to integer
 842:./stm32f10x_libraries/CMSIS/CM3/CoreSupport/core_cm3.h ****  *
 843:./stm32f10x_libraries/CMSIS/CM3/CoreSupport/core_cm3.h ****  * @param   value  value to reverse
 844:./stm32f10x_libraries/CMSIS/CM3/CoreSupport/core_cm3.h ****  * @return         reversed value
 845:./stm32f10x_libraries/CMSIS/CM3/CoreSupport/core_cm3.h ****  *
 846:./stm32f10x_libraries/CMSIS/CM3/CoreSupport/core_cm3.h ****  * Reverse byte order in signed short value with sign extension to integer
 847:./stm32f10x_libraries/CMSIS/CM3/CoreSupport/core_cm3.h ****  */
 848:./stm32f10x_libraries/CMSIS/CM3/CoreSupport/core_cm3.h **** extern int32_t __REVSH(int16_t value);
 849:./stm32f10x_libraries/CMSIS/CM3/CoreSupport/core_cm3.h **** 
 850:./stm32f10x_libraries/CMSIS/CM3/CoreSupport/core_cm3.h **** 
 851:./stm32f10x_libraries/CMSIS/CM3/CoreSupport/core_cm3.h **** #if (__ARMCC_VERSION < 400000)
 852:./stm32f10x_libraries/CMSIS/CM3/CoreSupport/core_cm3.h **** 
 853:./stm32f10x_libraries/CMSIS/CM3/CoreSupport/core_cm3.h **** /**
 854:./stm32f10x_libraries/CMSIS/CM3/CoreSupport/core_cm3.h ****  * @brief  Remove the exclusive lock created by ldrex
 855:./stm32f10x_libraries/CMSIS/CM3/CoreSupport/core_cm3.h ****  *
 856:./stm32f10x_libraries/CMSIS/CM3/CoreSupport/core_cm3.h ****  * Removes the exclusive lock which is created by ldrex.
 857:./stm32f10x_libraries/CMSIS/CM3/CoreSupport/core_cm3.h ****  */
 858:./stm32f10x_libraries/CMSIS/CM3/CoreSupport/core_cm3.h **** extern void __CLREX(void);
 859:./stm32f10x_libraries/CMSIS/CM3/CoreSupport/core_cm3.h **** 
 860:./stm32f10x_libraries/CMSIS/CM3/CoreSupport/core_cm3.h **** /**
 861:./stm32f10x_libraries/CMSIS/CM3/CoreSupport/core_cm3.h ****  * @brief  Return the Base Priority value
 862:./stm32f10x_libraries/CMSIS/CM3/CoreSupport/core_cm3.h ****  *
 863:./stm32f10x_libraries/CMSIS/CM3/CoreSupport/core_cm3.h ****  * @return BasePriority
 864:./stm32f10x_libraries/CMSIS/CM3/CoreSupport/core_cm3.h ****  *
 865:./stm32f10x_libraries/CMSIS/CM3/CoreSupport/core_cm3.h ****  * Return the content of the base priority register
 866:./stm32f10x_libraries/CMSIS/CM3/CoreSupport/core_cm3.h ****  */
 867:./stm32f10x_libraries/CMSIS/CM3/CoreSupport/core_cm3.h **** extern uint32_t __get_BASEPRI(void);
 868:./stm32f10x_libraries/CMSIS/CM3/CoreSupport/core_cm3.h **** 
 869:./stm32f10x_libraries/CMSIS/CM3/CoreSupport/core_cm3.h **** /**
 870:./stm32f10x_libraries/CMSIS/CM3/CoreSupport/core_cm3.h ****  * @brief  Set the Base Priority value
 871:./stm32f10x_libraries/CMSIS/CM3/CoreSupport/core_cm3.h ****  *
 872:./stm32f10x_libraries/CMSIS/CM3/CoreSupport/core_cm3.h ****  * @param  basePri  BasePriority
 873:./stm32f10x_libraries/CMSIS/CM3/CoreSupport/core_cm3.h ****  *
 874:./stm32f10x_libraries/CMSIS/CM3/CoreSupport/core_cm3.h ****  * Set the base priority register
 875:./stm32f10x_libraries/CMSIS/CM3/CoreSupport/core_cm3.h ****  */
 876:./stm32f10x_libraries/CMSIS/CM3/CoreSupport/core_cm3.h **** extern void __set_BASEPRI(uint32_t basePri);
 877:./stm32f10x_libraries/CMSIS/CM3/CoreSupport/core_cm3.h **** 
 878:./stm32f10x_libraries/CMSIS/CM3/CoreSupport/core_cm3.h **** /**
 879:./stm32f10x_libraries/CMSIS/CM3/CoreSupport/core_cm3.h ****  * @brief  Return the Priority Mask value
 880:./stm32f10x_libraries/CMSIS/CM3/CoreSupport/core_cm3.h ****  *
 881:./stm32f10x_libraries/CMSIS/CM3/CoreSupport/core_cm3.h ****  * @return PriMask
 882:./stm32f10x_libraries/CMSIS/CM3/CoreSupport/core_cm3.h ****  *
 883:./stm32f10x_libraries/CMSIS/CM3/CoreSupport/core_cm3.h ****  * Return state of the priority mask bit from the priority mask register
 884:./stm32f10x_libraries/CMSIS/CM3/CoreSupport/core_cm3.h ****  */
 885:./stm32f10x_libraries/CMSIS/CM3/CoreSupport/core_cm3.h **** extern uint32_t __get_PRIMASK(void);
 886:./stm32f10x_libraries/CMSIS/CM3/CoreSupport/core_cm3.h **** 
ARM GAS  C:\Users\user\AppData\Local\Temp\ccH9wMRW.s 			page 22


 887:./stm32f10x_libraries/CMSIS/CM3/CoreSupport/core_cm3.h **** /**
 888:./stm32f10x_libraries/CMSIS/CM3/CoreSupport/core_cm3.h ****  * @brief  Set the Priority Mask value
 889:./stm32f10x_libraries/CMSIS/CM3/CoreSupport/core_cm3.h ****  *
 890:./stm32f10x_libraries/CMSIS/CM3/CoreSupport/core_cm3.h ****  * @param   priMask  PriMask
 891:./stm32f10x_libraries/CMSIS/CM3/CoreSupport/core_cm3.h ****  *
 892:./stm32f10x_libraries/CMSIS/CM3/CoreSupport/core_cm3.h ****  * Set the priority mask bit in the priority mask register
 893:./stm32f10x_libraries/CMSIS/CM3/CoreSupport/core_cm3.h ****  */
 894:./stm32f10x_libraries/CMSIS/CM3/CoreSupport/core_cm3.h **** extern void __set_PRIMASK(uint32_t priMask);
 895:./stm32f10x_libraries/CMSIS/CM3/CoreSupport/core_cm3.h **** 
 896:./stm32f10x_libraries/CMSIS/CM3/CoreSupport/core_cm3.h **** /**
 897:./stm32f10x_libraries/CMSIS/CM3/CoreSupport/core_cm3.h ****  * @brief  Return the Fault Mask value
 898:./stm32f10x_libraries/CMSIS/CM3/CoreSupport/core_cm3.h ****  *
 899:./stm32f10x_libraries/CMSIS/CM3/CoreSupport/core_cm3.h ****  * @return FaultMask
 900:./stm32f10x_libraries/CMSIS/CM3/CoreSupport/core_cm3.h ****  *
 901:./stm32f10x_libraries/CMSIS/CM3/CoreSupport/core_cm3.h ****  * Return the content of the fault mask register
 902:./stm32f10x_libraries/CMSIS/CM3/CoreSupport/core_cm3.h ****  */
 903:./stm32f10x_libraries/CMSIS/CM3/CoreSupport/core_cm3.h **** extern uint32_t __get_FAULTMASK(void);
 904:./stm32f10x_libraries/CMSIS/CM3/CoreSupport/core_cm3.h **** 
 905:./stm32f10x_libraries/CMSIS/CM3/CoreSupport/core_cm3.h **** /**
 906:./stm32f10x_libraries/CMSIS/CM3/CoreSupport/core_cm3.h ****  * @brief  Set the Fault Mask value
 907:./stm32f10x_libraries/CMSIS/CM3/CoreSupport/core_cm3.h ****  *
 908:./stm32f10x_libraries/CMSIS/CM3/CoreSupport/core_cm3.h ****  * @param  faultMask faultMask value
 909:./stm32f10x_libraries/CMSIS/CM3/CoreSupport/core_cm3.h ****  *
 910:./stm32f10x_libraries/CMSIS/CM3/CoreSupport/core_cm3.h ****  * Set the fault mask register
 911:./stm32f10x_libraries/CMSIS/CM3/CoreSupport/core_cm3.h ****  */
 912:./stm32f10x_libraries/CMSIS/CM3/CoreSupport/core_cm3.h **** extern void __set_FAULTMASK(uint32_t faultMask);
 913:./stm32f10x_libraries/CMSIS/CM3/CoreSupport/core_cm3.h **** 
 914:./stm32f10x_libraries/CMSIS/CM3/CoreSupport/core_cm3.h **** /**
 915:./stm32f10x_libraries/CMSIS/CM3/CoreSupport/core_cm3.h ****  * @brief  Return the Control Register value
 916:./stm32f10x_libraries/CMSIS/CM3/CoreSupport/core_cm3.h ****  * 
 917:./stm32f10x_libraries/CMSIS/CM3/CoreSupport/core_cm3.h ****  * @return Control value
 918:./stm32f10x_libraries/CMSIS/CM3/CoreSupport/core_cm3.h ****  *
 919:./stm32f10x_libraries/CMSIS/CM3/CoreSupport/core_cm3.h ****  * Return the content of the control register
 920:./stm32f10x_libraries/CMSIS/CM3/CoreSupport/core_cm3.h ****  */
 921:./stm32f10x_libraries/CMSIS/CM3/CoreSupport/core_cm3.h **** extern uint32_t __get_CONTROL(void);
 922:./stm32f10x_libraries/CMSIS/CM3/CoreSupport/core_cm3.h **** 
 923:./stm32f10x_libraries/CMSIS/CM3/CoreSupport/core_cm3.h **** /**
 924:./stm32f10x_libraries/CMSIS/CM3/CoreSupport/core_cm3.h ****  * @brief  Set the Control Register value
 925:./stm32f10x_libraries/CMSIS/CM3/CoreSupport/core_cm3.h ****  *
 926:./stm32f10x_libraries/CMSIS/CM3/CoreSupport/core_cm3.h ****  * @param  control  Control value
 927:./stm32f10x_libraries/CMSIS/CM3/CoreSupport/core_cm3.h ****  *
 928:./stm32f10x_libraries/CMSIS/CM3/CoreSupport/core_cm3.h ****  * Set the control register
 929:./stm32f10x_libraries/CMSIS/CM3/CoreSupport/core_cm3.h ****  */
 930:./stm32f10x_libraries/CMSIS/CM3/CoreSupport/core_cm3.h **** extern void __set_CONTROL(uint32_t control);
 931:./stm32f10x_libraries/CMSIS/CM3/CoreSupport/core_cm3.h **** 
 932:./stm32f10x_libraries/CMSIS/CM3/CoreSupport/core_cm3.h **** #else  /* (__ARMCC_VERSION >= 400000)  */
 933:./stm32f10x_libraries/CMSIS/CM3/CoreSupport/core_cm3.h **** 
 934:./stm32f10x_libraries/CMSIS/CM3/CoreSupport/core_cm3.h **** /**
 935:./stm32f10x_libraries/CMSIS/CM3/CoreSupport/core_cm3.h ****  * @brief  Remove the exclusive lock created by ldrex
 936:./stm32f10x_libraries/CMSIS/CM3/CoreSupport/core_cm3.h ****  *
 937:./stm32f10x_libraries/CMSIS/CM3/CoreSupport/core_cm3.h ****  * Removes the exclusive lock which is created by ldrex.
 938:./stm32f10x_libraries/CMSIS/CM3/CoreSupport/core_cm3.h ****  */
 939:./stm32f10x_libraries/CMSIS/CM3/CoreSupport/core_cm3.h **** #define __CLREX                           __clrex
 940:./stm32f10x_libraries/CMSIS/CM3/CoreSupport/core_cm3.h **** 
 941:./stm32f10x_libraries/CMSIS/CM3/CoreSupport/core_cm3.h **** /**
 942:./stm32f10x_libraries/CMSIS/CM3/CoreSupport/core_cm3.h ****  * @brief  Return the Base Priority value
 943:./stm32f10x_libraries/CMSIS/CM3/CoreSupport/core_cm3.h ****  *
ARM GAS  C:\Users\user\AppData\Local\Temp\ccH9wMRW.s 			page 23


 944:./stm32f10x_libraries/CMSIS/CM3/CoreSupport/core_cm3.h ****  * @return BasePriority
 945:./stm32f10x_libraries/CMSIS/CM3/CoreSupport/core_cm3.h ****  *
 946:./stm32f10x_libraries/CMSIS/CM3/CoreSupport/core_cm3.h ****  * Return the content of the base priority register
 947:./stm32f10x_libraries/CMSIS/CM3/CoreSupport/core_cm3.h ****  */
 948:./stm32f10x_libraries/CMSIS/CM3/CoreSupport/core_cm3.h **** static __INLINE uint32_t  __get_BASEPRI(void)
 949:./stm32f10x_libraries/CMSIS/CM3/CoreSupport/core_cm3.h **** {
 950:./stm32f10x_libraries/CMSIS/CM3/CoreSupport/core_cm3.h ****   register uint32_t __regBasePri         __ASM("basepri");
 951:./stm32f10x_libraries/CMSIS/CM3/CoreSupport/core_cm3.h ****   return(__regBasePri);
 952:./stm32f10x_libraries/CMSIS/CM3/CoreSupport/core_cm3.h **** }
 953:./stm32f10x_libraries/CMSIS/CM3/CoreSupport/core_cm3.h **** 
 954:./stm32f10x_libraries/CMSIS/CM3/CoreSupport/core_cm3.h **** /**
 955:./stm32f10x_libraries/CMSIS/CM3/CoreSupport/core_cm3.h ****  * @brief  Set the Base Priority value
 956:./stm32f10x_libraries/CMSIS/CM3/CoreSupport/core_cm3.h ****  *
 957:./stm32f10x_libraries/CMSIS/CM3/CoreSupport/core_cm3.h ****  * @param  basePri  BasePriority
 958:./stm32f10x_libraries/CMSIS/CM3/CoreSupport/core_cm3.h ****  *
 959:./stm32f10x_libraries/CMSIS/CM3/CoreSupport/core_cm3.h ****  * Set the base priority register
 960:./stm32f10x_libraries/CMSIS/CM3/CoreSupport/core_cm3.h ****  */
 961:./stm32f10x_libraries/CMSIS/CM3/CoreSupport/core_cm3.h **** static __INLINE void __set_BASEPRI(uint32_t basePri)
 962:./stm32f10x_libraries/CMSIS/CM3/CoreSupport/core_cm3.h **** {
 963:./stm32f10x_libraries/CMSIS/CM3/CoreSupport/core_cm3.h ****   register uint32_t __regBasePri         __ASM("basepri");
 964:./stm32f10x_libraries/CMSIS/CM3/CoreSupport/core_cm3.h ****   __regBasePri = (basePri & 0xff);
 965:./stm32f10x_libraries/CMSIS/CM3/CoreSupport/core_cm3.h **** }
 966:./stm32f10x_libraries/CMSIS/CM3/CoreSupport/core_cm3.h **** 
 967:./stm32f10x_libraries/CMSIS/CM3/CoreSupport/core_cm3.h **** /**
 968:./stm32f10x_libraries/CMSIS/CM3/CoreSupport/core_cm3.h ****  * @brief  Return the Priority Mask value
 969:./stm32f10x_libraries/CMSIS/CM3/CoreSupport/core_cm3.h ****  *
 970:./stm32f10x_libraries/CMSIS/CM3/CoreSupport/core_cm3.h ****  * @return PriMask
 971:./stm32f10x_libraries/CMSIS/CM3/CoreSupport/core_cm3.h ****  *
 972:./stm32f10x_libraries/CMSIS/CM3/CoreSupport/core_cm3.h ****  * Return state of the priority mask bit from the priority mask register
 973:./stm32f10x_libraries/CMSIS/CM3/CoreSupport/core_cm3.h ****  */
 974:./stm32f10x_libraries/CMSIS/CM3/CoreSupport/core_cm3.h **** static __INLINE uint32_t __get_PRIMASK(void)
 975:./stm32f10x_libraries/CMSIS/CM3/CoreSupport/core_cm3.h **** {
 976:./stm32f10x_libraries/CMSIS/CM3/CoreSupport/core_cm3.h ****   register uint32_t __regPriMask         __ASM("primask");
 977:./stm32f10x_libraries/CMSIS/CM3/CoreSupport/core_cm3.h ****   return(__regPriMask);
 978:./stm32f10x_libraries/CMSIS/CM3/CoreSupport/core_cm3.h **** }
 979:./stm32f10x_libraries/CMSIS/CM3/CoreSupport/core_cm3.h **** 
 980:./stm32f10x_libraries/CMSIS/CM3/CoreSupport/core_cm3.h **** /**
 981:./stm32f10x_libraries/CMSIS/CM3/CoreSupport/core_cm3.h ****  * @brief  Set the Priority Mask value
 982:./stm32f10x_libraries/CMSIS/CM3/CoreSupport/core_cm3.h ****  *
 983:./stm32f10x_libraries/CMSIS/CM3/CoreSupport/core_cm3.h ****  * @param  priMask  PriMask
 984:./stm32f10x_libraries/CMSIS/CM3/CoreSupport/core_cm3.h ****  *
 985:./stm32f10x_libraries/CMSIS/CM3/CoreSupport/core_cm3.h ****  * Set the priority mask bit in the priority mask register
 986:./stm32f10x_libraries/CMSIS/CM3/CoreSupport/core_cm3.h ****  */
 987:./stm32f10x_libraries/CMSIS/CM3/CoreSupport/core_cm3.h **** static __INLINE void __set_PRIMASK(uint32_t priMask)
 988:./stm32f10x_libraries/CMSIS/CM3/CoreSupport/core_cm3.h **** {
 989:./stm32f10x_libraries/CMSIS/CM3/CoreSupport/core_cm3.h ****   register uint32_t __regPriMask         __ASM("primask");
 990:./stm32f10x_libraries/CMSIS/CM3/CoreSupport/core_cm3.h ****   __regPriMask = (priMask);
 991:./stm32f10x_libraries/CMSIS/CM3/CoreSupport/core_cm3.h **** }
 992:./stm32f10x_libraries/CMSIS/CM3/CoreSupport/core_cm3.h **** 
 993:./stm32f10x_libraries/CMSIS/CM3/CoreSupport/core_cm3.h **** /**
 994:./stm32f10x_libraries/CMSIS/CM3/CoreSupport/core_cm3.h ****  * @brief  Return the Fault Mask value
 995:./stm32f10x_libraries/CMSIS/CM3/CoreSupport/core_cm3.h ****  *
 996:./stm32f10x_libraries/CMSIS/CM3/CoreSupport/core_cm3.h ****  * @return FaultMask
 997:./stm32f10x_libraries/CMSIS/CM3/CoreSupport/core_cm3.h ****  *
 998:./stm32f10x_libraries/CMSIS/CM3/CoreSupport/core_cm3.h ****  * Return the content of the fault mask register
 999:./stm32f10x_libraries/CMSIS/CM3/CoreSupport/core_cm3.h ****  */
1000:./stm32f10x_libraries/CMSIS/CM3/CoreSupport/core_cm3.h **** static __INLINE uint32_t __get_FAULTMASK(void)
ARM GAS  C:\Users\user\AppData\Local\Temp\ccH9wMRW.s 			page 24


1001:./stm32f10x_libraries/CMSIS/CM3/CoreSupport/core_cm3.h **** {
1002:./stm32f10x_libraries/CMSIS/CM3/CoreSupport/core_cm3.h ****   register uint32_t __regFaultMask       __ASM("faultmask");
1003:./stm32f10x_libraries/CMSIS/CM3/CoreSupport/core_cm3.h ****   return(__regFaultMask);
1004:./stm32f10x_libraries/CMSIS/CM3/CoreSupport/core_cm3.h **** }
1005:./stm32f10x_libraries/CMSIS/CM3/CoreSupport/core_cm3.h **** 
1006:./stm32f10x_libraries/CMSIS/CM3/CoreSupport/core_cm3.h **** /**
1007:./stm32f10x_libraries/CMSIS/CM3/CoreSupport/core_cm3.h ****  * @brief  Set the Fault Mask value
1008:./stm32f10x_libraries/CMSIS/CM3/CoreSupport/core_cm3.h ****  *
1009:./stm32f10x_libraries/CMSIS/CM3/CoreSupport/core_cm3.h ****  * @param  faultMask  faultMask value
1010:./stm32f10x_libraries/CMSIS/CM3/CoreSupport/core_cm3.h ****  *
1011:./stm32f10x_libraries/CMSIS/CM3/CoreSupport/core_cm3.h ****  * Set the fault mask register
1012:./stm32f10x_libraries/CMSIS/CM3/CoreSupport/core_cm3.h ****  */
1013:./stm32f10x_libraries/CMSIS/CM3/CoreSupport/core_cm3.h **** static __INLINE void __set_FAULTMASK(uint32_t faultMask)
1014:./stm32f10x_libraries/CMSIS/CM3/CoreSupport/core_cm3.h **** {
1015:./stm32f10x_libraries/CMSIS/CM3/CoreSupport/core_cm3.h ****   register uint32_t __regFaultMask       __ASM("faultmask");
1016:./stm32f10x_libraries/CMSIS/CM3/CoreSupport/core_cm3.h ****   __regFaultMask = (faultMask & 1);
1017:./stm32f10x_libraries/CMSIS/CM3/CoreSupport/core_cm3.h **** }
1018:./stm32f10x_libraries/CMSIS/CM3/CoreSupport/core_cm3.h **** 
1019:./stm32f10x_libraries/CMSIS/CM3/CoreSupport/core_cm3.h **** /**
1020:./stm32f10x_libraries/CMSIS/CM3/CoreSupport/core_cm3.h ****  * @brief  Return the Control Register value
1021:./stm32f10x_libraries/CMSIS/CM3/CoreSupport/core_cm3.h ****  * 
1022:./stm32f10x_libraries/CMSIS/CM3/CoreSupport/core_cm3.h ****  * @return Control value
1023:./stm32f10x_libraries/CMSIS/CM3/CoreSupport/core_cm3.h ****  *
1024:./stm32f10x_libraries/CMSIS/CM3/CoreSupport/core_cm3.h ****  * Return the content of the control register
1025:./stm32f10x_libraries/CMSIS/CM3/CoreSupport/core_cm3.h ****  */
1026:./stm32f10x_libraries/CMSIS/CM3/CoreSupport/core_cm3.h **** static __INLINE uint32_t __get_CONTROL(void)
1027:./stm32f10x_libraries/CMSIS/CM3/CoreSupport/core_cm3.h **** {
1028:./stm32f10x_libraries/CMSIS/CM3/CoreSupport/core_cm3.h ****   register uint32_t __regControl         __ASM("control");
1029:./stm32f10x_libraries/CMSIS/CM3/CoreSupport/core_cm3.h ****   return(__regControl);
1030:./stm32f10x_libraries/CMSIS/CM3/CoreSupport/core_cm3.h **** }
1031:./stm32f10x_libraries/CMSIS/CM3/CoreSupport/core_cm3.h **** 
1032:./stm32f10x_libraries/CMSIS/CM3/CoreSupport/core_cm3.h **** /**
1033:./stm32f10x_libraries/CMSIS/CM3/CoreSupport/core_cm3.h ****  * @brief  Set the Control Register value
1034:./stm32f10x_libraries/CMSIS/CM3/CoreSupport/core_cm3.h ****  *
1035:./stm32f10x_libraries/CMSIS/CM3/CoreSupport/core_cm3.h ****  * @param  control  Control value
1036:./stm32f10x_libraries/CMSIS/CM3/CoreSupport/core_cm3.h ****  *
1037:./stm32f10x_libraries/CMSIS/CM3/CoreSupport/core_cm3.h ****  * Set the control register
1038:./stm32f10x_libraries/CMSIS/CM3/CoreSupport/core_cm3.h ****  */
1039:./stm32f10x_libraries/CMSIS/CM3/CoreSupport/core_cm3.h **** static __INLINE void __set_CONTROL(uint32_t control)
1040:./stm32f10x_libraries/CMSIS/CM3/CoreSupport/core_cm3.h **** {
1041:./stm32f10x_libraries/CMSIS/CM3/CoreSupport/core_cm3.h ****   register uint32_t __regControl         __ASM("control");
1042:./stm32f10x_libraries/CMSIS/CM3/CoreSupport/core_cm3.h ****   __regControl = control;
1043:./stm32f10x_libraries/CMSIS/CM3/CoreSupport/core_cm3.h **** }
1044:./stm32f10x_libraries/CMSIS/CM3/CoreSupport/core_cm3.h **** 
1045:./stm32f10x_libraries/CMSIS/CM3/CoreSupport/core_cm3.h **** #endif /* __ARMCC_VERSION  */ 
1046:./stm32f10x_libraries/CMSIS/CM3/CoreSupport/core_cm3.h **** 
1047:./stm32f10x_libraries/CMSIS/CM3/CoreSupport/core_cm3.h **** 
1048:./stm32f10x_libraries/CMSIS/CM3/CoreSupport/core_cm3.h **** 
1049:./stm32f10x_libraries/CMSIS/CM3/CoreSupport/core_cm3.h **** #elif (defined (__ICCARM__)) /*------------------ ICC Compiler -------------------*/
1050:./stm32f10x_libraries/CMSIS/CM3/CoreSupport/core_cm3.h **** /* IAR iccarm specific functions */
1051:./stm32f10x_libraries/CMSIS/CM3/CoreSupport/core_cm3.h **** 
1052:./stm32f10x_libraries/CMSIS/CM3/CoreSupport/core_cm3.h **** #define __enable_irq                              __enable_interrupt        /*!< global Interrupt e
1053:./stm32f10x_libraries/CMSIS/CM3/CoreSupport/core_cm3.h **** #define __disable_irq                             __disable_interrupt       /*!< global Interrupt d
1054:./stm32f10x_libraries/CMSIS/CM3/CoreSupport/core_cm3.h **** 
1055:./stm32f10x_libraries/CMSIS/CM3/CoreSupport/core_cm3.h **** static __INLINE void __enable_fault_irq()         { __ASM ("cpsie f"); }
1056:./stm32f10x_libraries/CMSIS/CM3/CoreSupport/core_cm3.h **** static __INLINE void __disable_fault_irq()        { __ASM ("cpsid f"); }
1057:./stm32f10x_libraries/CMSIS/CM3/CoreSupport/core_cm3.h **** 
ARM GAS  C:\Users\user\AppData\Local\Temp\ccH9wMRW.s 			page 25


1058:./stm32f10x_libraries/CMSIS/CM3/CoreSupport/core_cm3.h **** #define __NOP                                     __no_operation            /*!< no operation intri
1059:./stm32f10x_libraries/CMSIS/CM3/CoreSupport/core_cm3.h **** static __INLINE  void __WFI()                     { __ASM ("wfi"); }
1060:./stm32f10x_libraries/CMSIS/CM3/CoreSupport/core_cm3.h **** static __INLINE  void __WFE()                     { __ASM ("wfe"); }
1061:./stm32f10x_libraries/CMSIS/CM3/CoreSupport/core_cm3.h **** static __INLINE  void __SEV()                     { __ASM ("sev"); }
1062:./stm32f10x_libraries/CMSIS/CM3/CoreSupport/core_cm3.h **** static __INLINE  void __CLREX()                   { __ASM ("clrex"); }
1063:./stm32f10x_libraries/CMSIS/CM3/CoreSupport/core_cm3.h **** 
1064:./stm32f10x_libraries/CMSIS/CM3/CoreSupport/core_cm3.h **** /* intrinsic void __ISB(void)                                     */
1065:./stm32f10x_libraries/CMSIS/CM3/CoreSupport/core_cm3.h **** /* intrinsic void __DSB(void)                                     */
1066:./stm32f10x_libraries/CMSIS/CM3/CoreSupport/core_cm3.h **** /* intrinsic void __DMB(void)                                     */
1067:./stm32f10x_libraries/CMSIS/CM3/CoreSupport/core_cm3.h **** /* intrinsic void __set_PRIMASK();                                */
1068:./stm32f10x_libraries/CMSIS/CM3/CoreSupport/core_cm3.h **** /* intrinsic void __get_PRIMASK();                                */
1069:./stm32f10x_libraries/CMSIS/CM3/CoreSupport/core_cm3.h **** /* intrinsic void __set_FAULTMASK();                              */
1070:./stm32f10x_libraries/CMSIS/CM3/CoreSupport/core_cm3.h **** /* intrinsic void __get_FAULTMASK();                              */
1071:./stm32f10x_libraries/CMSIS/CM3/CoreSupport/core_cm3.h **** /* intrinsic uint32_t __REV(uint32_t value);                      */
1072:./stm32f10x_libraries/CMSIS/CM3/CoreSupport/core_cm3.h **** /* intrinsic uint32_t __REVSH(uint32_t value);                    */
1073:./stm32f10x_libraries/CMSIS/CM3/CoreSupport/core_cm3.h **** /* intrinsic unsigned long __STREX(unsigned long, unsigned long); */
1074:./stm32f10x_libraries/CMSIS/CM3/CoreSupport/core_cm3.h **** /* intrinsic unsigned long __LDREX(unsigned long *);              */
1075:./stm32f10x_libraries/CMSIS/CM3/CoreSupport/core_cm3.h **** 
1076:./stm32f10x_libraries/CMSIS/CM3/CoreSupport/core_cm3.h **** 
1077:./stm32f10x_libraries/CMSIS/CM3/CoreSupport/core_cm3.h **** /**
1078:./stm32f10x_libraries/CMSIS/CM3/CoreSupport/core_cm3.h ****  * @brief  Return the Process Stack Pointer
1079:./stm32f10x_libraries/CMSIS/CM3/CoreSupport/core_cm3.h ****  *
1080:./stm32f10x_libraries/CMSIS/CM3/CoreSupport/core_cm3.h ****  * @return ProcessStackPointer
1081:./stm32f10x_libraries/CMSIS/CM3/CoreSupport/core_cm3.h ****  *
1082:./stm32f10x_libraries/CMSIS/CM3/CoreSupport/core_cm3.h ****  * Return the actual process stack pointer
1083:./stm32f10x_libraries/CMSIS/CM3/CoreSupport/core_cm3.h ****  */
1084:./stm32f10x_libraries/CMSIS/CM3/CoreSupport/core_cm3.h **** extern uint32_t __get_PSP(void);
1085:./stm32f10x_libraries/CMSIS/CM3/CoreSupport/core_cm3.h **** 
1086:./stm32f10x_libraries/CMSIS/CM3/CoreSupport/core_cm3.h **** /**
1087:./stm32f10x_libraries/CMSIS/CM3/CoreSupport/core_cm3.h ****  * @brief  Set the Process Stack Pointer
1088:./stm32f10x_libraries/CMSIS/CM3/CoreSupport/core_cm3.h ****  *
1089:./stm32f10x_libraries/CMSIS/CM3/CoreSupport/core_cm3.h ****  * @param  topOfProcStack  Process Stack Pointer
1090:./stm32f10x_libraries/CMSIS/CM3/CoreSupport/core_cm3.h ****  *
1091:./stm32f10x_libraries/CMSIS/CM3/CoreSupport/core_cm3.h ****  * Assign the value ProcessStackPointer to the MSP 
1092:./stm32f10x_libraries/CMSIS/CM3/CoreSupport/core_cm3.h ****  * (process stack pointer) Cortex processor register
1093:./stm32f10x_libraries/CMSIS/CM3/CoreSupport/core_cm3.h ****  */
1094:./stm32f10x_libraries/CMSIS/CM3/CoreSupport/core_cm3.h **** extern void __set_PSP(uint32_t topOfProcStack);
1095:./stm32f10x_libraries/CMSIS/CM3/CoreSupport/core_cm3.h **** 
1096:./stm32f10x_libraries/CMSIS/CM3/CoreSupport/core_cm3.h **** /**
1097:./stm32f10x_libraries/CMSIS/CM3/CoreSupport/core_cm3.h ****  * @brief  Return the Main Stack Pointer
1098:./stm32f10x_libraries/CMSIS/CM3/CoreSupport/core_cm3.h ****  *
1099:./stm32f10x_libraries/CMSIS/CM3/CoreSupport/core_cm3.h ****  * @return Main Stack Pointer
1100:./stm32f10x_libraries/CMSIS/CM3/CoreSupport/core_cm3.h ****  *
1101:./stm32f10x_libraries/CMSIS/CM3/CoreSupport/core_cm3.h ****  * Return the current value of the MSP (main stack pointer)
1102:./stm32f10x_libraries/CMSIS/CM3/CoreSupport/core_cm3.h ****  * Cortex processor register
1103:./stm32f10x_libraries/CMSIS/CM3/CoreSupport/core_cm3.h ****  */
1104:./stm32f10x_libraries/CMSIS/CM3/CoreSupport/core_cm3.h **** extern uint32_t __get_MSP(void);
1105:./stm32f10x_libraries/CMSIS/CM3/CoreSupport/core_cm3.h **** 
1106:./stm32f10x_libraries/CMSIS/CM3/CoreSupport/core_cm3.h **** /**
1107:./stm32f10x_libraries/CMSIS/CM3/CoreSupport/core_cm3.h ****  * @brief  Set the Main Stack Pointer
1108:./stm32f10x_libraries/CMSIS/CM3/CoreSupport/core_cm3.h ****  *
1109:./stm32f10x_libraries/CMSIS/CM3/CoreSupport/core_cm3.h ****  * @param  topOfMainStack  Main Stack Pointer
1110:./stm32f10x_libraries/CMSIS/CM3/CoreSupport/core_cm3.h ****  *
1111:./stm32f10x_libraries/CMSIS/CM3/CoreSupport/core_cm3.h ****  * Assign the value mainStackPointer to the MSP 
1112:./stm32f10x_libraries/CMSIS/CM3/CoreSupport/core_cm3.h ****  * (main stack pointer) Cortex processor register
1113:./stm32f10x_libraries/CMSIS/CM3/CoreSupport/core_cm3.h ****  */
1114:./stm32f10x_libraries/CMSIS/CM3/CoreSupport/core_cm3.h **** extern void __set_MSP(uint32_t topOfMainStack);
ARM GAS  C:\Users\user\AppData\Local\Temp\ccH9wMRW.s 			page 26


1115:./stm32f10x_libraries/CMSIS/CM3/CoreSupport/core_cm3.h **** 
1116:./stm32f10x_libraries/CMSIS/CM3/CoreSupport/core_cm3.h **** /**
1117:./stm32f10x_libraries/CMSIS/CM3/CoreSupport/core_cm3.h ****  * @brief  Reverse byte order in unsigned short value
1118:./stm32f10x_libraries/CMSIS/CM3/CoreSupport/core_cm3.h ****  *
1119:./stm32f10x_libraries/CMSIS/CM3/CoreSupport/core_cm3.h ****  * @param  value  value to reverse
1120:./stm32f10x_libraries/CMSIS/CM3/CoreSupport/core_cm3.h ****  * @return        reversed value
1121:./stm32f10x_libraries/CMSIS/CM3/CoreSupport/core_cm3.h ****  *
1122:./stm32f10x_libraries/CMSIS/CM3/CoreSupport/core_cm3.h ****  * Reverse byte order in unsigned short value
1123:./stm32f10x_libraries/CMSIS/CM3/CoreSupport/core_cm3.h ****  */
1124:./stm32f10x_libraries/CMSIS/CM3/CoreSupport/core_cm3.h **** extern uint32_t __REV16(uint16_t value);
1125:./stm32f10x_libraries/CMSIS/CM3/CoreSupport/core_cm3.h **** 
1126:./stm32f10x_libraries/CMSIS/CM3/CoreSupport/core_cm3.h **** /**
1127:./stm32f10x_libraries/CMSIS/CM3/CoreSupport/core_cm3.h ****  * @brief  Reverse bit order of value
1128:./stm32f10x_libraries/CMSIS/CM3/CoreSupport/core_cm3.h ****  *
1129:./stm32f10x_libraries/CMSIS/CM3/CoreSupport/core_cm3.h ****  * @param  value  value to reverse
1130:./stm32f10x_libraries/CMSIS/CM3/CoreSupport/core_cm3.h ****  * @return        reversed value
1131:./stm32f10x_libraries/CMSIS/CM3/CoreSupport/core_cm3.h ****  *
1132:./stm32f10x_libraries/CMSIS/CM3/CoreSupport/core_cm3.h ****  * Reverse bit order of value
1133:./stm32f10x_libraries/CMSIS/CM3/CoreSupport/core_cm3.h ****  */
1134:./stm32f10x_libraries/CMSIS/CM3/CoreSupport/core_cm3.h **** extern uint32_t __RBIT(uint32_t value);
1135:./stm32f10x_libraries/CMSIS/CM3/CoreSupport/core_cm3.h **** 
1136:./stm32f10x_libraries/CMSIS/CM3/CoreSupport/core_cm3.h **** /**
1137:./stm32f10x_libraries/CMSIS/CM3/CoreSupport/core_cm3.h ****  * @brief  LDR Exclusive (8 bit)
1138:./stm32f10x_libraries/CMSIS/CM3/CoreSupport/core_cm3.h ****  *
1139:./stm32f10x_libraries/CMSIS/CM3/CoreSupport/core_cm3.h ****  * @param  *addr  address pointer
1140:./stm32f10x_libraries/CMSIS/CM3/CoreSupport/core_cm3.h ****  * @return        value of (*address)
1141:./stm32f10x_libraries/CMSIS/CM3/CoreSupport/core_cm3.h ****  *
1142:./stm32f10x_libraries/CMSIS/CM3/CoreSupport/core_cm3.h ****  * Exclusive LDR command for 8 bit values)
1143:./stm32f10x_libraries/CMSIS/CM3/CoreSupport/core_cm3.h ****  */
1144:./stm32f10x_libraries/CMSIS/CM3/CoreSupport/core_cm3.h **** extern uint8_t __LDREXB(uint8_t *addr);
1145:./stm32f10x_libraries/CMSIS/CM3/CoreSupport/core_cm3.h **** 
1146:./stm32f10x_libraries/CMSIS/CM3/CoreSupport/core_cm3.h **** /**
1147:./stm32f10x_libraries/CMSIS/CM3/CoreSupport/core_cm3.h ****  * @brief  LDR Exclusive (16 bit)
1148:./stm32f10x_libraries/CMSIS/CM3/CoreSupport/core_cm3.h ****  *
1149:./stm32f10x_libraries/CMSIS/CM3/CoreSupport/core_cm3.h ****  * @param  *addr  address pointer
1150:./stm32f10x_libraries/CMSIS/CM3/CoreSupport/core_cm3.h ****  * @return        value of (*address)
1151:./stm32f10x_libraries/CMSIS/CM3/CoreSupport/core_cm3.h ****  *
1152:./stm32f10x_libraries/CMSIS/CM3/CoreSupport/core_cm3.h ****  * Exclusive LDR command for 16 bit values
1153:./stm32f10x_libraries/CMSIS/CM3/CoreSupport/core_cm3.h ****  */
1154:./stm32f10x_libraries/CMSIS/CM3/CoreSupport/core_cm3.h **** extern uint16_t __LDREXH(uint16_t *addr);
1155:./stm32f10x_libraries/CMSIS/CM3/CoreSupport/core_cm3.h **** 
1156:./stm32f10x_libraries/CMSIS/CM3/CoreSupport/core_cm3.h **** /**
1157:./stm32f10x_libraries/CMSIS/CM3/CoreSupport/core_cm3.h ****  * @brief  LDR Exclusive (32 bit)
1158:./stm32f10x_libraries/CMSIS/CM3/CoreSupport/core_cm3.h ****  *
1159:./stm32f10x_libraries/CMSIS/CM3/CoreSupport/core_cm3.h ****  * @param  *addr  address pointer
1160:./stm32f10x_libraries/CMSIS/CM3/CoreSupport/core_cm3.h ****  * @return        value of (*address)
1161:./stm32f10x_libraries/CMSIS/CM3/CoreSupport/core_cm3.h ****  *
1162:./stm32f10x_libraries/CMSIS/CM3/CoreSupport/core_cm3.h ****  * Exclusive LDR command for 32 bit values
1163:./stm32f10x_libraries/CMSIS/CM3/CoreSupport/core_cm3.h ****  */
1164:./stm32f10x_libraries/CMSIS/CM3/CoreSupport/core_cm3.h **** extern uint32_t __LDREXW(uint32_t *addr);
1165:./stm32f10x_libraries/CMSIS/CM3/CoreSupport/core_cm3.h **** 
1166:./stm32f10x_libraries/CMSIS/CM3/CoreSupport/core_cm3.h **** /**
1167:./stm32f10x_libraries/CMSIS/CM3/CoreSupport/core_cm3.h ****  * @brief  STR Exclusive (8 bit)
1168:./stm32f10x_libraries/CMSIS/CM3/CoreSupport/core_cm3.h ****  *
1169:./stm32f10x_libraries/CMSIS/CM3/CoreSupport/core_cm3.h ****  * @param  value  value to store
1170:./stm32f10x_libraries/CMSIS/CM3/CoreSupport/core_cm3.h ****  * @param  *addr  address pointer
1171:./stm32f10x_libraries/CMSIS/CM3/CoreSupport/core_cm3.h ****  * @return        successful / failed
ARM GAS  C:\Users\user\AppData\Local\Temp\ccH9wMRW.s 			page 27


1172:./stm32f10x_libraries/CMSIS/CM3/CoreSupport/core_cm3.h ****  *
1173:./stm32f10x_libraries/CMSIS/CM3/CoreSupport/core_cm3.h ****  * Exclusive STR command for 8 bit values
1174:./stm32f10x_libraries/CMSIS/CM3/CoreSupport/core_cm3.h ****  */
1175:./stm32f10x_libraries/CMSIS/CM3/CoreSupport/core_cm3.h **** extern uint32_t __STREXB(uint8_t value, uint8_t *addr);
1176:./stm32f10x_libraries/CMSIS/CM3/CoreSupport/core_cm3.h **** 
1177:./stm32f10x_libraries/CMSIS/CM3/CoreSupport/core_cm3.h **** /**
1178:./stm32f10x_libraries/CMSIS/CM3/CoreSupport/core_cm3.h ****  * @brief  STR Exclusive (16 bit)
1179:./stm32f10x_libraries/CMSIS/CM3/CoreSupport/core_cm3.h ****  *
1180:./stm32f10x_libraries/CMSIS/CM3/CoreSupport/core_cm3.h ****  * @param  value  value to store
1181:./stm32f10x_libraries/CMSIS/CM3/CoreSupport/core_cm3.h ****  * @param  *addr  address pointer
1182:./stm32f10x_libraries/CMSIS/CM3/CoreSupport/core_cm3.h ****  * @return        successful / failed
1183:./stm32f10x_libraries/CMSIS/CM3/CoreSupport/core_cm3.h ****  *
1184:./stm32f10x_libraries/CMSIS/CM3/CoreSupport/core_cm3.h ****  * Exclusive STR command for 16 bit values
1185:./stm32f10x_libraries/CMSIS/CM3/CoreSupport/core_cm3.h ****  */
1186:./stm32f10x_libraries/CMSIS/CM3/CoreSupport/core_cm3.h **** extern uint32_t __STREXH(uint16_t value, uint16_t *addr);
1187:./stm32f10x_libraries/CMSIS/CM3/CoreSupport/core_cm3.h **** 
1188:./stm32f10x_libraries/CMSIS/CM3/CoreSupport/core_cm3.h **** /**
1189:./stm32f10x_libraries/CMSIS/CM3/CoreSupport/core_cm3.h ****  * @brief  STR Exclusive (32 bit)
1190:./stm32f10x_libraries/CMSIS/CM3/CoreSupport/core_cm3.h ****  *
1191:./stm32f10x_libraries/CMSIS/CM3/CoreSupport/core_cm3.h ****  * @param  value  value to store
1192:./stm32f10x_libraries/CMSIS/CM3/CoreSupport/core_cm3.h ****  * @param  *addr  address pointer
1193:./stm32f10x_libraries/CMSIS/CM3/CoreSupport/core_cm3.h ****  * @return        successful / failed
1194:./stm32f10x_libraries/CMSIS/CM3/CoreSupport/core_cm3.h ****  *
1195:./stm32f10x_libraries/CMSIS/CM3/CoreSupport/core_cm3.h ****  * Exclusive STR command for 32 bit values
1196:./stm32f10x_libraries/CMSIS/CM3/CoreSupport/core_cm3.h ****  */
1197:./stm32f10x_libraries/CMSIS/CM3/CoreSupport/core_cm3.h **** extern uint32_t __STREXW(uint32_t value, uint32_t *addr);
1198:./stm32f10x_libraries/CMSIS/CM3/CoreSupport/core_cm3.h **** 
1199:./stm32f10x_libraries/CMSIS/CM3/CoreSupport/core_cm3.h **** 
1200:./stm32f10x_libraries/CMSIS/CM3/CoreSupport/core_cm3.h **** 
1201:./stm32f10x_libraries/CMSIS/CM3/CoreSupport/core_cm3.h **** #elif (defined (__GNUC__)) /*------------------ GNU Compiler ---------------------*/
1202:./stm32f10x_libraries/CMSIS/CM3/CoreSupport/core_cm3.h **** /* GNU gcc specific functions */
1203:./stm32f10x_libraries/CMSIS/CM3/CoreSupport/core_cm3.h **** 
1204:./stm32f10x_libraries/CMSIS/CM3/CoreSupport/core_cm3.h **** static __INLINE void __enable_irq()               { __ASM volatile ("cpsie i"); }
1205:./stm32f10x_libraries/CMSIS/CM3/CoreSupport/core_cm3.h **** static __INLINE void __disable_irq()              { __ASM volatile ("cpsid i"); }
1206:./stm32f10x_libraries/CMSIS/CM3/CoreSupport/core_cm3.h **** 
1207:./stm32f10x_libraries/CMSIS/CM3/CoreSupport/core_cm3.h **** static __INLINE void __enable_fault_irq()         { __ASM volatile ("cpsie f"); }
1208:./stm32f10x_libraries/CMSIS/CM3/CoreSupport/core_cm3.h **** static __INLINE void __disable_fault_irq()        { __ASM volatile ("cpsid f"); }
1209:./stm32f10x_libraries/CMSIS/CM3/CoreSupport/core_cm3.h **** 
1210:./stm32f10x_libraries/CMSIS/CM3/CoreSupport/core_cm3.h **** static __INLINE void __NOP()                      { __ASM volatile ("nop"); }
1211:./stm32f10x_libraries/CMSIS/CM3/CoreSupport/core_cm3.h **** static __INLINE void __WFI()                      { __ASM volatile ("wfi"); }
1212:./stm32f10x_libraries/CMSIS/CM3/CoreSupport/core_cm3.h **** static __INLINE void __WFE()                      { __ASM volatile ("wfe"); }
1213:./stm32f10x_libraries/CMSIS/CM3/CoreSupport/core_cm3.h **** static __INLINE void __SEV()                      { __ASM volatile ("sev"); }
1214:./stm32f10x_libraries/CMSIS/CM3/CoreSupport/core_cm3.h **** static __INLINE void __ISB()                      { __ASM volatile ("isb"); }
1215:./stm32f10x_libraries/CMSIS/CM3/CoreSupport/core_cm3.h **** static __INLINE void __DSB()                      { __ASM volatile ("dsb"); }
1216:./stm32f10x_libraries/CMSIS/CM3/CoreSupport/core_cm3.h **** static __INLINE void __DMB()                      { __ASM volatile ("dmb"); }
1217:./stm32f10x_libraries/CMSIS/CM3/CoreSupport/core_cm3.h **** static __INLINE void __CLREX()                    { __ASM volatile ("clrex"); }
1218:./stm32f10x_libraries/CMSIS/CM3/CoreSupport/core_cm3.h **** 
1219:./stm32f10x_libraries/CMSIS/CM3/CoreSupport/core_cm3.h **** 
1220:./stm32f10x_libraries/CMSIS/CM3/CoreSupport/core_cm3.h **** /**
1221:./stm32f10x_libraries/CMSIS/CM3/CoreSupport/core_cm3.h ****  * @brief  Return the Process Stack Pointer
1222:./stm32f10x_libraries/CMSIS/CM3/CoreSupport/core_cm3.h ****  *
1223:./stm32f10x_libraries/CMSIS/CM3/CoreSupport/core_cm3.h ****  * @return ProcessStackPointer
1224:./stm32f10x_libraries/CMSIS/CM3/CoreSupport/core_cm3.h ****  *
1225:./stm32f10x_libraries/CMSIS/CM3/CoreSupport/core_cm3.h ****  * Return the actual process stack pointer
1226:./stm32f10x_libraries/CMSIS/CM3/CoreSupport/core_cm3.h ****  */
1227:./stm32f10x_libraries/CMSIS/CM3/CoreSupport/core_cm3.h **** extern uint32_t __get_PSP(void);
1228:./stm32f10x_libraries/CMSIS/CM3/CoreSupport/core_cm3.h **** 
ARM GAS  C:\Users\user\AppData\Local\Temp\ccH9wMRW.s 			page 28


1229:./stm32f10x_libraries/CMSIS/CM3/CoreSupport/core_cm3.h **** /**
1230:./stm32f10x_libraries/CMSIS/CM3/CoreSupport/core_cm3.h ****  * @brief  Set the Process Stack Pointer
1231:./stm32f10x_libraries/CMSIS/CM3/CoreSupport/core_cm3.h ****  *
1232:./stm32f10x_libraries/CMSIS/CM3/CoreSupport/core_cm3.h ****  * @param  topOfProcStack  Process Stack Pointer
1233:./stm32f10x_libraries/CMSIS/CM3/CoreSupport/core_cm3.h ****  *
1234:./stm32f10x_libraries/CMSIS/CM3/CoreSupport/core_cm3.h ****  * Assign the value ProcessStackPointer to the MSP 
1235:./stm32f10x_libraries/CMSIS/CM3/CoreSupport/core_cm3.h ****  * (process stack pointer) Cortex processor register
1236:./stm32f10x_libraries/CMSIS/CM3/CoreSupport/core_cm3.h ****  */
1237:./stm32f10x_libraries/CMSIS/CM3/CoreSupport/core_cm3.h **** extern void __set_PSP(uint32_t topOfProcStack);
1238:./stm32f10x_libraries/CMSIS/CM3/CoreSupport/core_cm3.h **** 
1239:./stm32f10x_libraries/CMSIS/CM3/CoreSupport/core_cm3.h **** /**
1240:./stm32f10x_libraries/CMSIS/CM3/CoreSupport/core_cm3.h ****  * @brief  Return the Main Stack Pointer
1241:./stm32f10x_libraries/CMSIS/CM3/CoreSupport/core_cm3.h ****  *
1242:./stm32f10x_libraries/CMSIS/CM3/CoreSupport/core_cm3.h ****  * @return Main Stack Pointer
1243:./stm32f10x_libraries/CMSIS/CM3/CoreSupport/core_cm3.h ****  *
1244:./stm32f10x_libraries/CMSIS/CM3/CoreSupport/core_cm3.h ****  * Return the current value of the MSP (main stack pointer)
1245:./stm32f10x_libraries/CMSIS/CM3/CoreSupport/core_cm3.h ****  * Cortex processor register
1246:./stm32f10x_libraries/CMSIS/CM3/CoreSupport/core_cm3.h ****  */
1247:./stm32f10x_libraries/CMSIS/CM3/CoreSupport/core_cm3.h **** extern uint32_t __get_MSP(void);
1248:./stm32f10x_libraries/CMSIS/CM3/CoreSupport/core_cm3.h **** 
1249:./stm32f10x_libraries/CMSIS/CM3/CoreSupport/core_cm3.h **** /**
1250:./stm32f10x_libraries/CMSIS/CM3/CoreSupport/core_cm3.h ****  * @brief  Set the Main Stack Pointer
1251:./stm32f10x_libraries/CMSIS/CM3/CoreSupport/core_cm3.h ****  *
1252:./stm32f10x_libraries/CMSIS/CM3/CoreSupport/core_cm3.h ****  * @param  topOfMainStack  Main Stack Pointer
1253:./stm32f10x_libraries/CMSIS/CM3/CoreSupport/core_cm3.h ****  *
1254:./stm32f10x_libraries/CMSIS/CM3/CoreSupport/core_cm3.h ****  * Assign the value mainStackPointer to the MSP 
1255:./stm32f10x_libraries/CMSIS/CM3/CoreSupport/core_cm3.h ****  * (main stack pointer) Cortex processor register
1256:./stm32f10x_libraries/CMSIS/CM3/CoreSupport/core_cm3.h ****  */
1257:./stm32f10x_libraries/CMSIS/CM3/CoreSupport/core_cm3.h **** extern void __set_MSP(uint32_t topOfMainStack);
1258:./stm32f10x_libraries/CMSIS/CM3/CoreSupport/core_cm3.h **** 
1259:./stm32f10x_libraries/CMSIS/CM3/CoreSupport/core_cm3.h **** /**
1260:./stm32f10x_libraries/CMSIS/CM3/CoreSupport/core_cm3.h ****  * @brief  Return the Base Priority value
1261:./stm32f10x_libraries/CMSIS/CM3/CoreSupport/core_cm3.h ****  *
1262:./stm32f10x_libraries/CMSIS/CM3/CoreSupport/core_cm3.h ****  * @return BasePriority
1263:./stm32f10x_libraries/CMSIS/CM3/CoreSupport/core_cm3.h ****  *
1264:./stm32f10x_libraries/CMSIS/CM3/CoreSupport/core_cm3.h ****  * Return the content of the base priority register
1265:./stm32f10x_libraries/CMSIS/CM3/CoreSupport/core_cm3.h ****  */
1266:./stm32f10x_libraries/CMSIS/CM3/CoreSupport/core_cm3.h **** extern uint32_t __get_BASEPRI(void);
1267:./stm32f10x_libraries/CMSIS/CM3/CoreSupport/core_cm3.h **** 
1268:./stm32f10x_libraries/CMSIS/CM3/CoreSupport/core_cm3.h **** /**
1269:./stm32f10x_libraries/CMSIS/CM3/CoreSupport/core_cm3.h ****  * @brief  Set the Base Priority value
1270:./stm32f10x_libraries/CMSIS/CM3/CoreSupport/core_cm3.h ****  *
1271:./stm32f10x_libraries/CMSIS/CM3/CoreSupport/core_cm3.h ****  * @param  basePri  BasePriority
1272:./stm32f10x_libraries/CMSIS/CM3/CoreSupport/core_cm3.h ****  *
1273:./stm32f10x_libraries/CMSIS/CM3/CoreSupport/core_cm3.h ****  * Set the base priority register
1274:./stm32f10x_libraries/CMSIS/CM3/CoreSupport/core_cm3.h ****  */
1275:./stm32f10x_libraries/CMSIS/CM3/CoreSupport/core_cm3.h **** extern void __set_BASEPRI(uint32_t basePri);
1276:./stm32f10x_libraries/CMSIS/CM3/CoreSupport/core_cm3.h **** 
1277:./stm32f10x_libraries/CMSIS/CM3/CoreSupport/core_cm3.h **** /**
1278:./stm32f10x_libraries/CMSIS/CM3/CoreSupport/core_cm3.h ****  * @brief  Return the Priority Mask value
1279:./stm32f10x_libraries/CMSIS/CM3/CoreSupport/core_cm3.h ****  *
1280:./stm32f10x_libraries/CMSIS/CM3/CoreSupport/core_cm3.h ****  * @return PriMask
1281:./stm32f10x_libraries/CMSIS/CM3/CoreSupport/core_cm3.h ****  *
1282:./stm32f10x_libraries/CMSIS/CM3/CoreSupport/core_cm3.h ****  * Return state of the priority mask bit from the priority mask register
1283:./stm32f10x_libraries/CMSIS/CM3/CoreSupport/core_cm3.h ****  */
1284:./stm32f10x_libraries/CMSIS/CM3/CoreSupport/core_cm3.h **** extern uint32_t  __get_PRIMASK(void);
1285:./stm32f10x_libraries/CMSIS/CM3/CoreSupport/core_cm3.h **** 
ARM GAS  C:\Users\user\AppData\Local\Temp\ccH9wMRW.s 			page 29


1286:./stm32f10x_libraries/CMSIS/CM3/CoreSupport/core_cm3.h **** /**
1287:./stm32f10x_libraries/CMSIS/CM3/CoreSupport/core_cm3.h ****  * @brief  Set the Priority Mask value
1288:./stm32f10x_libraries/CMSIS/CM3/CoreSupport/core_cm3.h ****  *
1289:./stm32f10x_libraries/CMSIS/CM3/CoreSupport/core_cm3.h ****  * @param  priMask  PriMask
1290:./stm32f10x_libraries/CMSIS/CM3/CoreSupport/core_cm3.h ****  *
1291:./stm32f10x_libraries/CMSIS/CM3/CoreSupport/core_cm3.h ****  * Set the priority mask bit in the priority mask register
1292:./stm32f10x_libraries/CMSIS/CM3/CoreSupport/core_cm3.h ****  */
1293:./stm32f10x_libraries/CMSIS/CM3/CoreSupport/core_cm3.h **** extern void __set_PRIMASK(uint32_t priMask);
1294:./stm32f10x_libraries/CMSIS/CM3/CoreSupport/core_cm3.h **** 
1295:./stm32f10x_libraries/CMSIS/CM3/CoreSupport/core_cm3.h **** /**
1296:./stm32f10x_libraries/CMSIS/CM3/CoreSupport/core_cm3.h ****  * @brief  Return the Fault Mask value
1297:./stm32f10x_libraries/CMSIS/CM3/CoreSupport/core_cm3.h ****  *
1298:./stm32f10x_libraries/CMSIS/CM3/CoreSupport/core_cm3.h ****  * @return FaultMask
1299:./stm32f10x_libraries/CMSIS/CM3/CoreSupport/core_cm3.h ****  *
1300:./stm32f10x_libraries/CMSIS/CM3/CoreSupport/core_cm3.h ****  * Return the content of the fault mask register
1301:./stm32f10x_libraries/CMSIS/CM3/CoreSupport/core_cm3.h ****  */
1302:./stm32f10x_libraries/CMSIS/CM3/CoreSupport/core_cm3.h **** extern uint32_t __get_FAULTMASK(void);
1303:./stm32f10x_libraries/CMSIS/CM3/CoreSupport/core_cm3.h **** 
1304:./stm32f10x_libraries/CMSIS/CM3/CoreSupport/core_cm3.h **** /**
1305:./stm32f10x_libraries/CMSIS/CM3/CoreSupport/core_cm3.h ****  * @brief  Set the Fault Mask value
1306:./stm32f10x_libraries/CMSIS/CM3/CoreSupport/core_cm3.h ****  *
1307:./stm32f10x_libraries/CMSIS/CM3/CoreSupport/core_cm3.h ****  * @param  faultMask  faultMask value
1308:./stm32f10x_libraries/CMSIS/CM3/CoreSupport/core_cm3.h ****  *
1309:./stm32f10x_libraries/CMSIS/CM3/CoreSupport/core_cm3.h ****  * Set the fault mask register
1310:./stm32f10x_libraries/CMSIS/CM3/CoreSupport/core_cm3.h ****  */
1311:./stm32f10x_libraries/CMSIS/CM3/CoreSupport/core_cm3.h **** extern void __set_FAULTMASK(uint32_t faultMask);
1312:./stm32f10x_libraries/CMSIS/CM3/CoreSupport/core_cm3.h **** 
1313:./stm32f10x_libraries/CMSIS/CM3/CoreSupport/core_cm3.h **** /**
1314:./stm32f10x_libraries/CMSIS/CM3/CoreSupport/core_cm3.h ****  * @brief  Return the Control Register value
1315:./stm32f10x_libraries/CMSIS/CM3/CoreSupport/core_cm3.h **** * 
1316:./stm32f10x_libraries/CMSIS/CM3/CoreSupport/core_cm3.h **** *  @return Control value
1317:./stm32f10x_libraries/CMSIS/CM3/CoreSupport/core_cm3.h ****  *
1318:./stm32f10x_libraries/CMSIS/CM3/CoreSupport/core_cm3.h ****  * Return the content of the control register
1319:./stm32f10x_libraries/CMSIS/CM3/CoreSupport/core_cm3.h ****  */
1320:./stm32f10x_libraries/CMSIS/CM3/CoreSupport/core_cm3.h **** extern uint32_t __get_CONTROL(void);
1321:./stm32f10x_libraries/CMSIS/CM3/CoreSupport/core_cm3.h **** 
1322:./stm32f10x_libraries/CMSIS/CM3/CoreSupport/core_cm3.h **** /**
1323:./stm32f10x_libraries/CMSIS/CM3/CoreSupport/core_cm3.h ****  * @brief  Set the Control Register value
1324:./stm32f10x_libraries/CMSIS/CM3/CoreSupport/core_cm3.h ****  *
1325:./stm32f10x_libraries/CMSIS/CM3/CoreSupport/core_cm3.h ****  * @param  control  Control value
1326:./stm32f10x_libraries/CMSIS/CM3/CoreSupport/core_cm3.h ****  *
1327:./stm32f10x_libraries/CMSIS/CM3/CoreSupport/core_cm3.h ****  * Set the control register
1328:./stm32f10x_libraries/CMSIS/CM3/CoreSupport/core_cm3.h ****  */
1329:./stm32f10x_libraries/CMSIS/CM3/CoreSupport/core_cm3.h **** extern void __set_CONTROL(uint32_t control);
1330:./stm32f10x_libraries/CMSIS/CM3/CoreSupport/core_cm3.h **** 
1331:./stm32f10x_libraries/CMSIS/CM3/CoreSupport/core_cm3.h **** /**
1332:./stm32f10x_libraries/CMSIS/CM3/CoreSupport/core_cm3.h ****  * @brief  Reverse byte order in integer value
1333:./stm32f10x_libraries/CMSIS/CM3/CoreSupport/core_cm3.h ****  *
1334:./stm32f10x_libraries/CMSIS/CM3/CoreSupport/core_cm3.h ****  * @param  value  value to reverse
1335:./stm32f10x_libraries/CMSIS/CM3/CoreSupport/core_cm3.h ****  * @return        reversed value
1336:./stm32f10x_libraries/CMSIS/CM3/CoreSupport/core_cm3.h ****  *
1337:./stm32f10x_libraries/CMSIS/CM3/CoreSupport/core_cm3.h ****  * Reverse byte order in integer value
1338:./stm32f10x_libraries/CMSIS/CM3/CoreSupport/core_cm3.h ****  */
1339:./stm32f10x_libraries/CMSIS/CM3/CoreSupport/core_cm3.h **** extern uint32_t __REV(uint32_t value);
1340:./stm32f10x_libraries/CMSIS/CM3/CoreSupport/core_cm3.h **** 
1341:./stm32f10x_libraries/CMSIS/CM3/CoreSupport/core_cm3.h **** /**
1342:./stm32f10x_libraries/CMSIS/CM3/CoreSupport/core_cm3.h ****  * @brief  Reverse byte order in unsigned short value
ARM GAS  C:\Users\user\AppData\Local\Temp\ccH9wMRW.s 			page 30


1343:./stm32f10x_libraries/CMSIS/CM3/CoreSupport/core_cm3.h ****  *
1344:./stm32f10x_libraries/CMSIS/CM3/CoreSupport/core_cm3.h ****  * @param  value  value to reverse
1345:./stm32f10x_libraries/CMSIS/CM3/CoreSupport/core_cm3.h ****  * @return        reversed value
1346:./stm32f10x_libraries/CMSIS/CM3/CoreSupport/core_cm3.h ****  *
1347:./stm32f10x_libraries/CMSIS/CM3/CoreSupport/core_cm3.h ****  * Reverse byte order in unsigned short value
1348:./stm32f10x_libraries/CMSIS/CM3/CoreSupport/core_cm3.h ****  */
1349:./stm32f10x_libraries/CMSIS/CM3/CoreSupport/core_cm3.h **** extern uint32_t __REV16(uint16_t value);
1350:./stm32f10x_libraries/CMSIS/CM3/CoreSupport/core_cm3.h **** 
1351:./stm32f10x_libraries/CMSIS/CM3/CoreSupport/core_cm3.h **** /**
1352:./stm32f10x_libraries/CMSIS/CM3/CoreSupport/core_cm3.h ****  * @brief  Reverse byte order in signed short value with sign extension to integer
1353:./stm32f10x_libraries/CMSIS/CM3/CoreSupport/core_cm3.h ****  *
1354:./stm32f10x_libraries/CMSIS/CM3/CoreSupport/core_cm3.h ****  * @param  value  value to reverse
1355:./stm32f10x_libraries/CMSIS/CM3/CoreSupport/core_cm3.h ****  * @return        reversed value
1356:./stm32f10x_libraries/CMSIS/CM3/CoreSupport/core_cm3.h ****  *
1357:./stm32f10x_libraries/CMSIS/CM3/CoreSupport/core_cm3.h ****  * Reverse byte order in signed short value with sign extension to integer
1358:./stm32f10x_libraries/CMSIS/CM3/CoreSupport/core_cm3.h ****  */
1359:./stm32f10x_libraries/CMSIS/CM3/CoreSupport/core_cm3.h **** extern int32_t __REVSH(int16_t value);
1360:./stm32f10x_libraries/CMSIS/CM3/CoreSupport/core_cm3.h **** 
1361:./stm32f10x_libraries/CMSIS/CM3/CoreSupport/core_cm3.h **** /**
1362:./stm32f10x_libraries/CMSIS/CM3/CoreSupport/core_cm3.h ****  * @brief  Reverse bit order of value
1363:./stm32f10x_libraries/CMSIS/CM3/CoreSupport/core_cm3.h ****  *
1364:./stm32f10x_libraries/CMSIS/CM3/CoreSupport/core_cm3.h ****  * @param  value  value to reverse
1365:./stm32f10x_libraries/CMSIS/CM3/CoreSupport/core_cm3.h ****  * @return        reversed value
1366:./stm32f10x_libraries/CMSIS/CM3/CoreSupport/core_cm3.h ****  *
1367:./stm32f10x_libraries/CMSIS/CM3/CoreSupport/core_cm3.h ****  * Reverse bit order of value
1368:./stm32f10x_libraries/CMSIS/CM3/CoreSupport/core_cm3.h ****  */
1369:./stm32f10x_libraries/CMSIS/CM3/CoreSupport/core_cm3.h **** extern uint32_t __RBIT(uint32_t value);
1370:./stm32f10x_libraries/CMSIS/CM3/CoreSupport/core_cm3.h **** 
1371:./stm32f10x_libraries/CMSIS/CM3/CoreSupport/core_cm3.h **** /**
1372:./stm32f10x_libraries/CMSIS/CM3/CoreSupport/core_cm3.h ****  * @brief  LDR Exclusive (8 bit)
1373:./stm32f10x_libraries/CMSIS/CM3/CoreSupport/core_cm3.h ****  *
1374:./stm32f10x_libraries/CMSIS/CM3/CoreSupport/core_cm3.h ****  * @param  *addr  address pointer
1375:./stm32f10x_libraries/CMSIS/CM3/CoreSupport/core_cm3.h ****  * @return        value of (*address)
1376:./stm32f10x_libraries/CMSIS/CM3/CoreSupport/core_cm3.h ****  *
1377:./stm32f10x_libraries/CMSIS/CM3/CoreSupport/core_cm3.h ****  * Exclusive LDR command for 8 bit value
1378:./stm32f10x_libraries/CMSIS/CM3/CoreSupport/core_cm3.h ****  */
1379:./stm32f10x_libraries/CMSIS/CM3/CoreSupport/core_cm3.h **** extern uint8_t __LDREXB(uint8_t *addr);
1380:./stm32f10x_libraries/CMSIS/CM3/CoreSupport/core_cm3.h **** 
1381:./stm32f10x_libraries/CMSIS/CM3/CoreSupport/core_cm3.h **** /**
1382:./stm32f10x_libraries/CMSIS/CM3/CoreSupport/core_cm3.h ****  * @brief  LDR Exclusive (16 bit)
1383:./stm32f10x_libraries/CMSIS/CM3/CoreSupport/core_cm3.h ****  *
1384:./stm32f10x_libraries/CMSIS/CM3/CoreSupport/core_cm3.h ****  * @param  *addr  address pointer
1385:./stm32f10x_libraries/CMSIS/CM3/CoreSupport/core_cm3.h ****  * @return        value of (*address)
1386:./stm32f10x_libraries/CMSIS/CM3/CoreSupport/core_cm3.h ****  *
1387:./stm32f10x_libraries/CMSIS/CM3/CoreSupport/core_cm3.h ****  * Exclusive LDR command for 16 bit values
1388:./stm32f10x_libraries/CMSIS/CM3/CoreSupport/core_cm3.h ****  */
1389:./stm32f10x_libraries/CMSIS/CM3/CoreSupport/core_cm3.h **** extern uint16_t __LDREXH(uint16_t *addr);
1390:./stm32f10x_libraries/CMSIS/CM3/CoreSupport/core_cm3.h **** 
1391:./stm32f10x_libraries/CMSIS/CM3/CoreSupport/core_cm3.h **** /**
1392:./stm32f10x_libraries/CMSIS/CM3/CoreSupport/core_cm3.h ****  * @brief  LDR Exclusive (32 bit)
1393:./stm32f10x_libraries/CMSIS/CM3/CoreSupport/core_cm3.h ****  *
1394:./stm32f10x_libraries/CMSIS/CM3/CoreSupport/core_cm3.h ****  * @param  *addr  address pointer
1395:./stm32f10x_libraries/CMSIS/CM3/CoreSupport/core_cm3.h ****  * @return        value of (*address)
1396:./stm32f10x_libraries/CMSIS/CM3/CoreSupport/core_cm3.h ****  *
1397:./stm32f10x_libraries/CMSIS/CM3/CoreSupport/core_cm3.h ****  * Exclusive LDR command for 32 bit values
1398:./stm32f10x_libraries/CMSIS/CM3/CoreSupport/core_cm3.h ****  */
1399:./stm32f10x_libraries/CMSIS/CM3/CoreSupport/core_cm3.h **** extern uint32_t __LDREXW(uint32_t *addr);
ARM GAS  C:\Users\user\AppData\Local\Temp\ccH9wMRW.s 			page 31


1400:./stm32f10x_libraries/CMSIS/CM3/CoreSupport/core_cm3.h **** 
1401:./stm32f10x_libraries/CMSIS/CM3/CoreSupport/core_cm3.h **** /**
1402:./stm32f10x_libraries/CMSIS/CM3/CoreSupport/core_cm3.h ****  * @brief  STR Exclusive (8 bit)
1403:./stm32f10x_libraries/CMSIS/CM3/CoreSupport/core_cm3.h ****  *
1404:./stm32f10x_libraries/CMSIS/CM3/CoreSupport/core_cm3.h ****  * @param  value  value to store
1405:./stm32f10x_libraries/CMSIS/CM3/CoreSupport/core_cm3.h ****  * @param  *addr  address pointer
1406:./stm32f10x_libraries/CMSIS/CM3/CoreSupport/core_cm3.h ****  * @return        successful / failed
1407:./stm32f10x_libraries/CMSIS/CM3/CoreSupport/core_cm3.h ****  *
1408:./stm32f10x_libraries/CMSIS/CM3/CoreSupport/core_cm3.h ****  * Exclusive STR command for 8 bit values
1409:./stm32f10x_libraries/CMSIS/CM3/CoreSupport/core_cm3.h ****  */
1410:./stm32f10x_libraries/CMSIS/CM3/CoreSupport/core_cm3.h **** extern uint32_t __STREXB(uint8_t value, uint8_t *addr);
1411:./stm32f10x_libraries/CMSIS/CM3/CoreSupport/core_cm3.h **** 
1412:./stm32f10x_libraries/CMSIS/CM3/CoreSupport/core_cm3.h **** /**
1413:./stm32f10x_libraries/CMSIS/CM3/CoreSupport/core_cm3.h ****  * @brief  STR Exclusive (16 bit)
1414:./stm32f10x_libraries/CMSIS/CM3/CoreSupport/core_cm3.h ****  *
1415:./stm32f10x_libraries/CMSIS/CM3/CoreSupport/core_cm3.h ****  * @param  value  value to store
1416:./stm32f10x_libraries/CMSIS/CM3/CoreSupport/core_cm3.h ****  * @param  *addr  address pointer
1417:./stm32f10x_libraries/CMSIS/CM3/CoreSupport/core_cm3.h ****  * @return        successful / failed
1418:./stm32f10x_libraries/CMSIS/CM3/CoreSupport/core_cm3.h ****  *
1419:./stm32f10x_libraries/CMSIS/CM3/CoreSupport/core_cm3.h ****  * Exclusive STR command for 16 bit values
1420:./stm32f10x_libraries/CMSIS/CM3/CoreSupport/core_cm3.h ****  */
1421:./stm32f10x_libraries/CMSIS/CM3/CoreSupport/core_cm3.h **** extern uint32_t __STREXH(uint16_t value, uint16_t *addr);
1422:./stm32f10x_libraries/CMSIS/CM3/CoreSupport/core_cm3.h **** 
1423:./stm32f10x_libraries/CMSIS/CM3/CoreSupport/core_cm3.h **** /**
1424:./stm32f10x_libraries/CMSIS/CM3/CoreSupport/core_cm3.h ****  * @brief  STR Exclusive (32 bit)
1425:./stm32f10x_libraries/CMSIS/CM3/CoreSupport/core_cm3.h ****  *
1426:./stm32f10x_libraries/CMSIS/CM3/CoreSupport/core_cm3.h ****  * @param  value  value to store
1427:./stm32f10x_libraries/CMSIS/CM3/CoreSupport/core_cm3.h ****  * @param  *addr  address pointer
1428:./stm32f10x_libraries/CMSIS/CM3/CoreSupport/core_cm3.h ****  * @return        successful / failed
1429:./stm32f10x_libraries/CMSIS/CM3/CoreSupport/core_cm3.h ****  *
1430:./stm32f10x_libraries/CMSIS/CM3/CoreSupport/core_cm3.h ****  * Exclusive STR command for 32 bit values
1431:./stm32f10x_libraries/CMSIS/CM3/CoreSupport/core_cm3.h ****  */
1432:./stm32f10x_libraries/CMSIS/CM3/CoreSupport/core_cm3.h **** extern uint32_t __STREXW(uint32_t value, uint32_t *addr);
1433:./stm32f10x_libraries/CMSIS/CM3/CoreSupport/core_cm3.h **** 
1434:./stm32f10x_libraries/CMSIS/CM3/CoreSupport/core_cm3.h **** 
1435:./stm32f10x_libraries/CMSIS/CM3/CoreSupport/core_cm3.h **** #elif (defined (__TASKING__)) /*------------------ TASKING Compiler ---------------------*/
1436:./stm32f10x_libraries/CMSIS/CM3/CoreSupport/core_cm3.h **** /* TASKING carm specific functions */
1437:./stm32f10x_libraries/CMSIS/CM3/CoreSupport/core_cm3.h **** 
1438:./stm32f10x_libraries/CMSIS/CM3/CoreSupport/core_cm3.h **** /*
1439:./stm32f10x_libraries/CMSIS/CM3/CoreSupport/core_cm3.h ****  * The CMSIS functions have been implemented as intrinsics in the compiler.
1440:./stm32f10x_libraries/CMSIS/CM3/CoreSupport/core_cm3.h ****  * Please use "carm -?i" to get an up to date list of all instrinsics,
1441:./stm32f10x_libraries/CMSIS/CM3/CoreSupport/core_cm3.h ****  * Including the CMSIS ones.
1442:./stm32f10x_libraries/CMSIS/CM3/CoreSupport/core_cm3.h ****  */
1443:./stm32f10x_libraries/CMSIS/CM3/CoreSupport/core_cm3.h **** 
1444:./stm32f10x_libraries/CMSIS/CM3/CoreSupport/core_cm3.h **** #endif
1445:./stm32f10x_libraries/CMSIS/CM3/CoreSupport/core_cm3.h **** 
1446:./stm32f10x_libraries/CMSIS/CM3/CoreSupport/core_cm3.h **** 
1447:./stm32f10x_libraries/CMSIS/CM3/CoreSupport/core_cm3.h **** /** @addtogroup CMSIS_CM3_Core_FunctionInterface CMSIS CM3 Core Function Interface
1448:./stm32f10x_libraries/CMSIS/CM3/CoreSupport/core_cm3.h ****   Core  Function Interface containing:
1449:./stm32f10x_libraries/CMSIS/CM3/CoreSupport/core_cm3.h ****   - Core NVIC Functions
1450:./stm32f10x_libraries/CMSIS/CM3/CoreSupport/core_cm3.h ****   - Core SysTick Functions
1451:./stm32f10x_libraries/CMSIS/CM3/CoreSupport/core_cm3.h ****   - Core Reset Functions
1452:./stm32f10x_libraries/CMSIS/CM3/CoreSupport/core_cm3.h **** */
1453:./stm32f10x_libraries/CMSIS/CM3/CoreSupport/core_cm3.h **** /*@{*/
1454:./stm32f10x_libraries/CMSIS/CM3/CoreSupport/core_cm3.h **** 
1455:./stm32f10x_libraries/CMSIS/CM3/CoreSupport/core_cm3.h **** /* ##########################   NVIC functions  #################################### */
1456:./stm32f10x_libraries/CMSIS/CM3/CoreSupport/core_cm3.h **** 
ARM GAS  C:\Users\user\AppData\Local\Temp\ccH9wMRW.s 			page 32


1457:./stm32f10x_libraries/CMSIS/CM3/CoreSupport/core_cm3.h **** /**
1458:./stm32f10x_libraries/CMSIS/CM3/CoreSupport/core_cm3.h ****  * @brief  Set the Priority Grouping in NVIC Interrupt Controller
1459:./stm32f10x_libraries/CMSIS/CM3/CoreSupport/core_cm3.h ****  *
1460:./stm32f10x_libraries/CMSIS/CM3/CoreSupport/core_cm3.h ****  * @param  PriorityGroup is priority grouping field
1461:./stm32f10x_libraries/CMSIS/CM3/CoreSupport/core_cm3.h ****  *
1462:./stm32f10x_libraries/CMSIS/CM3/CoreSupport/core_cm3.h ****  * Set the priority grouping field using the required unlock sequence.
1463:./stm32f10x_libraries/CMSIS/CM3/CoreSupport/core_cm3.h ****  * The parameter priority_grouping is assigned to the field 
1464:./stm32f10x_libraries/CMSIS/CM3/CoreSupport/core_cm3.h ****  * SCB->AIRCR [10:8] PRIGROUP field. Only values from 0..7 are used.
1465:./stm32f10x_libraries/CMSIS/CM3/CoreSupport/core_cm3.h ****  * In case of a conflict between priority grouping and available
1466:./stm32f10x_libraries/CMSIS/CM3/CoreSupport/core_cm3.h ****  * priority bits (__NVIC_PRIO_BITS) the smallest possible priority group is set.
1467:./stm32f10x_libraries/CMSIS/CM3/CoreSupport/core_cm3.h ****  */
1468:./stm32f10x_libraries/CMSIS/CM3/CoreSupport/core_cm3.h **** static __INLINE void NVIC_SetPriorityGrouping(uint32_t PriorityGroup)
1469:./stm32f10x_libraries/CMSIS/CM3/CoreSupport/core_cm3.h **** {
1470:./stm32f10x_libraries/CMSIS/CM3/CoreSupport/core_cm3.h ****   uint32_t reg_value;
1471:./stm32f10x_libraries/CMSIS/CM3/CoreSupport/core_cm3.h ****   uint32_t PriorityGroupTmp = (PriorityGroup & 0x07);                         /* only values 0..7 a
1472:./stm32f10x_libraries/CMSIS/CM3/CoreSupport/core_cm3.h ****   
1473:./stm32f10x_libraries/CMSIS/CM3/CoreSupport/core_cm3.h ****   reg_value  =  SCB->AIRCR;                                                   /* read old register 
1474:./stm32f10x_libraries/CMSIS/CM3/CoreSupport/core_cm3.h ****   reg_value &= ~(SCB_AIRCR_VECTKEY_Msk | SCB_AIRCR_PRIGROUP_Msk);             /* clear bits to chan
1475:./stm32f10x_libraries/CMSIS/CM3/CoreSupport/core_cm3.h ****   reg_value  =  (reg_value                       |
1476:./stm32f10x_libraries/CMSIS/CM3/CoreSupport/core_cm3.h ****                 (0x5FA << SCB_AIRCR_VECTKEY_Pos) | 
1477:./stm32f10x_libraries/CMSIS/CM3/CoreSupport/core_cm3.h ****                 (PriorityGroupTmp << 8));                                     /* Insert write key a
1478:./stm32f10x_libraries/CMSIS/CM3/CoreSupport/core_cm3.h ****   SCB->AIRCR =  reg_value;
1479:./stm32f10x_libraries/CMSIS/CM3/CoreSupport/core_cm3.h **** }
1480:./stm32f10x_libraries/CMSIS/CM3/CoreSupport/core_cm3.h **** 
1481:./stm32f10x_libraries/CMSIS/CM3/CoreSupport/core_cm3.h **** /**
1482:./stm32f10x_libraries/CMSIS/CM3/CoreSupport/core_cm3.h ****  * @brief  Get the Priority Grouping from NVIC Interrupt Controller
1483:./stm32f10x_libraries/CMSIS/CM3/CoreSupport/core_cm3.h ****  *
1484:./stm32f10x_libraries/CMSIS/CM3/CoreSupport/core_cm3.h ****  * @return priority grouping field 
1485:./stm32f10x_libraries/CMSIS/CM3/CoreSupport/core_cm3.h ****  *
1486:./stm32f10x_libraries/CMSIS/CM3/CoreSupport/core_cm3.h ****  * Get the priority grouping from NVIC Interrupt Controller.
1487:./stm32f10x_libraries/CMSIS/CM3/CoreSupport/core_cm3.h ****  * priority grouping is SCB->AIRCR [10:8] PRIGROUP field.
1488:./stm32f10x_libraries/CMSIS/CM3/CoreSupport/core_cm3.h ****  */
1489:./stm32f10x_libraries/CMSIS/CM3/CoreSupport/core_cm3.h **** static __INLINE uint32_t NVIC_GetPriorityGrouping(void)
1490:./stm32f10x_libraries/CMSIS/CM3/CoreSupport/core_cm3.h **** {
1491:./stm32f10x_libraries/CMSIS/CM3/CoreSupport/core_cm3.h ****   return ((SCB->AIRCR & SCB_AIRCR_PRIGROUP_Msk) >> SCB_AIRCR_PRIGROUP_Pos);   /* read priority grou
1492:./stm32f10x_libraries/CMSIS/CM3/CoreSupport/core_cm3.h **** }
1493:./stm32f10x_libraries/CMSIS/CM3/CoreSupport/core_cm3.h **** 
1494:./stm32f10x_libraries/CMSIS/CM3/CoreSupport/core_cm3.h **** /**
1495:./stm32f10x_libraries/CMSIS/CM3/CoreSupport/core_cm3.h ****  * @brief  Enable Interrupt in NVIC Interrupt Controller
1496:./stm32f10x_libraries/CMSIS/CM3/CoreSupport/core_cm3.h ****  *
1497:./stm32f10x_libraries/CMSIS/CM3/CoreSupport/core_cm3.h ****  * @param  IRQn   The positive number of the external interrupt to enable
1498:./stm32f10x_libraries/CMSIS/CM3/CoreSupport/core_cm3.h ****  *
1499:./stm32f10x_libraries/CMSIS/CM3/CoreSupport/core_cm3.h ****  * Enable a device specific interupt in the NVIC interrupt controller.
1500:./stm32f10x_libraries/CMSIS/CM3/CoreSupport/core_cm3.h ****  * The interrupt number cannot be a negative value.
1501:./stm32f10x_libraries/CMSIS/CM3/CoreSupport/core_cm3.h ****  */
1502:./stm32f10x_libraries/CMSIS/CM3/CoreSupport/core_cm3.h **** static __INLINE void NVIC_EnableIRQ(IRQn_Type IRQn)
 227              		.loc 2 1502 22 view .LVU45
 228              	.LBB8:
1503:./stm32f10x_libraries/CMSIS/CM3/CoreSupport/core_cm3.h **** {
1504:./stm32f10x_libraries/CMSIS/CM3/CoreSupport/core_cm3.h ****   NVIC->ISER[((uint32_t)(IRQn) >> 5)] = (1 << ((uint32_t)(IRQn) & 0x1F)); /* enable interrupt */
 229              		.loc 2 1504 3 view .LVU46
 230              	@ ./stm32f10x_libraries/CMSIS/CM3/CoreSupport/core_cm3.h:1504:   NVIC->ISER[((uint32_t)(IRQn) >> 5)
 231              		.loc 2 1504 39 is_stmt 0 view .LVU47
 232 0070 4FF48022 		mov	r2, #262144	@ tmp137,
 233 0074 094B     		ldr	r3, .L2+12	@ tmp136,
 234              	.LBE8:
 235              	.LBE7:
ARM GAS  C:\Users\user\AppData\Local\Temp\ccH9wMRW.s 			page 33


 236              	@ user/driver/adc/adc.c:71:     xSemaphoreGive(adc_man.sem_lock);
  70:user/driver/adc/adc.c ****     NVIC_SetPriority(ADC1_2_IRQn, 8);
  71:user/driver/adc/adc.c ****     xSemaphoreGive(adc_man.sem_lock);
 237              		.loc 1 71 5 view .LVU48
 238 0076 2146     		mov	r1, r4	@, tmp3
 239              	.LBB10:
 240              	.LBB9:
 241              	@ ./stm32f10x_libraries/CMSIS/CM3/CoreSupport/core_cm3.h:1504:   NVIC->ISER[((uint32_t)(IRQn) >> 5)
 242              		.loc 2 1504 39 view .LVU49
 243 0078 1A60     		str	r2, [r3]	@ tmp137, MEM[(struct NVIC_Type *)3758153984B].ISER[0]
 244              	.LVL7:
 245              		.loc 2 1504 39 view .LVU50
 246              	.LBE9:
 247              	.LBE10:
  70:user/driver/adc/adc.c ****     NVIC_SetPriority(ADC1_2_IRQn, 8);
 248              		.loc 1 70 5 is_stmt 1 view .LVU51
 249              	.LBB11:
 250              	.LBI11:
1505:./stm32f10x_libraries/CMSIS/CM3/CoreSupport/core_cm3.h **** }
1506:./stm32f10x_libraries/CMSIS/CM3/CoreSupport/core_cm3.h **** 
1507:./stm32f10x_libraries/CMSIS/CM3/CoreSupport/core_cm3.h **** /**
1508:./stm32f10x_libraries/CMSIS/CM3/CoreSupport/core_cm3.h ****  * @brief  Disable the interrupt line for external interrupt specified
1509:./stm32f10x_libraries/CMSIS/CM3/CoreSupport/core_cm3.h ****  * 
1510:./stm32f10x_libraries/CMSIS/CM3/CoreSupport/core_cm3.h ****  * @param  IRQn   The positive number of the external interrupt to disable
1511:./stm32f10x_libraries/CMSIS/CM3/CoreSupport/core_cm3.h ****  * 
1512:./stm32f10x_libraries/CMSIS/CM3/CoreSupport/core_cm3.h ****  * Disable a device specific interupt in the NVIC interrupt controller.
1513:./stm32f10x_libraries/CMSIS/CM3/CoreSupport/core_cm3.h ****  * The interrupt number cannot be a negative value.
1514:./stm32f10x_libraries/CMSIS/CM3/CoreSupport/core_cm3.h ****  */
1515:./stm32f10x_libraries/CMSIS/CM3/CoreSupport/core_cm3.h **** static __INLINE void NVIC_DisableIRQ(IRQn_Type IRQn)
1516:./stm32f10x_libraries/CMSIS/CM3/CoreSupport/core_cm3.h **** {
1517:./stm32f10x_libraries/CMSIS/CM3/CoreSupport/core_cm3.h ****   NVIC->ICER[((uint32_t)(IRQn) >> 5)] = (1 << ((uint32_t)(IRQn) & 0x1F)); /* disable interrupt */
1518:./stm32f10x_libraries/CMSIS/CM3/CoreSupport/core_cm3.h **** }
1519:./stm32f10x_libraries/CMSIS/CM3/CoreSupport/core_cm3.h **** 
1520:./stm32f10x_libraries/CMSIS/CM3/CoreSupport/core_cm3.h **** /**
1521:./stm32f10x_libraries/CMSIS/CM3/CoreSupport/core_cm3.h ****  * @brief  Read the interrupt pending bit for a device specific interrupt source
1522:./stm32f10x_libraries/CMSIS/CM3/CoreSupport/core_cm3.h ****  * 
1523:./stm32f10x_libraries/CMSIS/CM3/CoreSupport/core_cm3.h ****  * @param  IRQn    The number of the device specifc interrupt
1524:./stm32f10x_libraries/CMSIS/CM3/CoreSupport/core_cm3.h ****  * @return         1 = interrupt pending, 0 = interrupt not pending
1525:./stm32f10x_libraries/CMSIS/CM3/CoreSupport/core_cm3.h ****  *
1526:./stm32f10x_libraries/CMSIS/CM3/CoreSupport/core_cm3.h ****  * Read the pending register in NVIC and return 1 if its status is pending, 
1527:./stm32f10x_libraries/CMSIS/CM3/CoreSupport/core_cm3.h ****  * otherwise it returns 0
1528:./stm32f10x_libraries/CMSIS/CM3/CoreSupport/core_cm3.h ****  */
1529:./stm32f10x_libraries/CMSIS/CM3/CoreSupport/core_cm3.h **** static __INLINE uint32_t NVIC_GetPendingIRQ(IRQn_Type IRQn)
1530:./stm32f10x_libraries/CMSIS/CM3/CoreSupport/core_cm3.h **** {
1531:./stm32f10x_libraries/CMSIS/CM3/CoreSupport/core_cm3.h ****   return((uint32_t) ((NVIC->ISPR[(uint32_t)(IRQn) >> 5] & (1 << ((uint32_t)(IRQn) & 0x1F)))?1:0)); 
1532:./stm32f10x_libraries/CMSIS/CM3/CoreSupport/core_cm3.h **** }
1533:./stm32f10x_libraries/CMSIS/CM3/CoreSupport/core_cm3.h **** 
1534:./stm32f10x_libraries/CMSIS/CM3/CoreSupport/core_cm3.h **** /**
1535:./stm32f10x_libraries/CMSIS/CM3/CoreSupport/core_cm3.h ****  * @brief  Set the pending bit for an external interrupt
1536:./stm32f10x_libraries/CMSIS/CM3/CoreSupport/core_cm3.h ****  * 
1537:./stm32f10x_libraries/CMSIS/CM3/CoreSupport/core_cm3.h ****  * @param  IRQn    The number of the interrupt for set pending
1538:./stm32f10x_libraries/CMSIS/CM3/CoreSupport/core_cm3.h ****  *
1539:./stm32f10x_libraries/CMSIS/CM3/CoreSupport/core_cm3.h ****  * Set the pending bit for the specified interrupt.
1540:./stm32f10x_libraries/CMSIS/CM3/CoreSupport/core_cm3.h ****  * The interrupt number cannot be a negative value.
1541:./stm32f10x_libraries/CMSIS/CM3/CoreSupport/core_cm3.h ****  */
1542:./stm32f10x_libraries/CMSIS/CM3/CoreSupport/core_cm3.h **** static __INLINE void NVIC_SetPendingIRQ(IRQn_Type IRQn)
1543:./stm32f10x_libraries/CMSIS/CM3/CoreSupport/core_cm3.h **** {
ARM GAS  C:\Users\user\AppData\Local\Temp\ccH9wMRW.s 			page 34


1544:./stm32f10x_libraries/CMSIS/CM3/CoreSupport/core_cm3.h ****   NVIC->ISPR[((uint32_t)(IRQn) >> 5)] = (1 << ((uint32_t)(IRQn) & 0x1F)); /* set interrupt pending 
1545:./stm32f10x_libraries/CMSIS/CM3/CoreSupport/core_cm3.h **** }
1546:./stm32f10x_libraries/CMSIS/CM3/CoreSupport/core_cm3.h **** 
1547:./stm32f10x_libraries/CMSIS/CM3/CoreSupport/core_cm3.h **** /**
1548:./stm32f10x_libraries/CMSIS/CM3/CoreSupport/core_cm3.h ****  * @brief  Clear the pending bit for an external interrupt
1549:./stm32f10x_libraries/CMSIS/CM3/CoreSupport/core_cm3.h ****  *
1550:./stm32f10x_libraries/CMSIS/CM3/CoreSupport/core_cm3.h ****  * @param  IRQn    The number of the interrupt for clear pending
1551:./stm32f10x_libraries/CMSIS/CM3/CoreSupport/core_cm3.h ****  *
1552:./stm32f10x_libraries/CMSIS/CM3/CoreSupport/core_cm3.h ****  * Clear the pending bit for the specified interrupt. 
1553:./stm32f10x_libraries/CMSIS/CM3/CoreSupport/core_cm3.h ****  * The interrupt number cannot be a negative value.
1554:./stm32f10x_libraries/CMSIS/CM3/CoreSupport/core_cm3.h ****  */
1555:./stm32f10x_libraries/CMSIS/CM3/CoreSupport/core_cm3.h **** static __INLINE void NVIC_ClearPendingIRQ(IRQn_Type IRQn)
1556:./stm32f10x_libraries/CMSIS/CM3/CoreSupport/core_cm3.h **** {
1557:./stm32f10x_libraries/CMSIS/CM3/CoreSupport/core_cm3.h ****   NVIC->ICPR[((uint32_t)(IRQn) >> 5)] = (1 << ((uint32_t)(IRQn) & 0x1F)); /* Clear pending interrup
1558:./stm32f10x_libraries/CMSIS/CM3/CoreSupport/core_cm3.h **** }
1559:./stm32f10x_libraries/CMSIS/CM3/CoreSupport/core_cm3.h **** 
1560:./stm32f10x_libraries/CMSIS/CM3/CoreSupport/core_cm3.h **** /**
1561:./stm32f10x_libraries/CMSIS/CM3/CoreSupport/core_cm3.h ****  * @brief  Read the active bit for an external interrupt
1562:./stm32f10x_libraries/CMSIS/CM3/CoreSupport/core_cm3.h ****  *
1563:./stm32f10x_libraries/CMSIS/CM3/CoreSupport/core_cm3.h ****  * @param  IRQn    The number of the interrupt for read active bit
1564:./stm32f10x_libraries/CMSIS/CM3/CoreSupport/core_cm3.h ****  * @return         1 = interrupt active, 0 = interrupt not active
1565:./stm32f10x_libraries/CMSIS/CM3/CoreSupport/core_cm3.h ****  *
1566:./stm32f10x_libraries/CMSIS/CM3/CoreSupport/core_cm3.h ****  * Read the active register in NVIC and returns 1 if its status is active, 
1567:./stm32f10x_libraries/CMSIS/CM3/CoreSupport/core_cm3.h ****  * otherwise it returns 0.
1568:./stm32f10x_libraries/CMSIS/CM3/CoreSupport/core_cm3.h ****  */
1569:./stm32f10x_libraries/CMSIS/CM3/CoreSupport/core_cm3.h **** static __INLINE uint32_t NVIC_GetActive(IRQn_Type IRQn)
1570:./stm32f10x_libraries/CMSIS/CM3/CoreSupport/core_cm3.h **** {
1571:./stm32f10x_libraries/CMSIS/CM3/CoreSupport/core_cm3.h ****   return((uint32_t)((NVIC->IABR[(uint32_t)(IRQn) >> 5] & (1 << ((uint32_t)(IRQn) & 0x1F)))?1:0)); /
1572:./stm32f10x_libraries/CMSIS/CM3/CoreSupport/core_cm3.h **** }
1573:./stm32f10x_libraries/CMSIS/CM3/CoreSupport/core_cm3.h **** 
1574:./stm32f10x_libraries/CMSIS/CM3/CoreSupport/core_cm3.h **** /**
1575:./stm32f10x_libraries/CMSIS/CM3/CoreSupport/core_cm3.h ****  * @brief  Set the priority for an interrupt
1576:./stm32f10x_libraries/CMSIS/CM3/CoreSupport/core_cm3.h ****  *
1577:./stm32f10x_libraries/CMSIS/CM3/CoreSupport/core_cm3.h ****  * @param  IRQn      The number of the interrupt for set priority
1578:./stm32f10x_libraries/CMSIS/CM3/CoreSupport/core_cm3.h ****  * @param  priority  The priority to set
1579:./stm32f10x_libraries/CMSIS/CM3/CoreSupport/core_cm3.h ****  *
1580:./stm32f10x_libraries/CMSIS/CM3/CoreSupport/core_cm3.h ****  * Set the priority for the specified interrupt. The interrupt 
1581:./stm32f10x_libraries/CMSIS/CM3/CoreSupport/core_cm3.h ****  * number can be positive to specify an external (device specific) 
1582:./stm32f10x_libraries/CMSIS/CM3/CoreSupport/core_cm3.h ****  * interrupt, or negative to specify an internal (core) interrupt.
1583:./stm32f10x_libraries/CMSIS/CM3/CoreSupport/core_cm3.h ****  *
1584:./stm32f10x_libraries/CMSIS/CM3/CoreSupport/core_cm3.h ****  * Note: The priority cannot be set for every core interrupt.
1585:./stm32f10x_libraries/CMSIS/CM3/CoreSupport/core_cm3.h ****  */
1586:./stm32f10x_libraries/CMSIS/CM3/CoreSupport/core_cm3.h **** static __INLINE void NVIC_SetPriority(IRQn_Type IRQn, uint32_t priority)
 251              		.loc 2 1586 22 view .LVU52
 252              	.LBB12:
1587:./stm32f10x_libraries/CMSIS/CM3/CoreSupport/core_cm3.h **** {
1588:./stm32f10x_libraries/CMSIS/CM3/CoreSupport/core_cm3.h ****   if(IRQn < 0) {
 253              		.loc 2 1588 3 view .LVU53
1589:./stm32f10x_libraries/CMSIS/CM3/CoreSupport/core_cm3.h ****     SCB->SHP[((uint32_t)(IRQn) & 0xF)-4] = ((priority << (8 - __NVIC_PRIO_BITS)) & 0xff); } /* set 
1590:./stm32f10x_libraries/CMSIS/CM3/CoreSupport/core_cm3.h ****   else {
1591:./stm32f10x_libraries/CMSIS/CM3/CoreSupport/core_cm3.h ****     NVIC->IP[(uint32_t)(IRQn)] = ((priority << (8 - __NVIC_PRIO_BITS)) & 0xff);    }        /* set 
 254              		.loc 2 1591 5 view .LVU54
 255              	@ ./stm32f10x_libraries/CMSIS/CM3/CoreSupport/core_cm3.h:1591:     NVIC->IP[(uint32_t)(IRQn)] = ((p
 256              		.loc 2 1591 32 is_stmt 0 view .LVU55
 257 007a 8022     		movs	r2, #128	@ tmp139,
 258 007c 83F81223 		strb	r2, [r3, #786]	@ tmp139, MEM[(struct NVIC_Type *)3758153984B].IP[18]
 259              	.LVL8:
ARM GAS  C:\Users\user\AppData\Local\Temp\ccH9wMRW.s 			page 35


 260              		.loc 2 1591 32 view .LVU56
 261              	.LBE12:
 262              	.LBE11:
 263              		.loc 1 71 5 is_stmt 1 view .LVU57
 264 0080 6868     		ldr	r0, [r5, #4]	@, adc_man.sem_lock
 265 0082 2346     		mov	r3, r4	@, tmp117
 266 0084 2246     		mov	r2, r4	@, tmp3
 267 0086 FFF7FEFF 		bl	xQueueGenericSend		@
 268              	.LVL9:
 269              	@ user/driver/adc/adc.c:72: }
  72:user/driver/adc/adc.c **** }
 270              		.loc 1 72 1 is_stmt 0 view .LVU58
 271 008a 07B0     		add	sp, sp, #28	@,,
 272              	.LCFI2:
 273              		.cfi_def_cfa_offset 20
 274              		@ sp needed	@
 275 008c F0BD     		pop	{r4, r5, r6, r7, pc}	@
 276              	.L3:
 277 008e 00BF     		.align	2
 278              	.L2:
 279 0090 00000000 		.word	.LANCHOR0
 280 0094 00080140 		.word	1073809408
 281 0098 00240140 		.word	1073816576
 282 009c 00E100E0 		.word	-536813312
 283              		.cfi_endproc
 284              	.LFE34:
 285              		.size	AdcInit, .-AdcInit
 286              		.align	1
 287              		.global	AdcStop
 288              		.syntax unified
 289              		.thumb
 290              		.thumb_func
 291              		.fpu softvfp
 292              		.type	AdcStop, %function
 293              	AdcStop:
 294              	.LFB36:
  73:user/driver/adc/adc.c **** void AdcStart(AdcChannel ch)
  74:user/driver/adc/adc.c **** {
  75:user/driver/adc/adc.c ****     if (xSemaphoreTake(adc_man.sem_lock, 1000) == pdTRUE)
  76:user/driver/adc/adc.c ****     {
  77:user/driver/adc/adc.c ****         adc_man.current_ch = ch;
  78:user/driver/adc/adc.c ****         ADC_RegularChannelConfig(ADC1, AdcHchannel(adc_man.current_ch), 1, ADC_SampleTime_239Cycles
  79:user/driver/adc/adc.c ****         ADC_Cmd(ADC1, ENABLE);
  80:user/driver/adc/adc.c ****         adc_man.idx = 0;
  81:user/driver/adc/adc.c ****         while (xSemaphoreTake(adc_man.done_lock, 0) == pdTRUE)
  82:user/driver/adc/adc.c ****             ;
  83:user/driver/adc/adc.c ****         memset(&adc_man.data, 0, sizeof(ChannelBuffer));
  84:user/driver/adc/adc.c ****         ADC_SoftwareStartConvCmd(ADC1, ENABLE);
  85:user/driver/adc/adc.c ****         // wait for conversion finish;
  86:user/driver/adc/adc.c ****         if (xSemaphoreTake(adc_man.done_lock, 1000) == pdTRUE)
  87:user/driver/adc/adc.c ****         {
  88:user/driver/adc/adc.c ****             Channel *chn = ch;
  89:user/driver/adc/adc.c ****             chn->data = adc_man.data;
  90:user/driver/adc/adc.c ****             chn->data_available = true;
  91:user/driver/adc/adc.c ****             xSemaphoreGive(adc_man.sem_lock);
  92:user/driver/adc/adc.c ****         }
  93:user/driver/adc/adc.c ****     }
ARM GAS  C:\Users\user\AppData\Local\Temp\ccH9wMRW.s 			page 36


  94:user/driver/adc/adc.c **** }
  95:user/driver/adc/adc.c **** void AdcStop()
  96:user/driver/adc/adc.c **** {
 295              		.loc 1 96 1 is_stmt 1 view -0
 296              		.cfi_startproc
 297              		@ args = 0, pretend = 0, frame = 0
 298              		@ frame_needed = 0, uses_anonymous_args = 0
 299              		@ link register save eliminated.
  97:user/driver/adc/adc.c ****     ADC_SoftwareStartConvCmd(ADC1, DISABLE);
 300              		.loc 1 97 5 view .LVU60
 301 00a0 0021     		movs	r1, #0	@,
 302 00a2 0148     		ldr	r0, .L5	@,
 303 00a4 FFF7FEBF 		b	ADC_SoftwareStartConvCmd		@
 304              	.LVL10:
 305              	.L6:
 306              		.align	2
 307              	.L5:
 308 00a8 00240140 		.word	1073816576
 309              		.cfi_endproc
 310              	.LFE36:
 311              		.size	AdcStop, .-AdcStop
 312              		.align	1
 313              		.global	AdcChannelCreate
 314              		.syntax unified
 315              		.thumb
 316              		.thumb_func
 317              		.fpu softvfp
 318              		.type	AdcChannelCreate, %function
 319              	AdcChannelCreate:
 320              	.LVL11:
 321              	.LFB37:
  98:user/driver/adc/adc.c **** }
  99:user/driver/adc/adc.c **** AdcChannel AdcChannelCreate(AdcChannelId id)
 100:user/driver/adc/adc.c **** {
 322              		.loc 1 100 1 view -0
 323              		.cfi_startproc
 324              		@ args = 0, pretend = 0, frame = 8
 325              		@ frame_needed = 0, uses_anonymous_args = 0
 101:user/driver/adc/adc.c ****     Channel *ch = pvPortMalloc(sizeof(Channel));
 326              		.loc 1 101 5 view .LVU62
 327              	@ user/driver/adc/adc.c:100: {
 100:user/driver/adc/adc.c ****     Channel *ch = pvPortMalloc(sizeof(Channel));
 328              		.loc 1 100 1 is_stmt 0 view .LVU63
 329 00ac 37B5     		push	{r0, r1, r2, r4, r5, lr}	@
 330              	.LCFI3:
 331              		.cfi_def_cfa_offset 24
 332              		.cfi_offset 4, -12
 333              		.cfi_offset 5, -8
 334              		.cfi_offset 14, -4
 335              	@ user/driver/adc/adc.c:100: {
 100:user/driver/adc/adc.c ****     Channel *ch = pvPortMalloc(sizeof(Channel));
 336              		.loc 1 100 1 view .LVU64
 337 00ae 0446     		mov	r4, r0	@ id, tmp153
 338              	@ user/driver/adc/adc.c:101:     Channel *ch = pvPortMalloc(sizeof(Channel));
 339              		.loc 1 101 19 view .LVU65
 340 00b0 8620     		movs	r0, #134	@,
 341              	.LVL12:
ARM GAS  C:\Users\user\AppData\Local\Temp\ccH9wMRW.s 			page 37


 342              		.loc 1 101 19 view .LVU66
 343 00b2 FFF7FEFF 		bl	pvPortMalloc		@
 344              	.LVL13:
 345              	@ user/driver/adc/adc.c:106:     gpio.GPIO_Speed = GPIO_Speed_50MHz;
 102:user/driver/adc/adc.c ****     ch->id = id;
 103:user/driver/adc/adc.c ****     GPIO_TypeDef * port = NULL;
 104:user/driver/adc/adc.c ****     GPIO_InitTypeDef gpio;
 105:user/driver/adc/adc.c ****     gpio.GPIO_Mode = GPIO_Mode_AIN;
 106:user/driver/adc/adc.c ****     gpio.GPIO_Speed = GPIO_Speed_50MHz;
 346              		.loc 1 106 21 view .LVU67
 347 00b6 0323     		movs	r3, #3	@ tmp118,
 348              	@ user/driver/adc/adc.c:102:     ch->id = id;
 102:user/driver/adc/adc.c ****     ch->id = id;
 349              		.loc 1 102 12 view .LVU68
 350 00b8 0470     		strb	r4, [r0]	@ id, ch_5->id
 351              	@ user/driver/adc/adc.c:101:     Channel *ch = pvPortMalloc(sizeof(Channel));
 101:user/driver/adc/adc.c ****     ch->id = id;
 352              		.loc 1 101 19 view .LVU69
 353 00ba 0546     		mov	r5, r0	@ <retval>, tmp154
 354              	.LVL14:
 102:user/driver/adc/adc.c ****     ch->id = id;
 355              		.loc 1 102 5 is_stmt 1 view .LVU70
 103:user/driver/adc/adc.c ****     GPIO_InitTypeDef gpio;
 356              		.loc 1 103 5 view .LVU71
 104:user/driver/adc/adc.c ****     gpio.GPIO_Mode = GPIO_Mode_AIN;
 357              		.loc 1 104 5 view .LVU72
 105:user/driver/adc/adc.c ****     gpio.GPIO_Speed = GPIO_Speed_50MHz;
 358              		.loc 1 105 5 view .LVU73
 359              		.loc 1 106 5 view .LVU74
 360              	@ user/driver/adc/adc.c:106:     gpio.GPIO_Speed = GPIO_Speed_50MHz;
 361              		.loc 1 106 21 is_stmt 0 view .LVU75
 362 00bc ADF80630 		strh	r3, [sp, #6]	@ movhi	@ tmp118, MEM <unsigned short> [(void *)&gpio + 2B]
 107:user/driver/adc/adc.c ****     switch (id)
 363              		.loc 1 107 5 is_stmt 1 view .LVU76
 364 00c0 0F2C     		cmp	r4, #15	@ id,
 365 00c2 4FD8     		bhi	.L26		@
 366 00c4 DFE804F0 		tbb	[pc, r4]	@ id
 367              	.L10:
 368 00c8 08       		.byte	(.L25-.L10)/2
 369 00c9 15       		.byte	(.L24-.L10)/2
 370 00ca 1A       		.byte	(.L23-.L10)/2
 371 00cb 1F       		.byte	(.L22-.L10)/2
 372 00cc 21       		.byte	(.L21-.L10)/2
 373 00cd 23       		.byte	(.L20-.L10)/2
 374 00ce 25       		.byte	(.L19-.L10)/2
 375 00cf 27       		.byte	(.L18-.L10)/2
 376 00d0 29       		.byte	(.L17-.L10)/2
 377 00d1 31       		.byte	(.L16-.L10)/2
 378 00d2 36       		.byte	(.L15-.L10)/2
 379 00d3 3B       		.byte	(.L14-.L10)/2
 380 00d4 40       		.byte	(.L13-.L10)/2
 381 00d5 42       		.byte	(.L12-.L10)/2
 382 00d6 44       		.byte	(.L11-.L10)/2
 383 00d7 4C       		.byte	(.L9-.L10)/2
 384              		.p2align 1
 385              	.L25:
 108:user/driver/adc/adc.c ****     {
ARM GAS  C:\Users\user\AppData\Local\Temp\ccH9wMRW.s 			page 38


 109:user/driver/adc/adc.c ****     case ADC_CHANNEL0:
 110:user/driver/adc/adc.c ****         gpio.GPIO_Pin = GPIO_Pin_0;
 386              		.loc 1 110 9 view .LVU77
 387              	@ user/driver/adc/adc.c:110:         gpio.GPIO_Pin = GPIO_Pin_0;
 388              		.loc 1 110 23 is_stmt 0 view .LVU78
 389 00d8 0121     		movs	r1, #1	@ tmp120,
 390 00da ADF80410 		strh	r1, [sp, #4]	@ movhi	@ tmp120, gpio.GPIO_Pin
 111:user/driver/adc/adc.c ****         RCC_APB2PeriphClockCmd(RCC_APB2Periph_GPIOA, ENABLE);
 391              		.loc 1 111 9 is_stmt 1 view .LVU79
 392              	.L28:
 393              	@ user/driver/adc/adc.c:116:         RCC_APB2PeriphClockCmd(RCC_APB2Periph_GPIOA, ENABLE);
 112:user/driver/adc/adc.c ****         port = GPIOA;
 113:user/driver/adc/adc.c ****         break;
 114:user/driver/adc/adc.c ****     case ADC_CHANNEL1:
 115:user/driver/adc/adc.c ****         gpio.GPIO_Pin = GPIO_Pin_1;
 116:user/driver/adc/adc.c ****         RCC_APB2PeriphClockCmd(RCC_APB2Periph_GPIOA, ENABLE);
 394              		.loc 1 116 9 is_stmt 0 view .LVU80
 395 00de 0420     		movs	r0, #4	@,
 396              	.LVL15:
 397              	.L29:
 398              		.loc 1 116 9 view .LVU81
 399 00e0 FFF7FEFF 		bl	RCC_APB2PeriphClockCmd		@
 400              	.LVL16:
 117:user/driver/adc/adc.c ****         port = GPIOA;
 401              		.loc 1 117 9 is_stmt 1 view .LVU82
 118:user/driver/adc/adc.c ****         break;
 402              		.loc 1 118 9 view .LVU83
 403              	@ user/driver/adc/adc.c:117:         port = GPIOA;
 117:user/driver/adc/adc.c ****         port = GPIOA;
 404              		.loc 1 117 14 is_stmt 0 view .LVU84
 405 00e4 2048     		ldr	r0, .L34	@ port,
 406              	.LVL17:
 407              	.L8:
 119:user/driver/adc/adc.c ****     case ADC_CHANNEL2:
 120:user/driver/adc/adc.c ****         gpio.GPIO_Pin = GPIO_Pin_2;
 121:user/driver/adc/adc.c ****         RCC_APB2PeriphClockCmd(RCC_APB2Periph_GPIOA, ENABLE);
 122:user/driver/adc/adc.c ****         port = GPIOA;
 123:user/driver/adc/adc.c ****         break;
 124:user/driver/adc/adc.c ****     case ADC_CHANNEL3:
 125:user/driver/adc/adc.c ****         gpio.GPIO_Pin = GPIO_Pin_3;
 126:user/driver/adc/adc.c ****         RCC_APB2PeriphClockCmd(RCC_APB2Periph_GPIOA, ENABLE);
 127:user/driver/adc/adc.c ****         port = GPIOA;
 128:user/driver/adc/adc.c ****         break;
 129:user/driver/adc/adc.c ****     case ADC_CHANNEL4:
 130:user/driver/adc/adc.c ****         gpio.GPIO_Pin = GPIO_Pin_4;
 131:user/driver/adc/adc.c ****         RCC_APB2PeriphClockCmd(RCC_APB2Periph_GPIOA, ENABLE);
 132:user/driver/adc/adc.c ****         port = GPIOA;
 133:user/driver/adc/adc.c ****         break;
 134:user/driver/adc/adc.c ****     case ADC_CHANNEL5:
 135:user/driver/adc/adc.c ****         gpio.GPIO_Pin = GPIO_Pin_5;
 136:user/driver/adc/adc.c ****         RCC_APB2PeriphClockCmd(RCC_APB2Periph_GPIOA, ENABLE);
 137:user/driver/adc/adc.c ****         port = GPIOA;
 138:user/driver/adc/adc.c ****         break;
 139:user/driver/adc/adc.c ****     case ADC_CHANNEL6:
 140:user/driver/adc/adc.c ****         gpio.GPIO_Pin = GPIO_Pin_6;
 141:user/driver/adc/adc.c ****         RCC_APB2PeriphClockCmd(RCC_APB2Periph_GPIOA, ENABLE);
 142:user/driver/adc/adc.c ****         port = GPIOA;
ARM GAS  C:\Users\user\AppData\Local\Temp\ccH9wMRW.s 			page 39


 143:user/driver/adc/adc.c ****         break;
 144:user/driver/adc/adc.c ****     case ADC_CHANNEL7:
 145:user/driver/adc/adc.c ****         gpio.GPIO_Pin = GPIO_Pin_7;
 146:user/driver/adc/adc.c ****         RCC_APB2PeriphClockCmd(RCC_APB2Periph_GPIOA, ENABLE);
 147:user/driver/adc/adc.c ****         port = GPIOA;
 148:user/driver/adc/adc.c ****         break;
 149:user/driver/adc/adc.c ****     case ADC_CHANNEL8:
 150:user/driver/adc/adc.c ****         gpio.GPIO_Pin = GPIO_Pin_0;
 151:user/driver/adc/adc.c ****         RCC_APB2PeriphClockCmd(RCC_APB2Periph_GPIOB, ENABLE);
 152:user/driver/adc/adc.c ****         port = GPIOB;
 153:user/driver/adc/adc.c ****         break;
 154:user/driver/adc/adc.c ****     case ADC_CHANNEL9:
 155:user/driver/adc/adc.c ****         gpio.GPIO_Pin = GPIO_Pin_1;
 156:user/driver/adc/adc.c ****         RCC_APB2PeriphClockCmd(RCC_APB2Periph_GPIOB, ENABLE);
 157:user/driver/adc/adc.c ****         port = GPIOB;
 158:user/driver/adc/adc.c ****         break;
 159:user/driver/adc/adc.c ****     case ADC_CHANNEL10:
 160:user/driver/adc/adc.c ****         gpio.GPIO_Pin = GPIO_Pin_0;
 161:user/driver/adc/adc.c ****         RCC_APB2PeriphClockCmd(RCC_APB2Periph_GPIOC, ENABLE);
 162:user/driver/adc/adc.c ****         port = GPIOC;
 163:user/driver/adc/adc.c ****         break;
 164:user/driver/adc/adc.c ****     case ADC_CHANNEL11:
 165:user/driver/adc/adc.c ****         gpio.GPIO_Pin = GPIO_Pin_1;
 166:user/driver/adc/adc.c ****         RCC_APB2PeriphClockCmd(RCC_APB2Periph_GPIOC, ENABLE);
 167:user/driver/adc/adc.c ****         port = GPIOC;
 168:user/driver/adc/adc.c ****         break;
 169:user/driver/adc/adc.c ****     case ADC_CHANNEL12:
 170:user/driver/adc/adc.c ****         gpio.GPIO_Pin = GPIO_Pin_2;
 171:user/driver/adc/adc.c ****         RCC_APB2PeriphClockCmd(RCC_APB2Periph_GPIOC, ENABLE);
 172:user/driver/adc/adc.c ****         port = GPIOC;
 173:user/driver/adc/adc.c ****         break;
 174:user/driver/adc/adc.c ****     case ADC_CHANNEL13:
 175:user/driver/adc/adc.c ****         gpio.GPIO_Pin = GPIO_Pin_3;
 176:user/driver/adc/adc.c ****         RCC_APB2PeriphClockCmd(RCC_APB2Periph_GPIOC, ENABLE);
 177:user/driver/adc/adc.c ****         port = GPIOC;
 178:user/driver/adc/adc.c ****         break;
 179:user/driver/adc/adc.c ****     case ADC_CHANNEL14:
 180:user/driver/adc/adc.c ****         gpio.GPIO_Pin = GPIO_Pin_4;
 181:user/driver/adc/adc.c ****         RCC_APB2PeriphClockCmd(RCC_APB2Periph_GPIOC, ENABLE);
 182:user/driver/adc/adc.c ****         port = GPIOC;
 183:user/driver/adc/adc.c ****         break;
 184:user/driver/adc/adc.c ****     case ADC_CHANNEL15:
 185:user/driver/adc/adc.c ****         gpio.GPIO_Pin = GPIO_Pin_5;
 186:user/driver/adc/adc.c ****         RCC_APB2PeriphClockCmd(RCC_APB2Periph_GPIOC, ENABLE);
 187:user/driver/adc/adc.c ****         port = GPIOC;
 188:user/driver/adc/adc.c ****         break;
 189:user/driver/adc/adc.c ****     default:
 190:user/driver/adc/adc.c ****         break;
 191:user/driver/adc/adc.c ****     }
 192:user/driver/adc/adc.c ****     GPIO_Init(port, &gpio);
 408              		.loc 1 192 5 is_stmt 1 view .LVU85
 409 00e6 01A9     		add	r1, sp, #4	@,,
 410 00e8 FFF7FEFF 		bl	GPIO_Init		@
 411              	.LVL18:
 193:user/driver/adc/adc.c ****     return ch;
 412              		.loc 1 193 5 view .LVU86
 413              	@ user/driver/adc/adc.c:194: }
ARM GAS  C:\Users\user\AppData\Local\Temp\ccH9wMRW.s 			page 40


 194:user/driver/adc/adc.c **** }
 414              		.loc 1 194 1 is_stmt 0 view .LVU87
 415 00ec 2846     		mov	r0, r5	@, <retval>
 416 00ee 03B0     		add	sp, sp, #12	@,,
 417              	.LCFI4:
 418              		.cfi_remember_state
 419              		.cfi_def_cfa_offset 12
 420              		@ sp needed	@
 421 00f0 30BD     		pop	{r4, r5, pc}	@
 422              	.LVL19:
 423              	.L24:
 424              	.LCFI5:
 425              		.cfi_restore_state
 115:user/driver/adc/adc.c ****         RCC_APB2PeriphClockCmd(RCC_APB2Periph_GPIOA, ENABLE);
 426              		.loc 1 115 9 is_stmt 1 view .LVU88
 427              	@ user/driver/adc/adc.c:115:         gpio.GPIO_Pin = GPIO_Pin_1;
 115:user/driver/adc/adc.c ****         RCC_APB2PeriphClockCmd(RCC_APB2Periph_GPIOA, ENABLE);
 428              		.loc 1 115 23 is_stmt 0 view .LVU89
 429 00f2 0223     		movs	r3, #2	@ tmp122,
 430              	.L32:
 431              	@ user/driver/adc/adc.c:116:         RCC_APB2PeriphClockCmd(RCC_APB2Periph_GPIOA, ENABLE);
 116:user/driver/adc/adc.c ****         port = GPIOA;
 432              		.loc 1 116 9 view .LVU90
 433 00f4 0121     		movs	r1, #1	@,
 434              	@ user/driver/adc/adc.c:115:         gpio.GPIO_Pin = GPIO_Pin_1;
 115:user/driver/adc/adc.c ****         RCC_APB2PeriphClockCmd(RCC_APB2Periph_GPIOA, ENABLE);
 435              		.loc 1 115 23 view .LVU91
 436 00f6 ADF80430 		strh	r3, [sp, #4]	@ movhi	@ tmp122, gpio.GPIO_Pin
 116:user/driver/adc/adc.c ****         port = GPIOA;
 437              		.loc 1 116 9 is_stmt 1 view .LVU92
 438 00fa F0E7     		b	.L28		@
 439              	.L23:
 120:user/driver/adc/adc.c ****         RCC_APB2PeriphClockCmd(RCC_APB2Periph_GPIOA, ENABLE);
 440              		.loc 1 120 9 view .LVU93
 441              	@ user/driver/adc/adc.c:120:         gpio.GPIO_Pin = GPIO_Pin_2;
 120:user/driver/adc/adc.c ****         RCC_APB2PeriphClockCmd(RCC_APB2Periph_GPIOA, ENABLE);
 442              		.loc 1 120 23 is_stmt 0 view .LVU94
 443 00fc 0420     		movs	r0, #4	@ tmp124,
 444              	.LVL20:
 445              	@ user/driver/adc/adc.c:121:         RCC_APB2PeriphClockCmd(RCC_APB2Periph_GPIOA, ENABLE);
 121:user/driver/adc/adc.c ****         port = GPIOA;
 446              		.loc 1 121 9 view .LVU95
 447 00fe 0121     		movs	r1, #1	@,
 448              	@ user/driver/adc/adc.c:120:         gpio.GPIO_Pin = GPIO_Pin_2;
 120:user/driver/adc/adc.c ****         RCC_APB2PeriphClockCmd(RCC_APB2Periph_GPIOA, ENABLE);
 449              		.loc 1 120 23 view .LVU96
 450 0100 ADF80400 		strh	r0, [sp, #4]	@ movhi	@ tmp124, gpio.GPIO_Pin
 121:user/driver/adc/adc.c ****         port = GPIOA;
 451              		.loc 1 121 9 is_stmt 1 view .LVU97
 452 0104 ECE7     		b	.L29		@
 453              	.LVL21:
 454              	.L22:
 125:user/driver/adc/adc.c ****         RCC_APB2PeriphClockCmd(RCC_APB2Periph_GPIOA, ENABLE);
 455              		.loc 1 125 9 view .LVU98
 456              	@ user/driver/adc/adc.c:125:         gpio.GPIO_Pin = GPIO_Pin_3;
 125:user/driver/adc/adc.c ****         RCC_APB2PeriphClockCmd(RCC_APB2Periph_GPIOA, ENABLE);
 457              		.loc 1 125 23 is_stmt 0 view .LVU99
ARM GAS  C:\Users\user\AppData\Local\Temp\ccH9wMRW.s 			page 41


 458 0106 0823     		movs	r3, #8	@ tmp126,
 459 0108 F4E7     		b	.L32		@
 460              	.L21:
 130:user/driver/adc/adc.c ****         RCC_APB2PeriphClockCmd(RCC_APB2Periph_GPIOA, ENABLE);
 461              		.loc 1 130 9 is_stmt 1 view .LVU100
 462              	@ user/driver/adc/adc.c:130:         gpio.GPIO_Pin = GPIO_Pin_4;
 130:user/driver/adc/adc.c ****         RCC_APB2PeriphClockCmd(RCC_APB2Periph_GPIOA, ENABLE);
 463              		.loc 1 130 23 is_stmt 0 view .LVU101
 464 010a 1023     		movs	r3, #16	@ tmp128,
 465 010c F2E7     		b	.L32		@
 466              	.L20:
 135:user/driver/adc/adc.c ****         RCC_APB2PeriphClockCmd(RCC_APB2Periph_GPIOA, ENABLE);
 467              		.loc 1 135 9 is_stmt 1 view .LVU102
 468              	@ user/driver/adc/adc.c:135:         gpio.GPIO_Pin = GPIO_Pin_5;
 135:user/driver/adc/adc.c ****         RCC_APB2PeriphClockCmd(RCC_APB2Periph_GPIOA, ENABLE);
 469              		.loc 1 135 23 is_stmt 0 view .LVU103
 470 010e 2023     		movs	r3, #32	@ tmp130,
 471 0110 F0E7     		b	.L32		@
 472              	.L19:
 140:user/driver/adc/adc.c ****         RCC_APB2PeriphClockCmd(RCC_APB2Periph_GPIOA, ENABLE);
 473              		.loc 1 140 9 is_stmt 1 view .LVU104
 474              	@ user/driver/adc/adc.c:140:         gpio.GPIO_Pin = GPIO_Pin_6;
 140:user/driver/adc/adc.c ****         RCC_APB2PeriphClockCmd(RCC_APB2Periph_GPIOA, ENABLE);
 475              		.loc 1 140 23 is_stmt 0 view .LVU105
 476 0112 4023     		movs	r3, #64	@ tmp132,
 477 0114 EEE7     		b	.L32		@
 478              	.L18:
 145:user/driver/adc/adc.c ****         RCC_APB2PeriphClockCmd(RCC_APB2Periph_GPIOA, ENABLE);
 479              		.loc 1 145 9 is_stmt 1 view .LVU106
 480              	@ user/driver/adc/adc.c:145:         gpio.GPIO_Pin = GPIO_Pin_7;
 145:user/driver/adc/adc.c ****         RCC_APB2PeriphClockCmd(RCC_APB2Periph_GPIOA, ENABLE);
 481              		.loc 1 145 23 is_stmt 0 view .LVU107
 482 0116 8023     		movs	r3, #128	@ tmp134,
 483 0118 ECE7     		b	.L32		@
 484              	.L17:
 150:user/driver/adc/adc.c ****         RCC_APB2PeriphClockCmd(RCC_APB2Periph_GPIOB, ENABLE);
 485              		.loc 1 150 9 is_stmt 1 view .LVU108
 486              	@ user/driver/adc/adc.c:150:         gpio.GPIO_Pin = GPIO_Pin_0;
 150:user/driver/adc/adc.c ****         RCC_APB2PeriphClockCmd(RCC_APB2Periph_GPIOB, ENABLE);
 487              		.loc 1 150 23 is_stmt 0 view .LVU109
 488 011a 0121     		movs	r1, #1	@ tmp136,
 489 011c ADF80410 		strh	r1, [sp, #4]	@ movhi	@ tmp136, gpio.GPIO_Pin
 151:user/driver/adc/adc.c ****         port = GPIOB;
 490              		.loc 1 151 9 is_stmt 1 view .LVU110
 491              	.L33:
 492              	@ user/driver/adc/adc.c:156:         RCC_APB2PeriphClockCmd(RCC_APB2Periph_GPIOB, ENABLE);
 156:user/driver/adc/adc.c ****         port = GPIOB;
 493              		.loc 1 156 9 is_stmt 0 view .LVU111
 494 0120 0820     		movs	r0, #8	@,
 495              	.LVL22:
 156:user/driver/adc/adc.c ****         port = GPIOB;
 496              		.loc 1 156 9 view .LVU112
 497 0122 FFF7FEFF 		bl	RCC_APB2PeriphClockCmd		@
 498              	.LVL23:
 157:user/driver/adc/adc.c ****         break;
 499              		.loc 1 157 9 is_stmt 1 view .LVU113
 158:user/driver/adc/adc.c ****     case ADC_CHANNEL10:
ARM GAS  C:\Users\user\AppData\Local\Temp\ccH9wMRW.s 			page 42


 500              		.loc 1 158 9 view .LVU114
 501              	@ user/driver/adc/adc.c:157:         port = GPIOB;
 157:user/driver/adc/adc.c ****         break;
 502              		.loc 1 157 14 is_stmt 0 view .LVU115
 503 0126 1148     		ldr	r0, .L34+4	@ port,
 504              	@ user/driver/adc/adc.c:158:         break;
 158:user/driver/adc/adc.c ****     case ADC_CHANNEL10:
 505              		.loc 1 158 9 view .LVU116
 506 0128 DDE7     		b	.L8		@
 507              	.LVL24:
 508              	.L16:
 155:user/driver/adc/adc.c ****         RCC_APB2PeriphClockCmd(RCC_APB2Periph_GPIOB, ENABLE);
 509              		.loc 1 155 9 is_stmt 1 view .LVU117
 510              	@ user/driver/adc/adc.c:155:         gpio.GPIO_Pin = GPIO_Pin_1;
 155:user/driver/adc/adc.c ****         RCC_APB2PeriphClockCmd(RCC_APB2Periph_GPIOB, ENABLE);
 511              		.loc 1 155 23 is_stmt 0 view .LVU118
 512 012a 0223     		movs	r3, #2	@ tmp138,
 513              	@ user/driver/adc/adc.c:156:         RCC_APB2PeriphClockCmd(RCC_APB2Periph_GPIOB, ENABLE);
 156:user/driver/adc/adc.c ****         port = GPIOB;
 514              		.loc 1 156 9 view .LVU119
 515 012c 0121     		movs	r1, #1	@,
 516              	@ user/driver/adc/adc.c:155:         gpio.GPIO_Pin = GPIO_Pin_1;
 155:user/driver/adc/adc.c ****         RCC_APB2PeriphClockCmd(RCC_APB2Periph_GPIOB, ENABLE);
 517              		.loc 1 155 23 view .LVU120
 518 012e ADF80430 		strh	r3, [sp, #4]	@ movhi	@ tmp138, gpio.GPIO_Pin
 156:user/driver/adc/adc.c ****         port = GPIOB;
 519              		.loc 1 156 9 is_stmt 1 view .LVU121
 520 0132 F5E7     		b	.L33		@
 521              	.L15:
 160:user/driver/adc/adc.c ****         RCC_APB2PeriphClockCmd(RCC_APB2Periph_GPIOC, ENABLE);
 522              		.loc 1 160 9 view .LVU122
 523              	@ user/driver/adc/adc.c:160:         gpio.GPIO_Pin = GPIO_Pin_0;
 160:user/driver/adc/adc.c ****         RCC_APB2PeriphClockCmd(RCC_APB2Periph_GPIOC, ENABLE);
 524              		.loc 1 160 23 is_stmt 0 view .LVU123
 525 0134 0121     		movs	r1, #1	@ tmp140,
 526 0136 ADF80410 		strh	r1, [sp, #4]	@ movhi	@ tmp140, gpio.GPIO_Pin
 161:user/driver/adc/adc.c ****         port = GPIOC;
 527              		.loc 1 161 9 is_stmt 1 view .LVU124
 528              	.L31:
 529              	@ user/driver/adc/adc.c:186:         RCC_APB2PeriphClockCmd(RCC_APB2Periph_GPIOC, ENABLE);
 186:user/driver/adc/adc.c ****         port = GPIOC;
 530              		.loc 1 186 9 is_stmt 0 view .LVU125
 531 013a 1020     		movs	r0, #16	@,
 532              	.LVL25:
 186:user/driver/adc/adc.c ****         port = GPIOC;
 533              		.loc 1 186 9 view .LVU126
 534 013c 0CE0     		b	.L27		@
 535              	.LVL26:
 536              	.L14:
 165:user/driver/adc/adc.c ****         RCC_APB2PeriphClockCmd(RCC_APB2Periph_GPIOC, ENABLE);
 537              		.loc 1 165 9 is_stmt 1 view .LVU127
 538              	@ user/driver/adc/adc.c:165:         gpio.GPIO_Pin = GPIO_Pin_1;
 165:user/driver/adc/adc.c ****         RCC_APB2PeriphClockCmd(RCC_APB2Periph_GPIOC, ENABLE);
 539              		.loc 1 165 23 is_stmt 0 view .LVU128
 540 013e 0223     		movs	r3, #2	@ tmp142,
 541              	.L30:
 542              	@ user/driver/adc/adc.c:186:         RCC_APB2PeriphClockCmd(RCC_APB2Periph_GPIOC, ENABLE);
ARM GAS  C:\Users\user\AppData\Local\Temp\ccH9wMRW.s 			page 43


 186:user/driver/adc/adc.c ****         port = GPIOC;
 543              		.loc 1 186 9 view .LVU129
 544 0140 0121     		movs	r1, #1	@,
 545              	@ user/driver/adc/adc.c:185:         gpio.GPIO_Pin = GPIO_Pin_5;
 185:user/driver/adc/adc.c ****         RCC_APB2PeriphClockCmd(RCC_APB2Periph_GPIOC, ENABLE);
 546              		.loc 1 185 23 view .LVU130
 547 0142 ADF80430 		strh	r3, [sp, #4]	@ movhi	@ tmp150, gpio.GPIO_Pin
 186:user/driver/adc/adc.c ****         port = GPIOC;
 548              		.loc 1 186 9 is_stmt 1 view .LVU131
 549 0146 F8E7     		b	.L31		@
 550              	.L13:
 170:user/driver/adc/adc.c ****         RCC_APB2PeriphClockCmd(RCC_APB2Periph_GPIOC, ENABLE);
 551              		.loc 1 170 9 view .LVU132
 552              	@ user/driver/adc/adc.c:170:         gpio.GPIO_Pin = GPIO_Pin_2;
 170:user/driver/adc/adc.c ****         RCC_APB2PeriphClockCmd(RCC_APB2Periph_GPIOC, ENABLE);
 553              		.loc 1 170 23 is_stmt 0 view .LVU133
 554 0148 0423     		movs	r3, #4	@ tmp144,
 555 014a F9E7     		b	.L30		@
 556              	.L12:
 175:user/driver/adc/adc.c ****         RCC_APB2PeriphClockCmd(RCC_APB2Periph_GPIOC, ENABLE);
 557              		.loc 1 175 9 is_stmt 1 view .LVU134
 558              	@ user/driver/adc/adc.c:175:         gpio.GPIO_Pin = GPIO_Pin_3;
 175:user/driver/adc/adc.c ****         RCC_APB2PeriphClockCmd(RCC_APB2Periph_GPIOC, ENABLE);
 559              		.loc 1 175 23 is_stmt 0 view .LVU135
 560 014c 0823     		movs	r3, #8	@ tmp146,
 561 014e F7E7     		b	.L30		@
 562              	.L11:
 180:user/driver/adc/adc.c ****         RCC_APB2PeriphClockCmd(RCC_APB2Periph_GPIOC, ENABLE);
 563              		.loc 1 180 9 is_stmt 1 view .LVU136
 564              	@ user/driver/adc/adc.c:180:         gpio.GPIO_Pin = GPIO_Pin_4;
 180:user/driver/adc/adc.c ****         RCC_APB2PeriphClockCmd(RCC_APB2Periph_GPIOC, ENABLE);
 565              		.loc 1 180 23 is_stmt 0 view .LVU137
 566 0150 1020     		movs	r0, #16	@ tmp148,
 567              	.LVL27:
 568              	@ user/driver/adc/adc.c:181:         RCC_APB2PeriphClockCmd(RCC_APB2Periph_GPIOC, ENABLE);
 181:user/driver/adc/adc.c ****         port = GPIOC;
 569              		.loc 1 181 9 view .LVU138
 570 0152 0121     		movs	r1, #1	@,
 571              	@ user/driver/adc/adc.c:180:         gpio.GPIO_Pin = GPIO_Pin_4;
 180:user/driver/adc/adc.c ****         RCC_APB2PeriphClockCmd(RCC_APB2Periph_GPIOC, ENABLE);
 572              		.loc 1 180 23 view .LVU139
 573 0154 ADF80400 		strh	r0, [sp, #4]	@ movhi	@ tmp148, gpio.GPIO_Pin
 181:user/driver/adc/adc.c ****         port = GPIOC;
 574              		.loc 1 181 9 is_stmt 1 view .LVU140
 575              	.L27:
 576              	@ user/driver/adc/adc.c:186:         RCC_APB2PeriphClockCmd(RCC_APB2Periph_GPIOC, ENABLE);
 186:user/driver/adc/adc.c ****         port = GPIOC;
 577              		.loc 1 186 9 is_stmt 0 view .LVU141
 578 0158 FFF7FEFF 		bl	RCC_APB2PeriphClockCmd		@
 579              	.LVL28:
 187:user/driver/adc/adc.c ****         break;
 580              		.loc 1 187 9 is_stmt 1 view .LVU142
 188:user/driver/adc/adc.c ****     default:
 581              		.loc 1 188 9 view .LVU143
 582              	@ user/driver/adc/adc.c:187:         port = GPIOC;
 187:user/driver/adc/adc.c ****         break;
 583              		.loc 1 187 14 is_stmt 0 view .LVU144
ARM GAS  C:\Users\user\AppData\Local\Temp\ccH9wMRW.s 			page 44


 584 015c 0448     		ldr	r0, .L34+8	@ port,
 585              	@ user/driver/adc/adc.c:188:         break;
 188:user/driver/adc/adc.c ****     default:
 586              		.loc 1 188 9 view .LVU145
 587 015e C2E7     		b	.L8		@
 588              	.LVL29:
 589              	.L9:
 185:user/driver/adc/adc.c ****         RCC_APB2PeriphClockCmd(RCC_APB2Periph_GPIOC, ENABLE);
 590              		.loc 1 185 9 is_stmt 1 view .LVU146
 591              	@ user/driver/adc/adc.c:185:         gpio.GPIO_Pin = GPIO_Pin_5;
 185:user/driver/adc/adc.c ****         RCC_APB2PeriphClockCmd(RCC_APB2Periph_GPIOC, ENABLE);
 592              		.loc 1 185 23 is_stmt 0 view .LVU147
 593 0160 2023     		movs	r3, #32	@ tmp150,
 594 0162 EDE7     		b	.L30		@
 595              	.L26:
 596              	@ user/driver/adc/adc.c:107:     switch (id)
 107:user/driver/adc/adc.c ****     {
 597              		.loc 1 107 5 view .LVU148
 598 0164 0020     		movs	r0, #0	@ port,
 599              	.LVL30:
 107:user/driver/adc/adc.c ****     {
 600              		.loc 1 107 5 view .LVU149
 601 0166 BEE7     		b	.L8		@
 602              	.L35:
 603              		.align	2
 604              	.L34:
 605 0168 00080140 		.word	1073809408
 606 016c 000C0140 		.word	1073810432
 607 0170 00100140 		.word	1073811456
 608              		.cfi_endproc
 609              	.LFE37:
 610              		.size	AdcChannelCreate, .-AdcChannelCreate
 611              		.align	1
 612              		.global	AdcHchannel
 613              		.syntax unified
 614              		.thumb
 615              		.thumb_func
 616              		.fpu softvfp
 617              		.type	AdcHchannel, %function
 618              	AdcHchannel:
 619              	.LVL31:
 620              	.LFB39:
 195:user/driver/adc/adc.c **** 
 196:user/driver/adc/adc.c **** 
 197:user/driver/adc/adc.c **** AdcStatus AdcChannelRead(AdcChannel ch, ChannelBuffer *data)
 198:user/driver/adc/adc.c **** {
 199:user/driver/adc/adc.c ****     if (ch == NULL || data == NULL)
 200:user/driver/adc/adc.c ****         return ADC_STATUS_BAD_PTR;
 201:user/driver/adc/adc.c ****     Channel *chn = ch;
 202:user/driver/adc/adc.c ****     AdcStart(ch);
 203:user/driver/adc/adc.c ****     if (chn->data_available == true)
 204:user/driver/adc/adc.c ****     {
 205:user/driver/adc/adc.c ****         chn->data_available = false;
 206:user/driver/adc/adc.c ****         *data = chn->data;
 207:user/driver/adc/adc.c ****         return ADC_STATUS_SUCCESS;
 208:user/driver/adc/adc.c ****     }
 209:user/driver/adc/adc.c **** 
ARM GAS  C:\Users\user\AppData\Local\Temp\ccH9wMRW.s 			page 45


 210:user/driver/adc/adc.c ****     return ADC_STATUS_ERROR;
 211:user/driver/adc/adc.c **** }
 212:user/driver/adc/adc.c **** 
 213:user/driver/adc/adc.c **** uint16_t AdcHchannel(AdcChannel id)
 214:user/driver/adc/adc.c **** {
 621              		.loc 1 214 1 is_stmt 1 view -0
 622              		.cfi_startproc
 623              		@ args = 0, pretend = 0, frame = 0
 624              		@ frame_needed = 0, uses_anonymous_args = 0
 625              		@ link register save eliminated.
 215:user/driver/adc/adc.c ****     Channel *ch = (Channel *)id;
 626              		.loc 1 215 5 view .LVU151
 216:user/driver/adc/adc.c ****     switch (ch->id)
 627              		.loc 1 216 5 view .LVU152
 628              	@ user/driver/adc/adc.c:216:     switch (ch->id)
 629              		.loc 1 216 15 is_stmt 0 view .LVU153
 630 0174 0078     		ldrb	r0, [r0]	@ zero_extendqisi2	@ _1, MEM[(struct Channel *)id_4(D)].id
 631              	.LVL32:
 632              		.loc 1 216 15 view .LVU154
 633 0176 431E     		subs	r3, r0, #1	@ tmp120, _1,
 634 0178 102B     		cmp	r3, #16	@ tmp120,
 635 017a 94BF     		ite	ls
 636 017c 80B2     		uxthls	r0, r0	@ <retval>, _1
 637 017e 0020     		movhi	r0, #0	@ <retval>,
 638              	@ user/driver/adc/adc.c:276: }
 217:user/driver/adc/adc.c ****     {
 218:user/driver/adc/adc.c ****     case ADC_CHANNEL0:
 219:user/driver/adc/adc.c ****         return ADC_Channel_0;
 220:user/driver/adc/adc.c ****         break;
 221:user/driver/adc/adc.c ****     case ADC_CHANNEL1:
 222:user/driver/adc/adc.c ****         return ADC_Channel_1;
 223:user/driver/adc/adc.c ****         break;
 224:user/driver/adc/adc.c ****     case ADC_CHANNEL2:
 225:user/driver/adc/adc.c ****         return ADC_Channel_2;
 226:user/driver/adc/adc.c ****         break;
 227:user/driver/adc/adc.c ****     case ADC_CHANNEL3:
 228:user/driver/adc/adc.c ****         return ADC_Channel_3;
 229:user/driver/adc/adc.c ****         break;
 230:user/driver/adc/adc.c ****     case ADC_CHANNEL4:
 231:user/driver/adc/adc.c ****         return ADC_Channel_4;
 232:user/driver/adc/adc.c ****         break;
 233:user/driver/adc/adc.c ****     case ADC_CHANNEL5:
 234:user/driver/adc/adc.c ****         return ADC_Channel_5;
 235:user/driver/adc/adc.c ****         break;
 236:user/driver/adc/adc.c ****     case ADC_CHANNEL6:
 237:user/driver/adc/adc.c ****         return ADC_Channel_6;
 238:user/driver/adc/adc.c ****         break;
 239:user/driver/adc/adc.c ****     case ADC_CHANNEL7:
 240:user/driver/adc/adc.c ****         return ADC_Channel_7;
 241:user/driver/adc/adc.c ****         break;
 242:user/driver/adc/adc.c ****     case ADC_CHANNEL8:
 243:user/driver/adc/adc.c ****         return ADC_Channel_8;
 244:user/driver/adc/adc.c ****         break;
 245:user/driver/adc/adc.c ****     case ADC_CHANNEL9:
 246:user/driver/adc/adc.c ****         return ADC_Channel_9;
 247:user/driver/adc/adc.c ****         break;
 248:user/driver/adc/adc.c ****     case ADC_CHANNEL10:
ARM GAS  C:\Users\user\AppData\Local\Temp\ccH9wMRW.s 			page 46


 249:user/driver/adc/adc.c ****         return ADC_Channel_10;
 250:user/driver/adc/adc.c ****         break;
 251:user/driver/adc/adc.c ****     case ADC_CHANNEL11:
 252:user/driver/adc/adc.c ****         return ADC_Channel_11;
 253:user/driver/adc/adc.c ****         break;
 254:user/driver/adc/adc.c ****     case ADC_CHANNEL12:
 255:user/driver/adc/adc.c ****         return ADC_Channel_12;
 256:user/driver/adc/adc.c ****         break;
 257:user/driver/adc/adc.c ****     case ADC_CHANNEL13:
 258:user/driver/adc/adc.c ****         return ADC_Channel_13;
 259:user/driver/adc/adc.c ****         break;
 260:user/driver/adc/adc.c ****     case ADC_CHANNEL14:
 261:user/driver/adc/adc.c ****         return ADC_Channel_14;
 262:user/driver/adc/adc.c ****         break;
 263:user/driver/adc/adc.c ****     case ADC_CHANNEL15:
 264:user/driver/adc/adc.c ****         return ADC_Channel_15;
 265:user/driver/adc/adc.c ****         break;
 266:user/driver/adc/adc.c ****     case ADC_CHANNEL16:
 267:user/driver/adc/adc.c ****         return ADC_Channel_16;
 268:user/driver/adc/adc.c ****         break;
 269:user/driver/adc/adc.c ****     case ADC_CHANNEL17:
 270:user/driver/adc/adc.c ****         return ADC_Channel_17;
 271:user/driver/adc/adc.c ****         break;
 272:user/driver/adc/adc.c ****     default:
 273:user/driver/adc/adc.c ****         break;
 274:user/driver/adc/adc.c ****     }
 275:user/driver/adc/adc.c ****     return 0;
 276:user/driver/adc/adc.c **** }
 639              		.loc 1 276 1 view .LVU155
 640 0180 7047     		bx	lr	@
 641              		.cfi_endproc
 642              	.LFE39:
 643              		.size	AdcHchannel, .-AdcHchannel
 644              		.align	1
 645              		.global	AdcStart
 646              		.syntax unified
 647              		.thumb
 648              		.thumb_func
 649              		.fpu softvfp
 650              		.type	AdcStart, %function
 651              	AdcStart:
 652              	.LVL33:
 653              	.LFB35:
  74:user/driver/adc/adc.c ****     if (xSemaphoreTake(adc_man.sem_lock, 1000) == pdTRUE)
 654              		.loc 1 74 1 is_stmt 1 view -0
 655              		.cfi_startproc
 656              		@ args = 0, pretend = 0, frame = 0
 657              		@ frame_needed = 0, uses_anonymous_args = 0
  75:user/driver/adc/adc.c ****     {
 658              		.loc 1 75 5 view .LVU157
 659              	@ user/driver/adc/adc.c:75:     if (xSemaphoreTake(adc_man.sem_lock, 1000) == pdTRUE)
  75:user/driver/adc/adc.c ****     {
 660              		.loc 1 75 9 is_stmt 0 view .LVU158
 661 0182 0023     		movs	r3, #0	@,
 662              	@ user/driver/adc/adc.c:74: {
  74:user/driver/adc/adc.c ****     if (xSemaphoreTake(adc_man.sem_lock, 1000) == pdTRUE)
 663              		.loc 1 74 1 view .LVU159
ARM GAS  C:\Users\user\AppData\Local\Temp\ccH9wMRW.s 			page 47


 664 0184 70B5     		push	{r4, r5, r6, lr}	@
 665              	.LCFI6:
 666              		.cfi_def_cfa_offset 16
 667              		.cfi_offset 4, -16
 668              		.cfi_offset 5, -12
 669              		.cfi_offset 6, -8
 670              		.cfi_offset 14, -4
 671              	@ user/driver/adc/adc.c:75:     if (xSemaphoreTake(adc_man.sem_lock, 1000) == pdTRUE)
  75:user/driver/adc/adc.c ****     {
 672              		.loc 1 75 9 view .LVU160
 673 0186 234C     		ldr	r4, .L46	@ tmp123,
 674              	@ user/driver/adc/adc.c:74: {
  74:user/driver/adc/adc.c ****     if (xSemaphoreTake(adc_man.sem_lock, 1000) == pdTRUE)
 675              		.loc 1 74 1 view .LVU161
 676 0188 0546     		mov	r5, r0	@ ch, tmp150
 677              	@ user/driver/adc/adc.c:75:     if (xSemaphoreTake(adc_man.sem_lock, 1000) == pdTRUE)
  75:user/driver/adc/adc.c ****     {
 678              		.loc 1 75 9 view .LVU162
 679 018a 4FF47A72 		mov	r2, #1000	@,
 680 018e 1946     		mov	r1, r3	@,
 681 0190 6068     		ldr	r0, [r4, #4]	@, adc_man.sem_lock
 682              	.LVL34:
  75:user/driver/adc/adc.c ****     {
 683              		.loc 1 75 9 view .LVU163
 684 0192 FFF7FEFF 		bl	xQueueGenericReceive		@
 685              	.LVL35:
 686              	@ user/driver/adc/adc.c:75:     if (xSemaphoreTake(adc_man.sem_lock, 1000) == pdTRUE)
  75:user/driver/adc/adc.c ****     {
 687              		.loc 1 75 8 view .LVU164
 688 0196 0128     		cmp	r0, #1	@ _2,
 689              	@ user/driver/adc/adc.c:75:     if (xSemaphoreTake(adc_man.sem_lock, 1000) == pdTRUE)
  75:user/driver/adc/adc.c ****     {
 690              		.loc 1 75 9 view .LVU165
 691 0198 0646     		mov	r6, r0	@ _2, tmp151
 692              	@ user/driver/adc/adc.c:75:     if (xSemaphoreTake(adc_man.sem_lock, 1000) == pdTRUE)
  75:user/driver/adc/adc.c ****     {
 693              		.loc 1 75 8 view .LVU166
 694 019a 3AD1     		bne	.L39		@,
 695              	.LVL36:
 696              	.LBB16:
 697              	.LBI16:
  73:user/driver/adc/adc.c **** {
 698              		.loc 1 73 6 is_stmt 1 view .LVU167
 699              	.LBB17:
  77:user/driver/adc/adc.c ****         ADC_RegularChannelConfig(ADC1, AdcHchannel(adc_man.current_ch), 1, ADC_SampleTime_239Cycles
 700              		.loc 1 77 9 view .LVU168
 701              	@ user/driver/adc/adc.c:78:         ADC_RegularChannelConfig(ADC1, AdcHchannel(adc_man.current_ch),
  78:user/driver/adc/adc.c ****         ADC_Cmd(ADC1, ENABLE);
 702              		.loc 1 78 40 is_stmt 0 view .LVU169
 703 019c 2846     		mov	r0, r5	@, ch
 704              	@ user/driver/adc/adc.c:77:         adc_man.current_ch = ch;
  77:user/driver/adc/adc.c ****         ADC_RegularChannelConfig(ADC1, AdcHchannel(adc_man.current_ch), 1, ADC_SampleTime_239Cycles
 705              		.loc 1 77 28 view .LVU170
 706 019e 2560     		str	r5, [r4]	@ ch, adc_man.current_ch
  78:user/driver/adc/adc.c ****         ADC_Cmd(ADC1, ENABLE);
 707              		.loc 1 78 9 is_stmt 1 view .LVU171
 708              	@ user/driver/adc/adc.c:78:         ADC_RegularChannelConfig(ADC1, AdcHchannel(adc_man.current_ch),
ARM GAS  C:\Users\user\AppData\Local\Temp\ccH9wMRW.s 			page 48


  78:user/driver/adc/adc.c ****         ADC_Cmd(ADC1, ENABLE);
 709              		.loc 1 78 40 is_stmt 0 view .LVU172
 710 01a0 FFF7FEFF 		bl	AdcHchannel		@
 711              	.LVL37:
 712              	@ user/driver/adc/adc.c:78:         ADC_RegularChannelConfig(ADC1, AdcHchannel(adc_man.current_ch),
  78:user/driver/adc/adc.c ****         ADC_Cmd(ADC1, ENABLE);
 713              		.loc 1 78 9 view .LVU173
 714 01a4 3246     		mov	r2, r6	@, _2
 715 01a6 0723     		movs	r3, #7	@,
 716 01a8 C1B2     		uxtb	r1, r0	@, tmp152
 717 01aa 1B48     		ldr	r0, .L46+4	@,
 718 01ac FFF7FEFF 		bl	ADC_RegularChannelConfig		@
 719              	.LVL38:
  79:user/driver/adc/adc.c ****         adc_man.idx = 0;
 720              		.loc 1 79 9 is_stmt 1 view .LVU174
 721 01b0 3146     		mov	r1, r6	@, _2
 722 01b2 1948     		ldr	r0, .L46+4	@,
 723 01b4 FFF7FEFF 		bl	ADC_Cmd		@
 724              	.LVL39:
  80:user/driver/adc/adc.c ****         while (xSemaphoreTake(adc_man.done_lock, 0) == pdTRUE)
 725              		.loc 1 80 9 view .LVU175
 726              	@ user/driver/adc/adc.c:80:         adc_man.idx = 0;
  80:user/driver/adc/adc.c ****         while (xSemaphoreTake(adc_man.done_lock, 0) == pdTRUE)
 727              		.loc 1 80 21 is_stmt 0 view .LVU176
 728 01b8 0023     		movs	r3, #0	@ tmp131,
 729 01ba A4F88E30 		strh	r3, [r4, #142]	@ movhi	@ tmp131, adc_man.idx
  81:user/driver/adc/adc.c ****             ;
 730              		.loc 1 81 9 is_stmt 1 view .LVU177
 731              	.L42:
  82:user/driver/adc/adc.c ****         memset(&adc_man.data, 0, sizeof(ChannelBuffer));
 732              		.loc 1 82 13 view .LVU178
  81:user/driver/adc/adc.c ****             ;
 733              		.loc 1 81 15 view .LVU179
 734              	@ user/driver/adc/adc.c:81:         while (xSemaphoreTake(adc_man.done_lock, 0) == pdTRUE)
  81:user/driver/adc/adc.c ****             ;
 735              		.loc 1 81 16 is_stmt 0 view .LVU180
 736 01be 0023     		movs	r3, #0	@,
 737 01c0 A068     		ldr	r0, [r4, #8]	@, adc_man.done_lock
 738 01c2 1A46     		mov	r2, r3	@,
 739 01c4 1946     		mov	r1, r3	@,
 740 01c6 FFF7FEFF 		bl	xQueueGenericReceive		@
 741              	.LVL40:
 742              	@ user/driver/adc/adc.c:81:         while (xSemaphoreTake(adc_man.done_lock, 0) == pdTRUE)
  81:user/driver/adc/adc.c ****             ;
 743              		.loc 1 81 15 view .LVU181
 744 01ca 0128     		cmp	r0, #1	@ tmp153,
 745 01cc F7D0     		beq	.L42		@,
  83:user/driver/adc/adc.c ****         ADC_SoftwareStartConvCmd(ADC1, ENABLE);
 746              		.loc 1 83 9 is_stmt 1 view .LVU182
 747 01ce 8222     		movs	r2, #130	@,
 748 01d0 0021     		movs	r1, #0	@,
 749 01d2 1248     		ldr	r0, .L46+8	@,
 750 01d4 FFF7FEFF 		bl	memset		@
 751              	.LVL41:
  84:user/driver/adc/adc.c ****         // wait for conversion finish;
 752              		.loc 1 84 9 view .LVU183
 753 01d8 0121     		movs	r1, #1	@,
ARM GAS  C:\Users\user\AppData\Local\Temp\ccH9wMRW.s 			page 49


 754 01da 0F48     		ldr	r0, .L46+4	@,
 755 01dc FFF7FEFF 		bl	ADC_SoftwareStartConvCmd		@
 756              	.LVL42:
  86:user/driver/adc/adc.c ****         {
 757              		.loc 1 86 9 view .LVU184
 758              	@ user/driver/adc/adc.c:86:         if (xSemaphoreTake(adc_man.done_lock, 1000) == pdTRUE)
  86:user/driver/adc/adc.c ****         {
 759              		.loc 1 86 13 is_stmt 0 view .LVU185
 760 01e0 0023     		movs	r3, #0	@,
 761 01e2 4FF47A72 		mov	r2, #1000	@,
 762 01e6 1946     		mov	r1, r3	@,
 763 01e8 A068     		ldr	r0, [r4, #8]	@, adc_man.done_lock
 764 01ea FFF7FEFF 		bl	xQueueGenericReceive		@
 765              	.LVL43:
 766              	@ user/driver/adc/adc.c:86:         if (xSemaphoreTake(adc_man.done_lock, 1000) == pdTRUE)
  86:user/driver/adc/adc.c ****         {
 767              		.loc 1 86 12 view .LVU186
 768 01ee 0128     		cmp	r0, #1	@ _13,
 769              	@ user/driver/adc/adc.c:86:         if (xSemaphoreTake(adc_man.done_lock, 1000) == pdTRUE)
  86:user/driver/adc/adc.c ****         {
 770              		.loc 1 86 13 view .LVU187
 771 01f0 0646     		mov	r6, r0	@ _13, tmp154
 772              	@ user/driver/adc/adc.c:86:         if (xSemaphoreTake(adc_man.done_lock, 1000) == pdTRUE)
  86:user/driver/adc/adc.c ****         {
 773              		.loc 1 86 12 view .LVU188
 774 01f2 0ED1     		bne	.L39		@,
 775              	.LBB18:
  88:user/driver/adc/adc.c ****             chn->data = adc_man.data;
 776              		.loc 1 88 13 is_stmt 1 view .LVU189
 777              	.LVL44:
  89:user/driver/adc/adc.c ****             chn->data_available = true;
 778              		.loc 1 89 13 view .LVU190
 779              	@ user/driver/adc/adc.c:89:             chn->data = adc_man.data;
  89:user/driver/adc/adc.c ****             chn->data_available = true;
 780              		.loc 1 89 23 is_stmt 0 view .LVU191
 781 01f4 8222     		movs	r2, #130	@,
 782 01f6 0949     		ldr	r1, .L46+8	@,
 783 01f8 A81C     		adds	r0, r5, #2	@, ch,
 784 01fa FFF7FEFF 		bl	memcpy		@
 785              	.LVL45:
  90:user/driver/adc/adc.c ****             xSemaphoreGive(adc_man.sem_lock);
 786              		.loc 1 90 13 is_stmt 1 view .LVU192
 787              	@ user/driver/adc/adc.c:91:             xSemaphoreGive(adc_man.sem_lock);
  91:user/driver/adc/adc.c ****         }
 788              		.loc 1 91 13 is_stmt 0 view .LVU193
 789 01fe 0023     		movs	r3, #0	@,
 790 0200 6068     		ldr	r0, [r4, #4]	@, adc_man.sem_lock
 791              	@ user/driver/adc/adc.c:90:             chn->data_available = true;
  90:user/driver/adc/adc.c ****             xSemaphoreGive(adc_man.sem_lock);
 792              		.loc 1 90 33 view .LVU194
 793 0202 85F88460 		strb	r6, [r5, #132]	@ _13, MEM[(struct Channel *)ch_6(D)].data_available
  91:user/driver/adc/adc.c ****         }
 794              		.loc 1 91 13 is_stmt 1 view .LVU195
 795 0206 1A46     		mov	r2, r3	@,
 796              	.LBE18:
 797              	.LBE17:
 798              	.LBE16:
ARM GAS  C:\Users\user\AppData\Local\Temp\ccH9wMRW.s 			page 50


 799              	@ user/driver/adc/adc.c:94: }
  94:user/driver/adc/adc.c **** void AdcStop()
 800              		.loc 1 94 1 is_stmt 0 view .LVU196
 801 0208 BDE87040 		pop	{r4, r5, r6, lr}	@
 802              	.LCFI7:
 803              		.cfi_remember_state
 804              		.cfi_restore 14
 805              		.cfi_restore 6
 806              		.cfi_restore 5
 807              		.cfi_restore 4
 808              		.cfi_def_cfa_offset 0
 809              	.LVL46:
 810              	.LBB21:
 811              	.LBB20:
 812              	.LBB19:
 813              	@ user/driver/adc/adc.c:91:             xSemaphoreGive(adc_man.sem_lock);
  91:user/driver/adc/adc.c ****         }
 814              		.loc 1 91 13 view .LVU197
 815 020c 1946     		mov	r1, r3	@,
 816 020e FFF7FEBF 		b	xQueueGenericSend		@
 817              	.LVL47:
 818              	.L39:
 819              	.LCFI8:
 820              		.cfi_restore_state
  91:user/driver/adc/adc.c ****         }
 821              		.loc 1 91 13 view .LVU198
 822              	.LBE19:
 823              	.LBE20:
 824              	.LBE21:
 825              	@ user/driver/adc/adc.c:94: }
  94:user/driver/adc/adc.c **** void AdcStop()
 826              		.loc 1 94 1 view .LVU199
 827 0212 70BD     		pop	{r4, r5, r6, pc}	@
 828              	.LVL48:
 829              	.L47:
  94:user/driver/adc/adc.c **** void AdcStop()
 830              		.loc 1 94 1 view .LVU200
 831              		.align	2
 832              	.L46:
 833 0214 00000000 		.word	.LANCHOR0
 834 0218 00240140 		.word	1073816576
 835 021c 0C000000 		.word	.LANCHOR0+12
 836              		.cfi_endproc
 837              	.LFE35:
 838              		.size	AdcStart, .-AdcStart
 839              		.align	1
 840              		.global	AdcChannelRead
 841              		.syntax unified
 842              		.thumb
 843              		.thumb_func
 844              		.fpu softvfp
 845              		.type	AdcChannelRead, %function
 846              	AdcChannelRead:
 847              	.LVL49:
 848              	.LFB38:
 198:user/driver/adc/adc.c ****     if (ch == NULL || data == NULL)
 849              		.loc 1 198 1 is_stmt 1 view -0
ARM GAS  C:\Users\user\AppData\Local\Temp\ccH9wMRW.s 			page 51


 850              		.cfi_startproc
 851              		@ args = 0, pretend = 0, frame = 0
 852              		@ frame_needed = 0, uses_anonymous_args = 0
 199:user/driver/adc/adc.c ****         return ADC_STATUS_BAD_PTR;
 853              		.loc 1 199 5 view .LVU202
 854              	@ user/driver/adc/adc.c:198: {
 198:user/driver/adc/adc.c ****     if (ch == NULL || data == NULL)
 855              		.loc 1 198 1 is_stmt 0 view .LVU203
 856 0220 70B5     		push	{r4, r5, r6, lr}	@
 857              	.LCFI9:
 858              		.cfi_def_cfa_offset 16
 859              		.cfi_offset 4, -16
 860              		.cfi_offset 5, -12
 861              		.cfi_offset 6, -8
 862              		.cfi_offset 14, -4
 863              	@ user/driver/adc/adc.c:198: {
 198:user/driver/adc/adc.c ****     if (ch == NULL || data == NULL)
 864              		.loc 1 198 1 view .LVU204
 865 0222 0E46     		mov	r6, r1	@ data, tmp126
 866              	@ user/driver/adc/adc.c:199:     if (ch == NULL || data == NULL)
 199:user/driver/adc/adc.c ****         return ADC_STATUS_BAD_PTR;
 867              		.loc 1 199 8 view .LVU205
 868 0224 0546     		mov	r5, r0	@ ch, tmp125
 869 0226 78B1     		cbz	r0, .L51	@ ch,
 870              	@ user/driver/adc/adc.c:199:     if (ch == NULL || data == NULL)
 199:user/driver/adc/adc.c ****         return ADC_STATUS_BAD_PTR;
 871              		.loc 1 199 20 discriminator 1 view .LVU206
 872 0228 71B1     		cbz	r1, .L51	@ data,
 201:user/driver/adc/adc.c ****     AdcStart(ch);
 873              		.loc 1 201 5 is_stmt 1 view .LVU207
 874              	.LVL50:
 202:user/driver/adc/adc.c ****     if (chn->data_available == true)
 875              		.loc 1 202 5 view .LVU208
 876 022a FFF7FEFF 		bl	AdcStart		@
 877              	.LVL51:
 203:user/driver/adc/adc.c ****     {
 878              		.loc 1 203 5 view .LVU209
 879              	@ user/driver/adc/adc.c:203:     if (chn->data_available == true)
 203:user/driver/adc/adc.c ****     {
 880              		.loc 1 203 8 is_stmt 0 view .LVU210
 881 022e 95F88430 		ldrb	r3, [r5, #132]	@ zero_extendqisi2	@ MEM[(struct Channel *)ch_4(D)].data_available, MEM[(struc
 882 0232 5BB1     		cbz	r3, .L52	@ MEM[(struct Channel *)ch_4(D)].data_available,
 205:user/driver/adc/adc.c ****         *data = chn->data;
 883              		.loc 1 205 9 is_stmt 1 view .LVU211
 884              	@ user/driver/adc/adc.c:205:         chn->data_available = false;
 205:user/driver/adc/adc.c ****         *data = chn->data;
 885              		.loc 1 205 29 is_stmt 0 view .LVU212
 886 0234 0024     		movs	r4, #0	@ tmp118,
 887              	@ user/driver/adc/adc.c:206:         *data = chn->data;
 206:user/driver/adc/adc.c ****         return ADC_STATUS_SUCCESS;
 888              		.loc 1 206 15 view .LVU213
 889 0236 8222     		movs	r2, #130	@,
 890 0238 3046     		mov	r0, r6	@, data
 891              	@ user/driver/adc/adc.c:205:         chn->data_available = false;
 205:user/driver/adc/adc.c ****         *data = chn->data;
 892              		.loc 1 205 29 view .LVU214
 893 023a 85F88440 		strb	r4, [r5, #132]	@ tmp118, MEM[(struct Channel *)ch_4(D)].data_available
ARM GAS  C:\Users\user\AppData\Local\Temp\ccH9wMRW.s 			page 52


 206:user/driver/adc/adc.c ****         return ADC_STATUS_SUCCESS;
 894              		.loc 1 206 9 is_stmt 1 view .LVU215
 895              	@ user/driver/adc/adc.c:206:         *data = chn->data;
 206:user/driver/adc/adc.c ****         return ADC_STATUS_SUCCESS;
 896              		.loc 1 206 15 is_stmt 0 view .LVU216
 897 023e A91C     		adds	r1, r5, #2	@, ch,
 898 0240 FFF7FEFF 		bl	memcpy		@
 899              	.LVL52:
 207:user/driver/adc/adc.c ****     }
 900              		.loc 1 207 9 is_stmt 1 view .LVU217
 901              	@ user/driver/adc/adc.c:207:         return ADC_STATUS_SUCCESS;
 207:user/driver/adc/adc.c ****     }
 902              		.loc 1 207 16 is_stmt 0 view .LVU218
 903 0244 2046     		mov	r0, r4	@ <retval>, tmp118
 904              	.LVL53:
 905              	.L49:
 906              	@ user/driver/adc/adc.c:211: }
 211:user/driver/adc/adc.c **** 
 907              		.loc 1 211 1 view .LVU219
 908 0246 70BD     		pop	{r4, r5, r6, pc}	@
 909              	.LVL54:
 910              	.L51:
 911              	@ user/driver/adc/adc.c:200:         return ADC_STATUS_BAD_PTR;
 200:user/driver/adc/adc.c ****     Channel *chn = ch;
 912              		.loc 1 200 16 view .LVU220
 913 0248 0220     		movs	r0, #2	@ <retval>,
 914              	.LVL55:
 200:user/driver/adc/adc.c ****     Channel *chn = ch;
 915              		.loc 1 200 16 view .LVU221
 916 024a FCE7     		b	.L49		@
 917              	.LVL56:
 918              	.L52:
 919              	@ user/driver/adc/adc.c:210:     return ADC_STATUS_ERROR;
 210:user/driver/adc/adc.c **** }
 920              		.loc 1 210 12 view .LVU222
 921 024c 0120     		movs	r0, #1	@ <retval>,
 922 024e FAE7     		b	.L49		@
 923              		.cfi_endproc
 924              	.LFE38:
 925              		.size	AdcChannelRead, .-AdcChannelRead
 926              		.align	1
 927              		.global	ADC1_2_IRQHandler
 928              		.syntax unified
 929              		.thumb
 930              		.thumb_func
 931              		.fpu softvfp
 932              		.type	ADC1_2_IRQHandler, %function
 933              	ADC1_2_IRQHandler:
 934              	.LFB40:
 277:user/driver/adc/adc.c **** 
 278:user/driver/adc/adc.c **** void ADC1_2_IRQHandler()
 279:user/driver/adc/adc.c **** {
 935              		.loc 1 279 1 is_stmt 1 view -0
 936              		.cfi_startproc
 937              		@ args = 0, pretend = 0, frame = 8
 938              		@ frame_needed = 0, uses_anonymous_args = 0
 280:user/driver/adc/adc.c ****     BaseType_t high_ptask_token;
ARM GAS  C:\Users\user\AppData\Local\Temp\ccH9wMRW.s 			page 53


 939              		.loc 1 280 5 view .LVU224
 281:user/driver/adc/adc.c ****     if (ADC_GetITStatus(ADC1, ADC_IT_EOC))
 940              		.loc 1 281 5 view .LVU225
 941              	@ user/driver/adc/adc.c:279: {
 279:user/driver/adc/adc.c ****     BaseType_t high_ptask_token;
 942              		.loc 1 279 1 is_stmt 0 view .LVU226
 943 0250 13B5     		push	{r0, r1, r4, lr}	@
 944              	.LCFI10:
 945              		.cfi_def_cfa_offset 16
 946              		.cfi_offset 4, -8
 947              		.cfi_offset 14, -4
 948              	@ user/driver/adc/adc.c:281:     if (ADC_GetITStatus(ADC1, ADC_IT_EOC))
 949              		.loc 1 281 9 view .LVU227
 950 0252 4FF40871 		mov	r1, #544	@,
 951 0256 1B48     		ldr	r0, .L65	@,
 952 0258 FFF7FEFF 		bl	ADC_GetITStatus		@
 953              	.LVL57:
 954              	@ user/driver/adc/adc.c:281:     if (ADC_GetITStatus(ADC1, ADC_IT_EOC))
 955              		.loc 1 281 8 view .LVU228
 956 025c F8B1     		cbz	r0, .L55	@ tmp149,
 957              	.LBB22:
 282:user/driver/adc/adc.c ****     {
 283:user/driver/adc/adc.c ****         ADC_ClearITPendingBit(ADC1, ADC_IT_EOC);
 958              		.loc 1 283 9 is_stmt 1 view .LVU229
 959 025e 4FF40871 		mov	r1, #544	@,
 960 0262 1848     		ldr	r0, .L65	@,
 961 0264 FFF7FEFF 		bl	ADC_ClearITPendingBit		@
 962              	.LVL58:
 284:user/driver/adc/adc.c ****         uint16_t adc_data = ADC_GetConversionValue(ADC1);
 963              		.loc 1 284 9 view .LVU230
 964              	@ user/driver/adc/adc.c:284:         uint16_t adc_data = ADC_GetConversionValue(ADC1);
 965              		.loc 1 284 29 is_stmt 0 view .LVU231
 966 0268 1648     		ldr	r0, .L65	@,
 967 026a FFF7FEFF 		bl	ADC_GetConversionValue		@
 968              	.LVL59:
 285:user/driver/adc/adc.c ****         if (adc_man.current_ch != NULL)
 969              		.loc 1 285 9 is_stmt 1 view .LVU232
 970              	@ user/driver/adc/adc.c:285:         if (adc_man.current_ch != NULL)
 971              		.loc 1 285 20 is_stmt 0 view .LVU233
 972 026e 164B     		ldr	r3, .L65+4	@ tmp127,
 973 0270 1C68     		ldr	r4, [r3]	@ _2, adc_man.current_ch
 974              	@ user/driver/adc/adc.c:285:         if (adc_man.current_ch != NULL)
 975              		.loc 1 285 12 view .LVU234
 976 0272 A4B1     		cbz	r4, .L55	@ _2,
 977              	.LBB23:
 286:user/driver/adc/adc.c ****         {
 287:user/driver/adc/adc.c ****             Channel *cptr = adc_man.current_ch;
 978              		.loc 1 287 13 is_stmt 1 view .LVU235
 979              	.LVL60:
 288:user/driver/adc/adc.c ****             adc_man.data.buffer[adc_man.idx++] = adc_data;
 980              		.loc 1 288 13 view .LVU236
 981              	@ user/driver/adc/adc.c:288:             adc_man.data.buffer[adc_man.idx++] = adc_data;
 982              		.loc 1 288 40 is_stmt 0 view .LVU237
 983 0274 B3F88E10 		ldrh	r1, [r3, #142]	@ _3, adc_man.idx
 984              	@ user/driver/adc/adc.c:288:             adc_man.data.buffer[adc_man.idx++] = adc_data;
 985              		.loc 1 288 44 view .LVU238
 986 0278 4A1C     		adds	r2, r1, #1	@ tmp129, _3,
ARM GAS  C:\Users\user\AppData\Local\Temp\ccH9wMRW.s 			page 54


 987 027a 92B2     		uxth	r2, r2	@ _4, tmp129
 988              	@ user/driver/adc/adc.c:288:             adc_man.data.buffer[adc_man.idx++] = adc_data;
 989              		.loc 1 288 48 view .LVU239
 990 027c 03EB4101 		add	r1, r3, r1, lsl #1	@ tmp134, tmp127, _3,
 991              	@ user/driver/adc/adc.c:289:             if (adc_man.idx >= ADC_BUFFER_MAX)
 289:user/driver/adc/adc.c ****             if (adc_man.idx >= ADC_BUFFER_MAX)
 992              		.loc 1 289 16 view .LVU240
 993 0280 3F2A     		cmp	r2, #63	@ _4,
 994              	@ user/driver/adc/adc.c:288:             adc_man.data.buffer[adc_man.idx++] = adc_data;
 288:user/driver/adc/adc.c ****             adc_man.data.buffer[adc_man.idx++] = adc_data;
 995              		.loc 1 288 44 view .LVU241
 996 0282 A3F88E20 		strh	r2, [r3, #142]	@ movhi	@ _4, adc_man.idx
 997              	@ user/driver/adc/adc.c:288:             adc_man.data.buffer[adc_man.idx++] = adc_data;
 288:user/driver/adc/adc.c ****             adc_man.data.buffer[adc_man.idx++] = adc_data;
 998              		.loc 1 288 48 view .LVU242
 999 0286 C881     		strh	r0, [r1, #14]	@ movhi	@ tmp126, adc_man.data.buffer[_5]
 1000              		.loc 1 289 13 is_stmt 1 view .LVU243
 1001              	@ user/driver/adc/adc.c:289:             if (adc_man.idx >= ADC_BUFFER_MAX)
 1002              		.loc 1 289 16 is_stmt 0 view .LVU244
 1003 0288 17D9     		bls	.L57		@,
 290:user/driver/adc/adc.c ****             {
 291:user/driver/adc/adc.c ****                 adc_man.data.id = cptr->id;
 1004              		.loc 1 291 17 is_stmt 1 view .LVU245
 1005              	@ user/driver/adc/adc.c:291:                 adc_man.data.id = cptr->id;
 1006              		.loc 1 291 33 is_stmt 0 view .LVU246
 1007 028a 2278     		ldrb	r2, [r4]	@ zero_extendqisi2	@ MEM[(struct Channel *)_2].id, MEM[(struct Channel *)_2].id
 1008              	@ user/driver/adc/adc.c:292:                 xSemaphoreGiveFromISR(adc_man.done_lock, &high_ptask_t
 292:user/driver/adc/adc.c ****                 xSemaphoreGiveFromISR(adc_man.done_lock, &high_ptask_token);
 1009              		.loc 1 292 17 view .LVU247
 1010 028c 01A9     		add	r1, sp, #4	@,,
 1011 028e 9868     		ldr	r0, [r3, #8]	@, adc_man.done_lock
 1012              	.LVL61:
 1013              	@ user/driver/adc/adc.c:291:                 adc_man.data.id = cptr->id;
 291:user/driver/adc/adc.c ****                 xSemaphoreGiveFromISR(adc_man.done_lock, &high_ptask_token);
 1014              		.loc 1 291 33 view .LVU248
 1015 0290 1A73     		strb	r2, [r3, #12]	@ MEM[(struct Channel *)_2].id, adc_man.data.id
 1016              		.loc 1 292 17 is_stmt 1 view .LVU249
 1017 0292 FFF7FEFF 		bl	xQueueGiveFromISR		@
 1018              	.LVL62:
 293:user/driver/adc/adc.c ****                 ADC_Cmd(ADC1, DISABLE);
 1019              		.loc 1 293 17 view .LVU250
 1020 0296 0021     		movs	r1, #0	@,
 1021 0298 0A48     		ldr	r0, .L65	@,
 1022 029a FFF7FEFF 		bl	ADC_Cmd		@
 1023              	.LVL63:
 1024              	.L55:
 1025              		.loc 1 293 17 is_stmt 0 view .LVU251
 1026              	.LBE23:
 1027              	.LBE22:
 294:user/driver/adc/adc.c ****             }
 295:user/driver/adc/adc.c ****             else
 296:user/driver/adc/adc.c ****             {
 297:user/driver/adc/adc.c ****                 ADC_SoftwareStartConvCmd(ADC1, ENABLE);
 298:user/driver/adc/adc.c ****             }
 299:user/driver/adc/adc.c ****         }
 300:user/driver/adc/adc.c ****     }
 301:user/driver/adc/adc.c ****     portYIELD_FROM_ISR(high_ptask_token);
ARM GAS  C:\Users\user\AppData\Local\Temp\ccH9wMRW.s 			page 55


 1028              		.loc 1 301 5 is_stmt 1 view .LVU252
 1029 029e 019B     		ldr	r3, [sp, #4]	@ high_ptask_token, high_ptask_token
 1030 02a0 4BB1     		cbz	r3, .L53	@ high_ptask_token,
 1031              		.loc 1 301 5 discriminator 1 view .LVU253
 1032 02a2 4FF0E023 		mov	r3, #-536813568	@ tmp147,
 1033 02a6 4FF08052 		mov	r2, #268435456	@ tmp148,
 1034 02aa C3F8042D 		str	r2, [r3, #3332]	@ tmp148, MEM[(volatile uint32_t *)3758157060B]
 1035              		.loc 1 301 5 discriminator 1 view .LVU254
 1036              		.syntax unified
 1037              	@ 301 "user/driver/adc/adc.c" 1
 1038 02ae BFF34F8F 		dsb
 1039              	@ 0 "" 2
 1040              		.loc 1 301 5 discriminator 1 view .LVU255
 1041              	@ 301 "user/driver/adc/adc.c" 1
 1042 02b2 BFF36F8F 		isb
 1043              	@ 0 "" 2
 1044              		.loc 1 301 41 discriminator 1 view .LVU256
 1045              		.thumb
 1046              		.syntax unified
 1047              	.L53:
 1048              	@ user/driver/adc/adc.c:302: }
 302:user/driver/adc/adc.c **** }...
 1049              		.loc 1 302 1 is_stmt 0 view .LVU257
 1050 02b6 02B0     		add	sp, sp, #8	@,,
 1051              	.LCFI11:
 1052              		.cfi_remember_state
 1053              		.cfi_def_cfa_offset 8
 1054              		@ sp needed	@
 1055 02b8 10BD     		pop	{r4, pc}	@
 1056              	.LVL64:
 1057              	.L57:
 1058              	.LCFI12:
 1059              		.cfi_restore_state
 1060              	.LBB25:
 1061              	.LBB24:
 297:user/driver/adc/adc.c ****                 ADC_SoftwareStartConvCmd(ADC1, ENABLE);
 1062              		.loc 1 297 17 is_stmt 1 view .LVU258
 1063 02ba 0121     		movs	r1, #1	@,
 1064 02bc 0148     		ldr	r0, .L65	@,
 1065              	.LVL65:
 297:user/driver/adc/adc.c ****                 ADC_SoftwareStartConvCmd(ADC1, ENABLE);
 1066              		.loc 1 297 17 is_stmt 0 view .LVU259
 1067 02be FFF7FEFF 		bl	ADC_SoftwareStartConvCmd		@
 1068              	.LVL66:
 297:user/driver/adc/adc.c ****                 ADC_SoftwareStartConvCmd(ADC1, ENABLE);
 1069              		.loc 1 297 17 view .LVU260
 1070 02c2 ECE7     		b	.L55		@
 1071              	.L66:
 1072              		.align	2
 1073              	.L65:
 1074 02c4 00240140 		.word	1073816576
 1075 02c8 00000000 		.word	.LANCHOR0
 1076              	.LBE24:
 1077              	.LBE25:
 1078              		.cfi_endproc
 1079              	.LFE40:
 1080              		.size	ADC1_2_IRQHandler, .-ADC1_2_IRQHandler
ARM GAS  C:\Users\user\AppData\Local\Temp\ccH9wMRW.s 			page 56


 1081              		.global	adc_man
 1082              		.bss
 1083              		.align	2
 1084              		.set	.LANCHOR0,. + 0
 1085              		.type	adc_man, %object
 1086              		.size	adc_man, 144
 1087              	adc_man:
 1088 0000 00000000 		.space	144
 1088      00000000 
 1088      00000000 
 1088      00000000 
 1088      00000000 
 1089              		.text
 1090              	.Letext0:
 1091              		.file 3 "c:\\program files (x86)\\gnu arm embedded toolchain\\10 2021.07\\arm-none-eabi\\include\\
 1092              		.file 4 "c:\\program files (x86)\\gnu arm embedded toolchain\\10 2021.07\\arm-none-eabi\\include\\
 1093              		.file 5 "user/driver/adc/adc.h"
 1094              		.file 6 "./stm32f10x_libraries/CMSIS/CM3/DeviceSupport/ST/STM32F10x/stm32f10x.h"
 1095              		.file 7 "./stm32f10x_libraries/STM32F10x_StdPeriph_Driver/inc/stm32f10x_adc.h"
 1096              		.file 8 "./stm32f10x_libraries/STM32F10x_StdPeriph_Driver/inc/stm32f10x_gpio.h"
 1097              		.file 9 "./freertos/portable/GCC/ARM_CM3/portmacro.h"
 1098              		.file 10 "./freertos/include/queue.h"
 1099              		.file 11 "./freertos/include/semphr.h"
 1100              		.file 12 "./freertos/include/portable.h"
 1101              		.file 13 "./stm32f10x_libraries/STM32F10x_StdPeriph_Driver/inc/stm32f10x_rcc.h"
 1102              		.file 14 "<built-in>"
 1103              		.section	.debug_info,"",%progbits
 1104              	.Ldebug_info0:
 1105 0000 BF110000 		.4byte	0x11bf
 1106 0004 0200     		.2byte	0x2
 1107 0006 00000000 		.4byte	.Ldebug_abbrev0
 1108 000a 04       		.byte	0x4
 1109 000b 01       		.uleb128 0x1
 1110 000c A7090000 		.4byte	.LASF235
 1111 0010 0C       		.byte	0xc
 1112 0011 95000000 		.4byte	.LASF236
 1113 0015 9B0A0000 		.4byte	.LASF237
 1114 0019 00000000 		.4byte	.Ltext0
 1115 001d CC020000 		.4byte	.Letext0
 1116 0021 00000000 		.4byte	.Ldebug_line0
 1117 0025 02       		.uleb128 0x2
 1118 0026 01       		.byte	0x1
 1119 0027 06       		.byte	0x6
 1120 0028 0D020000 		.4byte	.LASF0
 1121 002c 03       		.uleb128 0x3
 1122 002d E8000000 		.4byte	.LASF3
 1123 0031 03       		.byte	0x3
 1124 0032 2B       		.byte	0x2b
 1125 0033 18       		.byte	0x18
 1126 0034 38000000 		.4byte	0x38
 1127 0038 02       		.uleb128 0x2
 1128 0039 01       		.byte	0x1
 1129 003a 08       		.byte	0x8
 1130 003b 3C020000 		.4byte	.LASF1
 1131 003f 02       		.uleb128 0x2
 1132 0040 02       		.byte	0x2
 1133 0041 05       		.byte	0x5
ARM GAS  C:\Users\user\AppData\Local\Temp\ccH9wMRW.s 			page 57


 1134 0042 4A090000 		.4byte	.LASF2
 1135 0046 03       		.uleb128 0x3
 1136 0047 47030000 		.4byte	.LASF4
 1137 004b 03       		.byte	0x3
 1138 004c 39       		.byte	0x39
 1139 004d 19       		.byte	0x19
 1140 004e 52000000 		.4byte	0x52
 1141 0052 02       		.uleb128 0x2
 1142 0053 02       		.byte	0x2
 1143 0054 07       		.byte	0x7
 1144 0055 3B0B0000 		.4byte	.LASF5
 1145 0059 02       		.uleb128 0x2
 1146 005a 04       		.byte	0x4
 1147 005b 05       		.byte	0x5
 1148 005c 7D010000 		.4byte	.LASF6
 1149 0060 03       		.uleb128 0x3
 1150 0061 05060000 		.4byte	.LASF7
 1151 0065 03       		.byte	0x3
 1152 0066 4F       		.byte	0x4f
 1153 0067 19       		.byte	0x19
 1154 0068 6C000000 		.4byte	0x6c
 1155 006c 02       		.uleb128 0x2
 1156 006d 04       		.byte	0x4
 1157 006e 07       		.byte	0x7
 1158 006f 71040000 		.4byte	.LASF8
 1159 0073 02       		.uleb128 0x2
 1160 0074 08       		.byte	0x8
 1161 0075 05       		.byte	0x5
 1162 0076 31060000 		.4byte	.LASF9
 1163 007a 02       		.uleb128 0x2
 1164 007b 08       		.byte	0x8
 1165 007c 07       		.byte	0x7
 1166 007d DE070000 		.4byte	.LASF10
 1167 0081 04       		.uleb128 0x4
 1168 0082 04       		.byte	0x4
 1169 0083 05       		.byte	0x5
 1170 0084 696E7400 		.ascii	"int\000"
 1171 0088 02       		.uleb128 0x2
 1172 0089 04       		.byte	0x4
 1173 008a 07       		.byte	0x7
 1174 008b DE060000 		.4byte	.LASF11
 1175 008f 03       		.uleb128 0x3
 1176 0090 19020000 		.4byte	.LASF12
 1177 0094 04       		.byte	0x4
 1178 0095 18       		.byte	0x18
 1179 0096 13       		.byte	0x13
 1180 0097 2C000000 		.4byte	0x2c
 1181 009b 05       		.uleb128 0x5
 1182 009c 8F000000 		.4byte	0x8f
 1183 00a0 03       		.uleb128 0x3
 1184 00a1 F5070000 		.4byte	.LASF13
 1185 00a5 04       		.byte	0x4
 1186 00a6 24       		.byte	0x24
 1187 00a7 14       		.byte	0x14
 1188 00a8 46000000 		.4byte	0x46
 1189 00ac 03       		.uleb128 0x3
 1190 00ad BB0A0000 		.4byte	.LASF14
ARM GAS  C:\Users\user\AppData\Local\Temp\ccH9wMRW.s 			page 58


 1191 00b1 04       		.byte	0x4
 1192 00b2 30       		.byte	0x30
 1193 00b3 14       		.byte	0x14
 1194 00b4 60000000 		.4byte	0x60
 1195 00b8 05       		.uleb128 0x5
 1196 00b9 AC000000 		.4byte	0xac
 1197 00bd 06       		.uleb128 0x6
 1198 00be B8000000 		.4byte	0xb8
 1199 00c2 02       		.uleb128 0x2
 1200 00c3 08       		.byte	0x8
 1201 00c4 04       		.byte	0x4
 1202 00c5 92070000 		.4byte	.LASF15
 1203 00c9 07       		.uleb128 0x7
 1204 00ca 04       		.byte	0x4
 1205 00cb 02       		.uleb128 0x2
 1206 00cc 01       		.byte	0x1
 1207 00cd 08       		.byte	0x8
 1208 00ce 01030000 		.4byte	.LASF16
 1209 00d2 03       		.uleb128 0x3
 1210 00d3 06080000 		.4byte	.LASF17
 1211 00d7 05       		.byte	0x5
 1212 00d8 0B       		.byte	0xb
 1213 00d9 10       		.byte	0x10
 1214 00da C9000000 		.4byte	0xc9
 1215 00de 08       		.uleb128 0x8
 1216 00df 07       		.byte	0x7
 1217 00e0 01       		.byte	0x1
 1218 00e1 38000000 		.4byte	0x38
 1219 00e5 05       		.byte	0x5
 1220 00e6 0F       		.byte	0xf
 1221 00e7 01       		.byte	0x1
 1222 00e8 59010000 		.4byte	0x159
 1223 00ec 09       		.uleb128 0x9
 1224 00ed 83050000 		.4byte	.LASF18
 1225 00f1 00       		.byte	0
 1226 00f2 09       		.uleb128 0x9
 1227 00f3 90050000 		.4byte	.LASF19
 1228 00f7 01       		.byte	0x1
 1229 00f8 09       		.uleb128 0x9
 1230 00f9 9D050000 		.4byte	.LASF20
 1231 00fd 02       		.byte	0x2
 1232 00fe 09       		.uleb128 0x9
 1233 00ff AA050000 		.4byte	.LASF21
 1234 0103 03       		.byte	0x3
 1235 0104 09       		.uleb128 0x9
 1236 0105 B7050000 		.4byte	.LASF22
 1237 0109 04       		.byte	0x4
 1238 010a 09       		.uleb128 0x9
 1239 010b C4050000 		.4byte	.LASF23
 1240 010f 05       		.byte	0x5
 1241 0110 09       		.uleb128 0x9
 1242 0111 D1050000 		.4byte	.LASF24
 1243 0115 06       		.byte	0x6
 1244 0116 09       		.uleb128 0x9
 1245 0117 DE050000 		.4byte	.LASF25
 1246 011b 07       		.byte	0x7
 1247 011c 09       		.uleb128 0x9
ARM GAS  C:\Users\user\AppData\Local\Temp\ccH9wMRW.s 			page 59


 1248 011d EB050000 		.4byte	.LASF26
 1249 0121 08       		.byte	0x8
 1250 0122 09       		.uleb128 0x9
 1251 0123 F8050000 		.4byte	.LASF27
 1252 0127 09       		.byte	0x9
 1253 0128 09       		.uleb128 0x9
 1254 0129 FC000000 		.4byte	.LASF28
 1255 012d 0A       		.byte	0xa
 1256 012e 09       		.uleb128 0x9
 1257 012f 0A010000 		.4byte	.LASF29
 1258 0133 0B       		.byte	0xb
 1259 0134 09       		.uleb128 0x9
 1260 0135 18010000 		.4byte	.LASF30
 1261 0139 0C       		.byte	0xc
 1262 013a 09       		.uleb128 0x9
 1263 013b 26010000 		.4byte	.LASF31
 1264 013f 0D       		.byte	0xd
 1265 0140 09       		.uleb128 0x9
 1266 0141 34010000 		.4byte	.LASF32
 1267 0145 0E       		.byte	0xe
 1268 0146 09       		.uleb128 0x9
 1269 0147 42010000 		.4byte	.LASF33
 1270 014b 0F       		.byte	0xf
 1271 014c 09       		.uleb128 0x9
 1272 014d 50010000 		.4byte	.LASF34
 1273 0151 10       		.byte	0x10
 1274 0152 09       		.uleb128 0x9
 1275 0153 5E010000 		.4byte	.LASF35
 1276 0157 11       		.byte	0x11
 1277 0158 00       		.byte	0
 1278 0159 03       		.uleb128 0x3
 1279 015a AD060000 		.4byte	.LASF36
 1280 015e 05       		.byte	0x5
 1281 015f 22       		.byte	0x22
 1282 0160 02       		.byte	0x2
 1283 0161 DE000000 		.4byte	0xde
 1284 0165 08       		.uleb128 0x8
 1285 0166 07       		.byte	0x7
 1286 0167 01       		.byte	0x1
 1287 0168 38000000 		.4byte	0x38
 1288 016c 05       		.byte	0x5
 1289 016d 26       		.byte	0x26
 1290 016e 01       		.byte	0x1
 1291 016f 8C010000 		.4byte	0x18c
 1292 0173 09       		.uleb128 0x9
 1293 0174 6F070000 		.4byte	.LASF37
 1294 0178 00       		.byte	0
 1295 0179 09       		.uleb128 0x9
 1296 017a 0E0B0000 		.4byte	.LASF38
 1297 017e 01       		.byte	0x1
 1298 017f 09       		.uleb128 0x9
 1299 0180 E7040000 		.4byte	.LASF39
 1300 0184 02       		.byte	0x2
 1301 0185 09       		.uleb128 0x9
 1302 0186 81060000 		.4byte	.LASF40
 1303 018a 03       		.byte	0x3
 1304 018b 00       		.byte	0
ARM GAS  C:\Users\user\AppData\Local\Temp\ccH9wMRW.s 			page 60


 1305 018c 03       		.uleb128 0x3
 1306 018d 9E020000 		.4byte	.LASF41
 1307 0191 05       		.byte	0x5
 1308 0192 2B       		.byte	0x2b
 1309 0193 02       		.byte	0x2
 1310 0194 65010000 		.4byte	0x165
 1311 0198 0A       		.uleb128 0xa
 1312 0199 82       		.byte	0x82
 1313 019a 05       		.byte	0x5
 1314 019b 2E       		.byte	0x2e
 1315 019c 09       		.byte	0x9
 1316 019d BF010000 		.4byte	0x1bf
 1317 01a1 0B       		.uleb128 0xb
 1318 01a2 696400   		.ascii	"id\000"
 1319 01a5 05       		.byte	0x5
 1320 01a6 30       		.byte	0x30
 1321 01a7 12       		.byte	0x12
 1322 01a8 59010000 		.4byte	0x159
 1323 01ac 02       		.byte	0x2
 1324 01ad 23       		.byte	0x23
 1325 01ae 00       		.uleb128 0
 1326 01af 0C       		.uleb128 0xc
 1327 01b0 EC030000 		.4byte	.LASF42
 1328 01b4 05       		.byte	0x5
 1329 01b5 31       		.byte	0x31
 1330 01b6 0E       		.byte	0xe
 1331 01b7 BF010000 		.4byte	0x1bf
 1332 01bb 02       		.byte	0x2
 1333 01bc 23       		.byte	0x23
 1334 01bd 02       		.uleb128 0x2
 1335 01be 00       		.byte	0
 1336 01bf 0D       		.uleb128 0xd
 1337 01c0 A0000000 		.4byte	0xa0
 1338 01c4 CF010000 		.4byte	0x1cf
 1339 01c8 0E       		.uleb128 0xe
 1340 01c9 88000000 		.4byte	0x88
 1341 01cd 3F       		.byte	0x3f
 1342 01ce 00       		.byte	0
 1343 01cf 03       		.uleb128 0x3
 1344 01d0 7C090000 		.4byte	.LASF43
 1345 01d4 05       		.byte	0x5
 1346 01d5 32       		.byte	0x32
 1347 01d6 02       		.byte	0x2
 1348 01d7 98010000 		.4byte	0x198
 1349 01db 0F       		.uleb128 0xf
 1350 01dc B7010000 		.4byte	.LASF212
 1351 01e0 05       		.byte	0x5
 1352 01e1 01       		.byte	0x1
 1353 01e2 25000000 		.4byte	0x25
 1354 01e6 06       		.byte	0x6
 1355 01e7 A7       		.byte	0xa7
 1356 01e8 0E       		.byte	0xe
 1357 01e9 8C030000 		.4byte	0x38c
 1358 01ed 10       		.uleb128 0x10
 1359 01ee 53040000 		.4byte	.LASF44
 1360 01f2 72       		.sleb128 -14
 1361 01f3 10       		.uleb128 0x10
ARM GAS  C:\Users\user\AppData\Local\Temp\ccH9wMRW.s 			page 61


 1362 01f4 A6040000 		.4byte	.LASF45
 1363 01f8 74       		.sleb128 -12
 1364 01f9 10       		.uleb128 0x10
 1365 01fa 6A050000 		.4byte	.LASF46
 1366 01fe 75       		.sleb128 -11
 1367 01ff 10       		.uleb128 0x10
 1368 0200 F1020000 		.4byte	.LASF47
 1369 0204 76       		.sleb128 -10
 1370 0205 10       		.uleb128 0x10
 1371 0206 63060000 		.4byte	.LASF48
 1372 020a 7B       		.sleb128 -5
 1373 020b 10       		.uleb128 0x10
 1374 020c EA080000 		.4byte	.LASF49
 1375 0210 7C       		.sleb128 -4
 1376 0211 10       		.uleb128 0x10
 1377 0212 5E0B0000 		.4byte	.LASF50
 1378 0216 7E       		.sleb128 -2
 1379 0217 10       		.uleb128 0x10
 1380 0218 D4010000 		.4byte	.LASF51
 1381 021c 7F       		.sleb128 -1
 1382 021d 09       		.uleb128 0x9
 1383 021e 67040000 		.4byte	.LASF52
 1384 0222 00       		.byte	0
 1385 0223 09       		.uleb128 0x9
 1386 0224 93080000 		.4byte	.LASF53
 1387 0228 01       		.byte	0x1
 1388 0229 09       		.uleb128 0x9
 1389 022a AB010000 		.4byte	.LASF54
 1390 022e 02       		.byte	0x2
 1391 022f 09       		.uleb128 0x9
 1392 0230 BF0B0000 		.4byte	.LASF55
 1393 0234 03       		.byte	0x3
 1394 0235 09       		.uleb128 0x9
 1395 0236 8A000000 		.4byte	.LASF56
 1396 023a 04       		.byte	0x4
 1397 023b 09       		.uleb128 0x9
 1398 023c 54090000 		.4byte	.LASF57
 1399 0240 05       		.byte	0x5
 1400 0241 09       		.uleb128 0x9
 1401 0242 A1080000 		.4byte	.LASF58
 1402 0246 06       		.byte	0x6
 1403 0247 09       		.uleb128 0x9
 1404 0248 1D040000 		.4byte	.LASF59
 1405 024c 07       		.byte	0x7
 1406 024d 09       		.uleb128 0x9
 1407 024e 18000000 		.4byte	.LASF60
 1408 0252 08       		.byte	0x8
 1409 0253 09       		.uleb128 0x9
 1410 0254 530B0000 		.4byte	.LASF61
 1411 0258 09       		.byte	0x9
 1412 0259 09       		.uleb128 0x9
 1413 025a 300B0000 		.4byte	.LASF62
 1414 025e 0A       		.byte	0xa
 1415 025f 09       		.uleb128 0x9
 1416 0260 B6020000 		.4byte	.LASF63
 1417 0264 0B       		.byte	0xb
 1418 0265 09       		.uleb128 0x9
ARM GAS  C:\Users\user\AppData\Local\Temp\ccH9wMRW.s 			page 62


 1419 0266 7E0A0000 		.4byte	.LASF64
 1420 026a 0C       		.byte	0xc
 1421 026b 09       		.uleb128 0x9
 1422 026c 13090000 		.4byte	.LASF65
 1423 0270 0D       		.byte	0xd
 1424 0271 09       		.uleb128 0x9
 1425 0272 BC040000 		.4byte	.LASF66
 1426 0276 0E       		.byte	0xe
 1427 0277 09       		.uleb128 0x9
 1428 0278 54000000 		.4byte	.LASF67
 1429 027c 0F       		.byte	0xf
 1430 027d 09       		.uleb128 0x9
 1431 027e A70B0000 		.4byte	.LASF68
 1432 0282 10       		.byte	0x10
 1433 0283 09       		.uleb128 0x9
 1434 0284 18070000 		.4byte	.LASF69
 1435 0288 11       		.byte	0x11
 1436 0289 09       		.uleb128 0x9
 1437 028a 270A0000 		.4byte	.LASF70
 1438 028e 12       		.byte	0x12
 1439 028f 09       		.uleb128 0x9
 1440 0290 28040000 		.4byte	.LASF71
 1441 0294 13       		.byte	0x13
 1442 0295 09       		.uleb128 0x9
 1443 0296 52030000 		.4byte	.LASF72
 1444 029a 14       		.byte	0x14
 1445 029b 09       		.uleb128 0x9
 1446 029c F30A0000 		.4byte	.LASF73
 1447 02a0 15       		.byte	0x15
 1448 02a1 09       		.uleb128 0x9
 1449 02a2 CF040000 		.4byte	.LASF74
 1450 02a6 16       		.byte	0x16
 1451 02a7 09       		.uleb128 0x9
 1452 02a8 010B0000 		.4byte	.LASF75
 1453 02ac 17       		.byte	0x17
 1454 02ad 09       		.uleb128 0x9
 1455 02ae CF020000 		.4byte	.LASF76
 1456 02b2 18       		.byte	0x18
 1457 02b3 09       		.uleb128 0x9
 1458 02b4 D50A0000 		.4byte	.LASF77
 1459 02b8 19       		.byte	0x19
 1460 02b9 09       		.uleb128 0x9
 1461 02ba 9E070000 		.4byte	.LASF78
 1462 02be 1A       		.byte	0x1a
 1463 02bf 09       		.uleb128 0x9
 1464 02c0 10040000 		.4byte	.LASF79
 1465 02c4 1B       		.byte	0x1b
 1466 02c5 09       		.uleb128 0x9
 1467 02c6 AB000000 		.4byte	.LASF80
 1468 02ca 1C       		.byte	0x1c
 1469 02cb 09       		.uleb128 0x9
 1470 02cc 11080000 		.4byte	.LASF81
 1471 02d0 1D       		.byte	0x1d
 1472 02d1 09       		.uleb128 0x9
 1473 02d2 B2030000 		.4byte	.LASF82
 1474 02d6 1E       		.byte	0x1e
 1475 02d7 09       		.uleb128 0x9
ARM GAS  C:\Users\user\AppData\Local\Temp\ccH9wMRW.s 			page 63


 1476 02d8 D3030000 		.4byte	.LASF83
 1477 02dc 1F       		.byte	0x1f
 1478 02dd 09       		.uleb128 0x9
 1479 02de 7D020000 		.4byte	.LASF84
 1480 02e2 20       		.byte	0x20
 1481 02e3 09       		.uleb128 0x9
 1482 02e4 F3060000 		.4byte	.LASF85
 1483 02e8 21       		.byte	0x21
 1484 02e9 09       		.uleb128 0x9
 1485 02ea 4C050000 		.4byte	.LASF86
 1486 02ee 22       		.byte	0x22
 1487 02ef 09       		.uleb128 0x9
 1488 02f0 52060000 		.4byte	.LASF87
 1489 02f4 23       		.byte	0x23
 1490 02f5 09       		.uleb128 0x9
 1491 02f6 F2000000 		.4byte	.LASF88
 1492 02fa 24       		.byte	0x24
 1493 02fb 09       		.uleb128 0x9
 1494 02fc 1B080000 		.4byte	.LASF89
 1495 0300 25       		.byte	0x25
 1496 0301 09       		.uleb128 0x9
 1497 0302 BC030000 		.4byte	.LASF90
 1498 0306 26       		.byte	0x26
 1499 0307 09       		.uleb128 0x9
 1500 0308 E1010000 		.4byte	.LASF91
 1501 030c 27       		.byte	0x27
 1502 030d 09       		.uleb128 0x9
 1503 030e CF070000 		.4byte	.LASF92
 1504 0312 28       		.byte	0x28
 1505 0313 09       		.uleb128 0x9
 1506 0314 94060000 		.4byte	.LASF93
 1507 0318 29       		.byte	0x29
 1508 0319 09       		.uleb128 0x9
 1509 031a CD060000 		.4byte	.LASF94
 1510 031e 2A       		.byte	0x2a
 1511 031f 09       		.uleb128 0x9
 1512 0320 E7020000 		.4byte	.LASF95
 1513 0324 32       		.byte	0x32
 1514 0325 09       		.uleb128 0x9
 1515 0326 80000000 		.4byte	.LASF96
 1516 032a 33       		.byte	0x33
 1517 032b 09       		.uleb128 0x9
 1518 032c A2060000 		.4byte	.LASF97
 1519 0330 34       		.byte	0x34
 1520 0331 09       		.uleb128 0x9
 1521 0332 78050000 		.4byte	.LASF98
 1522 0336 35       		.byte	0x35
 1523 0337 09       		.uleb128 0x9
 1524 0338 910A0000 		.4byte	.LASF99
 1525 033c 36       		.byte	0x36
 1526 033d 09       		.uleb128 0x9
 1527 033e 27060000 		.4byte	.LASF100
 1528 0342 37       		.byte	0x37
 1529 0343 09       		.uleb128 0x9
 1530 0344 06050000 		.4byte	.LASF101
 1531 0348 38       		.byte	0x38
 1532 0349 09       		.uleb128 0x9
ARM GAS  C:\Users\user\AppData\Local\Temp\ccH9wMRW.s 			page 64


 1533 034a FD030000 		.4byte	.LASF102
 1534 034e 39       		.byte	0x39
 1535 034f 09       		.uleb128 0x9
 1536 0350 C80B0000 		.4byte	.LASF103
 1537 0354 3A       		.byte	0x3a
 1538 0355 09       		.uleb128 0x9
 1539 0356 3C070000 		.4byte	.LASF104
 1540 035a 3B       		.byte	0x3b
 1541 035b 09       		.uleb128 0x9
 1542 035c BA060000 		.4byte	.LASF105
 1543 0360 3C       		.byte	0x3c
 1544 0361 09       		.uleb128 0x9
 1545 0362 05090000 		.4byte	.LASF106
 1546 0366 3D       		.byte	0x3d
 1547 0367 09       		.uleb128 0x9
 1548 0368 3F060000 		.4byte	.LASF107
 1549 036c 3E       		.byte	0x3e
 1550 036d 09       		.uleb128 0x9
 1551 036e 0B070000 		.4byte	.LASF108
 1552 0372 3F       		.byte	0x3f
 1553 0373 09       		.uleb128 0x9
 1554 0374 C4000000 		.4byte	.LASF109
 1555 0378 40       		.byte	0x40
 1556 0379 09       		.uleb128 0x9
 1557 037a 3D080000 		.4byte	.LASF110
 1558 037e 41       		.byte	0x41
 1559 037f 09       		.uleb128 0x9
 1560 0380 A8020000 		.4byte	.LASF111
 1561 0384 42       		.byte	0x42
 1562 0385 09       		.uleb128 0x9
 1563 0386 47040000 		.4byte	.LASF112
 1564 038a 43       		.byte	0x43
 1565 038b 00       		.byte	0
 1566 038c 11       		.uleb128 0x11
 1567 038d DD040000 		.4byte	.LASF113
 1568 0391 06       		.byte	0x6
 1569 0392 D801     		.2byte	0x1d8
 1570 0394 03       		.byte	0x3
 1571 0395 DB010000 		.4byte	0x1db
 1572 0399 12       		.uleb128 0x12
 1573 039a 040E     		.2byte	0xe04
 1574 039c 02       		.byte	0x2
 1575 039d 84       		.byte	0x84
 1576 039e 09       		.byte	0x9
 1577 039f 71040000 		.4byte	0x471
 1578 03a3 0C       		.uleb128 0xc
 1579 03a4 930B0000 		.4byte	.LASF114
 1580 03a8 02       		.byte	0x2
 1581 03a9 86       		.byte	0x86
 1582 03aa 11       		.byte	0x11
 1583 03ab 81040000 		.4byte	0x481
 1584 03af 02       		.byte	0x2
 1585 03b0 23       		.byte	0x23
 1586 03b1 00       		.uleb128 0
 1587 03b2 0C       		.uleb128 0xc
 1588 03b3 32020000 		.4byte	.LASF115
 1589 03b7 02       		.byte	0x2
ARM GAS  C:\Users\user\AppData\Local\Temp\ccH9wMRW.s 			page 65


 1590 03b8 87       		.byte	0x87
 1591 03b9 11       		.byte	0x11
 1592 03ba 86040000 		.4byte	0x486
 1593 03be 02       		.byte	0x2
 1594 03bf 23       		.byte	0x23
 1595 03c0 20       		.uleb128 0x20
 1596 03c1 0C       		.uleb128 0xc
 1597 03c2 68080000 		.4byte	.LASF116
 1598 03c6 02       		.byte	0x2
 1599 03c7 88       		.byte	0x88
 1600 03c8 11       		.byte	0x11
 1601 03c9 81040000 		.4byte	0x481
 1602 03cd 03       		.byte	0x3
 1603 03ce 23       		.byte	0x23
 1604 03cf 8001     		.uleb128 0x80
 1605 03d1 0C       		.uleb128 0xc
 1606 03d2 00000000 		.4byte	.LASF117
 1607 03d6 02       		.byte	0x2
 1608 03d7 89       		.byte	0x89
 1609 03d8 11       		.byte	0x11
 1610 03d9 86040000 		.4byte	0x486
 1611 03dd 03       		.byte	0x3
 1612 03de 23       		.byte	0x23
 1613 03df A001     		.uleb128 0xa0
 1614 03e1 0C       		.uleb128 0xc
 1615 03e2 4E0B0000 		.4byte	.LASF118
 1616 03e6 02       		.byte	0x2
 1617 03e7 8A       		.byte	0x8a
 1618 03e8 11       		.byte	0x11
 1619 03e9 81040000 		.4byte	0x481
 1620 03ed 03       		.byte	0x3
 1621 03ee 23       		.byte	0x23
 1622 03ef 8002     		.uleb128 0x100
 1623 03f1 0C       		.uleb128 0xc
 1624 03f2 DD020000 		.4byte	.LASF119
 1625 03f6 02       		.byte	0x2
 1626 03f7 8B       		.byte	0x8b
 1627 03f8 11       		.byte	0x11
 1628 03f9 86040000 		.4byte	0x486
 1629 03fd 03       		.byte	0x3
 1630 03fe 23       		.byte	0x23
 1631 03ff A002     		.uleb128 0x120
 1632 0401 0C       		.uleb128 0xc
 1633 0402 BF000000 		.4byte	.LASF120
 1634 0406 02       		.byte	0x2
 1635 0407 8C       		.byte	0x8c
 1636 0408 11       		.byte	0x11
 1637 0409 81040000 		.4byte	0x481
 1638 040d 03       		.byte	0x3
 1639 040e 23       		.byte	0x23
 1640 040f 8003     		.uleb128 0x180
 1641 0411 0C       		.uleb128 0xc
 1642 0412 4A020000 		.4byte	.LASF121
 1643 0416 02       		.byte	0x2
 1644 0417 8D       		.byte	0x8d
 1645 0418 11       		.byte	0x11
 1646 0419 86040000 		.4byte	0x486
ARM GAS  C:\Users\user\AppData\Local\Temp\ccH9wMRW.s 			page 66


 1647 041d 03       		.byte	0x3
 1648 041e 23       		.byte	0x23
 1649 041f A003     		.uleb128 0x1a0
 1650 0421 0C       		.uleb128 0xc
 1651 0422 78020000 		.4byte	.LASF122
 1652 0426 02       		.byte	0x2
 1653 0427 8E       		.byte	0x8e
 1654 0428 11       		.byte	0x11
 1655 0429 81040000 		.4byte	0x481
 1656 042d 03       		.byte	0x3
 1657 042e 23       		.byte	0x23
 1658 042f 8004     		.uleb128 0x200
 1659 0431 0C       		.uleb128 0xc
 1660 0432 54020000 		.4byte	.LASF123
 1661 0436 02       		.byte	0x2
 1662 0437 8F       		.byte	0x8f
 1663 0438 11       		.byte	0x11
 1664 0439 96040000 		.4byte	0x496
 1665 043d 03       		.byte	0x3
 1666 043e 23       		.byte	0x23
 1667 043f A004     		.uleb128 0x220
 1668 0441 0B       		.uleb128 0xb
 1669 0442 495000   		.ascii	"IP\000"
 1670 0445 02       		.byte	0x2
 1671 0446 90       		.byte	0x90
 1672 0447 11       		.byte	0x11
 1673 0448 B6040000 		.4byte	0x4b6
 1674 044c 03       		.byte	0x3
 1675 044d 23       		.byte	0x23
 1676 044e 8006     		.uleb128 0x300
 1677 0450 0C       		.uleb128 0xc
 1678 0451 5E020000 		.4byte	.LASF124
 1679 0455 02       		.byte	0x2
 1680 0456 91       		.byte	0x91
 1681 0457 11       		.byte	0x11
 1682 0458 BB040000 		.4byte	0x4bb
 1683 045c 03       		.byte	0x3
 1684 045d 23       		.byte	0x23
 1685 045e F007     		.uleb128 0x3f0
 1686 0460 0C       		.uleb128 0xc
 1687 0461 CE030000 		.4byte	.LASF125
 1688 0465 02       		.byte	0x2
 1689 0466 92       		.byte	0x92
 1690 0467 11       		.byte	0x11
 1691 0468 B8000000 		.4byte	0xb8
 1692 046c 03       		.byte	0x3
 1693 046d 23       		.byte	0x23
 1694 046e 801C     		.uleb128 0xe00
 1695 0470 00       		.byte	0
 1696 0471 0D       		.uleb128 0xd
 1697 0472 B8000000 		.4byte	0xb8
 1698 0476 81040000 		.4byte	0x481
 1699 047a 0E       		.uleb128 0xe
 1700 047b 88000000 		.4byte	0x88
 1701 047f 07       		.byte	0x7
 1702 0480 00       		.byte	0
 1703 0481 05       		.uleb128 0x5
ARM GAS  C:\Users\user\AppData\Local\Temp\ccH9wMRW.s 			page 67


 1704 0482 71040000 		.4byte	0x471
 1705 0486 0D       		.uleb128 0xd
 1706 0487 AC000000 		.4byte	0xac
 1707 048b 96040000 		.4byte	0x496
 1708 048f 0E       		.uleb128 0xe
 1709 0490 88000000 		.4byte	0x88
 1710 0494 17       		.byte	0x17
 1711 0495 00       		.byte	0
 1712 0496 0D       		.uleb128 0xd
 1713 0497 AC000000 		.4byte	0xac
 1714 049b A6040000 		.4byte	0x4a6
 1715 049f 0E       		.uleb128 0xe
 1716 04a0 88000000 		.4byte	0x88
 1717 04a4 37       		.byte	0x37
 1718 04a5 00       		.byte	0
 1719 04a6 0D       		.uleb128 0xd
 1720 04a7 9B000000 		.4byte	0x9b
 1721 04ab B6040000 		.4byte	0x4b6
 1722 04af 0E       		.uleb128 0xe
 1723 04b0 88000000 		.4byte	0x88
 1724 04b4 EF       		.byte	0xef
 1725 04b5 00       		.byte	0
 1726 04b6 05       		.uleb128 0x5
 1727 04b7 A6040000 		.4byte	0x4a6
 1728 04bb 0D       		.uleb128 0xd
 1729 04bc AC000000 		.4byte	0xac
 1730 04c0 CC040000 		.4byte	0x4cc
 1731 04c4 13       		.uleb128 0x13
 1732 04c5 88000000 		.4byte	0x88
 1733 04c9 8302     		.2byte	0x283
 1734 04cb 00       		.byte	0
 1735 04cc 03       		.uleb128 0x3
 1736 04cd B5070000 		.4byte	.LASF126
 1737 04d1 02       		.byte	0x2
 1738 04d2 93       		.byte	0x93
 1739 04d3 04       		.byte	0x4
 1740 04d4 99030000 		.4byte	0x399
 1741 04d8 0A       		.uleb128 0xa
 1742 04d9 74       		.byte	0x74
 1743 04da 02       		.byte	0x2
 1744 04db 9B       		.byte	0x9b
 1745 04dc 09       		.byte	0x9
 1746 04dd FF050000 		.4byte	0x5ff
 1747 04e1 0C       		.uleb128 0xc
 1748 04e2 86010000 		.4byte	.LASF127
 1749 04e6 02       		.byte	0x2
 1750 04e7 9D       		.byte	0x9d
 1751 04e8 11       		.byte	0x11
 1752 04e9 BD000000 		.4byte	0xbd
 1753 04ed 02       		.byte	0x2
 1754 04ee 23       		.byte	0x23
 1755 04ef 00       		.uleb128 0
 1756 04f0 0C       		.uleb128 0xc
 1757 04f1 ED010000 		.4byte	.LASF128
 1758 04f5 02       		.byte	0x2
 1759 04f6 9E       		.byte	0x9e
 1760 04f7 11       		.byte	0x11
ARM GAS  C:\Users\user\AppData\Local\Temp\ccH9wMRW.s 			page 68


 1761 04f8 B8000000 		.4byte	0xb8
 1762 04fc 02       		.byte	0x2
 1763 04fd 23       		.byte	0x23
 1764 04fe 04       		.uleb128 0x4
 1765 04ff 0C       		.uleb128 0xc
 1766 0500 7B000000 		.4byte	.LASF129
 1767 0504 02       		.byte	0x2
 1768 0505 9F       		.byte	0x9f
 1769 0506 11       		.byte	0x11
 1770 0507 B8000000 		.4byte	0xb8
 1771 050b 02       		.byte	0x2
 1772 050c 23       		.byte	0x23
 1773 050d 08       		.uleb128 0x8
 1774 050e 0C       		.uleb128 0xc
 1775 050f 77010000 		.4byte	.LASF130
 1776 0513 02       		.byte	0x2
 1777 0514 A0       		.byte	0xa0
 1778 0515 11       		.byte	0x11
 1779 0516 B8000000 		.4byte	0xb8
 1780 051a 02       		.byte	0x2
 1781 051b 23       		.byte	0x23
 1782 051c 0C       		.uleb128 0xc
 1783 051d 0B       		.uleb128 0xb
 1784 051e 53435200 		.ascii	"SCR\000"
 1785 0522 02       		.byte	0x2
 1786 0523 A1       		.byte	0xa1
 1787 0524 11       		.byte	0x11
 1788 0525 B8000000 		.4byte	0xb8
 1789 0529 02       		.byte	0x2
 1790 052a 23       		.byte	0x23
 1791 052b 10       		.uleb128 0x10
 1792 052c 0B       		.uleb128 0xb
 1793 052d 43435200 		.ascii	"CCR\000"
 1794 0531 02       		.byte	0x2
 1795 0532 A2       		.byte	0xa2
 1796 0533 11       		.byte	0x11
 1797 0534 B8000000 		.4byte	0xb8
 1798 0538 02       		.byte	0x2
 1799 0539 23       		.byte	0x23
 1800 053a 14       		.uleb128 0x14
 1801 053b 0B       		.uleb128 0xb
 1802 053c 53485000 		.ascii	"SHP\000"
 1803 0540 02       		.byte	0x2
 1804 0541 A3       		.byte	0xa3
 1805 0542 11       		.byte	0x11
 1806 0543 0F060000 		.4byte	0x60f
 1807 0547 02       		.byte	0x2
 1808 0548 23       		.byte	0x23
 1809 0549 18       		.uleb128 0x18
 1810 054a 0C       		.uleb128 0xc
 1811 054b C8030000 		.4byte	.LASF131
 1812 054f 02       		.byte	0x2
 1813 0550 A4       		.byte	0xa4
 1814 0551 11       		.byte	0x11
 1815 0552 B8000000 		.4byte	0xb8
 1816 0556 02       		.byte	0x2
 1817 0557 23       		.byte	0x23
ARM GAS  C:\Users\user\AppData\Local\Temp\ccH9wMRW.s 			page 69


 1818 0558 24       		.uleb128 0x24
 1819 0559 0C       		.uleb128 0xc
 1820 055a AC080000 		.4byte	.LASF132
 1821 055e 02       		.byte	0x2
 1822 055f A5       		.byte	0xa5
 1823 0560 11       		.byte	0x11
 1824 0561 B8000000 		.4byte	0xb8
 1825 0565 02       		.byte	0x2
 1826 0566 23       		.byte	0x23
 1827 0567 28       		.uleb128 0x28
 1828 0568 0C       		.uleb128 0xc
 1829 0569 71030000 		.4byte	.LASF133
 1830 056d 02       		.byte	0x2
 1831 056e A6       		.byte	0xa6
 1832 056f 11       		.byte	0x11
 1833 0570 B8000000 		.4byte	0xb8
 1834 0574 02       		.byte	0x2
 1835 0575 23       		.byte	0x23
 1836 0576 2C       		.uleb128 0x2c
 1837 0577 0C       		.uleb128 0xc
 1838 0578 0F030000 		.4byte	.LASF134
 1839 057c 02       		.byte	0x2
 1840 057d A7       		.byte	0xa7
 1841 057e 11       		.byte	0x11
 1842 057f B8000000 		.4byte	0xb8
 1843 0583 02       		.byte	0x2
 1844 0584 23       		.byte	0x23
 1845 0585 30       		.uleb128 0x30
 1846 0586 0C       		.uleb128 0xc
 1847 0587 2B090000 		.4byte	.LASF135
 1848 058b 02       		.byte	0x2
 1849 058c A8       		.byte	0xa8
 1850 058d 11       		.byte	0x11
 1851 058e B8000000 		.4byte	0xb8
 1852 0592 02       		.byte	0x2
 1853 0593 23       		.byte	0x23
 1854 0594 34       		.uleb128 0x34
 1855 0595 0C       		.uleb128 0xc
 1856 0596 B0070000 		.4byte	.LASF136
 1857 059a 02       		.byte	0x2
 1858 059b A9       		.byte	0xa9
 1859 059c 11       		.byte	0x11
 1860 059d B8000000 		.4byte	0xb8
 1861 05a1 02       		.byte	0x2
 1862 05a2 23       		.byte	0x23
 1863 05a3 38       		.uleb128 0x38
 1864 05a4 0C       		.uleb128 0xc
 1865 05a5 9C080000 		.4byte	.LASF137
 1866 05a9 02       		.byte	0x2
 1867 05aa AA       		.byte	0xaa
 1868 05ab 11       		.byte	0x11
 1869 05ac B8000000 		.4byte	0xb8
 1870 05b0 02       		.byte	0x2
 1871 05b1 23       		.byte	0x23
 1872 05b2 3C       		.uleb128 0x3c
 1873 05b3 0B       		.uleb128 0xb
 1874 05b4 50465200 		.ascii	"PFR\000"
ARM GAS  C:\Users\user\AppData\Local\Temp\ccH9wMRW.s 			page 70


 1875 05b8 02       		.byte	0x2
 1876 05b9 AB       		.byte	0xab
 1877 05ba 11       		.byte	0x11
 1878 05bb 29060000 		.4byte	0x629
 1879 05bf 02       		.byte	0x2
 1880 05c0 23       		.byte	0x23
 1881 05c1 40       		.uleb128 0x40
 1882 05c2 0B       		.uleb128 0xb
 1883 05c3 44465200 		.ascii	"DFR\000"
 1884 05c7 02       		.byte	0x2
 1885 05c8 AC       		.byte	0xac
 1886 05c9 11       		.byte	0x11
 1887 05ca BD000000 		.4byte	0xbd
 1888 05ce 02       		.byte	0x2
 1889 05cf 23       		.byte	0x23
 1890 05d0 48       		.uleb128 0x48
 1891 05d1 0B       		.uleb128 0xb
 1892 05d2 41445200 		.ascii	"ADR\000"
 1893 05d6 02       		.byte	0x2
 1894 05d7 AD       		.byte	0xad
 1895 05d8 11       		.byte	0x11
 1896 05d9 BD000000 		.4byte	0xbd
 1897 05dd 02       		.byte	0x2
 1898 05de 23       		.byte	0x23
 1899 05df 4C       		.uleb128 0x4c
 1900 05e0 0C       		.uleb128 0xc
 1901 05e1 26090000 		.4byte	.LASF138
 1902 05e5 02       		.byte	0x2
 1903 05e6 AE       		.byte	0xae
 1904 05e7 11       		.byte	0x11
 1905 05e8 43060000 		.4byte	0x643
 1906 05ec 02       		.byte	0x2
 1907 05ed 23       		.byte	0x23
 1908 05ee 50       		.uleb128 0x50
 1909 05ef 0C       		.uleb128 0xc
 1910 05f0 A2090000 		.4byte	.LASF139
 1911 05f4 02       		.byte	0x2
 1912 05f5 AF       		.byte	0xaf
 1913 05f6 11       		.byte	0x11
 1914 05f7 5D060000 		.4byte	0x65d
 1915 05fb 02       		.byte	0x2
 1916 05fc 23       		.byte	0x23
 1917 05fd 60       		.uleb128 0x60
 1918 05fe 00       		.byte	0
 1919 05ff 0D       		.uleb128 0xd
 1920 0600 9B000000 		.4byte	0x9b
 1921 0604 0F060000 		.4byte	0x60f
 1922 0608 0E       		.uleb128 0xe
 1923 0609 88000000 		.4byte	0x88
 1924 060d 0B       		.byte	0xb
 1925 060e 00       		.byte	0
 1926 060f 05       		.uleb128 0x5
 1927 0610 FF050000 		.4byte	0x5ff
 1928 0614 0D       		.uleb128 0xd
 1929 0615 BD000000 		.4byte	0xbd
 1930 0619 24060000 		.4byte	0x624
 1931 061d 0E       		.uleb128 0xe
ARM GAS  C:\Users\user\AppData\Local\Temp\ccH9wMRW.s 			page 71


 1932 061e 88000000 		.4byte	0x88
 1933 0622 01       		.byte	0x1
 1934 0623 00       		.byte	0
 1935 0624 06       		.uleb128 0x6
 1936 0625 14060000 		.4byte	0x614
 1937 0629 05       		.uleb128 0x5
 1938 062a 24060000 		.4byte	0x624
 1939 062e 0D       		.uleb128 0xd
 1940 062f BD000000 		.4byte	0xbd
 1941 0633 3E060000 		.4byte	0x63e
 1942 0637 0E       		.uleb128 0xe
 1943 0638 88000000 		.4byte	0x88
 1944 063c 03       		.byte	0x3
 1945 063d 00       		.byte	0
 1946 063e 06       		.uleb128 0x6
 1947 063f 2E060000 		.4byte	0x62e
 1948 0643 05       		.uleb128 0x5
 1949 0644 3E060000 		.4byte	0x63e
 1950 0648 0D       		.uleb128 0xd
 1951 0649 BD000000 		.4byte	0xbd
 1952 064d 58060000 		.4byte	0x658
 1953 0651 0E       		.uleb128 0xe
 1954 0652 88000000 		.4byte	0x88
 1955 0656 04       		.byte	0x4
 1956 0657 00       		.byte	0
 1957 0658 06       		.uleb128 0x6
 1958 0659 48060000 		.4byte	0x648
 1959 065d 05       		.uleb128 0x5
 1960 065e 58060000 		.4byte	0x658
 1961 0662 03       		.uleb128 0x3
 1962 0663 06030000 		.4byte	.LASF140
 1963 0667 02       		.byte	0x2
 1964 0668 B0       		.byte	0xb0
 1965 0669 03       		.byte	0x3
 1966 066a D8040000 		.4byte	0x4d8
 1967 066e 14       		.uleb128 0x14
 1968 066f 07       		.byte	0x7
 1969 0670 01       		.byte	0x1
 1970 0671 38000000 		.4byte	0x38
 1971 0675 06       		.byte	0x6
 1972 0676 0902     		.2byte	0x209
 1973 0678 0E       		.byte	0xe
 1974 0679 8A060000 		.4byte	0x68a
 1975 067d 09       		.uleb128 0x9
 1976 067e 8A070000 		.4byte	.LASF141
 1977 0682 00       		.byte	0
 1978 0683 09       		.uleb128 0x9
 1979 0684 3C0A0000 		.4byte	.LASF142
 1980 0688 01       		.byte	0x1
 1981 0689 00       		.byte	0
 1982 068a 11       		.uleb128 0x11
 1983 068b BF070000 		.4byte	.LASF143
 1984 068f 06       		.byte	0x6
 1985 0690 0902     		.2byte	0x209
 1986 0692 2F       		.byte	0x2f
 1987 0693 6E060000 		.4byte	0x66e
 1988 0697 15       		.uleb128 0x15
ARM GAS  C:\Users\user\AppData\Local\Temp\ccH9wMRW.s 			page 72


 1989 0698 50       		.byte	0x50
 1990 0699 06       		.byte	0x6
 1991 069a 1E02     		.2byte	0x21e
 1992 069c 09       		.byte	0x9
 1993 069d E0070000 		.4byte	0x7e0
 1994 06a1 16       		.uleb128 0x16
 1995 06a2 535200   		.ascii	"SR\000"
 1996 06a5 06       		.byte	0x6
 1997 06a6 2002     		.2byte	0x220
 1998 06a8 11       		.byte	0x11
 1999 06a9 B8000000 		.4byte	0xb8
 2000 06ad 02       		.byte	0x2
 2001 06ae 23       		.byte	0x23
 2002 06af 00       		.uleb128 0
 2003 06b0 16       		.uleb128 0x16
 2004 06b1 43523100 		.ascii	"CR1\000"
 2005 06b5 06       		.byte	0x6
 2006 06b6 2102     		.2byte	0x221
 2007 06b8 11       		.byte	0x11
 2008 06b9 B8000000 		.4byte	0xb8
 2009 06bd 02       		.byte	0x2
 2010 06be 23       		.byte	0x23
 2011 06bf 04       		.uleb128 0x4
 2012 06c0 16       		.uleb128 0x16
 2013 06c1 43523200 		.ascii	"CR2\000"
 2014 06c5 06       		.byte	0x6
 2015 06c6 2202     		.2byte	0x222
 2016 06c8 11       		.byte	0x11
 2017 06c9 B8000000 		.4byte	0xb8
 2018 06cd 02       		.byte	0x2
 2019 06ce 23       		.byte	0x23
 2020 06cf 08       		.uleb128 0x8
 2021 06d0 17       		.uleb128 0x17
 2022 06d1 FA040000 		.4byte	.LASF144
 2023 06d5 06       		.byte	0x6
 2024 06d6 2302     		.2byte	0x223
 2025 06d8 11       		.byte	0x11
 2026 06d9 B8000000 		.4byte	0xb8
 2027 06dd 02       		.byte	0x2
 2028 06de 23       		.byte	0x23
 2029 06df 0C       		.uleb128 0xc
 2030 06e0 17       		.uleb128 0x17
 2031 06e1 00050000 		.4byte	.LASF145
 2032 06e5 06       		.byte	0x6
 2033 06e6 2402     		.2byte	0x224
 2034 06e8 11       		.byte	0x11
 2035 06e9 B8000000 		.4byte	0xb8
 2036 06ed 02       		.byte	0x2
 2037 06ee 23       		.byte	0x23
 2038 06ef 10       		.uleb128 0x10
 2039 06f0 17       		.uleb128 0x17
 2040 06f1 8A090000 		.4byte	.LASF146
 2041 06f5 06       		.byte	0x6
 2042 06f6 2502     		.2byte	0x225
 2043 06f8 11       		.byte	0x11
 2044 06f9 B8000000 		.4byte	0xb8
 2045 06fd 02       		.byte	0x2
ARM GAS  C:\Users\user\AppData\Local\Temp\ccH9wMRW.s 			page 73


 2046 06fe 23       		.byte	0x23
 2047 06ff 14       		.uleb128 0x14
 2048 0700 17       		.uleb128 0x17
 2049 0701 90090000 		.4byte	.LASF147
 2050 0705 06       		.byte	0x6
 2051 0706 2602     		.2byte	0x226
 2052 0708 11       		.byte	0x11
 2053 0709 B8000000 		.4byte	0xb8
 2054 070d 02       		.byte	0x2
 2055 070e 23       		.byte	0x23
 2056 070f 18       		.uleb128 0x18
 2057 0710 17       		.uleb128 0x17
 2058 0711 96090000 		.4byte	.LASF148
 2059 0715 06       		.byte	0x6
 2060 0716 2702     		.2byte	0x227
 2061 0718 11       		.byte	0x11
 2062 0719 B8000000 		.4byte	0xb8
 2063 071d 02       		.byte	0x2
 2064 071e 23       		.byte	0x23
 2065 071f 1C       		.uleb128 0x1c
 2066 0720 17       		.uleb128 0x17
 2067 0721 9C090000 		.4byte	.LASF149
 2068 0725 06       		.byte	0x6
 2069 0726 2802     		.2byte	0x228
 2070 0728 11       		.byte	0x11
 2071 0729 B8000000 		.4byte	0xb8
 2072 072d 02       		.byte	0x2
 2073 072e 23       		.byte	0x23
 2074 072f 20       		.uleb128 0x20
 2075 0730 16       		.uleb128 0x16
 2076 0731 48545200 		.ascii	"HTR\000"
 2077 0735 06       		.byte	0x6
 2078 0736 2902     		.2byte	0x229
 2079 0738 11       		.byte	0x11
 2080 0739 B8000000 		.4byte	0xb8
 2081 073d 02       		.byte	0x2
 2082 073e 23       		.byte	0x23
 2083 073f 24       		.uleb128 0x24
 2084 0740 16       		.uleb128 0x16
 2085 0741 4C545200 		.ascii	"LTR\000"
 2086 0745 06       		.byte	0x6
 2087 0746 2A02     		.2byte	0x22a
 2088 0748 11       		.byte	0x11
 2089 0749 B8000000 		.4byte	0xb8
 2090 074d 02       		.byte	0x2
 2091 074e 23       		.byte	0x23
 2092 074f 28       		.uleb128 0x28
 2093 0750 17       		.uleb128 0x17
 2094 0751 45000000 		.4byte	.LASF150
 2095 0755 06       		.byte	0x6
 2096 0756 2B02     		.2byte	0x22b
 2097 0758 11       		.byte	0x11
 2098 0759 B8000000 		.4byte	0xb8
 2099 075d 02       		.byte	0x2
 2100 075e 23       		.byte	0x23
 2101 075f 2C       		.uleb128 0x2c
 2102 0760 17       		.uleb128 0x17
ARM GAS  C:\Users\user\AppData\Local\Temp\ccH9wMRW.s 			page 74


 2103 0761 4A000000 		.4byte	.LASF151
 2104 0765 06       		.byte	0x6
 2105 0766 2C02     		.2byte	0x22c
 2106 0768 11       		.byte	0x11
 2107 0769 B8000000 		.4byte	0xb8
 2108 076d 02       		.byte	0x2
 2109 076e 23       		.byte	0x23
 2110 076f 30       		.uleb128 0x30
 2111 0770 17       		.uleb128 0x17
 2112 0771 4F000000 		.4byte	.LASF152
 2113 0775 06       		.byte	0x6
 2114 0776 2D02     		.2byte	0x22d
 2115 0778 11       		.byte	0x11
 2116 0779 B8000000 		.4byte	0xb8
 2117 077d 02       		.byte	0x2
 2118 077e 23       		.byte	0x23
 2119 077f 34       		.uleb128 0x34
 2120 0780 17       		.uleb128 0x17
 2121 0781 6C0A0000 		.4byte	.LASF153
 2122 0785 06       		.byte	0x6
 2123 0786 2E02     		.2byte	0x22e
 2124 0788 11       		.byte	0x11
 2125 0789 B8000000 		.4byte	0xb8
 2126 078d 02       		.byte	0x2
 2127 078e 23       		.byte	0x23
 2128 078f 38       		.uleb128 0x38
 2129 0790 17       		.uleb128 0x17
 2130 0791 580A0000 		.4byte	.LASF154
 2131 0795 06       		.byte	0x6
 2132 0796 2F02     		.2byte	0x22f
 2133 0798 11       		.byte	0x11
 2134 0799 B8000000 		.4byte	0xb8
 2135 079d 02       		.byte	0x2
 2136 079e 23       		.byte	0x23
 2137 079f 3C       		.uleb128 0x3c
 2138 07a0 17       		.uleb128 0x17
 2139 07a1 5D0A0000 		.4byte	.LASF155
 2140 07a5 06       		.byte	0x6
 2141 07a6 3002     		.2byte	0x230
 2142 07a8 11       		.byte	0x11
 2143 07a9 B8000000 		.4byte	0xb8
 2144 07ad 02       		.byte	0x2
 2145 07ae 23       		.byte	0x23
 2146 07af 40       		.uleb128 0x40
 2147 07b0 17       		.uleb128 0x17
 2148 07b1 620A0000 		.4byte	.LASF156
 2149 07b5 06       		.byte	0x6
 2150 07b6 3102     		.2byte	0x231
 2151 07b8 11       		.byte	0x11
 2152 07b9 B8000000 		.4byte	0xb8
 2153 07bd 02       		.byte	0x2
 2154 07be 23       		.byte	0x23
 2155 07bf 44       		.uleb128 0x44
 2156 07c0 17       		.uleb128 0x17
 2157 07c1 670A0000 		.4byte	.LASF157
 2158 07c5 06       		.byte	0x6
 2159 07c6 3202     		.2byte	0x232
ARM GAS  C:\Users\user\AppData\Local\Temp\ccH9wMRW.s 			page 75


 2160 07c8 11       		.byte	0x11
 2161 07c9 B8000000 		.4byte	0xb8
 2162 07cd 02       		.byte	0x2
 2163 07ce 23       		.byte	0x23
 2164 07cf 48       		.uleb128 0x48
 2165 07d0 16       		.uleb128 0x16
 2166 07d1 445200   		.ascii	"DR\000"
 2167 07d4 06       		.byte	0x6
 2168 07d5 3302     		.2byte	0x233
 2169 07d7 11       		.byte	0x11
 2170 07d8 B8000000 		.4byte	0xb8
 2171 07dc 02       		.byte	0x2
 2172 07dd 23       		.byte	0x23
 2173 07de 4C       		.uleb128 0x4c
 2174 07df 00       		.byte	0
 2175 07e0 11       		.uleb128 0x11
 2176 07e1 E0030000 		.4byte	.LASF158
 2177 07e5 06       		.byte	0x6
 2178 07e6 3402     		.2byte	0x234
 2179 07e8 03       		.byte	0x3
 2180 07e9 97060000 		.4byte	0x697
 2181 07ed 15       		.uleb128 0x15
 2182 07ee 1C       		.byte	0x1c
 2183 07ef 06       		.byte	0x6
 2184 07f0 E903     		.2byte	0x3e9
 2185 07f2 09       		.byte	0x9
 2186 07f3 68080000 		.4byte	0x868
 2187 07f7 16       		.uleb128 0x16
 2188 07f8 43524C00 		.ascii	"CRL\000"
 2189 07fc 06       		.byte	0x6
 2190 07fd EB03     		.2byte	0x3eb
 2191 07ff 11       		.byte	0x11
 2192 0800 B8000000 		.4byte	0xb8
 2193 0804 02       		.byte	0x2
 2194 0805 23       		.byte	0x23
 2195 0806 00       		.uleb128 0
 2196 0807 16       		.uleb128 0x16
 2197 0808 43524800 		.ascii	"CRH\000"
 2198 080c 06       		.byte	0x6
 2199 080d EC03     		.2byte	0x3ec
 2200 080f 11       		.byte	0x11
 2201 0810 B8000000 		.4byte	0xb8
 2202 0814 02       		.byte	0x2
 2203 0815 23       		.byte	0x23
 2204 0816 04       		.uleb128 0x4
 2205 0817 16       		.uleb128 0x16
 2206 0818 49445200 		.ascii	"IDR\000"
 2207 081c 06       		.byte	0x6
 2208 081d ED03     		.2byte	0x3ed
 2209 081f 11       		.byte	0x11
 2210 0820 B8000000 		.4byte	0xb8
 2211 0824 02       		.byte	0x2
 2212 0825 23       		.byte	0x23
 2213 0826 08       		.uleb128 0x8
 2214 0827 16       		.uleb128 0x16
 2215 0828 4F445200 		.ascii	"ODR\000"
 2216 082c 06       		.byte	0x6
ARM GAS  C:\Users\user\AppData\Local\Temp\ccH9wMRW.s 			page 76


 2217 082d EE03     		.2byte	0x3ee
 2218 082f 11       		.byte	0x11
 2219 0830 B8000000 		.4byte	0xb8
 2220 0834 02       		.byte	0x2
 2221 0835 23       		.byte	0x23
 2222 0836 0C       		.uleb128 0xc
 2223 0837 17       		.uleb128 0x17
 2224 0838 530A0000 		.4byte	.LASF159
 2225 083c 06       		.byte	0x6
 2226 083d EF03     		.2byte	0x3ef
 2227 083f 11       		.byte	0x11
 2228 0840 B8000000 		.4byte	0xb8
 2229 0844 02       		.byte	0x2
 2230 0845 23       		.byte	0x23
 2231 0846 10       		.uleb128 0x10
 2232 0847 16       		.uleb128 0x16
 2233 0848 42525200 		.ascii	"BRR\000"
 2234 084c 06       		.byte	0x6
 2235 084d F003     		.2byte	0x3f0
 2236 084f 11       		.byte	0x11
 2237 0850 B8000000 		.4byte	0xb8
 2238 0854 02       		.byte	0x2
 2239 0855 23       		.byte	0x23
 2240 0856 14       		.uleb128 0x14
 2241 0857 17       		.uleb128 0x17
 2242 0858 29050000 		.4byte	.LASF160
 2243 085c 06       		.byte	0x6
 2244 085d F103     		.2byte	0x3f1
 2245 085f 11       		.byte	0x11
 2246 0860 B8000000 		.4byte	0xb8
 2247 0864 02       		.byte	0x2
 2248 0865 23       		.byte	0x23
 2249 0866 18       		.uleb128 0x18
 2250 0867 00       		.byte	0
 2251 0868 11       		.uleb128 0x11
 2252 0869 710A0000 		.4byte	.LASF161
 2253 086d 06       		.byte	0x6
 2254 086e F203     		.2byte	0x3f2
 2255 0870 03       		.byte	0x3
 2256 0871 ED070000 		.4byte	0x7ed
 2257 0875 0A       		.uleb128 0xa
 2258 0876 14       		.byte	0x14
 2259 0877 07       		.byte	0x7
 2260 0878 32       		.byte	0x32
 2261 0879 09       		.byte	0x9
 2262 087a D9080000 		.4byte	0x8d9
 2263 087e 0C       		.uleb128 0xc
 2264 087f B20A0000 		.4byte	.LASF162
 2265 0883 07       		.byte	0x7
 2266 0884 34       		.byte	0x34
 2267 0885 0C       		.byte	0xc
 2268 0886 AC000000 		.4byte	0xac
 2269 088a 02       		.byte	0x2
 2270 088b 23       		.byte	0x23
 2271 088c 00       		.uleb128 0
 2272 088d 0C       		.uleb128 0xc
 2273 088e 59050000 		.4byte	.LASF163
ARM GAS  C:\Users\user\AppData\Local\Temp\ccH9wMRW.s 			page 77


 2274 0892 07       		.byte	0x7
 2275 0893 38       		.byte	0x38
 2276 0894 13       		.byte	0x13
 2277 0895 8A060000 		.4byte	0x68a
 2278 0899 02       		.byte	0x2
 2279 089a 23       		.byte	0x23
 2280 089b 04       		.uleb128 0x4
 2281 089c 0C       		.uleb128 0xc
 2282 089d 10060000 		.4byte	.LASF164
 2283 08a1 07       		.byte	0x7
 2284 08a2 3C       		.byte	0x3c
 2285 08a3 13       		.byte	0x13
 2286 08a4 8A060000 		.4byte	0x68a
 2287 08a8 02       		.byte	0x2
 2288 08a9 23       		.byte	0x23
 2289 08aa 05       		.uleb128 0x5
 2290 08ab 0C       		.uleb128 0xc
 2291 08ac 4F070000 		.4byte	.LASF165
 2292 08b0 07       		.byte	0x7
 2293 08b1 40       		.byte	0x40
 2294 08b2 0C       		.byte	0xc
 2295 08b3 AC000000 		.4byte	0xac
 2296 08b7 02       		.byte	0x2
 2297 08b8 23       		.byte	0x23
 2298 08b9 08       		.uleb128 0x8
 2299 08ba 0C       		.uleb128 0xc
 2300 08bb 85080000 		.4byte	.LASF166
 2301 08bf 07       		.byte	0x7
 2302 08c0 44       		.byte	0x44
 2303 08c1 0C       		.byte	0xc
 2304 08c2 AC000000 		.4byte	0xac
 2305 08c6 02       		.byte	0x2
 2306 08c7 23       		.byte	0x23
 2307 08c8 0C       		.uleb128 0xc
 2308 08c9 0C       		.uleb128 0xc
 2309 08ca C40A0000 		.4byte	.LASF167
 2310 08ce 07       		.byte	0x7
 2311 08cf 47       		.byte	0x47
 2312 08d0 0B       		.byte	0xb
 2313 08d1 8F000000 		.4byte	0x8f
 2314 08d5 02       		.byte	0x2
 2315 08d6 23       		.byte	0x23
 2316 08d7 10       		.uleb128 0x10
 2317 08d8 00       		.byte	0
 2318 08d9 03       		.uleb128 0x3
 2319 08da 19050000 		.4byte	.LASF168
 2320 08de 07       		.byte	0x7
 2321 08df 4A       		.byte	0x4a
 2322 08e0 02       		.byte	0x2
 2323 08e1 75080000 		.4byte	0x875
 2324 08e5 08       		.uleb128 0x8
 2325 08e6 07       		.byte	0x7
 2326 08e7 01       		.byte	0x1
 2327 08e8 38000000 		.4byte	0x38
 2328 08ec 08       		.byte	0x8
 2329 08ed 3B       		.byte	0x3b
 2330 08ee 01       		.byte	0x1
ARM GAS  C:\Users\user\AppData\Local\Temp\ccH9wMRW.s 			page 78


 2331 08ef 06090000 		.4byte	0x906
 2332 08f3 09       		.uleb128 0x9
 2333 08f4 1F0B0000 		.4byte	.LASF169
 2334 08f8 01       		.byte	0x1
 2335 08f9 09       		.uleb128 0x9
 2336 08fa C8080000 		.4byte	.LASF170
 2337 08fe 02       		.byte	0x2
 2338 08ff 09       		.uleb128 0x9
 2339 0900 87030000 		.4byte	.LASF171
 2340 0904 03       		.byte	0x3
 2341 0905 00       		.byte	0
 2342 0906 03       		.uleb128 0x3
 2343 0907 D8080000 		.4byte	.LASF172
 2344 090b 08       		.byte	0x8
 2345 090c 3F       		.byte	0x3f
 2346 090d 02       		.byte	0x2
 2347 090e E5080000 		.4byte	0x8e5
 2348 0912 08       		.uleb128 0x8
 2349 0913 07       		.byte	0x7
 2350 0914 01       		.byte	0x1
 2351 0915 38000000 		.4byte	0x38
 2352 0919 08       		.byte	0x8
 2353 091a 48       		.byte	0x48
 2354 091b 01       		.byte	0x1
 2355 091c 51090000 		.4byte	0x951
 2356 0920 09       		.uleb128 0x9
 2357 0921 9D010000 		.4byte	.LASF173
 2358 0925 00       		.byte	0
 2359 0926 09       		.uleb128 0x9
 2360 0927 66090000 		.4byte	.LASF174
 2361 092b 04       		.byte	0x4
 2362 092c 09       		.uleb128 0x9
 2363 092d DB0B0000 		.4byte	.LASF175
 2364 0931 28       		.byte	0x28
 2365 0932 09       		.uleb128 0x9
 2366 0933 32000000 		.4byte	.LASF176
 2367 0937 48       		.byte	0x48
 2368 0938 09       		.uleb128 0x9
 2369 0939 36030000 		.4byte	.LASF177
 2370 093d 14       		.byte	0x14
 2371 093e 09       		.uleb128 0x9
 2372 093f 3B050000 		.4byte	.LASF178
 2373 0943 10       		.byte	0x10
 2374 0944 09       		.uleb128 0x9
 2375 0945 C4010000 		.4byte	.LASF179
 2376 0949 1C       		.byte	0x1c
 2377 094a 09       		.uleb128 0x9
 2378 094b 68020000 		.4byte	.LASF180
 2379 094f 18       		.byte	0x18
 2380 0950 00       		.byte	0
 2381 0951 03       		.uleb128 0x3
 2382 0952 74080000 		.4byte	.LASF181
 2383 0956 08       		.byte	0x8
 2384 0957 50       		.byte	0x50
 2385 0958 02       		.byte	0x2
 2386 0959 12090000 		.4byte	0x912
 2387 095d 0A       		.uleb128 0xa
ARM GAS  C:\Users\user\AppData\Local\Temp\ccH9wMRW.s 			page 79


 2388 095e 04       		.byte	0x4
 2389 095f 08       		.byte	0x8
 2390 0960 5B       		.byte	0x5b
 2391 0961 09       		.byte	0x9
 2392 0962 94090000 		.4byte	0x994
 2393 0966 0C       		.uleb128 0xc
 2394 0967 FC080000 		.4byte	.LASF182
 2395 096b 08       		.byte	0x8
 2396 096c 5D       		.byte	0x5d
 2397 096d 0C       		.byte	0xc
 2398 096e A0000000 		.4byte	0xa0
 2399 0972 02       		.byte	0x2
 2400 0973 23       		.byte	0x23
 2401 0974 00       		.uleb128 0
 2402 0975 0C       		.uleb128 0xc
 2403 0976 6C010000 		.4byte	.LASF183
 2404 097a 08       		.byte	0x8
 2405 097b 60       		.byte	0x60
 2406 097c 15       		.byte	0x15
 2407 097d 06090000 		.4byte	0x906
 2408 0981 02       		.byte	0x2
 2409 0982 23       		.byte	0x23
 2410 0983 02       		.uleb128 0x2
 2411 0984 0C       		.uleb128 0xc
 2412 0985 33080000 		.4byte	.LASF184
 2413 0989 08       		.byte	0x8
 2414 098a 63       		.byte	0x63
 2415 098b 14       		.byte	0x14
 2416 098c 51090000 		.4byte	0x951
 2417 0990 02       		.byte	0x2
 2418 0991 23       		.byte	0x23
 2419 0992 03       		.uleb128 0x3
 2420 0993 00       		.byte	0
 2421 0994 03       		.uleb128 0x3
 2422 0995 21020000 		.4byte	.LASF185
 2423 0999 08       		.byte	0x8
 2424 099a 65       		.byte	0x65
 2425 099b 02       		.byte	0x2
 2426 099c 5D090000 		.4byte	0x95d
 2427 09a0 03       		.uleb128 0x3
 2428 09a1 70000000 		.4byte	.LASF186
 2429 09a5 09       		.byte	0x9
 2430 09a6 62       		.byte	0x62
 2431 09a7 0E       		.byte	0xe
 2432 09a8 59000000 		.4byte	0x59
 2433 09ac 03       		.uleb128 0x3
 2434 09ad 27080000 		.4byte	.LASF187
 2435 09b1 09       		.byte	0x9
 2436 09b2 63       		.byte	0x63
 2437 09b3 17       		.byte	0x17
 2438 09b4 6C000000 		.4byte	0x6c
 2439 09b8 03       		.uleb128 0x3
 2440 09b9 4B080000 		.4byte	.LASF188
 2441 09bd 09       		.byte	0x9
 2442 09be 69       		.byte	0x69
 2443 09bf 13       		.byte	0x13
 2444 09c0 AC000000 		.4byte	0xac
ARM GAS  C:\Users\user\AppData\Local\Temp\ccH9wMRW.s 			page 80


 2445 09c4 03       		.uleb128 0x3
 2446 09c5 FF010000 		.4byte	.LASF189
 2447 09c9 0A       		.byte	0xa
 2448 09ca 58       		.byte	0x58
 2449 09cb 10       		.byte	0x10
 2450 09cc C9000000 		.4byte	0xc9
 2451 09d0 03       		.uleb128 0x3
 2452 09d1 56080000 		.4byte	.LASF190
 2453 09d5 0B       		.byte	0xb
 2454 09d6 4F       		.byte	0x4f
 2455 09d7 17       		.byte	0x17
 2456 09d8 C4090000 		.4byte	0x9c4
 2457 09dc 0A       		.uleb128 0xa
 2458 09dd 90       		.byte	0x90
 2459 09de 01       		.byte	0x1
 2460 09df 14       		.byte	0x14
 2461 09e0 09       		.byte	0x9
 2462 09e1 320A0000 		.4byte	0xa32
 2463 09e5 0C       		.uleb128 0xc
 2464 09e6 64070000 		.4byte	.LASF191
 2465 09ea 01       		.byte	0x1
 2466 09eb 16       		.byte	0x16
 2467 09ec 10       		.byte	0x10
 2468 09ed D2000000 		.4byte	0xd2
 2469 09f1 02       		.byte	0x2
 2470 09f2 23       		.byte	0x23
 2471 09f3 00       		.uleb128 0
 2472 09f4 0C       		.uleb128 0xc
 2473 09f5 8A0B0000 		.4byte	.LASF192
 2474 09f9 01       		.byte	0x1
 2475 09fa 17       		.byte	0x17
 2476 09fb 16       		.byte	0x16
 2477 09fc D0090000 		.4byte	0x9d0
 2478 0a00 02       		.byte	0x2
 2479 0a01 23       		.byte	0x23
 2480 0a02 04       		.uleb128 0x4
 2481 0a03 0C       		.uleb128 0xc
 2482 0a04 B5000000 		.4byte	.LASF193
 2483 0a08 01       		.byte	0x1
 2484 0a09 18       		.byte	0x18
 2485 0a0a 16       		.byte	0x16
 2486 0a0b D0090000 		.4byte	0x9d0
 2487 0a0f 02       		.byte	0x2
 2488 0a10 23       		.byte	0x23
 2489 0a11 08       		.uleb128 0x8
 2490 0a12 0C       		.uleb128 0xc
 2491 0a13 BA0B0000 		.4byte	.LASF194
 2492 0a17 01       		.byte	0x1
 2493 0a18 19       		.byte	0x19
 2494 0a19 13       		.byte	0x13
 2495 0a1a CF010000 		.4byte	0x1cf
 2496 0a1e 02       		.byte	0x2
 2497 0a1f 23       		.byte	0x23
 2498 0a20 0C       		.uleb128 0xc
 2499 0a21 0B       		.uleb128 0xb
 2500 0a22 69647800 		.ascii	"idx\000"
 2501 0a26 01       		.byte	0x1
ARM GAS  C:\Users\user\AppData\Local\Temp\ccH9wMRW.s 			page 81


 2502 0a27 1A       		.byte	0x1a
 2503 0a28 0E       		.byte	0xe
 2504 0a29 A0000000 		.4byte	0xa0
 2505 0a2d 03       		.byte	0x3
 2506 0a2e 23       		.byte	0x23
 2507 0a2f 8E01     		.uleb128 0x8e
 2508 0a31 00       		.byte	0
 2509 0a32 03       		.uleb128 0x3
 2510 0a33 00070000 		.4byte	.LASF195
 2511 0a37 01       		.byte	0x1
 2512 0a38 1B       		.byte	0x1b
 2513 0a39 03       		.byte	0x3
 2514 0a3a DC090000 		.4byte	0x9dc
 2515 0a3e 18       		.uleb128 0x18
 2516 0a3f 98030000 		.4byte	.LASF199
 2517 0a43 01       		.byte	0x1
 2518 0a44 1D       		.byte	0x1d
 2519 0a45 0C       		.byte	0xc
 2520 0a46 320A0000 		.4byte	0xa32
 2521 0a4a 01       		.byte	0x1
 2522 0a4b 05       		.byte	0x5
 2523 0a4c 03       		.byte	0x3
 2524 0a4d 00000000 		.4byte	adc_man
 2525 0a51 0A       		.uleb128 0xa
 2526 0a52 86       		.byte	0x86
 2527 0a53 01       		.byte	0x1
 2528 0a54 1F       		.byte	0x1f
 2529 0a55 09       		.byte	0x9
 2530 0a56 880A0000 		.4byte	0xa88
 2531 0a5a 0B       		.uleb128 0xb
 2532 0a5b 696400   		.ascii	"id\000"
 2533 0a5e 01       		.byte	0x1
 2534 0a5f 21       		.byte	0x21
 2535 0a60 12       		.byte	0x12
 2536 0a61 59010000 		.4byte	0x159
 2537 0a65 02       		.byte	0x2
 2538 0a66 23       		.byte	0x23
 2539 0a67 00       		.uleb128 0
 2540 0a68 0C       		.uleb128 0xc
 2541 0a69 BA0B0000 		.4byte	.LASF194
 2542 0a6d 01       		.byte	0x1
 2543 0a6e 22       		.byte	0x22
 2544 0a6f 13       		.byte	0x13
 2545 0a70 CF010000 		.4byte	0x1cf
 2546 0a74 02       		.byte	0x2
 2547 0a75 23       		.byte	0x23
 2548 0a76 02       		.uleb128 0x2
 2549 0a77 0C       		.uleb128 0xc
 2550 0a78 09000000 		.4byte	.LASF196
 2551 0a7c 01       		.byte	0x1
 2552 0a7d 23       		.byte	0x23
 2553 0a7e 0A       		.byte	0xa
 2554 0a7f 880A0000 		.4byte	0xa88
 2555 0a83 03       		.byte	0x3
 2556 0a84 23       		.byte	0x23
 2557 0a85 8401     		.uleb128 0x84
 2558 0a87 00       		.byte	0
ARM GAS  C:\Users\user\AppData\Local\Temp\ccH9wMRW.s 			page 82


 2559 0a88 02       		.uleb128 0x2
 2560 0a89 01       		.byte	0x1
 2561 0a8a 02       		.byte	0x2
 2562 0a8b C9020000 		.4byte	.LASF197
 2563 0a8f 03       		.uleb128 0x3
 2564 0a90 BC010000 		.4byte	.LASF198
 2565 0a94 01       		.byte	0x1
 2566 0a95 24       		.byte	0x24
 2567 0a96 03       		.byte	0x3
 2568 0a97 510A0000 		.4byte	0xa51
 2569 0a9b 19       		.uleb128 0x19
 2570 0a9c 01       		.byte	0x1
 2571 0a9d A0030000 		.4byte	.LASF208
 2572 0aa1 01       		.byte	0x1
 2573 0aa2 1601     		.2byte	0x116
 2574 0aa4 06       		.byte	0x6
 2575 0aa5 50020000 		.4byte	.LFB40
 2576 0aa9 CC020000 		.4byte	.LFE40
 2577 0aad 00000000 		.4byte	.LLST18
 2578 0ab1 01       		.byte	0x1
 2579 0ab2 980B0000 		.4byte	0xb98
 2580 0ab6 1A       		.uleb128 0x1a
 2581 0ab7 76030000 		.4byte	.LASF206
 2582 0abb 01       		.byte	0x1
 2583 0abc 1801     		.2byte	0x118
 2584 0abe 10       		.byte	0x10
 2585 0abf A0090000 		.4byte	0x9a0
 2586 0ac3 02       		.byte	0x2
 2587 0ac4 91       		.byte	0x91
 2588 0ac5 74       		.sleb128 -12
 2589 0ac6 1B       		.uleb128 0x1b
 2590 0ac7 48000000 		.4byte	.Ldebug_ranges0+0x48
 2591 0acb 7D0B0000 		.4byte	0xb7d
 2592 0acf 1C       		.uleb128 0x1c
 2593 0ad0 67000000 		.4byte	.LASF200
 2594 0ad4 01       		.byte	0x1
 2595 0ad5 1C01     		.2byte	0x11c
 2596 0ad7 12       		.byte	0x12
 2597 0ad8 A0000000 		.4byte	0xa0
 2598 0adc 3C000000 		.4byte	.LLST19
 2599 0ae0 38000000 		.4byte	.LVUS19
 2600 0ae4 1B       		.uleb128 0x1b
 2601 0ae5 60000000 		.4byte	.Ldebug_ranges0+0x60
 2602 0ae9 4B0B0000 		.4byte	0xb4b
 2603 0aed 1C       		.uleb128 0x1c
 2604 0aee 4D060000 		.4byte	.LASF201
 2605 0af2 01       		.byte	0x1
 2606 0af3 1F01     		.2byte	0x11f
 2607 0af5 16       		.byte	0x16
 2608 0af6 980B0000 		.4byte	0xb98
 2609 0afa 5E000000 		.4byte	.LLST20
 2610 0afe 5A000000 		.4byte	.LVUS20
 2611 0b02 1D       		.uleb128 0x1d
 2612 0b03 96020000 		.4byte	.LVL62
 2613 0b07 C8100000 		.4byte	0x10c8
 2614 0b0b 160B0000 		.4byte	0xb16
 2615 0b0f 1E       		.uleb128 0x1e
ARM GAS  C:\Users\user\AppData\Local\Temp\ccH9wMRW.s 			page 83


 2616 0b10 01       		.byte	0x1
 2617 0b11 51       		.byte	0x51
 2618 0b12 02       		.byte	0x2
 2619 0b13 91       		.byte	0x91
 2620 0b14 74       		.sleb128 -12
 2621 0b15 00       		.byte	0
 2622 0b16 1D       		.uleb128 0x1d
 2623 0b17 9E020000 		.4byte	.LVL63
 2624 0b1b D7100000 		.4byte	0x10d7
 2625 0b1f 320B0000 		.4byte	0xb32
 2626 0b23 1E       		.uleb128 0x1e
 2627 0b24 01       		.byte	0x1
 2628 0b25 50       		.byte	0x50
 2629 0b26 05       		.byte	0x5
 2630 0b27 0C       		.byte	0xc
 2631 0b28 00240140 		.4byte	0x40012400
 2632 0b2c 1E       		.uleb128 0x1e
 2633 0b2d 01       		.byte	0x1
 2634 0b2e 51       		.byte	0x51
 2635 0b2f 01       		.byte	0x1
 2636 0b30 30       		.byte	0x30
 2637 0b31 00       		.byte	0
 2638 0b32 1F       		.uleb128 0x1f
 2639 0b33 C2020000 		.4byte	.LVL66
 2640 0b37 E6100000 		.4byte	0x10e6
 2641 0b3b 1E       		.uleb128 0x1e
 2642 0b3c 01       		.byte	0x1
 2643 0b3d 50       		.byte	0x50
 2644 0b3e 05       		.byte	0x5
 2645 0b3f 0C       		.byte	0xc
 2646 0b40 00240140 		.4byte	0x40012400
 2647 0b44 1E       		.uleb128 0x1e
 2648 0b45 01       		.byte	0x1
 2649 0b46 51       		.byte	0x51
 2650 0b47 01       		.byte	0x1
 2651 0b48 31       		.byte	0x31
 2652 0b49 00       		.byte	0
 2653 0b4a 00       		.byte	0
 2654 0b4b 1D       		.uleb128 0x1d
 2655 0b4c 68020000 		.4byte	.LVL58
 2656 0b50 F5100000 		.4byte	0x10f5
 2657 0b54 690B0000 		.4byte	0xb69
 2658 0b58 1E       		.uleb128 0x1e
 2659 0b59 01       		.byte	0x1
 2660 0b5a 50       		.byte	0x50
 2661 0b5b 05       		.byte	0x5
 2662 0b5c 0C       		.byte	0xc
 2663 0b5d 00240140 		.4byte	0x40012400
 2664 0b61 1E       		.uleb128 0x1e
 2665 0b62 01       		.byte	0x1
 2666 0b63 51       		.byte	0x51
 2667 0b64 03       		.byte	0x3
 2668 0b65 0A       		.byte	0xa
 2669 0b66 2002     		.2byte	0x220
 2670 0b68 00       		.byte	0
 2671 0b69 1F       		.uleb128 0x1f
 2672 0b6a 6E020000 		.4byte	.LVL59
ARM GAS  C:\Users\user\AppData\Local\Temp\ccH9wMRW.s 			page 84


 2673 0b6e 04110000 		.4byte	0x1104
 2674 0b72 1E       		.uleb128 0x1e
 2675 0b73 01       		.byte	0x1
 2676 0b74 50       		.byte	0x50
 2677 0b75 05       		.byte	0x5
 2678 0b76 0C       		.byte	0xc
 2679 0b77 00240140 		.4byte	0x40012400
 2680 0b7b 00       		.byte	0
 2681 0b7c 00       		.byte	0
 2682 0b7d 1F       		.uleb128 0x1f
 2683 0b7e 5C020000 		.4byte	.LVL57
 2684 0b82 13110000 		.4byte	0x1113
 2685 0b86 1E       		.uleb128 0x1e
 2686 0b87 01       		.byte	0x1
 2687 0b88 50       		.byte	0x50
 2688 0b89 05       		.byte	0x5
 2689 0b8a 0C       		.byte	0xc
 2690 0b8b 00240140 		.4byte	0x40012400
 2691 0b8f 1E       		.uleb128 0x1e
 2692 0b90 01       		.byte	0x1
 2693 0b91 51       		.byte	0x51
 2694 0b92 03       		.byte	0x3
 2695 0b93 0A       		.byte	0xa
 2696 0b94 2002     		.2byte	0x220
 2697 0b96 00       		.byte	0
 2698 0b97 00       		.byte	0
 2699 0b98 20       		.uleb128 0x20
 2700 0b99 04       		.byte	0x4
 2701 0b9a 8F0A0000 		.4byte	0xa8f
 2702 0b9e 21       		.uleb128 0x21
 2703 0b9f 01       		.byte	0x1
 2704 0ba0 9A040000 		.4byte	.LASF202
 2705 0ba4 01       		.byte	0x1
 2706 0ba5 D5       		.byte	0xd5
 2707 0ba6 0A       		.byte	0xa
 2708 0ba7 01       		.byte	0x1
 2709 0ba8 A0000000 		.4byte	0xa0
 2710 0bac 74010000 		.4byte	.LFB39
 2711 0bb0 82010000 		.4byte	.LFE39
 2712 0bb4 02       		.byte	0x2
 2713 0bb5 7D       		.byte	0x7d
 2714 0bb6 00       		.sleb128 0
 2715 0bb7 01       		.byte	0x1
 2716 0bb8 E30B0000 		.4byte	0xbe3
 2717 0bbc 22       		.uleb128 0x22
 2718 0bbd 696400   		.ascii	"id\000"
 2719 0bc0 01       		.byte	0x1
 2720 0bc1 D5       		.byte	0xd5
 2721 0bc2 21       		.byte	0x21
 2722 0bc3 D2000000 		.4byte	0xd2
 2723 0bc7 80000000 		.4byte	.LLST8
 2724 0bcb 7C000000 		.4byte	.LVUS8
 2725 0bcf 23       		.uleb128 0x23
 2726 0bd0 636800   		.ascii	"ch\000"
 2727 0bd3 01       		.byte	0x1
 2728 0bd4 D7       		.byte	0xd7
 2729 0bd5 0E       		.byte	0xe
ARM GAS  C:\Users\user\AppData\Local\Temp\ccH9wMRW.s 			page 85


 2730 0bd6 980B0000 		.4byte	0xb98
 2731 0bda A5000000 		.4byte	.LLST9
 2732 0bde A1000000 		.4byte	.LVUS9
 2733 0be2 00       		.byte	0
 2734 0be3 24       		.uleb128 0x24
 2735 0be4 01       		.byte	0x1
 2736 0be5 980B0000 		.4byte	.LASF203
 2737 0be9 01       		.byte	0x1
 2738 0bea C5       		.byte	0xc5
 2739 0beb 0B       		.byte	0xb
 2740 0bec 01       		.byte	0x1
 2741 0bed 8C010000 		.4byte	0x18c
 2742 0bf1 20020000 		.4byte	.LFB38
 2743 0bf5 50020000 		.4byte	.LFE38
 2744 0bf9 C6000000 		.4byte	.LLST14
 2745 0bfd 01       		.byte	0x1
 2746 0bfe 6E0C0000 		.4byte	0xc6e
 2747 0c02 22       		.uleb128 0x22
 2748 0c03 636800   		.ascii	"ch\000"
 2749 0c06 01       		.byte	0x1
 2750 0c07 C5       		.byte	0xc5
 2751 0c08 25       		.byte	0x25
 2752 0c09 D2000000 		.4byte	0xd2
 2753 0c0d EE000000 		.4byte	.LLST15
 2754 0c11 E6000000 		.4byte	.LVUS15
 2755 0c15 25       		.uleb128 0x25
 2756 0c16 BA0B0000 		.4byte	.LASF194
 2757 0c1a 01       		.byte	0x1
 2758 0c1b C5       		.byte	0xc5
 2759 0c1c 38       		.byte	0x38
 2760 0c1d 6E0C0000 		.4byte	0xc6e
 2761 0c21 2A010000 		.4byte	.LLST16
 2762 0c25 22010000 		.4byte	.LVUS16
 2763 0c29 23       		.uleb128 0x23
 2764 0c2a 63686E00 		.ascii	"chn\000"
 2765 0c2e 01       		.byte	0x1
 2766 0c2f C9       		.byte	0xc9
 2767 0c30 0E       		.byte	0xe
 2768 0c31 980B0000 		.4byte	0xb98
 2769 0c35 64010000 		.4byte	.LLST17
 2770 0c39 5E010000 		.4byte	.LVUS17
 2771 0c3d 1D       		.uleb128 0x1d
 2772 0c3e 2E020000 		.4byte	.LVL51
 2773 0c42 630D0000 		.4byte	0xd63
 2774 0c46 510C0000 		.4byte	0xc51
 2775 0c4a 1E       		.uleb128 0x1e
 2776 0c4b 01       		.byte	0x1
 2777 0c4c 50       		.byte	0x50
 2778 0c4d 02       		.byte	0x2
 2779 0c4e 75       		.byte	0x75
 2780 0c4f 00       		.sleb128 0
 2781 0c50 00       		.byte	0
 2782 0c51 1F       		.uleb128 0x1f
 2783 0c52 44020000 		.4byte	.LVL52
 2784 0c56 22110000 		.4byte	0x1122
 2785 0c5a 1E       		.uleb128 0x1e
 2786 0c5b 01       		.byte	0x1
ARM GAS  C:\Users\user\AppData\Local\Temp\ccH9wMRW.s 			page 86


 2787 0c5c 50       		.byte	0x50
 2788 0c5d 02       		.byte	0x2
 2789 0c5e 76       		.byte	0x76
 2790 0c5f 00       		.sleb128 0
 2791 0c60 1E       		.uleb128 0x1e
 2792 0c61 01       		.byte	0x1
 2793 0c62 51       		.byte	0x51
 2794 0c63 02       		.byte	0x2
 2795 0c64 75       		.byte	0x75
 2796 0c65 02       		.sleb128 2
 2797 0c66 1E       		.uleb128 0x1e
 2798 0c67 01       		.byte	0x1
 2799 0c68 52       		.byte	0x52
 2800 0c69 02       		.byte	0x2
 2801 0c6a 08       		.byte	0x8
 2802 0c6b 82       		.byte	0x82
 2803 0c6c 00       		.byte	0
 2804 0c6d 00       		.byte	0
 2805 0c6e 20       		.uleb128 0x20
 2806 0c6f 04       		.byte	0x4
 2807 0c70 CF010000 		.4byte	0x1cf
 2808 0c74 24       		.uleb128 0x24
 2809 0c75 01       		.byte	0x1
 2810 0c76 2B070000 		.4byte	.LASF204
 2811 0c7a 01       		.byte	0x1
 2812 0c7b 63       		.byte	0x63
 2813 0c7c 0C       		.byte	0xc
 2814 0c7d 01       		.byte	0x1
 2815 0c7e D2000000 		.4byte	0xd2
 2816 0c82 AC000000 		.4byte	.LFB37
 2817 0c86 74010000 		.4byte	.LFE37
 2818 0c8a 8D010000 		.4byte	.LLST4
 2819 0c8e 01       		.byte	0x1
 2820 0c8f 2A0D0000 		.4byte	0xd2a
 2821 0c93 22       		.uleb128 0x22
 2822 0c94 696400   		.ascii	"id\000"
 2823 0c97 01       		.byte	0x1
 2824 0c98 63       		.byte	0x63
 2825 0c99 2A       		.byte	0x2a
 2826 0c9a 59010000 		.4byte	0x159
 2827 0c9e C9010000 		.4byte	.LLST5
 2828 0ca2 C5010000 		.4byte	.LVUS5
 2829 0ca6 23       		.uleb128 0x23
 2830 0ca7 636800   		.ascii	"ch\000"
 2831 0caa 01       		.byte	0x1
 2832 0cab 65       		.byte	0x65
 2833 0cac 0E       		.byte	0xe
 2834 0cad 980B0000 		.4byte	0xb98
 2835 0cb1 02020000 		.4byte	.LLST6
 2836 0cb5 EA010000 		.4byte	.LVUS6
 2837 0cb9 26       		.uleb128 0x26
 2838 0cba 0E090000 		.4byte	.LASF205
 2839 0cbe 01       		.byte	0x1
 2840 0cbf 67       		.byte	0x67
 2841 0cc0 14       		.byte	0x14
 2842 0cc1 2A0D0000 		.4byte	0xd2a
 2843 0cc5 9E020000 		.4byte	.LLST7
ARM GAS  C:\Users\user\AppData\Local\Temp\ccH9wMRW.s 			page 87


 2844 0cc9 8E020000 		.4byte	.LVUS7
 2845 0ccd 27       		.uleb128 0x27
 2846 0cce 40000000 		.4byte	.LASF207
 2847 0cd2 01       		.byte	0x1
 2848 0cd3 68       		.byte	0x68
 2849 0cd4 16       		.byte	0x16
 2850 0cd5 94090000 		.4byte	0x994
 2851 0cd9 02       		.byte	0x2
 2852 0cda 91       		.byte	0x91
 2853 0cdb 6C       		.sleb128 -20
 2854 0cdc 1D       		.uleb128 0x1d
 2855 0cdd B6000000 		.4byte	.LVL13
 2856 0ce1 2F110000 		.4byte	0x112f
 2857 0ce5 F00C0000 		.4byte	0xcf0
 2858 0ce9 1E       		.uleb128 0x1e
 2859 0cea 01       		.byte	0x1
 2860 0ceb 50       		.byte	0x50
 2861 0cec 02       		.byte	0x2
 2862 0ced 08       		.byte	0x8
 2863 0cee 86       		.byte	0x86
 2864 0cef 00       		.byte	0
 2865 0cf0 28       		.uleb128 0x28
 2866 0cf1 E4000000 		.4byte	.LVL16
 2867 0cf5 3D110000 		.4byte	0x113d
 2868 0cf9 1D       		.uleb128 0x1d
 2869 0cfa EC000000 		.4byte	.LVL18
 2870 0cfe 4C110000 		.4byte	0x114c
 2871 0d02 0D0D0000 		.4byte	0xd0d
 2872 0d06 1E       		.uleb128 0x1e
 2873 0d07 01       		.byte	0x1
 2874 0d08 51       		.byte	0x51
 2875 0d09 02       		.byte	0x2
 2876 0d0a 91       		.byte	0x91
 2877 0d0b 6C       		.sleb128 -20
 2878 0d0c 00       		.byte	0
 2879 0d0d 1D       		.uleb128 0x1d
 2880 0d0e 26010000 		.4byte	.LVL23
 2881 0d12 3D110000 		.4byte	0x113d
 2882 0d16 200D0000 		.4byte	0xd20
 2883 0d1a 1E       		.uleb128 0x1e
 2884 0d1b 01       		.byte	0x1
 2885 0d1c 50       		.byte	0x50
 2886 0d1d 01       		.byte	0x1
 2887 0d1e 38       		.byte	0x38
 2888 0d1f 00       		.byte	0
 2889 0d20 28       		.uleb128 0x28
 2890 0d21 5C010000 		.4byte	.LVL28
 2891 0d25 3D110000 		.4byte	0x113d
 2892 0d29 00       		.byte	0
 2893 0d2a 20       		.uleb128 0x20
 2894 0d2b 04       		.byte	0x4
 2895 0d2c 68080000 		.4byte	0x868
 2896 0d30 29       		.uleb128 0x29
 2897 0d31 01       		.byte	0x1
 2898 0d32 EB060000 		.4byte	.LASF209
 2899 0d36 01       		.byte	0x1
 2900 0d37 5F       		.byte	0x5f
ARM GAS  C:\Users\user\AppData\Local\Temp\ccH9wMRW.s 			page 88


 2901 0d38 06       		.byte	0x6
 2902 0d39 A0000000 		.4byte	.LFB36
 2903 0d3d AC000000 		.4byte	.LFE36
 2904 0d41 02       		.byte	0x2
 2905 0d42 7D       		.byte	0x7d
 2906 0d43 00       		.sleb128 0
 2907 0d44 01       		.byte	0x1
 2908 0d45 630D0000 		.4byte	0xd63
 2909 0d49 2A       		.uleb128 0x2a
 2910 0d4a A8000000 		.4byte	.LVL10
 2911 0d4e 01       		.byte	0x1
 2912 0d4f E6100000 		.4byte	0x10e6
 2913 0d53 1E       		.uleb128 0x1e
 2914 0d54 01       		.byte	0x1
 2915 0d55 50       		.byte	0x50
 2916 0d56 05       		.byte	0x5
 2917 0d57 0C       		.byte	0xc
 2918 0d58 00240140 		.4byte	0x40012400
 2919 0d5c 1E       		.uleb128 0x1e
 2920 0d5d 01       		.byte	0x1
 2921 0d5e 51       		.byte	0x51
 2922 0d5f 01       		.byte	0x1
 2923 0d60 30       		.byte	0x30
 2924 0d61 00       		.byte	0
 2925 0d62 00       		.byte	0
 2926 0d63 2B       		.uleb128 0x2b
 2927 0d64 01       		.byte	0x1
 2928 0d65 2D030000 		.4byte	.LASF238
 2929 0d69 01       		.byte	0x1
 2930 0d6a 49       		.byte	0x49
 2931 0d6b 06       		.byte	0x6
 2932 0d6c 01       		.byte	0x1
 2933 0d6d 01       		.byte	0x1
 2934 0d6e 8C0D0000 		.4byte	0xd8c
 2935 0d72 2C       		.uleb128 0x2c
 2936 0d73 636800   		.ascii	"ch\000"
 2937 0d76 01       		.byte	0x1
 2938 0d77 49       		.byte	0x49
 2939 0d78 1A       		.byte	0x1a
 2940 0d79 D2000000 		.4byte	0xd2
 2941 0d7d 2D       		.uleb128 0x2d
 2942 0d7e 2E       		.uleb128 0x2e
 2943 0d7f 63686E00 		.ascii	"chn\000"
 2944 0d83 01       		.byte	0x1
 2945 0d84 58       		.byte	0x58
 2946 0d85 16       		.byte	0x16
 2947 0d86 980B0000 		.4byte	0xb98
 2948 0d8a 00       		.byte	0
 2949 0d8b 00       		.byte	0
 2950 0d8c 2F       		.uleb128 0x2f
 2951 0d8d 01       		.byte	0x1
 2952 0d8e 82070000 		.4byte	.LASF210
 2953 0d92 01       		.byte	0x1
 2954 0d93 28       		.byte	0x28
 2955 0d94 06       		.byte	0x6
 2956 0d95 00000000 		.4byte	.LFB34
 2957 0d99 A0000000 		.4byte	.LFE34
ARM GAS  C:\Users\user\AppData\Local\Temp\ccH9wMRW.s 			page 89


 2958 0d9d 11030000 		.4byte	.LLST0
 2959 0da1 01       		.byte	0x1
 2960 0da2 FE0E0000 		.4byte	0xefe
 2961 0da6 27       		.uleb128 0x27
 2962 0da7 40000000 		.4byte	.LASF207
 2963 0dab 01       		.byte	0x1
 2964 0dac 33       		.byte	0x33
 2965 0dad 16       		.byte	0x16
 2966 0dae 94090000 		.4byte	0x994
 2967 0db2 02       		.byte	0x2
 2968 0db3 91       		.byte	0x91
 2969 0db4 50       		.sleb128 -48
 2970 0db5 27       		.uleb128 0x27
 2971 0db6 7F0B0000 		.4byte	.LASF211
 2972 0dba 01       		.byte	0x1
 2973 0dbb 39       		.byte	0x39
 2974 0dbc 15       		.byte	0x15
 2975 0dbd D9080000 		.4byte	0x8d9
 2976 0dc1 02       		.byte	0x2
 2977 0dc2 91       		.byte	0x91
 2978 0dc3 54       		.sleb128 -44
 2979 0dc4 30       		.uleb128 0x30
 2980 0dc5 280F0000 		.4byte	0xf28
 2981 0dc9 70000000 		.4byte	.LBI7
 2982 0dcd 01       		.byte	.LVU45
 2983 0dce 00000000 		.4byte	.Ldebug_ranges0+0
 2984 0dd2 01       		.byte	0x1
 2985 0dd3 45       		.byte	0x45
 2986 0dd4 05       		.byte	0x5
 2987 0dd5 E70D0000 		.4byte	0xde7
 2988 0dd9 31       		.uleb128 0x31
 2989 0dda 370F0000 		.4byte	0xf37
 2990 0dde 4B030000 		.4byte	.LLST1
 2991 0de2 49030000 		.4byte	.LVUS1
 2992 0de6 00       		.byte	0
 2993 0de7 32       		.uleb128 0x32
 2994 0de8 FE0E0000 		.4byte	0xefe
 2995 0dec 7A000000 		.4byte	.LBI11
 2996 0df0 02       		.byte	.LVU52
 2997 0df1 7A000000 		.4byte	.LBB11
 2998 0df5 80000000 		.4byte	.LBE11
 2999 0df9 01       		.byte	0x1
 3000 0dfa 46       		.byte	0x46
 3001 0dfb 05       		.byte	0x5
 3002 0dfc 1B0E0000 		.4byte	0xe1b
 3003 0e00 31       		.uleb128 0x31
 3004 0e01 1A0F0000 		.4byte	0xf1a
 3005 0e05 61030000 		.4byte	.LLST2
 3006 0e09 5F030000 		.4byte	.LVUS2
 3007 0e0d 31       		.uleb128 0x31
 3008 0e0e 0D0F0000 		.4byte	0xf0d
 3009 0e12 77030000 		.4byte	.LLST3
 3010 0e16 75030000 		.4byte	.LVUS3
 3011 0e1a 00       		.byte	0
 3012 0e1b 1D       		.uleb128 0x1d
 3013 0e1c 14000000 		.4byte	.LVL0
 3014 0e20 5B110000 		.4byte	0x115b
ARM GAS  C:\Users\user\AppData\Local\Temp\ccH9wMRW.s 			page 90


 3015 0e24 390E0000 		.4byte	0xe39
 3016 0e28 1E       		.uleb128 0x1e
 3017 0e29 01       		.byte	0x1
 3018 0e2a 50       		.byte	0x50
 3019 0e2b 01       		.byte	0x1
 3020 0e2c 31       		.byte	0x31
 3021 0e2d 1E       		.uleb128 0x1e
 3022 0e2e 01       		.byte	0x1
 3023 0e2f 51       		.byte	0x51
 3024 0e30 02       		.byte	0x2
 3025 0e31 74       		.byte	0x74
 3026 0e32 00       		.sleb128 0
 3027 0e33 1E       		.uleb128 0x1e
 3028 0e34 01       		.byte	0x1
 3029 0e35 52       		.byte	0x52
 3030 0e36 01       		.byte	0x1
 3031 0e37 33       		.byte	0x33
 3032 0e38 00       		.byte	0
 3033 0e39 1D       		.uleb128 0x1d
 3034 0e3a 20000000 		.4byte	.LVL1
 3035 0e3e 5B110000 		.4byte	0x115b
 3036 0e42 570E0000 		.4byte	0xe57
 3037 0e46 1E       		.uleb128 0x1e
 3038 0e47 01       		.byte	0x1
 3039 0e48 50       		.byte	0x50
 3040 0e49 01       		.byte	0x1
 3041 0e4a 31       		.byte	0x31
 3042 0e4b 1E       		.uleb128 0x1e
 3043 0e4c 01       		.byte	0x1
 3044 0e4d 51       		.byte	0x51
 3045 0e4e 02       		.byte	0x2
 3046 0e4f 74       		.byte	0x74
 3047 0e50 00       		.sleb128 0
 3048 0e51 1E       		.uleb128 0x1e
 3049 0e52 01       		.byte	0x1
 3050 0e53 52       		.byte	0x52
 3051 0e54 01       		.byte	0x1
 3052 0e55 33       		.byte	0x33
 3053 0e56 00       		.byte	0
 3054 0e57 1D       		.uleb128 0x1d
 3055 0e58 2C000000 		.4byte	.LVL2
 3056 0e5c 3D110000 		.4byte	0x113d
 3057 0e60 710E0000 		.4byte	0xe71
 3058 0e64 1E       		.uleb128 0x1e
 3059 0e65 01       		.byte	0x1
 3060 0e66 50       		.byte	0x50
 3061 0e67 03       		.byte	0x3
 3062 0e68 0A       		.byte	0xa
 3063 0e69 0002     		.2byte	0x200
 3064 0e6b 1E       		.uleb128 0x1e
 3065 0e6c 01       		.byte	0x1
 3066 0e6d 51       		.byte	0x51
 3067 0e6e 01       		.byte	0x1
 3068 0e6f 31       		.byte	0x31
 3069 0e70 00       		.byte	0
 3070 0e71 1D       		.uleb128 0x1d
 3071 0e72 34000000 		.4byte	.LVL3
ARM GAS  C:\Users\user\AppData\Local\Temp\ccH9wMRW.s 			page 91


 3072 0e76 3D110000 		.4byte	0x113d
 3073 0e7a 890E0000 		.4byte	0xe89
 3074 0e7e 1E       		.uleb128 0x1e
 3075 0e7f 01       		.byte	0x1
 3076 0e80 50       		.byte	0x50
 3077 0e81 01       		.byte	0x1
 3078 0e82 34       		.byte	0x34
 3079 0e83 1E       		.uleb128 0x1e
 3080 0e84 01       		.byte	0x1
 3081 0e85 51       		.byte	0x51
 3082 0e86 01       		.byte	0x1
 3083 0e87 31       		.byte	0x31
 3084 0e88 00       		.byte	0
 3085 0e89 1D       		.uleb128 0x1d
 3086 0e8a 48000000 		.4byte	.LVL4
 3087 0e8e 4C110000 		.4byte	0x114c
 3088 0e92 A60E0000 		.4byte	0xea6
 3089 0e96 1E       		.uleb128 0x1e
 3090 0e97 01       		.byte	0x1
 3091 0e98 50       		.byte	0x50
 3092 0e99 05       		.byte	0x5
 3093 0e9a 0C       		.byte	0xc
 3094 0e9b 00080140 		.4byte	0x40010800
 3095 0e9f 1E       		.uleb128 0x1e
 3096 0ea0 01       		.byte	0x1
 3097 0ea1 51       		.byte	0x51
 3098 0ea2 02       		.byte	0x2
 3099 0ea3 7D       		.byte	0x7d
 3100 0ea4 00       		.sleb128 0
 3101 0ea5 00       		.byte	0
 3102 0ea6 1D       		.uleb128 0x1d
 3103 0ea7 64000000 		.4byte	.LVL5
 3104 0eab 6A110000 		.4byte	0x116a
 3105 0eaf C00E0000 		.4byte	0xec0
 3106 0eb3 1E       		.uleb128 0x1e
 3107 0eb4 01       		.byte	0x1
 3108 0eb5 50       		.byte	0x50
 3109 0eb6 02       		.byte	0x2
 3110 0eb7 77       		.byte	0x77
 3111 0eb8 00       		.sleb128 0
 3112 0eb9 1E       		.uleb128 0x1e
 3113 0eba 01       		.byte	0x1
 3114 0ebb 51       		.byte	0x51
 3115 0ebc 02       		.byte	0x2
 3116 0ebd 91       		.byte	0x91
 3117 0ebe 54       		.sleb128 -44
 3118 0ebf 00       		.byte	0
 3119 0ec0 1D       		.uleb128 0x1d
 3120 0ec1 70000000 		.4byte	.LVL6
 3121 0ec5 79110000 		.4byte	0x1179
 3122 0ec9 E10E0000 		.4byte	0xee1
 3123 0ecd 1E       		.uleb128 0x1e
 3124 0ece 01       		.byte	0x1
 3125 0ecf 50       		.byte	0x50
 3126 0ed0 02       		.byte	0x2
 3127 0ed1 77       		.byte	0x77
 3128 0ed2 00       		.sleb128 0
ARM GAS  C:\Users\user\AppData\Local\Temp\ccH9wMRW.s 			page 92


 3129 0ed3 1E       		.uleb128 0x1e
 3130 0ed4 01       		.byte	0x1
 3131 0ed5 51       		.byte	0x51
 3132 0ed6 03       		.byte	0x3
 3133 0ed7 0A       		.byte	0xa
 3134 0ed8 2002     		.2byte	0x220
 3135 0eda 1E       		.uleb128 0x1e
 3136 0edb 01       		.byte	0x1
 3137 0edc 52       		.byte	0x52
 3138 0edd 02       		.byte	0x2
 3139 0ede 76       		.byte	0x76
 3140 0edf 00       		.sleb128 0
 3141 0ee0 00       		.byte	0
 3142 0ee1 1F       		.uleb128 0x1f
 3143 0ee2 8A000000 		.4byte	.LVL9
 3144 0ee6 88110000 		.4byte	0x1188
 3145 0eea 1E       		.uleb128 0x1e
 3146 0eeb 01       		.byte	0x1
 3147 0eec 51       		.byte	0x51
 3148 0eed 02       		.byte	0x2
 3149 0eee 74       		.byte	0x74
 3150 0eef 00       		.sleb128 0
 3151 0ef0 1E       		.uleb128 0x1e
 3152 0ef1 01       		.byte	0x1
 3153 0ef2 52       		.byte	0x52
 3154 0ef3 02       		.byte	0x2
 3155 0ef4 74       		.byte	0x74
 3156 0ef5 00       		.sleb128 0
 3157 0ef6 1E       		.uleb128 0x1e
 3158 0ef7 01       		.byte	0x1
 3159 0ef8 53       		.byte	0x53
 3160 0ef9 02       		.byte	0x2
 3161 0efa 74       		.byte	0x74
 3162 0efb 00       		.sleb128 0
 3163 0efc 00       		.byte	0
 3164 0efd 00       		.byte	0
 3165 0efe 33       		.uleb128 0x33
 3166 0eff E20A0000 		.4byte	.LASF214
 3167 0f03 02       		.byte	0x2
 3168 0f04 3206     		.2byte	0x632
 3169 0f06 16       		.byte	0x16
 3170 0f07 01       		.byte	0x1
 3171 0f08 03       		.byte	0x3
 3172 0f09 280F0000 		.4byte	0xf28
 3173 0f0d 34       		.uleb128 0x34
 3174 0f0e B7010000 		.4byte	.LASF212
 3175 0f12 02       		.byte	0x2
 3176 0f13 3206     		.2byte	0x632
 3177 0f15 31       		.byte	0x31
 3178 0f16 8C030000 		.4byte	0x38c
 3179 0f1a 34       		.uleb128 0x34
 3180 0f1b 5D090000 		.4byte	.LASF213
 3181 0f1f 02       		.byte	0x2
 3182 0f20 3206     		.2byte	0x632
 3183 0f22 40       		.byte	0x40
 3184 0f23 AC000000 		.4byte	0xac
 3185 0f27 00       		.byte	0
ARM GAS  C:\Users\user\AppData\Local\Temp\ccH9wMRW.s 			page 93


 3186 0f28 33       		.uleb128 0x33
 3187 0f29 23000000 		.4byte	.LASF215
 3188 0f2d 02       		.byte	0x2
 3189 0f2e DE05     		.2byte	0x5de
 3190 0f30 16       		.byte	0x16
 3191 0f31 01       		.byte	0x1
 3192 0f32 03       		.byte	0x3
 3193 0f33 450F0000 		.4byte	0xf45
 3194 0f37 34       		.uleb128 0x34
 3195 0f38 B7010000 		.4byte	.LASF212
 3196 0f3c 02       		.byte	0x2
 3197 0f3d DE05     		.2byte	0x5de
 3198 0f3f 2F       		.byte	0x2f
 3199 0f40 8C030000 		.4byte	0x38c
 3200 0f44 00       		.byte	0
 3201 0f45 35       		.uleb128 0x35
 3202 0f46 630D0000 		.4byte	0xd63
 3203 0f4a 82010000 		.4byte	.LFB35
 3204 0f4e 20020000 		.4byte	.LFE35
 3205 0f52 8B030000 		.4byte	.LLST10
 3206 0f56 01       		.byte	0x1
 3207 0f57 C8100000 		.4byte	0x10c8
 3208 0f5b 31       		.uleb128 0x31
 3209 0f5c 720D0000 		.4byte	0xd72
 3210 0f60 CD030000 		.4byte	.LLST11
 3211 0f64 C3030000 		.4byte	.LVUS11
 3212 0f68 30       		.uleb128 0x30
 3213 0f69 630D0000 		.4byte	0xd63
 3214 0f6d 9C010000 		.4byte	.LBI16
 3215 0f71 00       		.byte	.LVU167
 3216 0f72 18000000 		.4byte	.Ldebug_ranges0+0x18
 3217 0f76 01       		.byte	0x1
 3218 0f77 49       		.byte	0x49
 3219 0f78 06       		.byte	0x6
 3220 0f79 AC100000 		.4byte	0x10ac
 3221 0f7d 31       		.uleb128 0x31
 3222 0f7e 720D0000 		.4byte	0xd72
 3223 0f82 16040000 		.4byte	.LLST12
 3224 0f86 12040000 		.4byte	.LVUS12
 3225 0f8a 36       		.uleb128 0x36
 3226 0f8b 7D0D0000 		.4byte	0xd7d
 3227 0f8f 30000000 		.4byte	.Ldebug_ranges0+0x30
 3228 0f93 E20F0000 		.4byte	0xfe2
 3229 0f97 37       		.uleb128 0x37
 3230 0f98 7E0D0000 		.4byte	0xd7e
 3231 0f9c 3B040000 		.4byte	.LLST13
 3232 0fa0 37040000 		.4byte	.LVUS13
 3233 0fa4 1D       		.uleb128 0x1d
 3234 0fa5 FE010000 		.4byte	.LVL45
 3235 0fa9 22110000 		.4byte	0x1122
 3236 0fad C70F0000 		.4byte	0xfc7
 3237 0fb1 1E       		.uleb128 0x1e
 3238 0fb2 01       		.byte	0x1
 3239 0fb3 50       		.byte	0x50
 3240 0fb4 02       		.byte	0x2
 3241 0fb5 75       		.byte	0x75
 3242 0fb6 02       		.sleb128 2
ARM GAS  C:\Users\user\AppData\Local\Temp\ccH9wMRW.s 			page 94


 3243 0fb7 1E       		.uleb128 0x1e
 3244 0fb8 01       		.byte	0x1
 3245 0fb9 51       		.byte	0x51
 3246 0fba 05       		.byte	0x5
 3247 0fbb 03       		.byte	0x3
 3248 0fbc 0C000000 		.4byte	.LANCHOR0+12
 3249 0fc0 1E       		.uleb128 0x1e
 3250 0fc1 01       		.byte	0x1
 3251 0fc2 52       		.byte	0x52
 3252 0fc3 02       		.byte	0x2
 3253 0fc4 08       		.byte	0x8
 3254 0fc5 82       		.byte	0x82
 3255 0fc6 00       		.byte	0
 3256 0fc7 2A       		.uleb128 0x2a
 3257 0fc8 12020000 		.4byte	.LVL47
 3258 0fcc 01       		.byte	0x1
 3259 0fcd 88110000 		.4byte	0x1188
 3260 0fd1 1E       		.uleb128 0x1e
 3261 0fd2 01       		.byte	0x1
 3262 0fd3 51       		.byte	0x51
 3263 0fd4 01       		.byte	0x1
 3264 0fd5 30       		.byte	0x30
 3265 0fd6 1E       		.uleb128 0x1e
 3266 0fd7 01       		.byte	0x1
 3267 0fd8 52       		.byte	0x52
 3268 0fd9 01       		.byte	0x1
 3269 0fda 30       		.byte	0x30
 3270 0fdb 1E       		.uleb128 0x1e
 3271 0fdc 01       		.byte	0x1
 3272 0fdd 53       		.byte	0x53
 3273 0fde 01       		.byte	0x1
 3274 0fdf 30       		.byte	0x30
 3275 0fe0 00       		.byte	0
 3276 0fe1 00       		.byte	0
 3277 0fe2 1D       		.uleb128 0x1d
 3278 0fe3 A4010000 		.4byte	.LVL37
 3279 0fe7 9E0B0000 		.4byte	0xb9e
 3280 0feb F60F0000 		.4byte	0xff6
 3281 0fef 1E       		.uleb128 0x1e
 3282 0ff0 01       		.byte	0x1
 3283 0ff1 50       		.byte	0x50
 3284 0ff2 02       		.byte	0x2
 3285 0ff3 75       		.byte	0x75
 3286 0ff4 00       		.sleb128 0
 3287 0ff5 00       		.byte	0
 3288 0ff6 1D       		.uleb128 0x1d
 3289 0ff7 B0010000 		.4byte	.LVL38
 3290 0ffb 97110000 		.4byte	0x1197
 3291 0fff 18100000 		.4byte	0x1018
 3292 1003 1E       		.uleb128 0x1e
 3293 1004 01       		.byte	0x1
 3294 1005 50       		.byte	0x50
 3295 1006 05       		.byte	0x5
 3296 1007 0C       		.byte	0xc
 3297 1008 00240140 		.4byte	0x40012400
 3298 100c 1E       		.uleb128 0x1e
 3299 100d 01       		.byte	0x1
ARM GAS  C:\Users\user\AppData\Local\Temp\ccH9wMRW.s 			page 95


 3300 100e 52       		.byte	0x52
 3301 100f 02       		.byte	0x2
 3302 1010 76       		.byte	0x76
 3303 1011 00       		.sleb128 0
 3304 1012 1E       		.uleb128 0x1e
 3305 1013 01       		.byte	0x1
 3306 1014 53       		.byte	0x53
 3307 1015 01       		.byte	0x1
 3308 1016 37       		.byte	0x37
 3309 1017 00       		.byte	0
 3310 1018 1D       		.uleb128 0x1d
 3311 1019 B8010000 		.4byte	.LVL39
 3312 101d D7100000 		.4byte	0x10d7
 3313 1021 35100000 		.4byte	0x1035
 3314 1025 1E       		.uleb128 0x1e
 3315 1026 01       		.byte	0x1
 3316 1027 50       		.byte	0x50
 3317 1028 05       		.byte	0x5
 3318 1029 0C       		.byte	0xc
 3319 102a 00240140 		.4byte	0x40012400
 3320 102e 1E       		.uleb128 0x1e
 3321 102f 01       		.byte	0x1
 3322 1030 51       		.byte	0x51
 3323 1031 02       		.byte	0x2
 3324 1032 76       		.byte	0x76
 3325 1033 00       		.sleb128 0
 3326 1034 00       		.byte	0
 3327 1035 1D       		.uleb128 0x1d
 3328 1036 CA010000 		.4byte	.LVL40
 3329 103a A6110000 		.4byte	0x11a6
 3330 103e 52100000 		.4byte	0x1052
 3331 1042 1E       		.uleb128 0x1e
 3332 1043 01       		.byte	0x1
 3333 1044 51       		.byte	0x51
 3334 1045 01       		.byte	0x1
 3335 1046 30       		.byte	0x30
 3336 1047 1E       		.uleb128 0x1e
 3337 1048 01       		.byte	0x1
 3338 1049 52       		.byte	0x52
 3339 104a 01       		.byte	0x1
 3340 104b 30       		.byte	0x30
 3341 104c 1E       		.uleb128 0x1e
 3342 104d 01       		.byte	0x1
 3343 104e 53       		.byte	0x53
 3344 104f 01       		.byte	0x1
 3345 1050 30       		.byte	0x30
 3346 1051 00       		.byte	0
 3347 1052 1D       		.uleb128 0x1d
 3348 1053 D8010000 		.4byte	.LVL41
 3349 1057 B5110000 		.4byte	0x11b5
 3350 105b 74100000 		.4byte	0x1074
 3351 105f 1E       		.uleb128 0x1e
 3352 1060 01       		.byte	0x1
 3353 1061 50       		.byte	0x50
 3354 1062 05       		.byte	0x5
 3355 1063 03       		.byte	0x3
 3356 1064 0C000000 		.4byte	.LANCHOR0+12
ARM GAS  C:\Users\user\AppData\Local\Temp\ccH9wMRW.s 			page 96


 3357 1068 1E       		.uleb128 0x1e
 3358 1069 01       		.byte	0x1
 3359 106a 51       		.byte	0x51
 3360 106b 01       		.byte	0x1
 3361 106c 30       		.byte	0x30
 3362 106d 1E       		.uleb128 0x1e
 3363 106e 01       		.byte	0x1
 3364 106f 52       		.byte	0x52
 3365 1070 02       		.byte	0x2
 3366 1071 08       		.byte	0x8
 3367 1072 82       		.byte	0x82
 3368 1073 00       		.byte	0
 3369 1074 1D       		.uleb128 0x1d
 3370 1075 E0010000 		.4byte	.LVL42
 3371 1079 E6100000 		.4byte	0x10e6
 3372 107d 90100000 		.4byte	0x1090
 3373 1081 1E       		.uleb128 0x1e
 3374 1082 01       		.byte	0x1
 3375 1083 50       		.byte	0x50
 3376 1084 05       		.byte	0x5
 3377 1085 0C       		.byte	0xc
 3378 1086 00240140 		.4byte	0x40012400
 3379 108a 1E       		.uleb128 0x1e
 3380 108b 01       		.byte	0x1
 3381 108c 51       		.byte	0x51
 3382 108d 01       		.byte	0x1
 3383 108e 31       		.byte	0x31
 3384 108f 00       		.byte	0
 3385 1090 1F       		.uleb128 0x1f
 3386 1091 EE010000 		.4byte	.LVL43
 3387 1095 A6110000 		.4byte	0x11a6
 3388 1099 1E       		.uleb128 0x1e
 3389 109a 01       		.byte	0x1
 3390 109b 51       		.byte	0x51
 3391 109c 01       		.byte	0x1
 3392 109d 30       		.byte	0x30
 3393 109e 1E       		.uleb128 0x1e
 3394 109f 01       		.byte	0x1
 3395 10a0 52       		.byte	0x52
 3396 10a1 03       		.byte	0x3
 3397 10a2 0A       		.byte	0xa
 3398 10a3 E803     		.2byte	0x3e8
 3399 10a5 1E       		.uleb128 0x1e
 3400 10a6 01       		.byte	0x1
 3401 10a7 53       		.byte	0x53
 3402 10a8 01       		.byte	0x1
 3403 10a9 30       		.byte	0x30
 3404 10aa 00       		.byte	0
 3405 10ab 00       		.byte	0
 3406 10ac 1F       		.uleb128 0x1f
 3407 10ad 96010000 		.4byte	.LVL35
 3408 10b1 A6110000 		.4byte	0x11a6
 3409 10b5 1E       		.uleb128 0x1e
 3410 10b6 01       		.byte	0x1
 3411 10b7 51       		.byte	0x51
 3412 10b8 01       		.byte	0x1
 3413 10b9 30       		.byte	0x30
ARM GAS  C:\Users\user\AppData\Local\Temp\ccH9wMRW.s 			page 97


 3414 10ba 1E       		.uleb128 0x1e
 3415 10bb 01       		.byte	0x1
 3416 10bc 52       		.byte	0x52
 3417 10bd 03       		.byte	0x3
 3418 10be 0A       		.byte	0xa
 3419 10bf E803     		.2byte	0x3e8
 3420 10c1 1E       		.uleb128 0x1e
 3421 10c2 01       		.byte	0x1
 3422 10c3 53       		.byte	0x53
 3423 10c4 01       		.byte	0x1
 3424 10c5 30       		.byte	0x30
 3425 10c6 00       		.byte	0
 3426 10c7 00       		.byte	0
 3427 10c8 38       		.uleb128 0x38
 3428 10c9 01       		.byte	0x1
 3429 10ca 01       		.byte	0x1
 3430 10cb 6F060000 		.4byte	.LASF216
 3431 10cf 6F060000 		.4byte	.LASF216
 3432 10d3 0A       		.byte	0xa
 3433 10d4 A105     		.2byte	0x5a1
 3434 10d6 0C       		.byte	0xc
 3435 10d7 38       		.uleb128 0x38
 3436 10d8 01       		.byte	0x1
 3437 10d9 01       		.byte	0x1
 3438 10da FE070000 		.4byte	.LASF217
 3439 10de FE070000 		.4byte	.LASF217
 3440 10e2 07       		.byte	0x7
 3441 10e3 AF01     		.2byte	0x1af
 3442 10e5 06       		.byte	0x6
 3443 10e6 38       		.uleb128 0x38
 3444 10e7 01       		.byte	0x1
 3445 10e8 01       		.byte	0x1
 3446 10e9 31090000 		.4byte	.LASF218
 3447 10ed 31090000 		.4byte	.LASF218
 3448 10f1 07       		.byte	0x7
 3449 10f2 B601     		.2byte	0x1b6
 3450 10f4 06       		.byte	0x6
 3451 10f5 38       		.uleb128 0x38
 3452 10f6 01       		.byte	0x1
 3453 10f7 01       		.byte	0x1
 3454 10f8 D2000000 		.4byte	.LASF219
 3455 10fc D2000000 		.4byte	.LASF219
 3456 1100 07       		.byte	0x7
 3457 1101 CF01     		.2byte	0x1cf
 3458 1103 06       		.byte	0x6
 3459 1104 38       		.uleb128 0x38
 3460 1105 01       		.byte	0x1
 3461 1106 01       		.byte	0x1
 3462 1107 B1080000 		.4byte	.LASF220
 3463 110b B1080000 		.4byte	.LASF220
 3464 110f 07       		.byte	0x7
 3465 1110 BC01     		.2byte	0x1bc
 3466 1112 0A       		.byte	0xa
 3467 1113 38       		.uleb128 0x38
 3468 1114 01       		.byte	0x1
 3469 1115 01       		.byte	0x1
 3470 1116 430A0000 		.4byte	.LASF221
ARM GAS  C:\Users\user\AppData\Local\Temp\ccH9wMRW.s 			page 98


 3471 111a 430A0000 		.4byte	.LASF221
 3472 111e 07       		.byte	0x7
 3473 111f CE01     		.2byte	0x1ce
 3474 1121 0A       		.byte	0xa
 3475 1122 39       		.uleb128 0x39
 3476 1123 01       		.byte	0x1
 3477 1124 01       		.byte	0x1
 3478 1125 5C060000 		.4byte	.LASF231
 3479 1129 60030000 		.4byte	.LASF233
 3480 112d 0E       		.byte	0xe
 3481 112e 00       		.byte	0
 3482 112f 3A       		.uleb128 0x3a
 3483 1130 01       		.byte	0x1
 3484 1131 01       		.byte	0x1
 3485 1132 F2010000 		.4byte	.LASF222
 3486 1136 F2010000 		.4byte	.LASF222
 3487 113a 0C       		.byte	0xc
 3488 113b AB       		.byte	0xab
 3489 113c 07       		.byte	0x7
 3490 113d 38       		.uleb128 0x38
 3491 113e 01       		.byte	0x1
 3492 113f 01       		.byte	0x1
 3493 1140 83040000 		.4byte	.LASF223
 3494 1144 83040000 		.4byte	.LASF223
 3495 1148 0D       		.byte	0xd
 3496 1149 B502     		.2byte	0x2b5
 3497 114b 06       		.byte	0x6
 3498 114c 38       		.uleb128 0x38
 3499 114d 01       		.byte	0x1
 3500 114e 01       		.byte	0x1
 3501 114f F3030000 		.4byte	.LASF224
 3502 1153 F3030000 		.4byte	.LASF224
 3503 1157 08       		.byte	0x8
 3504 1158 5F01     		.2byte	0x15f
 3505 115a 06       		.byte	0x6
 3506 115b 38       		.uleb128 0x38
 3507 115c 01       		.byte	0x1
 3508 115d 01       		.byte	0x1
 3509 115e 8A020000 		.4byte	.LASF225
 3510 1162 8A020000 		.4byte	.LASF225
 3511 1166 0A       		.byte	0xa
 3512 1167 6706     		.2byte	0x667
 3513 1169 10       		.byte	0x10
 3514 116a 38       		.uleb128 0x38
 3515 116b 01       		.byte	0x1
 3516 116c 01       		.byte	0x1
 3517 116d 330A0000 		.4byte	.LASF226
 3518 1171 330A0000 		.4byte	.LASF226
 3519 1175 07       		.byte	0x7
 3520 1176 AD01     		.2byte	0x1ad
 3521 1178 06       		.byte	0x6
 3522 1179 38       		.uleb128 0x38
 3523 117a 01       		.byte	0x1
 3524 117b 01       		.byte	0x1
 3525 117c 2E050000 		.4byte	.LASF227
 3526 1180 2E050000 		.4byte	.LASF227
 3527 1184 07       		.byte	0x7
ARM GAS  C:\Users\user\AppData\Local\Temp\ccH9wMRW.s 			page 99


 3528 1185 B101     		.2byte	0x1b1
 3529 1187 06       		.byte	0x6
 3530 1188 38       		.uleb128 0x38
 3531 1189 01       		.byte	0x1
 3532 118a 01       		.byte	0x1
 3533 118b 35040000 		.4byte	.LASF228
 3534 118f 35040000 		.4byte	.LASF228
 3535 1193 0A       		.byte	0xa
 3536 1194 B402     		.2byte	0x2b4
 3537 1196 0C       		.byte	0xc
 3538 1197 38       		.uleb128 0x38
 3539 1198 01       		.byte	0x1
 3540 1199 01       		.byte	0x1
 3541 119a 14030000 		.4byte	.LASF229
 3542 119e 14030000 		.4byte	.LASF229
 3543 11a2 07       		.byte	0x7
 3544 11a3 BA01     		.2byte	0x1ba
 3545 11a5 06       		.byte	0x6
 3546 11a6 38       		.uleb128 0x38
 3547 11a7 01       		.byte	0x1
 3548 11a8 01       		.byte	0x1
 3549 11a9 6A0B0000 		.4byte	.LASF230
 3550 11ad 6A0B0000 		.4byte	.LASF230
 3551 11b1 0A       		.byte	0xa
 3552 11b2 F503     		.2byte	0x3f5
 3553 11b4 0C       		.byte	0xc
 3554 11b5 39       		.uleb128 0x39
 3555 11b6 01       		.byte	0x1
 3556 11b7 01       		.byte	0x1
 3557 11b8 6D080000 		.4byte	.LASF232
 3558 11bc 8C010000 		.4byte	.LASF234
 3559 11c0 0E       		.byte	0xe
 3560 11c1 00       		.byte	0
 3561 11c2 00       		.byte	0
 3562              		.section	.debug_abbrev,"",%progbits
 3563              	.Ldebug_abbrev0:
 3564 0000 01       		.uleb128 0x1
 3565 0001 11       		.uleb128 0x11
 3566 0002 01       		.byte	0x1
 3567 0003 25       		.uleb128 0x25
 3568 0004 0E       		.uleb128 0xe
 3569 0005 13       		.uleb128 0x13
 3570 0006 0B       		.uleb128 0xb
 3571 0007 03       		.uleb128 0x3
 3572 0008 0E       		.uleb128 0xe
 3573 0009 1B       		.uleb128 0x1b
 3574 000a 0E       		.uleb128 0xe
 3575 000b 11       		.uleb128 0x11
 3576 000c 01       		.uleb128 0x1
 3577 000d 12       		.uleb128 0x12
 3578 000e 01       		.uleb128 0x1
 3579 000f 10       		.uleb128 0x10
 3580 0010 06       		.uleb128 0x6
 3581 0011 00       		.byte	0
 3582 0012 00       		.byte	0
 3583 0013 02       		.uleb128 0x2
 3584 0014 24       		.uleb128 0x24
ARM GAS  C:\Users\user\AppData\Local\Temp\ccH9wMRW.s 			page 100


 3585 0015 00       		.byte	0
 3586 0016 0B       		.uleb128 0xb
 3587 0017 0B       		.uleb128 0xb
 3588 0018 3E       		.uleb128 0x3e
 3589 0019 0B       		.uleb128 0xb
 3590 001a 03       		.uleb128 0x3
 3591 001b 0E       		.uleb128 0xe
 3592 001c 00       		.byte	0
 3593 001d 00       		.byte	0
 3594 001e 03       		.uleb128 0x3
 3595 001f 16       		.uleb128 0x16
 3596 0020 00       		.byte	0
 3597 0021 03       		.uleb128 0x3
 3598 0022 0E       		.uleb128 0xe
 3599 0023 3A       		.uleb128 0x3a
 3600 0024 0B       		.uleb128 0xb
 3601 0025 3B       		.uleb128 0x3b
 3602 0026 0B       		.uleb128 0xb
 3603 0027 39       		.uleb128 0x39
 3604 0028 0B       		.uleb128 0xb
 3605 0029 49       		.uleb128 0x49
 3606 002a 13       		.uleb128 0x13
 3607 002b 00       		.byte	0
 3608 002c 00       		.byte	0
 3609 002d 04       		.uleb128 0x4
 3610 002e 24       		.uleb128 0x24
 3611 002f 00       		.byte	0
 3612 0030 0B       		.uleb128 0xb
 3613 0031 0B       		.uleb128 0xb
 3614 0032 3E       		.uleb128 0x3e
 3615 0033 0B       		.uleb128 0xb
 3616 0034 03       		.uleb128 0x3
 3617 0035 08       		.uleb128 0x8
 3618 0036 00       		.byte	0
 3619 0037 00       		.byte	0
 3620 0038 05       		.uleb128 0x5
 3621 0039 35       		.uleb128 0x35
 3622 003a 00       		.byte	0
 3623 003b 49       		.uleb128 0x49
 3624 003c 13       		.uleb128 0x13
 3625 003d 00       		.byte	0
 3626 003e 00       		.byte	0
 3627 003f 06       		.uleb128 0x6
 3628 0040 26       		.uleb128 0x26
 3629 0041 00       		.byte	0
 3630 0042 49       		.uleb128 0x49
 3631 0043 13       		.uleb128 0x13
 3632 0044 00       		.byte	0
 3633 0045 00       		.byte	0
 3634 0046 07       		.uleb128 0x7
 3635 0047 0F       		.uleb128 0xf
 3636 0048 00       		.byte	0
 3637 0049 0B       		.uleb128 0xb
 3638 004a 0B       		.uleb128 0xb
 3639 004b 00       		.byte	0
 3640 004c 00       		.byte	0
 3641 004d 08       		.uleb128 0x8
ARM GAS  C:\Users\user\AppData\Local\Temp\ccH9wMRW.s 			page 101


 3642 004e 04       		.uleb128 0x4
 3643 004f 01       		.byte	0x1
 3644 0050 3E       		.uleb128 0x3e
 3645 0051 0B       		.uleb128 0xb
 3646 0052 0B       		.uleb128 0xb
 3647 0053 0B       		.uleb128 0xb
 3648 0054 49       		.uleb128 0x49
 3649 0055 13       		.uleb128 0x13
 3650 0056 3A       		.uleb128 0x3a
 3651 0057 0B       		.uleb128 0xb
 3652 0058 3B       		.uleb128 0x3b
 3653 0059 0B       		.uleb128 0xb
 3654 005a 39       		.uleb128 0x39
 3655 005b 0B       		.uleb128 0xb
 3656 005c 01       		.uleb128 0x1
 3657 005d 13       		.uleb128 0x13
 3658 005e 00       		.byte	0
 3659 005f 00       		.byte	0
 3660 0060 09       		.uleb128 0x9
 3661 0061 28       		.uleb128 0x28
 3662 0062 00       		.byte	0
 3663 0063 03       		.uleb128 0x3
 3664 0064 0E       		.uleb128 0xe
 3665 0065 1C       		.uleb128 0x1c
 3666 0066 0B       		.uleb128 0xb
 3667 0067 00       		.byte	0
 3668 0068 00       		.byte	0
 3669 0069 0A       		.uleb128 0xa
 3670 006a 13       		.uleb128 0x13
 3671 006b 01       		.byte	0x1
 3672 006c 0B       		.uleb128 0xb
 3673 006d 0B       		.uleb128 0xb
 3674 006e 3A       		.uleb128 0x3a
 3675 006f 0B       		.uleb128 0xb
 3676 0070 3B       		.uleb128 0x3b
 3677 0071 0B       		.uleb128 0xb
 3678 0072 39       		.uleb128 0x39
 3679 0073 0B       		.uleb128 0xb
 3680 0074 01       		.uleb128 0x1
 3681 0075 13       		.uleb128 0x13
 3682 0076 00       		.byte	0
 3683 0077 00       		.byte	0
 3684 0078 0B       		.uleb128 0xb
 3685 0079 0D       		.uleb128 0xd
 3686 007a 00       		.byte	0
 3687 007b 03       		.uleb128 0x3
 3688 007c 08       		.uleb128 0x8
 3689 007d 3A       		.uleb128 0x3a
 3690 007e 0B       		.uleb128 0xb
 3691 007f 3B       		.uleb128 0x3b
 3692 0080 0B       		.uleb128 0xb
 3693 0081 39       		.uleb128 0x39
 3694 0082 0B       		.uleb128 0xb
 3695 0083 49       		.uleb128 0x49
 3696 0084 13       		.uleb128 0x13
 3697 0085 38       		.uleb128 0x38
 3698 0086 0A       		.uleb128 0xa
ARM GAS  C:\Users\user\AppData\Local\Temp\ccH9wMRW.s 			page 102


 3699 0087 00       		.byte	0
 3700 0088 00       		.byte	0
 3701 0089 0C       		.uleb128 0xc
 3702 008a 0D       		.uleb128 0xd
 3703 008b 00       		.byte	0
 3704 008c 03       		.uleb128 0x3
 3705 008d 0E       		.uleb128 0xe
 3706 008e 3A       		.uleb128 0x3a
 3707 008f 0B       		.uleb128 0xb
 3708 0090 3B       		.uleb128 0x3b
 3709 0091 0B       		.uleb128 0xb
 3710 0092 39       		.uleb128 0x39
 3711 0093 0B       		.uleb128 0xb
 3712 0094 49       		.uleb128 0x49
 3713 0095 13       		.uleb128 0x13
 3714 0096 38       		.uleb128 0x38
 3715 0097 0A       		.uleb128 0xa
 3716 0098 00       		.byte	0
 3717 0099 00       		.byte	0
 3718 009a 0D       		.uleb128 0xd
 3719 009b 01       		.uleb128 0x1
 3720 009c 01       		.byte	0x1
 3721 009d 49       		.uleb128 0x49
 3722 009e 13       		.uleb128 0x13
 3723 009f 01       		.uleb128 0x1
 3724 00a0 13       		.uleb128 0x13
 3725 00a1 00       		.byte	0
 3726 00a2 00       		.byte	0
 3727 00a3 0E       		.uleb128 0xe
 3728 00a4 21       		.uleb128 0x21
 3729 00a5 00       		.byte	0
 3730 00a6 49       		.uleb128 0x49
 3731 00a7 13       		.uleb128 0x13
 3732 00a8 2F       		.uleb128 0x2f
 3733 00a9 0B       		.uleb128 0xb
 3734 00aa 00       		.byte	0
 3735 00ab 00       		.byte	0
 3736 00ac 0F       		.uleb128 0xf
 3737 00ad 04       		.uleb128 0x4
 3738 00ae 01       		.byte	0x1
 3739 00af 03       		.uleb128 0x3
 3740 00b0 0E       		.uleb128 0xe
 3741 00b1 3E       		.uleb128 0x3e
 3742 00b2 0B       		.uleb128 0xb
 3743 00b3 0B       		.uleb128 0xb
 3744 00b4 0B       		.uleb128 0xb
 3745 00b5 49       		.uleb128 0x49
 3746 00b6 13       		.uleb128 0x13
 3747 00b7 3A       		.uleb128 0x3a
 3748 00b8 0B       		.uleb128 0xb
 3749 00b9 3B       		.uleb128 0x3b
 3750 00ba 0B       		.uleb128 0xb
 3751 00bb 39       		.uleb128 0x39
 3752 00bc 0B       		.uleb128 0xb
 3753 00bd 01       		.uleb128 0x1
 3754 00be 13       		.uleb128 0x13
 3755 00bf 00       		.byte	0
ARM GAS  C:\Users\user\AppData\Local\Temp\ccH9wMRW.s 			page 103


 3756 00c0 00       		.byte	0
 3757 00c1 10       		.uleb128 0x10
 3758 00c2 28       		.uleb128 0x28
 3759 00c3 00       		.byte	0
 3760 00c4 03       		.uleb128 0x3
 3761 00c5 0E       		.uleb128 0xe
 3762 00c6 1C       		.uleb128 0x1c
 3763 00c7 0D       		.uleb128 0xd
 3764 00c8 00       		.byte	0
 3765 00c9 00       		.byte	0
 3766 00ca 11       		.uleb128 0x11
 3767 00cb 16       		.uleb128 0x16
 3768 00cc 00       		.byte	0
 3769 00cd 03       		.uleb128 0x3
 3770 00ce 0E       		.uleb128 0xe
 3771 00cf 3A       		.uleb128 0x3a
 3772 00d0 0B       		.uleb128 0xb
 3773 00d1 3B       		.uleb128 0x3b
 3774 00d2 05       		.uleb128 0x5
 3775 00d3 39       		.uleb128 0x39
 3776 00d4 0B       		.uleb128 0xb
 3777 00d5 49       		.uleb128 0x49
 3778 00d6 13       		.uleb128 0x13
 3779 00d7 00       		.byte	0
 3780 00d8 00       		.byte	0
 3781 00d9 12       		.uleb128 0x12
 3782 00da 13       		.uleb128 0x13
 3783 00db 01       		.byte	0x1
 3784 00dc 0B       		.uleb128 0xb
 3785 00dd 05       		.uleb128 0x5
 3786 00de 3A       		.uleb128 0x3a
 3787 00df 0B       		.uleb128 0xb
 3788 00e0 3B       		.uleb128 0x3b
 3789 00e1 0B       		.uleb128 0xb
 3790 00e2 39       		.uleb128 0x39
 3791 00e3 0B       		.uleb128 0xb
 3792 00e4 01       		.uleb128 0x1
 3793 00e5 13       		.uleb128 0x13
 3794 00e6 00       		.byte	0
 3795 00e7 00       		.byte	0
 3796 00e8 13       		.uleb128 0x13
 3797 00e9 21       		.uleb128 0x21
 3798 00ea 00       		.byte	0
 3799 00eb 49       		.uleb128 0x49
 3800 00ec 13       		.uleb128 0x13
 3801 00ed 2F       		.uleb128 0x2f
 3802 00ee 05       		.uleb128 0x5
 3803 00ef 00       		.byte	0
 3804 00f0 00       		.byte	0
 3805 00f1 14       		.uleb128 0x14
 3806 00f2 04       		.uleb128 0x4
 3807 00f3 01       		.byte	0x1
 3808 00f4 3E       		.uleb128 0x3e
 3809 00f5 0B       		.uleb128 0xb
 3810 00f6 0B       		.uleb128 0xb
 3811 00f7 0B       		.uleb128 0xb
 3812 00f8 49       		.uleb128 0x49
ARM GAS  C:\Users\user\AppData\Local\Temp\ccH9wMRW.s 			page 104


 3813 00f9 13       		.uleb128 0x13
 3814 00fa 3A       		.uleb128 0x3a
 3815 00fb 0B       		.uleb128 0xb
 3816 00fc 3B       		.uleb128 0x3b
 3817 00fd 05       		.uleb128 0x5
 3818 00fe 39       		.uleb128 0x39
 3819 00ff 0B       		.uleb128 0xb
 3820 0100 01       		.uleb128 0x1
 3821 0101 13       		.uleb128 0x13
 3822 0102 00       		.byte	0
 3823 0103 00       		.byte	0
 3824 0104 15       		.uleb128 0x15
 3825 0105 13       		.uleb128 0x13
 3826 0106 01       		.byte	0x1
 3827 0107 0B       		.uleb128 0xb
 3828 0108 0B       		.uleb128 0xb
 3829 0109 3A       		.uleb128 0x3a
 3830 010a 0B       		.uleb128 0xb
 3831 010b 3B       		.uleb128 0x3b
 3832 010c 05       		.uleb128 0x5
 3833 010d 39       		.uleb128 0x39
 3834 010e 0B       		.uleb128 0xb
 3835 010f 01       		.uleb128 0x1
 3836 0110 13       		.uleb128 0x13
 3837 0111 00       		.byte	0
 3838 0112 00       		.byte	0
 3839 0113 16       		.uleb128 0x16
 3840 0114 0D       		.uleb128 0xd
 3841 0115 00       		.byte	0
 3842 0116 03       		.uleb128 0x3
 3843 0117 08       		.uleb128 0x8
 3844 0118 3A       		.uleb128 0x3a
 3845 0119 0B       		.uleb128 0xb
 3846 011a 3B       		.uleb128 0x3b
 3847 011b 05       		.uleb128 0x5
 3848 011c 39       		.uleb128 0x39
 3849 011d 0B       		.uleb128 0xb
 3850 011e 49       		.uleb128 0x49
 3851 011f 13       		.uleb128 0x13
 3852 0120 38       		.uleb128 0x38
 3853 0121 0A       		.uleb128 0xa
 3854 0122 00       		.byte	0
 3855 0123 00       		.byte	0
 3856 0124 17       		.uleb128 0x17
 3857 0125 0D       		.uleb128 0xd
 3858 0126 00       		.byte	0
 3859 0127 03       		.uleb128 0x3
 3860 0128 0E       		.uleb128 0xe
 3861 0129 3A       		.uleb128 0x3a
 3862 012a 0B       		.uleb128 0xb
 3863 012b 3B       		.uleb128 0x3b
 3864 012c 05       		.uleb128 0x5
 3865 012d 39       		.uleb128 0x39
 3866 012e 0B       		.uleb128 0xb
 3867 012f 49       		.uleb128 0x49
 3868 0130 13       		.uleb128 0x13
 3869 0131 38       		.uleb128 0x38
ARM GAS  C:\Users\user\AppData\Local\Temp\ccH9wMRW.s 			page 105


 3870 0132 0A       		.uleb128 0xa
 3871 0133 00       		.byte	0
 3872 0134 00       		.byte	0
 3873 0135 18       		.uleb128 0x18
 3874 0136 34       		.uleb128 0x34
 3875 0137 00       		.byte	0
 3876 0138 03       		.uleb128 0x3
 3877 0139 0E       		.uleb128 0xe
 3878 013a 3A       		.uleb128 0x3a
 3879 013b 0B       		.uleb128 0xb
 3880 013c 3B       		.uleb128 0x3b
 3881 013d 0B       		.uleb128 0xb
 3882 013e 39       		.uleb128 0x39
 3883 013f 0B       		.uleb128 0xb
 3884 0140 49       		.uleb128 0x49
 3885 0141 13       		.uleb128 0x13
 3886 0142 3F       		.uleb128 0x3f
 3887 0143 0C       		.uleb128 0xc
 3888 0144 02       		.uleb128 0x2
 3889 0145 0A       		.uleb128 0xa
 3890 0146 00       		.byte	0
 3891 0147 00       		.byte	0
 3892 0148 19       		.uleb128 0x19
 3893 0149 2E       		.uleb128 0x2e
 3894 014a 01       		.byte	0x1
 3895 014b 3F       		.uleb128 0x3f
 3896 014c 0C       		.uleb128 0xc
 3897 014d 03       		.uleb128 0x3
 3898 014e 0E       		.uleb128 0xe
 3899 014f 3A       		.uleb128 0x3a
 3900 0150 0B       		.uleb128 0xb
 3901 0151 3B       		.uleb128 0x3b
 3902 0152 05       		.uleb128 0x5
 3903 0153 39       		.uleb128 0x39
 3904 0154 0B       		.uleb128 0xb
 3905 0155 11       		.uleb128 0x11
 3906 0156 01       		.uleb128 0x1
 3907 0157 12       		.uleb128 0x12
 3908 0158 01       		.uleb128 0x1
 3909 0159 40       		.uleb128 0x40
 3910 015a 06       		.uleb128 0x6
 3911 015b 9742     		.uleb128 0x2117
 3912 015d 0C       		.uleb128 0xc
 3913 015e 01       		.uleb128 0x1
 3914 015f 13       		.uleb128 0x13
 3915 0160 00       		.byte	0
 3916 0161 00       		.byte	0
 3917 0162 1A       		.uleb128 0x1a
 3918 0163 34       		.uleb128 0x34
 3919 0164 00       		.byte	0
 3920 0165 03       		.uleb128 0x3
 3921 0166 0E       		.uleb128 0xe
 3922 0167 3A       		.uleb128 0x3a
 3923 0168 0B       		.uleb128 0xb
 3924 0169 3B       		.uleb128 0x3b
 3925 016a 05       		.uleb128 0x5
 3926 016b 39       		.uleb128 0x39
ARM GAS  C:\Users\user\AppData\Local\Temp\ccH9wMRW.s 			page 106


 3927 016c 0B       		.uleb128 0xb
 3928 016d 49       		.uleb128 0x49
 3929 016e 13       		.uleb128 0x13
 3930 016f 02       		.uleb128 0x2
 3931 0170 0A       		.uleb128 0xa
 3932 0171 00       		.byte	0
 3933 0172 00       		.byte	0
 3934 0173 1B       		.uleb128 0x1b
 3935 0174 0B       		.uleb128 0xb
 3936 0175 01       		.byte	0x1
 3937 0176 55       		.uleb128 0x55
 3938 0177 06       		.uleb128 0x6
 3939 0178 01       		.uleb128 0x1
 3940 0179 13       		.uleb128 0x13
 3941 017a 00       		.byte	0
 3942 017b 00       		.byte	0
 3943 017c 1C       		.uleb128 0x1c
 3944 017d 34       		.uleb128 0x34
 3945 017e 00       		.byte	0
 3946 017f 03       		.uleb128 0x3
 3947 0180 0E       		.uleb128 0xe
 3948 0181 3A       		.uleb128 0x3a
 3949 0182 0B       		.uleb128 0xb
 3950 0183 3B       		.uleb128 0x3b
 3951 0184 05       		.uleb128 0x5
 3952 0185 39       		.uleb128 0x39
 3953 0186 0B       		.uleb128 0xb
 3954 0187 49       		.uleb128 0x49
 3955 0188 13       		.uleb128 0x13
 3956 0189 02       		.uleb128 0x2
 3957 018a 06       		.uleb128 0x6
 3958 018b B742     		.uleb128 0x2137
 3959 018d 06       		.uleb128 0x6
 3960 018e 00       		.byte	0
 3961 018f 00       		.byte	0
 3962 0190 1D       		.uleb128 0x1d
 3963 0191 898201   		.uleb128 0x4109
 3964 0194 01       		.byte	0x1
 3965 0195 11       		.uleb128 0x11
 3966 0196 01       		.uleb128 0x1
 3967 0197 31       		.uleb128 0x31
 3968 0198 13       		.uleb128 0x13
 3969 0199 01       		.uleb128 0x1
 3970 019a 13       		.uleb128 0x13
 3971 019b 00       		.byte	0
 3972 019c 00       		.byte	0
 3973 019d 1E       		.uleb128 0x1e
 3974 019e 8A8201   		.uleb128 0x410a
 3975 01a1 00       		.byte	0
 3976 01a2 02       		.uleb128 0x2
 3977 01a3 0A       		.uleb128 0xa
 3978 01a4 9142     		.uleb128 0x2111
 3979 01a6 0A       		.uleb128 0xa
 3980 01a7 00       		.byte	0
 3981 01a8 00       		.byte	0
 3982 01a9 1F       		.uleb128 0x1f
 3983 01aa 898201   		.uleb128 0x4109
ARM GAS  C:\Users\user\AppData\Local\Temp\ccH9wMRW.s 			page 107


 3984 01ad 01       		.byte	0x1
 3985 01ae 11       		.uleb128 0x11
 3986 01af 01       		.uleb128 0x1
 3987 01b0 31       		.uleb128 0x31
 3988 01b1 13       		.uleb128 0x13
 3989 01b2 00       		.byte	0
 3990 01b3 00       		.byte	0
 3991 01b4 20       		.uleb128 0x20
 3992 01b5 0F       		.uleb128 0xf
 3993 01b6 00       		.byte	0
 3994 01b7 0B       		.uleb128 0xb
 3995 01b8 0B       		.uleb128 0xb
 3996 01b9 49       		.uleb128 0x49
 3997 01ba 13       		.uleb128 0x13
 3998 01bb 00       		.byte	0
 3999 01bc 00       		.byte	0
 4000 01bd 21       		.uleb128 0x21
 4001 01be 2E       		.uleb128 0x2e
 4002 01bf 01       		.byte	0x1
 4003 01c0 3F       		.uleb128 0x3f
 4004 01c1 0C       		.uleb128 0xc
 4005 01c2 03       		.uleb128 0x3
 4006 01c3 0E       		.uleb128 0xe
 4007 01c4 3A       		.uleb128 0x3a
 4008 01c5 0B       		.uleb128 0xb
 4009 01c6 3B       		.uleb128 0x3b
 4010 01c7 0B       		.uleb128 0xb
 4011 01c8 39       		.uleb128 0x39
 4012 01c9 0B       		.uleb128 0xb
 4013 01ca 27       		.uleb128 0x27
 4014 01cb 0C       		.uleb128 0xc
 4015 01cc 49       		.uleb128 0x49
 4016 01cd 13       		.uleb128 0x13
 4017 01ce 11       		.uleb128 0x11
 4018 01cf 01       		.uleb128 0x1
 4019 01d0 12       		.uleb128 0x12
 4020 01d1 01       		.uleb128 0x1
 4021 01d2 40       		.uleb128 0x40
 4022 01d3 0A       		.uleb128 0xa
 4023 01d4 9742     		.uleb128 0x2117
 4024 01d6 0C       		.uleb128 0xc
 4025 01d7 01       		.uleb128 0x1
 4026 01d8 13       		.uleb128 0x13
 4027 01d9 00       		.byte	0
 4028 01da 00       		.byte	0
 4029 01db 22       		.uleb128 0x22
 4030 01dc 05       		.uleb128 0x5
 4031 01dd 00       		.byte	0
 4032 01de 03       		.uleb128 0x3
 4033 01df 08       		.uleb128 0x8
 4034 01e0 3A       		.uleb128 0x3a
 4035 01e1 0B       		.uleb128 0xb
 4036 01e2 3B       		.uleb128 0x3b
 4037 01e3 0B       		.uleb128 0xb
 4038 01e4 39       		.uleb128 0x39
 4039 01e5 0B       		.uleb128 0xb
 4040 01e6 49       		.uleb128 0x49
ARM GAS  C:\Users\user\AppData\Local\Temp\ccH9wMRW.s 			page 108


 4041 01e7 13       		.uleb128 0x13
 4042 01e8 02       		.uleb128 0x2
 4043 01e9 06       		.uleb128 0x6
 4044 01ea B742     		.uleb128 0x2137
 4045 01ec 06       		.uleb128 0x6
 4046 01ed 00       		.byte	0
 4047 01ee 00       		.byte	0
 4048 01ef 23       		.uleb128 0x23
 4049 01f0 34       		.uleb128 0x34
 4050 01f1 00       		.byte	0
 4051 01f2 03       		.uleb128 0x3
 4052 01f3 08       		.uleb128 0x8
 4053 01f4 3A       		.uleb128 0x3a
 4054 01f5 0B       		.uleb128 0xb
 4055 01f6 3B       		.uleb128 0x3b
 4056 01f7 0B       		.uleb128 0xb
 4057 01f8 39       		.uleb128 0x39
 4058 01f9 0B       		.uleb128 0xb
 4059 01fa 49       		.uleb128 0x49
 4060 01fb 13       		.uleb128 0x13
 4061 01fc 02       		.uleb128 0x2
 4062 01fd 06       		.uleb128 0x6
 4063 01fe B742     		.uleb128 0x2137
 4064 0200 06       		.uleb128 0x6
 4065 0201 00       		.byte	0
 4066 0202 00       		.byte	0
 4067 0203 24       		.uleb128 0x24
 4068 0204 2E       		.uleb128 0x2e
 4069 0205 01       		.byte	0x1
 4070 0206 3F       		.uleb128 0x3f
 4071 0207 0C       		.uleb128 0xc
 4072 0208 03       		.uleb128 0x3
 4073 0209 0E       		.uleb128 0xe
 4074 020a 3A       		.uleb128 0x3a
 4075 020b 0B       		.uleb128 0xb
 4076 020c 3B       		.uleb128 0x3b
 4077 020d 0B       		.uleb128 0xb
 4078 020e 39       		.uleb128 0x39
 4079 020f 0B       		.uleb128 0xb
 4080 0210 27       		.uleb128 0x27
 4081 0211 0C       		.uleb128 0xc
 4082 0212 49       		.uleb128 0x49
 4083 0213 13       		.uleb128 0x13
 4084 0214 11       		.uleb128 0x11
 4085 0215 01       		.uleb128 0x1
 4086 0216 12       		.uleb128 0x12
 4087 0217 01       		.uleb128 0x1
 4088 0218 40       		.uleb128 0x40
 4089 0219 06       		.uleb128 0x6
 4090 021a 9742     		.uleb128 0x2117
 4091 021c 0C       		.uleb128 0xc
 4092 021d 01       		.uleb128 0x1
 4093 021e 13       		.uleb128 0x13
 4094 021f 00       		.byte	0
 4095 0220 00       		.byte	0
 4096 0221 25       		.uleb128 0x25
 4097 0222 05       		.uleb128 0x5
ARM GAS  C:\Users\user\AppData\Local\Temp\ccH9wMRW.s 			page 109


 4098 0223 00       		.byte	0
 4099 0224 03       		.uleb128 0x3
 4100 0225 0E       		.uleb128 0xe
 4101 0226 3A       		.uleb128 0x3a
 4102 0227 0B       		.uleb128 0xb
 4103 0228 3B       		.uleb128 0x3b
 4104 0229 0B       		.uleb128 0xb
 4105 022a 39       		.uleb128 0x39
 4106 022b 0B       		.uleb128 0xb
 4107 022c 49       		.uleb128 0x49
 4108 022d 13       		.uleb128 0x13
 4109 022e 02       		.uleb128 0x2
 4110 022f 06       		.uleb128 0x6
 4111 0230 B742     		.uleb128 0x2137
 4112 0232 06       		.uleb128 0x6
 4113 0233 00       		.byte	0
 4114 0234 00       		.byte	0
 4115 0235 26       		.uleb128 0x26
 4116 0236 34       		.uleb128 0x34
 4117 0237 00       		.byte	0
 4118 0238 03       		.uleb128 0x3
 4119 0239 0E       		.uleb128 0xe
 4120 023a 3A       		.uleb128 0x3a
 4121 023b 0B       		.uleb128 0xb
 4122 023c 3B       		.uleb128 0x3b
 4123 023d 0B       		.uleb128 0xb
 4124 023e 39       		.uleb128 0x39
 4125 023f 0B       		.uleb128 0xb
 4126 0240 49       		.uleb128 0x49
 4127 0241 13       		.uleb128 0x13
 4128 0242 02       		.uleb128 0x2
 4129 0243 06       		.uleb128 0x6
 4130 0244 B742     		.uleb128 0x2137
 4131 0246 06       		.uleb128 0x6
 4132 0247 00       		.byte	0
 4133 0248 00       		.byte	0
 4134 0249 27       		.uleb128 0x27
 4135 024a 34       		.uleb128 0x34
 4136 024b 00       		.byte	0
 4137 024c 03       		.uleb128 0x3
 4138 024d 0E       		.uleb128 0xe
 4139 024e 3A       		.uleb128 0x3a
 4140 024f 0B       		.uleb128 0xb
 4141 0250 3B       		.uleb128 0x3b
 4142 0251 0B       		.uleb128 0xb
 4143 0252 39       		.uleb128 0x39
 4144 0253 0B       		.uleb128 0xb
 4145 0254 49       		.uleb128 0x49
 4146 0255 13       		.uleb128 0x13
 4147 0256 02       		.uleb128 0x2
 4148 0257 0A       		.uleb128 0xa
 4149 0258 00       		.byte	0
 4150 0259 00       		.byte	0
 4151 025a 28       		.uleb128 0x28
 4152 025b 898201   		.uleb128 0x4109
 4153 025e 00       		.byte	0
 4154 025f 11       		.uleb128 0x11
ARM GAS  C:\Users\user\AppData\Local\Temp\ccH9wMRW.s 			page 110


 4155 0260 01       		.uleb128 0x1
 4156 0261 31       		.uleb128 0x31
 4157 0262 13       		.uleb128 0x13
 4158 0263 00       		.byte	0
 4159 0264 00       		.byte	0
 4160 0265 29       		.uleb128 0x29
 4161 0266 2E       		.uleb128 0x2e
 4162 0267 01       		.byte	0x1
 4163 0268 3F       		.uleb128 0x3f
 4164 0269 0C       		.uleb128 0xc
 4165 026a 03       		.uleb128 0x3
 4166 026b 0E       		.uleb128 0xe
 4167 026c 3A       		.uleb128 0x3a
 4168 026d 0B       		.uleb128 0xb
 4169 026e 3B       		.uleb128 0x3b
 4170 026f 0B       		.uleb128 0xb
 4171 0270 39       		.uleb128 0x39
 4172 0271 0B       		.uleb128 0xb
 4173 0272 11       		.uleb128 0x11
 4174 0273 01       		.uleb128 0x1
 4175 0274 12       		.uleb128 0x12
 4176 0275 01       		.uleb128 0x1
 4177 0276 40       		.uleb128 0x40
 4178 0277 0A       		.uleb128 0xa
 4179 0278 9742     		.uleb128 0x2117
 4180 027a 0C       		.uleb128 0xc
 4181 027b 01       		.uleb128 0x1
 4182 027c 13       		.uleb128 0x13
 4183 027d 00       		.byte	0
 4184 027e 00       		.byte	0
 4185 027f 2A       		.uleb128 0x2a
 4186 0280 898201   		.uleb128 0x4109
 4187 0283 01       		.byte	0x1
 4188 0284 11       		.uleb128 0x11
 4189 0285 01       		.uleb128 0x1
 4190 0286 9542     		.uleb128 0x2115
 4191 0288 0C       		.uleb128 0xc
 4192 0289 31       		.uleb128 0x31
 4193 028a 13       		.uleb128 0x13
 4194 028b 00       		.byte	0
 4195 028c 00       		.byte	0
 4196 028d 2B       		.uleb128 0x2b
 4197 028e 2E       		.uleb128 0x2e
 4198 028f 01       		.byte	0x1
 4199 0290 3F       		.uleb128 0x3f
 4200 0291 0C       		.uleb128 0xc
 4201 0292 03       		.uleb128 0x3
 4202 0293 0E       		.uleb128 0xe
 4203 0294 3A       		.uleb128 0x3a
 4204 0295 0B       		.uleb128 0xb
 4205 0296 3B       		.uleb128 0x3b
 4206 0297 0B       		.uleb128 0xb
 4207 0298 39       		.uleb128 0x39
 4208 0299 0B       		.uleb128 0xb
 4209 029a 27       		.uleb128 0x27
 4210 029b 0C       		.uleb128 0xc
 4211 029c 20       		.uleb128 0x20
ARM GAS  C:\Users\user\AppData\Local\Temp\ccH9wMRW.s 			page 111


 4212 029d 0B       		.uleb128 0xb
 4213 029e 01       		.uleb128 0x1
 4214 029f 13       		.uleb128 0x13
 4215 02a0 00       		.byte	0
 4216 02a1 00       		.byte	0
 4217 02a2 2C       		.uleb128 0x2c
 4218 02a3 05       		.uleb128 0x5
 4219 02a4 00       		.byte	0
 4220 02a5 03       		.uleb128 0x3
 4221 02a6 08       		.uleb128 0x8
 4222 02a7 3A       		.uleb128 0x3a
 4223 02a8 0B       		.uleb128 0xb
 4224 02a9 3B       		.uleb128 0x3b
 4225 02aa 0B       		.uleb128 0xb
 4226 02ab 39       		.uleb128 0x39
 4227 02ac 0B       		.uleb128 0xb
 4228 02ad 49       		.uleb128 0x49
 4229 02ae 13       		.uleb128 0x13
 4230 02af 00       		.byte	0
 4231 02b0 00       		.byte	0
 4232 02b1 2D       		.uleb128 0x2d
 4233 02b2 0B       		.uleb128 0xb
 4234 02b3 01       		.byte	0x1
 4235 02b4 00       		.byte	0
 4236 02b5 00       		.byte	0
 4237 02b6 2E       		.uleb128 0x2e
 4238 02b7 34       		.uleb128 0x34
 4239 02b8 00       		.byte	0
 4240 02b9 03       		.uleb128 0x3
 4241 02ba 08       		.uleb128 0x8
 4242 02bb 3A       		.uleb128 0x3a
 4243 02bc 0B       		.uleb128 0xb
 4244 02bd 3B       		.uleb128 0x3b
 4245 02be 0B       		.uleb128 0xb
 4246 02bf 39       		.uleb128 0x39
 4247 02c0 0B       		.uleb128 0xb
 4248 02c1 49       		.uleb128 0x49
 4249 02c2 13       		.uleb128 0x13
 4250 02c3 00       		.byte	0
 4251 02c4 00       		.byte	0
 4252 02c5 2F       		.uleb128 0x2f
 4253 02c6 2E       		.uleb128 0x2e
 4254 02c7 01       		.byte	0x1
 4255 02c8 3F       		.uleb128 0x3f
 4256 02c9 0C       		.uleb128 0xc
 4257 02ca 03       		.uleb128 0x3
 4258 02cb 0E       		.uleb128 0xe
 4259 02cc 3A       		.uleb128 0x3a
 4260 02cd 0B       		.uleb128 0xb
 4261 02ce 3B       		.uleb128 0x3b
 4262 02cf 0B       		.uleb128 0xb
 4263 02d0 39       		.uleb128 0x39
 4264 02d1 0B       		.uleb128 0xb
 4265 02d2 11       		.uleb128 0x11
 4266 02d3 01       		.uleb128 0x1
 4267 02d4 12       		.uleb128 0x12
 4268 02d5 01       		.uleb128 0x1
ARM GAS  C:\Users\user\AppData\Local\Temp\ccH9wMRW.s 			page 112


 4269 02d6 40       		.uleb128 0x40
 4270 02d7 06       		.uleb128 0x6
 4271 02d8 9742     		.uleb128 0x2117
 4272 02da 0C       		.uleb128 0xc
 4273 02db 01       		.uleb128 0x1
 4274 02dc 13       		.uleb128 0x13
 4275 02dd 00       		.byte	0
 4276 02de 00       		.byte	0
 4277 02df 30       		.uleb128 0x30
 4278 02e0 1D       		.uleb128 0x1d
 4279 02e1 01       		.byte	0x1
 4280 02e2 31       		.uleb128 0x31
 4281 02e3 13       		.uleb128 0x13
 4282 02e4 52       		.uleb128 0x52
 4283 02e5 01       		.uleb128 0x1
 4284 02e6 B842     		.uleb128 0x2138
 4285 02e8 0B       		.uleb128 0xb
 4286 02e9 55       		.uleb128 0x55
 4287 02ea 06       		.uleb128 0x6
 4288 02eb 58       		.uleb128 0x58
 4289 02ec 0B       		.uleb128 0xb
 4290 02ed 59       		.uleb128 0x59
 4291 02ee 0B       		.uleb128 0xb
 4292 02ef 57       		.uleb128 0x57
 4293 02f0 0B       		.uleb128 0xb
 4294 02f1 01       		.uleb128 0x1
 4295 02f2 13       		.uleb128 0x13
 4296 02f3 00       		.byte	0
 4297 02f4 00       		.byte	0
 4298 02f5 31       		.uleb128 0x31
 4299 02f6 05       		.uleb128 0x5
 4300 02f7 00       		.byte	0
 4301 02f8 31       		.uleb128 0x31
 4302 02f9 13       		.uleb128 0x13
 4303 02fa 02       		.uleb128 0x2
 4304 02fb 06       		.uleb128 0x6
 4305 02fc B742     		.uleb128 0x2137
 4306 02fe 06       		.uleb128 0x6
 4307 02ff 00       		.byte	0
 4308 0300 00       		.byte	0
 4309 0301 32       		.uleb128 0x32
 4310 0302 1D       		.uleb128 0x1d
 4311 0303 01       		.byte	0x1
 4312 0304 31       		.uleb128 0x31
 4313 0305 13       		.uleb128 0x13
 4314 0306 52       		.uleb128 0x52
 4315 0307 01       		.uleb128 0x1
 4316 0308 B842     		.uleb128 0x2138
 4317 030a 0B       		.uleb128 0xb
 4318 030b 11       		.uleb128 0x11
 4319 030c 01       		.uleb128 0x1
 4320 030d 12       		.uleb128 0x12
 4321 030e 01       		.uleb128 0x1
 4322 030f 58       		.uleb128 0x58
 4323 0310 0B       		.uleb128 0xb
 4324 0311 59       		.uleb128 0x59
 4325 0312 0B       		.uleb128 0xb
ARM GAS  C:\Users\user\AppData\Local\Temp\ccH9wMRW.s 			page 113


 4326 0313 57       		.uleb128 0x57
 4327 0314 0B       		.uleb128 0xb
 4328 0315 01       		.uleb128 0x1
 4329 0316 13       		.uleb128 0x13
 4330 0317 00       		.byte	0
 4331 0318 00       		.byte	0
 4332 0319 33       		.uleb128 0x33
 4333 031a 2E       		.uleb128 0x2e
 4334 031b 01       		.byte	0x1
 4335 031c 03       		.uleb128 0x3
 4336 031d 0E       		.uleb128 0xe
 4337 031e 3A       		.uleb128 0x3a
 4338 031f 0B       		.uleb128 0xb
 4339 0320 3B       		.uleb128 0x3b
 4340 0321 05       		.uleb128 0x5
 4341 0322 39       		.uleb128 0x39
 4342 0323 0B       		.uleb128 0xb
 4343 0324 27       		.uleb128 0x27
 4344 0325 0C       		.uleb128 0xc
 4345 0326 20       		.uleb128 0x20
 4346 0327 0B       		.uleb128 0xb
 4347 0328 01       		.uleb128 0x1
 4348 0329 13       		.uleb128 0x13
 4349 032a 00       		.byte	0
 4350 032b 00       		.byte	0
 4351 032c 34       		.uleb128 0x34
 4352 032d 05       		.uleb128 0x5
 4353 032e 00       		.byte	0
 4354 032f 03       		.uleb128 0x3
 4355 0330 0E       		.uleb128 0xe
 4356 0331 3A       		.uleb128 0x3a
 4357 0332 0B       		.uleb128 0xb
 4358 0333 3B       		.uleb128 0x3b
 4359 0334 05       		.uleb128 0x5
 4360 0335 39       		.uleb128 0x39
 4361 0336 0B       		.uleb128 0xb
 4362 0337 49       		.uleb128 0x49
 4363 0338 13       		.uleb128 0x13
 4364 0339 00       		.byte	0
 4365 033a 00       		.byte	0
 4366 033b 35       		.uleb128 0x35
 4367 033c 2E       		.uleb128 0x2e
 4368 033d 01       		.byte	0x1
 4369 033e 31       		.uleb128 0x31
 4370 033f 13       		.uleb128 0x13
 4371 0340 11       		.uleb128 0x11
 4372 0341 01       		.uleb128 0x1
 4373 0342 12       		.uleb128 0x12
 4374 0343 01       		.uleb128 0x1
 4375 0344 40       		.uleb128 0x40
 4376 0345 06       		.uleb128 0x6
 4377 0346 9742     		.uleb128 0x2117
 4378 0348 0C       		.uleb128 0xc
 4379 0349 01       		.uleb128 0x1
 4380 034a 13       		.uleb128 0x13
 4381 034b 00       		.byte	0
 4382 034c 00       		.byte	0
ARM GAS  C:\Users\user\AppData\Local\Temp\ccH9wMRW.s 			page 114


 4383 034d 36       		.uleb128 0x36
 4384 034e 0B       		.uleb128 0xb
 4385 034f 01       		.byte	0x1
 4386 0350 31       		.uleb128 0x31
 4387 0351 13       		.uleb128 0x13
 4388 0352 55       		.uleb128 0x55
 4389 0353 06       		.uleb128 0x6
 4390 0354 01       		.uleb128 0x1
 4391 0355 13       		.uleb128 0x13
 4392 0356 00       		.byte	0
 4393 0357 00       		.byte	0
 4394 0358 37       		.uleb128 0x37
 4395 0359 34       		.uleb128 0x34
 4396 035a 00       		.byte	0
 4397 035b 31       		.uleb128 0x31
 4398 035c 13       		.uleb128 0x13
 4399 035d 02       		.uleb128 0x2
 4400 035e 06       		.uleb128 0x6
 4401 035f B742     		.uleb128 0x2137
 4402 0361 06       		.uleb128 0x6
 4403 0362 00       		.byte	0
 4404 0363 00       		.byte	0
 4405 0364 38       		.uleb128 0x38
 4406 0365 2E       		.uleb128 0x2e
 4407 0366 00       		.byte	0
 4408 0367 3F       		.uleb128 0x3f
 4409 0368 0C       		.uleb128 0xc
 4410 0369 3C       		.uleb128 0x3c
 4411 036a 0C       		.uleb128 0xc
 4412 036b 8740     		.uleb128 0x2007
 4413 036d 0E       		.uleb128 0xe
 4414 036e 03       		.uleb128 0x3
 4415 036f 0E       		.uleb128 0xe
 4416 0370 3A       		.uleb128 0x3a
 4417 0371 0B       		.uleb128 0xb
 4418 0372 3B       		.uleb128 0x3b
 4419 0373 05       		.uleb128 0x5
 4420 0374 39       		.uleb128 0x39
 4421 0375 0B       		.uleb128 0xb
 4422 0376 00       		.byte	0
 4423 0377 00       		.byte	0
 4424 0378 39       		.uleb128 0x39
 4425 0379 2E       		.uleb128 0x2e
 4426 037a 00       		.byte	0
 4427 037b 3F       		.uleb128 0x3f
 4428 037c 0C       		.uleb128 0xc
 4429 037d 3C       		.uleb128 0x3c
 4430 037e 0C       		.uleb128 0xc
 4431 037f 8740     		.uleb128 0x2007
 4432 0381 0E       		.uleb128 0xe
 4433 0382 03       		.uleb128 0x3
 4434 0383 0E       		.uleb128 0xe
 4435 0384 3A       		.uleb128 0x3a
 4436 0385 0B       		.uleb128 0xb
 4437 0386 3B       		.uleb128 0x3b
 4438 0387 0B       		.uleb128 0xb
 4439 0388 00       		.byte	0
ARM GAS  C:\Users\user\AppData\Local\Temp\ccH9wMRW.s 			page 115


 4440 0389 00       		.byte	0
 4441 038a 3A       		.uleb128 0x3a
 4442 038b 2E       		.uleb128 0x2e
 4443 038c 00       		.byte	0
 4444 038d 3F       		.uleb128 0x3f
 4445 038e 0C       		.uleb128 0xc
 4446 038f 3C       		.uleb128 0x3c
 4447 0390 0C       		.uleb128 0xc
 4448 0391 8740     		.uleb128 0x2007
 4449 0393 0E       		.uleb128 0xe
 4450 0394 03       		.uleb128 0x3
 4451 0395 0E       		.uleb128 0xe
 4452 0396 3A       		.uleb128 0x3a
 4453 0397 0B       		.uleb128 0xb
 4454 0398 3B       		.uleb128 0x3b
 4455 0399 0B       		.uleb128 0xb
 4456 039a 39       		.uleb128 0x39
 4457 039b 0B       		.uleb128 0xb
 4458 039c 00       		.byte	0
 4459 039d 00       		.byte	0
 4460 039e 00       		.byte	0
 4461              		.section	.debug_loc,"",%progbits
 4462              	.Ldebug_loc0:
 4463              	.LLST18:
 4464 0000 50020000 		.4byte	.LFB40-.Ltext0
 4465 0004 52020000 		.4byte	.LCFI10-.Ltext0
 4466 0008 0200     		.2byte	0x2
 4467 000a 7D       		.byte	0x7d
 4468 000b 00       		.sleb128 0
 4469 000c 52020000 		.4byte	.LCFI10-.Ltext0
 4470 0010 B8020000 		.4byte	.LCFI11-.Ltext0
 4471 0014 0200     		.2byte	0x2
 4472 0016 7D       		.byte	0x7d
 4473 0017 10       		.sleb128 16
 4474 0018 B8020000 		.4byte	.LCFI11-.Ltext0
 4475 001c BA020000 		.4byte	.LCFI12-.Ltext0
 4476 0020 0200     		.2byte	0x2
 4477 0022 7D       		.byte	0x7d
 4478 0023 08       		.sleb128 8
 4479 0024 BA020000 		.4byte	.LCFI12-.Ltext0
 4480 0028 CC020000 		.4byte	.LFE40-.Ltext0
 4481 002c 0200     		.2byte	0x2
 4482 002e 7D       		.byte	0x7d
 4483 002f 10       		.sleb128 16
 4484 0030 00000000 		.4byte	0
 4485 0034 00000000 		.4byte	0
 4486              	.LVUS19:
 4487 0038 00       		.uleb128 .LVU232
 4488 0039 00       		.uleb128 .LVU248
 4489 003a 00       		.uleb128 .LVU258
 4490 003b 00       		.uleb128 .LVU259
 4491              	.LLST19:
 4492 003c 6E020000 		.4byte	.LVL59-.Ltext0
 4493 0040 90020000 		.4byte	.LVL61-.Ltext0
 4494 0044 0100     		.2byte	0x1
 4495 0046 50       		.byte	0x50
 4496 0047 BA020000 		.4byte	.LVL64-.Ltext0
ARM GAS  C:\Users\user\AppData\Local\Temp\ccH9wMRW.s 			page 116


 4497 004b BE020000 		.4byte	.LVL65-.Ltext0
 4498 004f 0100     		.2byte	0x1
 4499 0051 50       		.byte	0x50
 4500 0052 00000000 		.4byte	0
 4501 0056 00000000 		.4byte	0
 4502              	.LVUS20:
 4503 005a 01       		.uleb128 .LVU236
 4504 005b 00       		.uleb128 .LVU251
 4505 005c 00       		.uleb128 .LVU258
 4506 005d 00       		.uleb128 0
 4507              	.LLST20:
 4508 005e 74020000 		.4byte	.LVL60-.Ltext0
 4509 0062 9E020000 		.4byte	.LVL63-.Ltext0
 4510 0066 0100     		.2byte	0x1
 4511 0068 54       		.byte	0x54
 4512 0069 BA020000 		.4byte	.LVL64-.Ltext0
 4513 006d CC020000 		.4byte	.LFE40-.Ltext0
 4514 0071 0100     		.2byte	0x1
 4515 0073 54       		.byte	0x54
 4516 0074 00000000 		.4byte	0
 4517 0078 00000000 		.4byte	0
 4518              	.LVUS8:
 4519 007c 00       		.uleb128 0
 4520 007d 00       		.uleb128 .LVU154
 4521 007e 00       		.uleb128 .LVU154
 4522 007f 00       		.uleb128 0
 4523              	.LLST8:
 4524 0080 74010000 		.4byte	.LVL31-.Ltext0
 4525 0084 76010000 		.4byte	.LVL32-.Ltext0
 4526 0088 0100     		.2byte	0x1
 4527 008a 50       		.byte	0x50
 4528 008b 76010000 		.4byte	.LVL32-.Ltext0
 4529 008f 82010000 		.4byte	.LFE39-.Ltext0
 4530 0093 0400     		.2byte	0x4
 4531 0095 F3       		.byte	0xf3
 4532 0096 01       		.uleb128 0x1
 4533 0097 50       		.byte	0x50
 4534 0098 9F       		.byte	0x9f
 4535 0099 00000000 		.4byte	0
 4536 009d 00000000 		.4byte	0
 4537              	.LVUS9:
 4538 00a1 02       		.uleb128 .LVU152
 4539 00a2 00       		.uleb128 .LVU154
 4540 00a3 00       		.uleb128 .LVU154
 4541 00a4 00       		.uleb128 0
 4542              	.LLST9:
 4543 00a5 74010000 		.4byte	.LVL31-.Ltext0
 4544 00a9 76010000 		.4byte	.LVL32-.Ltext0
 4545 00ad 0100     		.2byte	0x1
 4546 00af 50       		.byte	0x50
 4547 00b0 76010000 		.4byte	.LVL32-.Ltext0
 4548 00b4 82010000 		.4byte	.LFE39-.Ltext0
 4549 00b8 0400     		.2byte	0x4
 4550 00ba F3       		.byte	0xf3
 4551 00bb 01       		.uleb128 0x1
 4552 00bc 50       		.byte	0x50
 4553 00bd 9F       		.byte	0x9f
ARM GAS  C:\Users\user\AppData\Local\Temp\ccH9wMRW.s 			page 117


 4554 00be 00000000 		.4byte	0
 4555 00c2 00000000 		.4byte	0
 4556              	.LLST14:
 4557 00c6 20020000 		.4byte	.LFB38-.Ltext0
 4558 00ca 22020000 		.4byte	.LCFI9-.Ltext0
 4559 00ce 0200     		.2byte	0x2
 4560 00d0 7D       		.byte	0x7d
 4561 00d1 00       		.sleb128 0
 4562 00d2 22020000 		.4byte	.LCFI9-.Ltext0
 4563 00d6 50020000 		.4byte	.LFE38-.Ltext0
 4564 00da 0200     		.2byte	0x2
 4565 00dc 7D       		.byte	0x7d
 4566 00dd 10       		.sleb128 16
 4567 00de 00000000 		.4byte	0
 4568 00e2 00000000 		.4byte	0
 4569              	.LVUS15:
 4570 00e6 00       		.uleb128 0
 4571 00e7 00       		.uleb128 .LVU209
 4572 00e8 00       		.uleb128 .LVU209
 4573 00e9 00       		.uleb128 .LVU220
 4574 00ea 00       		.uleb128 .LVU220
 4575 00eb 00       		.uleb128 .LVU221
 4576 00ec 00       		.uleb128 .LVU221
 4577 00ed 00       		.uleb128 0
 4578              	.LLST15:
 4579 00ee 20020000 		.4byte	.LVL49-.Ltext0
 4580 00f2 2D020000 		.4byte	.LVL51-1-.Ltext0
 4581 00f6 0100     		.2byte	0x1
 4582 00f8 50       		.byte	0x50
 4583 00f9 2D020000 		.4byte	.LVL51-1-.Ltext0
 4584 00fd 48020000 		.4byte	.LVL54-.Ltext0
 4585 0101 0100     		.2byte	0x1
 4586 0103 55       		.byte	0x55
 4587 0104 48020000 		.4byte	.LVL54-.Ltext0
 4588 0108 4A020000 		.4byte	.LVL55-.Ltext0
 4589 010c 0100     		.2byte	0x1
 4590 010e 50       		.byte	0x50
 4591 010f 4A020000 		.4byte	.LVL55-.Ltext0
 4592 0113 50020000 		.4byte	.LFE38-.Ltext0
 4593 0117 0100     		.2byte	0x1
 4594 0119 55       		.byte	0x55
 4595 011a 00000000 		.4byte	0
 4596 011e 00000000 		.4byte	0
 4597              	.LVUS16:
 4598 0122 00       		.uleb128 0
 4599 0123 00       		.uleb128 .LVU209
 4600 0124 00       		.uleb128 .LVU209
 4601 0125 00       		.uleb128 .LVU220
 4602 0126 00       		.uleb128 .LVU220
 4603 0127 00       		.uleb128 .LVU222
 4604 0128 00       		.uleb128 .LVU222
 4605 0129 00       		.uleb128 0
 4606              	.LLST16:
 4607 012a 20020000 		.4byte	.LVL49-.Ltext0
 4608 012e 2D020000 		.4byte	.LVL51-1-.Ltext0
 4609 0132 0100     		.2byte	0x1
 4610 0134 51       		.byte	0x51
ARM GAS  C:\Users\user\AppData\Local\Temp\ccH9wMRW.s 			page 118


 4611 0135 2D020000 		.4byte	.LVL51-1-.Ltext0
 4612 0139 48020000 		.4byte	.LVL54-.Ltext0
 4613 013d 0100     		.2byte	0x1
 4614 013f 56       		.byte	0x56
 4615 0140 48020000 		.4byte	.LVL54-.Ltext0
 4616 0144 4C020000 		.4byte	.LVL56-.Ltext0
 4617 0148 0100     		.2byte	0x1
 4618 014a 51       		.byte	0x51
 4619 014b 4C020000 		.4byte	.LVL56-.Ltext0
 4620 014f 50020000 		.4byte	.LFE38-.Ltext0
 4621 0153 0100     		.2byte	0x1
 4622 0155 56       		.byte	0x56
 4623 0156 00000000 		.4byte	0
 4624 015a 00000000 		.4byte	0
 4625              	.LVUS17:
 4626 015e 01       		.uleb128 .LVU208
 4627 015f 00       		.uleb128 .LVU209
 4628 0160 00       		.uleb128 .LVU209
 4629 0161 00       		.uleb128 .LVU219
 4630 0162 00       		.uleb128 .LVU222
 4631 0163 00       		.uleb128 0
 4632              	.LLST17:
 4633 0164 2A020000 		.4byte	.LVL50-.Ltext0
 4634 0168 2D020000 		.4byte	.LVL51-1-.Ltext0
 4635 016c 0100     		.2byte	0x1
 4636 016e 50       		.byte	0x50
 4637 016f 2D020000 		.4byte	.LVL51-1-.Ltext0
 4638 0173 46020000 		.4byte	.LVL53-.Ltext0
 4639 0177 0100     		.2byte	0x1
 4640 0179 55       		.byte	0x55
 4641 017a 4C020000 		.4byte	.LVL56-.Ltext0
 4642 017e 50020000 		.4byte	.LFE38-.Ltext0
 4643 0182 0100     		.2byte	0x1
 4644 0184 55       		.byte	0x55
 4645 0185 00000000 		.4byte	0
 4646 0189 00000000 		.4byte	0
 4647              	.LLST4:
 4648 018d AC000000 		.4byte	.LFB37-.Ltext0
 4649 0191 AE000000 		.4byte	.LCFI3-.Ltext0
 4650 0195 0200     		.2byte	0x2
 4651 0197 7D       		.byte	0x7d
 4652 0198 00       		.sleb128 0
 4653 0199 AE000000 		.4byte	.LCFI3-.Ltext0
 4654 019d F0000000 		.4byte	.LCFI4-.Ltext0
 4655 01a1 0200     		.2byte	0x2
 4656 01a3 7D       		.byte	0x7d
 4657 01a4 18       		.sleb128 24
 4658 01a5 F0000000 		.4byte	.LCFI4-.Ltext0
 4659 01a9 F2000000 		.4byte	.LCFI5-.Ltext0
 4660 01ad 0200     		.2byte	0x2
 4661 01af 7D       		.byte	0x7d
 4662 01b0 0C       		.sleb128 12
 4663 01b1 F2000000 		.4byte	.LCFI5-.Ltext0
 4664 01b5 74010000 		.4byte	.LFE37-.Ltext0
 4665 01b9 0200     		.2byte	0x2
 4666 01bb 7D       		.byte	0x7d
 4667 01bc 18       		.sleb128 24
ARM GAS  C:\Users\user\AppData\Local\Temp\ccH9wMRW.s 			page 119


 4668 01bd 00000000 		.4byte	0
 4669 01c1 00000000 		.4byte	0
 4670              	.LVUS5:
 4671 01c5 00       		.uleb128 0
 4672 01c6 00       		.uleb128 .LVU66
 4673 01c7 00       		.uleb128 .LVU66
 4674 01c8 00       		.uleb128 0
 4675              	.LLST5:
 4676 01c9 AC000000 		.4byte	.LVL11-.Ltext0
 4677 01cd B2000000 		.4byte	.LVL12-.Ltext0
 4678 01d1 0100     		.2byte	0x1
 4679 01d3 50       		.byte	0x50
 4680 01d4 B2000000 		.4byte	.LVL12-.Ltext0
 4681 01d8 74010000 		.4byte	.LFE37-.Ltext0
 4682 01dc 0400     		.2byte	0x4
 4683 01de F3       		.byte	0xf3
 4684 01df 01       		.uleb128 0x1
 4685 01e0 50       		.byte	0x50
 4686 01e1 9F       		.byte	0x9f
 4687 01e2 00000000 		.4byte	0
 4688 01e6 00000000 		.4byte	0
 4689              	.LVUS6:
 4690 01ea 00       		.uleb128 .LVU70
 4691 01eb 00       		.uleb128 .LVU81
 4692 01ec 00       		.uleb128 .LVU81
 4693 01ed 00       		.uleb128 .LVU88
 4694 01ee 00       		.uleb128 .LVU88
 4695 01ef 00       		.uleb128 .LVU95
 4696 01f0 00       		.uleb128 .LVU95
 4697 01f1 00       		.uleb128 .LVU98
 4698 01f2 00       		.uleb128 .LVU98
 4699 01f3 00       		.uleb128 .LVU112
 4700 01f4 00       		.uleb128 .LVU112
 4701 01f5 00       		.uleb128 .LVU117
 4702 01f6 00       		.uleb128 .LVU117
 4703 01f7 00       		.uleb128 .LVU126
 4704 01f8 00       		.uleb128 .LVU126
 4705 01f9 00       		.uleb128 .LVU127
 4706 01fa 00       		.uleb128 .LVU127
 4707 01fb 00       		.uleb128 .LVU138
 4708 01fc 00       		.uleb128 .LVU138
 4709 01fd 00       		.uleb128 .LVU146
 4710 01fe 00       		.uleb128 .LVU146
 4711 01ff 00       		.uleb128 .LVU149
 4712 0200 00       		.uleb128 .LVU149
 4713 0201 00       		.uleb128 0
 4714              	.LLST6:
 4715 0202 BC000000 		.4byte	.LVL14-.Ltext0
 4716 0206 E0000000 		.4byte	.LVL15-.Ltext0
 4717 020a 0100     		.2byte	0x1
 4718 020c 50       		.byte	0x50
 4719 020d E0000000 		.4byte	.LVL15-.Ltext0
 4720 0211 F2000000 		.4byte	.LVL19-.Ltext0
 4721 0215 0100     		.2byte	0x1
 4722 0217 55       		.byte	0x55
 4723 0218 F2000000 		.4byte	.LVL19-.Ltext0
 4724 021c FE000000 		.4byte	.LVL20-.Ltext0
ARM GAS  C:\Users\user\AppData\Local\Temp\ccH9wMRW.s 			page 120


 4725 0220 0100     		.2byte	0x1
 4726 0222 50       		.byte	0x50
 4727 0223 FE000000 		.4byte	.LVL20-.Ltext0
 4728 0227 06010000 		.4byte	.LVL21-.Ltext0
 4729 022b 0100     		.2byte	0x1
 4730 022d 55       		.byte	0x55
 4731 022e 06010000 		.4byte	.LVL21-.Ltext0
 4732 0232 22010000 		.4byte	.LVL22-.Ltext0
 4733 0236 0100     		.2byte	0x1
 4734 0238 50       		.byte	0x50
 4735 0239 22010000 		.4byte	.LVL22-.Ltext0
 4736 023d 2A010000 		.4byte	.LVL24-.Ltext0
 4737 0241 0100     		.2byte	0x1
 4738 0243 55       		.byte	0x55
 4739 0244 2A010000 		.4byte	.LVL24-.Ltext0
 4740 0248 3C010000 		.4byte	.LVL25-.Ltext0
 4741 024c 0100     		.2byte	0x1
 4742 024e 50       		.byte	0x50
 4743 024f 3C010000 		.4byte	.LVL25-.Ltext0
 4744 0253 3E010000 		.4byte	.LVL26-.Ltext0
 4745 0257 0100     		.2byte	0x1
 4746 0259 55       		.byte	0x55
 4747 025a 3E010000 		.4byte	.LVL26-.Ltext0
 4748 025e 52010000 		.4byte	.LVL27-.Ltext0
 4749 0262 0100     		.2byte	0x1
 4750 0264 50       		.byte	0x50
 4751 0265 52010000 		.4byte	.LVL27-.Ltext0
 4752 0269 60010000 		.4byte	.LVL29-.Ltext0
 4753 026d 0100     		.2byte	0x1
 4754 026f 55       		.byte	0x55
 4755 0270 60010000 		.4byte	.LVL29-.Ltext0
 4756 0274 66010000 		.4byte	.LVL30-.Ltext0
 4757 0278 0100     		.2byte	0x1
 4758 027a 50       		.byte	0x50
 4759 027b 66010000 		.4byte	.LVL30-.Ltext0
 4760 027f 74010000 		.4byte	.LFE37-.Ltext0
 4761 0283 0100     		.2byte	0x1
 4762 0285 55       		.byte	0x55
 4763 0286 00000000 		.4byte	0
 4764 028a 00000000 		.4byte	0
 4765              	.LVUS7:
 4766 028e 02       		.uleb128 .LVU72
 4767 028f 01       		.uleb128 .LVU83
 4768 0290 01       		.uleb128 .LVU83
 4769 0291 00       		.uleb128 .LVU85
 4770 0292 00       		.uleb128 .LVU85
 4771 0293 00       		.uleb128 .LVU86
 4772 0294 00       		.uleb128 .LVU88
 4773 0295 01       		.uleb128 .LVU114
 4774 0296 01       		.uleb128 .LVU114
 4775 0297 00       		.uleb128 .LVU117
 4776 0298 00       		.uleb128 .LVU117
 4777 0299 01       		.uleb128 .LVU143
 4778 029a 01       		.uleb128 .LVU143
 4779 029b 00       		.uleb128 .LVU146
 4780 029c 00       		.uleb128 .LVU146
 4781 029d 00       		.uleb128 0
ARM GAS  C:\Users\user\AppData\Local\Temp\ccH9wMRW.s 			page 121


 4782              	.LLST7:
 4783 029e BC000000 		.4byte	.LVL14-.Ltext0
 4784 02a2 E4000000 		.4byte	.LVL16-.Ltext0
 4785 02a6 0200     		.2byte	0x2
 4786 02a8 30       		.byte	0x30
 4787 02a9 9F       		.byte	0x9f
 4788 02aa E4000000 		.4byte	.LVL16-.Ltext0
 4789 02ae E6000000 		.4byte	.LVL17-.Ltext0
 4790 02b2 0600     		.2byte	0x6
 4791 02b4 0C       		.byte	0xc
 4792 02b5 00080140 		.4byte	0x40010800
 4793 02b9 9F       		.byte	0x9f
 4794 02ba E6000000 		.4byte	.LVL17-.Ltext0
 4795 02be EB000000 		.4byte	.LVL18-1-.Ltext0
 4796 02c2 0100     		.2byte	0x1
 4797 02c4 50       		.byte	0x50
 4798 02c5 F2000000 		.4byte	.LVL19-.Ltext0
 4799 02c9 26010000 		.4byte	.LVL23-.Ltext0
 4800 02cd 0200     		.2byte	0x2
 4801 02cf 30       		.byte	0x30
 4802 02d0 9F       		.byte	0x9f
 4803 02d1 26010000 		.4byte	.LVL23-.Ltext0
 4804 02d5 2A010000 		.4byte	.LVL24-.Ltext0
 4805 02d9 0600     		.2byte	0x6
 4806 02db 0C       		.byte	0xc
 4807 02dc 000C0140 		.4byte	0x40010c00
 4808 02e0 9F       		.byte	0x9f
 4809 02e1 2A010000 		.4byte	.LVL24-.Ltext0
 4810 02e5 5C010000 		.4byte	.LVL28-.Ltext0
 4811 02e9 0200     		.2byte	0x2
 4812 02eb 30       		.byte	0x30
 4813 02ec 9F       		.byte	0x9f
 4814 02ed 5C010000 		.4byte	.LVL28-.Ltext0
 4815 02f1 60010000 		.4byte	.LVL29-.Ltext0
 4816 02f5 0600     		.2byte	0x6
 4817 02f7 0C       		.byte	0xc
 4818 02f8 00100140 		.4byte	0x40011000
 4819 02fc 9F       		.byte	0x9f
 4820 02fd 60010000 		.4byte	.LVL29-.Ltext0
 4821 0301 74010000 		.4byte	.LFE37-.Ltext0
 4822 0305 0200     		.2byte	0x2
 4823 0307 30       		.byte	0x30
 4824 0308 9F       		.byte	0x9f
 4825 0309 00000000 		.4byte	0
 4826 030d 00000000 		.4byte	0
 4827              	.LLST0:
 4828 0311 00000000 		.4byte	.LFB34-.Ltext0
 4829 0315 02000000 		.4byte	.LCFI0-.Ltext0
 4830 0319 0200     		.2byte	0x2
 4831 031b 7D       		.byte	0x7d
 4832 031c 00       		.sleb128 0
 4833 031d 02000000 		.4byte	.LCFI0-.Ltext0
 4834 0321 08000000 		.4byte	.LCFI1-.Ltext0
 4835 0325 0200     		.2byte	0x2
 4836 0327 7D       		.byte	0x7d
 4837 0328 14       		.sleb128 20
 4838 0329 08000000 		.4byte	.LCFI1-.Ltext0
ARM GAS  C:\Users\user\AppData\Local\Temp\ccH9wMRW.s 			page 122


 4839 032d 8C000000 		.4byte	.LCFI2-.Ltext0
 4840 0331 0200     		.2byte	0x2
 4841 0333 7D       		.byte	0x7d
 4842 0334 30       		.sleb128 48
 4843 0335 8C000000 		.4byte	.LCFI2-.Ltext0
 4844 0339 A0000000 		.4byte	.LFE34-.Ltext0
 4845 033d 0200     		.2byte	0x2
 4846 033f 7D       		.byte	0x7d
 4847 0340 14       		.sleb128 20
 4848 0341 00000000 		.4byte	0
 4849 0345 00000000 		.4byte	0
 4850              	.LVUS1:
 4851 0349 01       		.uleb128 .LVU45
 4852 034a 00       		.uleb128 .LVU50
 4853              	.LLST1:
 4854 034b 70000000 		.4byte	.LVL6-.Ltext0
 4855 034f 7A000000 		.4byte	.LVL7-.Ltext0
 4856 0353 0200     		.2byte	0x2
 4857 0355 42       		.byte	0x42
 4858 0356 9F       		.byte	0x9f
 4859 0357 00000000 		.4byte	0
 4860 035b 00000000 		.4byte	0
 4861              	.LVUS2:
 4862 035f 02       		.uleb128 .LVU52
 4863 0360 00       		.uleb128 .LVU56
 4864              	.LLST2:
 4865 0361 7A000000 		.4byte	.LVL7-.Ltext0
 4866 0365 80000000 		.4byte	.LVL8-.Ltext0
 4867 0369 0200     		.2byte	0x2
 4868 036b 38       		.byte	0x38
 4869 036c 9F       		.byte	0x9f
 4870 036d 00000000 		.4byte	0
 4871 0371 00000000 		.4byte	0
 4872              	.LVUS3:
 4873 0375 02       		.uleb128 .LVU52
 4874 0376 00       		.uleb128 .LVU56
 4875              	.LLST3:
 4876 0377 7A000000 		.4byte	.LVL7-.Ltext0
 4877 037b 80000000 		.4byte	.LVL8-.Ltext0
 4878 037f 0200     		.2byte	0x2
 4879 0381 42       		.byte	0x42
 4880 0382 9F       		.byte	0x9f
 4881 0383 00000000 		.4byte	0
 4882 0387 00000000 		.4byte	0
 4883              	.LLST10:
 4884 038b 82010000 		.4byte	.LFB35-.Ltext0
 4885 038f 86010000 		.4byte	.LCFI6-.Ltext0
 4886 0393 0200     		.2byte	0x2
 4887 0395 7D       		.byte	0x7d
 4888 0396 00       		.sleb128 0
 4889 0397 86010000 		.4byte	.LCFI6-.Ltext0
 4890 039b 0C020000 		.4byte	.LCFI7-.Ltext0
 4891 039f 0200     		.2byte	0x2
 4892 03a1 7D       		.byte	0x7d
 4893 03a2 10       		.sleb128 16
 4894 03a3 0C020000 		.4byte	.LCFI7-.Ltext0
 4895 03a7 12020000 		.4byte	.LCFI8-.Ltext0
ARM GAS  C:\Users\user\AppData\Local\Temp\ccH9wMRW.s 			page 123


 4896 03ab 0200     		.2byte	0x2
 4897 03ad 7D       		.byte	0x7d
 4898 03ae 00       		.sleb128 0
 4899 03af 12020000 		.4byte	.LCFI8-.Ltext0
 4900 03b3 20020000 		.4byte	.LFE35-.Ltext0
 4901 03b7 0200     		.2byte	0x2
 4902 03b9 7D       		.byte	0x7d
 4903 03ba 10       		.sleb128 16
 4904 03bb 00000000 		.4byte	0
 4905 03bf 00000000 		.4byte	0
 4906              	.LVUS11:
 4907 03c3 00       		.uleb128 0
 4908 03c4 00       		.uleb128 .LVU163
 4909 03c5 00       		.uleb128 .LVU163
 4910 03c6 00       		.uleb128 .LVU197
 4911 03c7 00       		.uleb128 .LVU197
 4912 03c8 00       		.uleb128 .LVU198
 4913 03c9 00       		.uleb128 .LVU198
 4914 03ca 00       		.uleb128 .LVU200
 4915 03cb 00       		.uleb128 .LVU200
 4916 03cc 00       		.uleb128 0
 4917              	.LLST11:
 4918 03cd 82010000 		.4byte	.LVL33-.Ltext0
 4919 03d1 92010000 		.4byte	.LVL34-.Ltext0
 4920 03d5 0100     		.2byte	0x1
 4921 03d7 50       		.byte	0x50
 4922 03d8 92010000 		.4byte	.LVL34-.Ltext0
 4923 03dc 0C020000 		.4byte	.LVL46-.Ltext0
 4924 03e0 0100     		.2byte	0x1
 4925 03e2 55       		.byte	0x55
 4926 03e3 0C020000 		.4byte	.LVL46-.Ltext0
 4927 03e7 12020000 		.4byte	.LVL47-.Ltext0
 4928 03eb 0400     		.2byte	0x4
 4929 03ed F3       		.byte	0xf3
 4930 03ee 01       		.uleb128 0x1
 4931 03ef 50       		.byte	0x50
 4932 03f0 9F       		.byte	0x9f
 4933 03f1 12020000 		.4byte	.LVL47-.Ltext0
 4934 03f5 14020000 		.4byte	.LVL48-.Ltext0
 4935 03f9 0100     		.2byte	0x1
 4936 03fb 55       		.byte	0x55
 4937 03fc 14020000 		.4byte	.LVL48-.Ltext0
 4938 0400 20020000 		.4byte	.LFE35-.Ltext0
 4939 0404 0400     		.2byte	0x4
 4940 0406 F3       		.byte	0xf3
 4941 0407 01       		.uleb128 0x1
 4942 0408 50       		.byte	0x50
 4943 0409 9F       		.byte	0x9f
 4944 040a 00000000 		.4byte	0
 4945 040e 00000000 		.4byte	0
 4946              	.LVUS12:
 4947 0412 00       		.uleb128 .LVU167
 4948 0413 00       		.uleb128 .LVU197
 4949 0414 00       		.uleb128 .LVU197
 4950 0415 00       		.uleb128 .LVU198
 4951              	.LLST12:
 4952 0416 9C010000 		.4byte	.LVL36-.Ltext0
ARM GAS  C:\Users\user\AppData\Local\Temp\ccH9wMRW.s 			page 124


 4953 041a 0C020000 		.4byte	.LVL46-.Ltext0
 4954 041e 0100     		.2byte	0x1
 4955 0420 55       		.byte	0x55
 4956 0421 0C020000 		.4byte	.LVL46-.Ltext0
 4957 0425 12020000 		.4byte	.LVL47-.Ltext0
 4958 0429 0400     		.2byte	0x4
 4959 042b F3       		.byte	0xf3
 4960 042c 01       		.uleb128 0x1
 4961 042d 50       		.byte	0x50
 4962 042e 9F       		.byte	0x9f
 4963 042f 00000000 		.4byte	0
 4964 0433 00000000 		.4byte	0
 4965              	.LVUS13:
 4966 0437 01       		.uleb128 .LVU190
 4967 0438 00       		.uleb128 .LVU197
 4968 0439 00       		.uleb128 .LVU197
 4969 043a 00       		.uleb128 .LVU198
 4970              	.LLST13:
 4971 043b F4010000 		.4byte	.LVL44-.Ltext0
 4972 043f 0C020000 		.4byte	.LVL46-.Ltext0
 4973 0443 0100     		.2byte	0x1
 4974 0445 55       		.byte	0x55
 4975 0446 0C020000 		.4byte	.LVL46-.Ltext0
 4976 044a 12020000 		.4byte	.LVL47-.Ltext0
 4977 044e 0400     		.2byte	0x4
 4978 0450 F3       		.byte	0xf3
 4979 0451 01       		.uleb128 0x1
 4980 0452 50       		.byte	0x50
 4981 0453 9F       		.byte	0x9f
 4982 0454 00000000 		.4byte	0
 4983 0458 00000000 		.4byte	0
 4984              		.section	.debug_aranges,"",%progbits
 4985 0000 1C000000 		.4byte	0x1c
 4986 0004 0200     		.2byte	0x2
 4987 0006 00000000 		.4byte	.Ldebug_info0
 4988 000a 04       		.byte	0x4
 4989 000b 00       		.byte	0
 4990 000c 0000     		.2byte	0
 4991 000e 0000     		.2byte	0
 4992 0010 00000000 		.4byte	.Ltext0
 4993 0014 CC020000 		.4byte	.Letext0-.Ltext0
 4994 0018 00000000 		.4byte	0
 4995 001c 00000000 		.4byte	0
 4996              		.section	.debug_ranges,"",%progbits
 4997              	.Ldebug_ranges0:
 4998 0000 70000000 		.4byte	.LBB7-.Ltext0
 4999 0004 76000000 		.4byte	.LBE7-.Ltext0
 5000 0008 78000000 		.4byte	.LBB10-.Ltext0
 5001 000c 7A000000 		.4byte	.LBE10-.Ltext0
 5002 0010 00000000 		.4byte	0
 5003 0014 00000000 		.4byte	0
 5004 0018 9C010000 		.4byte	.LBB16-.Ltext0
 5005 001c 08020000 		.4byte	.LBE16-.Ltext0
 5006 0020 0C020000 		.4byte	.LBB21-.Ltext0
 5007 0024 12020000 		.4byte	.LBE21-.Ltext0
 5008 0028 00000000 		.4byte	0
 5009 002c 00000000 		.4byte	0
ARM GAS  C:\Users\user\AppData\Local\Temp\ccH9wMRW.s 			page 125


 5010 0030 F4010000 		.4byte	.LBB18-.Ltext0
 5011 0034 08020000 		.4byte	.LBE18-.Ltext0
 5012 0038 0C020000 		.4byte	.LBB19-.Ltext0
 5013 003c 12020000 		.4byte	.LBE19-.Ltext0
 5014 0040 00000000 		.4byte	0
 5015 0044 00000000 		.4byte	0
 5016 0048 5E020000 		.4byte	.LBB22-.Ltext0
 5017 004c 9E020000 		.4byte	.LBE22-.Ltext0
 5018 0050 BA020000 		.4byte	.LBB25-.Ltext0
 5019 0054 CC020000 		.4byte	.LBE25-.Ltext0
 5020 0058 00000000 		.4byte	0
 5021 005c 00000000 		.4byte	0
 5022 0060 74020000 		.4byte	.LBB23-.Ltext0
 5023 0064 9E020000 		.4byte	.LBE23-.Ltext0
 5024 0068 BA020000 		.4byte	.LBB24-.Ltext0
 5025 006c CC020000 		.4byte	.LBE24-.Ltext0
 5026 0070 00000000 		.4byte	0
 5027 0074 00000000 		.4byte	0
 5028              		.section	.debug_line,"",%progbits
 5029              	.Ldebug_line0:
 5030 0000 FF050000 		.section	.debug_str,"MS",%progbits,1
 5030      03007002 
 5030      00000201 
 5030      FB0E0D00 
 5030      01010101 
 5031              	.LASF117:
 5032 0000 52534552 		.ascii	"RSERVED1\000"
 5032      56454431 
 5032      00
 5033              	.LASF196:
 5034 0009 64617461 		.ascii	"data_available\000"
 5034      5F617661 
 5034      696C6162 
 5034      6C6500
 5035              	.LASF60:
 5036 0018 45585449 		.ascii	"EXTI2_IRQn\000"
 5036      325F4952 
 5036      516E00
 5037              	.LASF215:
 5038 0023 4E564943 		.ascii	"NVIC_EnableIRQ\000"
 5038      5F456E61 
 5038      626C6549 
 5038      525100
 5039              	.LASF176:
 5040 0032 4750494F 		.ascii	"GPIO_Mode_IPU\000"
 5040      5F4D6F64 
 5040      655F4950 
 5040      5500
 5041              	.LASF207:
 5042 0040 6770696F 		.ascii	"gpio\000"
 5042      00
 5043              	.LASF150:
 5044 0045 53515231 		.ascii	"SQR1\000"
 5044      00
 5045              	.LASF151:
 5046 004a 53515232 		.ascii	"SQR2\000"
 5046      00
ARM GAS  C:\Users\user\AppData\Local\Temp\ccH9wMRW.s 			page 126


 5047              	.LASF152:
 5048 004f 53515233 		.ascii	"SQR3\000"
 5048      00
 5049              	.LASF67:
 5050 0054 444D4131 		.ascii	"DMA1_Channel5_IRQn\000"
 5050      5F436861 
 5050      6E6E656C 
 5050      355F4952 
 5050      516E00
 5051              	.LASF200:
 5052 0067 6164635F 		.ascii	"adc_data\000"
 5052      64617461 
 5052      00
 5053              	.LASF186:
 5054 0070 42617365 		.ascii	"BaseType_t\000"
 5054      54797065 
 5054      5F7400
 5055              	.LASF129:
 5056 007b 56544F52 		.ascii	"VTOR\000"
 5056      00
 5057              	.LASF96:
 5058 0080 53504933 		.ascii	"SPI3_IRQn\000"
 5058      5F495251 
 5058      6E00
 5059              	.LASF56:
 5060 008a 464C4153 		.ascii	"FLASH_IRQn\000"
 5060      485F4952 
 5060      516E00
 5061              	.LASF236:
 5062 0095 75736572 		.ascii	"user/driver/adc/adc.c\000"
 5062      2F647269 
 5062      7665722F 
 5062      6164632F 
 5062      6164632E 
 5063              	.LASF80:
 5064 00ab 54494D32 		.ascii	"TIM2_IRQn\000"
 5064      5F495251 
 5064      6E00
 5065              	.LASF193:
 5066 00b5 646F6E65 		.ascii	"done_lock\000"
 5066      5F6C6F63 
 5066      6B00
 5067              	.LASF120:
 5068 00bf 49435052 		.ascii	"ICPR\000"
 5068      00
 5069              	.LASF109:
 5070 00c4 43414E32 		.ascii	"CAN2_RX0_IRQn\000"
 5070      5F525830 
 5070      5F495251 
 5070      6E00
 5071              	.LASF219:
 5072 00d2 4144435F 		.ascii	"ADC_ClearITPendingBit\000"
 5072      436C6561 
 5072      72495450 
 5072      656E6469 
 5072      6E674269 
 5073              	.LASF3:
ARM GAS  C:\Users\user\AppData\Local\Temp\ccH9wMRW.s 			page 127


 5074 00e8 5F5F7569 		.ascii	"__uint8_t\000"
 5074      6E74385F 
 5074      7400
 5075              	.LASF88:
 5076 00f2 53504932 		.ascii	"SPI2_IRQn\000"
 5076      5F495251 
 5076      6E00
 5077              	.LASF28:
 5078 00fc 4144435F 		.ascii	"ADC_CHANNEL10\000"
 5078      4348414E 
 5078      4E454C31 
 5078      3000
 5079              	.LASF29:
 5080 010a 4144435F 		.ascii	"ADC_CHANNEL11\000"
 5080      4348414E 
 5080      4E454C31 
 5080      3100
 5081              	.LASF30:
 5082 0118 4144435F 		.ascii	"ADC_CHANNEL12\000"
 5082      4348414E 
 5082      4E454C31 
 5082      3200
 5083              	.LASF31:
 5084 0126 4144435F 		.ascii	"ADC_CHANNEL13\000"
 5084      4348414E 
 5084      4E454C31 
 5084      3300
 5085              	.LASF32:
 5086 0134 4144435F 		.ascii	"ADC_CHANNEL14\000"
 5086      4348414E 
 5086      4E454C31 
 5086      3400
 5087              	.LASF33:
 5088 0142 4144435F 		.ascii	"ADC_CHANNEL15\000"
 5088      4348414E 
 5088      4E454C31 
 5088      3500
 5089              	.LASF34:
 5090 0150 4144435F 		.ascii	"ADC_CHANNEL16\000"
 5090      4348414E 
 5090      4E454C31 
 5090      3600
 5091              	.LASF35:
 5092 015e 4144435F 		.ascii	"ADC_CHANNEL17\000"
 5092      4348414E 
 5092      4E454C31 
 5092      3700
 5093              	.LASF183:
 5094 016c 4750494F 		.ascii	"GPIO_Speed\000"
 5094      5F537065 
 5094      656400
 5095              	.LASF130:
 5096 0177 41495243 		.ascii	"AIRCR\000"
 5096      5200
 5097              	.LASF6:
 5098 017d 6C6F6E67 		.ascii	"long int\000"
 5098      20696E74 
ARM GAS  C:\Users\user\AppData\Local\Temp\ccH9wMRW.s 			page 128


 5098      00
 5099              	.LASF127:
 5100 0186 43505549 		.ascii	"CPUID\000"
 5100      4400
 5101              	.LASF234:
 5102 018c 5F5F6275 		.ascii	"__builtin_memset\000"
 5102      696C7469 
 5102      6E5F6D65 
 5102      6D736574 
 5102      00
 5103              	.LASF173:
 5104 019d 4750494F 		.ascii	"GPIO_Mode_AIN\000"
 5104      5F4D6F64 
 5104      655F4149 
 5104      4E00
 5105              	.LASF54:
 5106 01ab 54414D50 		.ascii	"TAMPER_IRQn\000"
 5106      45525F49 
 5106      52516E00 
 5107              	.LASF212:
 5108 01b7 4952516E 		.ascii	"IRQn\000"
 5108      00
 5109              	.LASF198:
 5110 01bc 4368616E 		.ascii	"Channel\000"
 5110      6E656C00 
 5111              	.LASF179:
 5112 01c4 4750494F 		.ascii	"GPIO_Mode_AF_OD\000"
 5112      5F4D6F64 
 5112      655F4146 
 5112      5F4F4400 
 5113              	.LASF51:
 5114 01d4 53797354 		.ascii	"SysTick_IRQn\000"
 5114      69636B5F 
 5114      4952516E 
 5114      00
 5115              	.LASF91:
 5116 01e1 55534152 		.ascii	"USART3_IRQn\000"
 5116      54335F49 
 5116      52516E00 
 5117              	.LASF128:
 5118 01ed 49435352 		.ascii	"ICSR\000"
 5118      00
 5119              	.LASF222:
 5120 01f2 7076506F 		.ascii	"pvPortMalloc\000"
 5120      72744D61 
 5120      6C6C6F63 
 5120      00
 5121              	.LASF189:
 5122 01ff 51756575 		.ascii	"QueueHandle_t\000"
 5122      6548616E 
 5122      646C655F 
 5122      7400
 5123              	.LASF0:
 5124 020d 7369676E 		.ascii	"signed char\000"
 5124      65642063 
 5124      68617200 
 5125              	.LASF12:
ARM GAS  C:\Users\user\AppData\Local\Temp\ccH9wMRW.s 			page 129


 5126 0219 75696E74 		.ascii	"uint8_t\000"
 5126      385F7400 
 5127              	.LASF185:
 5128 0221 4750494F 		.ascii	"GPIO_InitTypeDef\000"
 5128      5F496E69 
 5128      74547970 
 5128      65446566 
 5128      00
 5129              	.LASF115:
 5130 0232 52455345 		.ascii	"RESERVED0\000"
 5130      52564544 
 5130      3000
 5131              	.LASF1:
 5132 023c 756E7369 		.ascii	"unsigned char\000"
 5132      676E6564 
 5132      20636861 
 5132      7200
 5133              	.LASF121:
 5134 024a 52455345 		.ascii	"RESERVED3\000"
 5134      52564544 
 5134      3300
 5135              	.LASF123:
 5136 0254 52455345 		.ascii	"RESERVED4\000"
 5136      52564544 
 5136      3400
 5137              	.LASF124:
 5138 025e 52455345 		.ascii	"RESERVED5\000"
 5138      52564544 
 5138      3500
 5139              	.LASF180:
 5140 0268 4750494F 		.ascii	"GPIO_Mode_AF_PP\000"
 5140      5F4D6F64 
 5140      655F4146 
 5140      5F505000 
 5141              	.LASF122:
 5142 0278 49414252 		.ascii	"IABR\000"
 5142      00
 5143              	.LASF84:
 5144 027d 49324331 		.ascii	"I2C1_ER_IRQn\000"
 5144      5F45525F 
 5144      4952516E 
 5144      00
 5145              	.LASF225:
 5146 028a 78517565 		.ascii	"xQueueGenericCreate\000"
 5146      75654765 
 5146      6E657269 
 5146      63437265 
 5146      61746500 
 5147              	.LASF41:
 5148 029e 41646353 		.ascii	"AdcStatus\000"
 5148      74617475 
 5148      7300
 5149              	.LASF111:
 5150 02a8 43414E32 		.ascii	"CAN2_SCE_IRQn\000"
 5150      5F534345 
 5150      5F495251 
 5150      6E00
ARM GAS  C:\Users\user\AppData\Local\Temp\ccH9wMRW.s 			page 130


 5151              	.LASF63:
 5152 02b6 444D4131 		.ascii	"DMA1_Channel1_IRQn\000"
 5152      5F436861 
 5152      6E6E656C 
 5152      315F4952 
 5152      516E00
 5153              	.LASF197:
 5154 02c9 5F426F6F 		.ascii	"_Bool\000"
 5154      6C00
 5155              	.LASF76:
 5156 02cf 54494D31 		.ascii	"TIM1_BRK_IRQn\000"
 5156      5F42524B 
 5156      5F495251 
 5156      6E00
 5157              	.LASF119:
 5158 02dd 52455345 		.ascii	"RESERVED2\000"
 5158      52564544 
 5158      3200
 5159              	.LASF95:
 5160 02e7 54494D35 		.ascii	"TIM5_IRQn\000"
 5160      5F495251 
 5160      6E00
 5161              	.LASF47:
 5162 02f1 55736167 		.ascii	"UsageFault_IRQn\000"
 5162      65466175 
 5162      6C745F49 
 5162      52516E00 
 5163              	.LASF16:
 5164 0301 63686172 		.ascii	"char\000"
 5164      00
 5165              	.LASF140:
 5166 0306 5343425F 		.ascii	"SCB_Type\000"
 5166      54797065 
 5166      00
 5167              	.LASF134:
 5168 030f 44465352 		.ascii	"DFSR\000"
 5168      00
 5169              	.LASF229:
 5170 0314 4144435F 		.ascii	"ADC_RegularChannelConfig\000"
 5170      52656775 
 5170      6C617243 
 5170      68616E6E 
 5170      656C436F 
 5171              	.LASF238:
 5172 032d 41646353 		.ascii	"AdcStart\000"
 5172      74617274 
 5172      00
 5173              	.LASF177:
 5174 0336 4750494F 		.ascii	"GPIO_Mode_Out_OD\000"
 5174      5F4D6F64 
 5174      655F4F75 
 5174      745F4F44 
 5174      00
 5175              	.LASF4:
 5176 0347 5F5F7569 		.ascii	"__uint16_t\000"
 5176      6E743136 
 5176      5F7400
ARM GAS  C:\Users\user\AppData\Local\Temp\ccH9wMRW.s 			page 131


 5177              	.LASF72:
 5178 0352 43414E31 		.ascii	"CAN1_RX0_IRQn\000"
 5178      5F525830 
 5178      5F495251 
 5178      6E00
 5179              	.LASF233:
 5180 0360 5F5F6275 		.ascii	"__builtin_memcpy\000"
 5180      696C7469 
 5180      6E5F6D65 
 5180      6D637079 
 5180      00
 5181              	.LASF133:
 5182 0371 48465352 		.ascii	"HFSR\000"
 5182      00
 5183              	.LASF206:
 5184 0376 68696768 		.ascii	"high_ptask_token\000"
 5184      5F707461 
 5184      736B5F74 
 5184      6F6B656E 
 5184      00
 5185              	.LASF171:
 5186 0387 4750494F 		.ascii	"GPIO_Speed_50MHz\000"
 5186      5F537065 
 5186      65645F35 
 5186      304D487A 
 5186      00
 5187              	.LASF199:
 5188 0398 6164635F 		.ascii	"adc_man\000"
 5188      6D616E00 
 5189              	.LASF208:
 5190 03a0 41444331 		.ascii	"ADC1_2_IRQHandler\000"
 5190      5F325F49 
 5190      52514861 
 5190      6E646C65 
 5190      7200
 5191              	.LASF82:
 5192 03b2 54494D34 		.ascii	"TIM4_IRQn\000"
 5192      5F495251 
 5192      6E00
 5193              	.LASF90:
 5194 03bc 55534152 		.ascii	"USART2_IRQn\000"
 5194      54325F49 
 5194      52516E00 
 5195              	.LASF131:
 5196 03c8 53484353 		.ascii	"SHCSR\000"
 5196      5200
 5197              	.LASF125:
 5198 03ce 53544952 		.ascii	"STIR\000"
 5198      00
 5199              	.LASF83:
 5200 03d3 49324331 		.ascii	"I2C1_EV_IRQn\000"
 5200      5F45565F 
 5200      4952516E 
 5200      00
 5201              	.LASF158:
 5202 03e0 4144435F 		.ascii	"ADC_TypeDef\000"
 5202      54797065 
ARM GAS  C:\Users\user\AppData\Local\Temp\ccH9wMRW.s 			page 132


 5202      44656600 
 5203              	.LASF42:
 5204 03ec 62756666 		.ascii	"buffer\000"
 5204      657200
 5205              	.LASF224:
 5206 03f3 4750494F 		.ascii	"GPIO_Init\000"
 5206      5F496E69 
 5206      7400
 5207              	.LASF102:
 5208 03fd 444D4132 		.ascii	"DMA2_Channel2_IRQn\000"
 5208      5F436861 
 5208      6E6E656C 
 5208      325F4952 
 5208      516E00
 5209              	.LASF79:
 5210 0410 54494D31 		.ascii	"TIM1_CC_IRQn\000"
 5210      5F43435F 
 5210      4952516E 
 5210      00
 5211              	.LASF59:
 5212 041d 45585449 		.ascii	"EXTI1_IRQn\000"
 5212      315F4952 
 5212      516E00
 5213              	.LASF71:
 5214 0428 43414E31 		.ascii	"CAN1_TX_IRQn\000"
 5214      5F54585F 
 5214      4952516E 
 5214      00
 5215              	.LASF228:
 5216 0435 78517565 		.ascii	"xQueueGenericSend\000"
 5216      75654765 
 5216      6E657269 
 5216      6353656E 
 5216      6400
 5217              	.LASF112:
 5218 0447 4F54475F 		.ascii	"OTG_FS_IRQn\000"
 5218      46535F49 
 5218      52516E00 
 5219              	.LASF44:
 5220 0453 4E6F6E4D 		.ascii	"NonMaskableInt_IRQn\000"
 5220      61736B61 
 5220      626C6549 
 5220      6E745F49 
 5220      52516E00 
 5221              	.LASF52:
 5222 0467 57574447 		.ascii	"WWDG_IRQn\000"
 5222      5F495251 
 5222      6E00
 5223              	.LASF8:
 5224 0471 6C6F6E67 		.ascii	"long unsigned int\000"
 5224      20756E73 
 5224      69676E65 
 5224      6420696E 
 5224      7400
 5225              	.LASF223:
 5226 0483 5243435F 		.ascii	"RCC_APB2PeriphClockCmd\000"
 5226      41504232 
ARM GAS  C:\Users\user\AppData\Local\Temp\ccH9wMRW.s 			page 133


 5226      50657269 
 5226      7068436C 
 5226      6F636B43 
 5227              	.LASF202:
 5228 049a 41646348 		.ascii	"AdcHchannel\000"
 5228      6368616E 
 5228      6E656C00 
 5229              	.LASF45:
 5230 04a6 4D656D6F 		.ascii	"MemoryManagement_IRQn\000"
 5230      72794D61 
 5230      6E616765 
 5230      6D656E74 
 5230      5F495251 
 5231              	.LASF66:
 5232 04bc 444D4131 		.ascii	"DMA1_Channel4_IRQn\000"
 5232      5F436861 
 5232      6E6E656C 
 5232      345F4952 
 5232      516E00
 5233              	.LASF74:
 5234 04cf 43414E31 		.ascii	"CAN1_SCE_IRQn\000"
 5234      5F534345 
 5234      5F495251 
 5234      6E00
 5235              	.LASF113:
 5236 04dd 4952516E 		.ascii	"IRQn_Type\000"
 5236      5F547970 
 5236      6500
 5237              	.LASF39:
 5238 04e7 4144435F 		.ascii	"ADC_STATUS_BAD_PTR\000"
 5238      53544154 
 5238      55535F42 
 5238      41445F50 
 5238      545200
 5239              	.LASF144:
 5240 04fa 534D5052 		.ascii	"SMPR1\000"
 5240      3100
 5241              	.LASF145:
 5242 0500 534D5052 		.ascii	"SMPR2\000"
 5242      3200
 5243              	.LASF101:
 5244 0506 444D4132 		.ascii	"DMA2_Channel1_IRQn\000"
 5244      5F436861 
 5244      6E6E656C 
 5244      315F4952 
 5244      516E00
 5245              	.LASF168:
 5246 0519 4144435F 		.ascii	"ADC_InitTypeDef\000"
 5246      496E6974 
 5246      54797065 
 5246      44656600 
 5247              	.LASF160:
 5248 0529 4C434B52 		.ascii	"LCKR\000"
 5248      00
 5249              	.LASF227:
 5250 052e 4144435F 		.ascii	"ADC_ITConfig\000"
 5250      4954436F 
ARM GAS  C:\Users\user\AppData\Local\Temp\ccH9wMRW.s 			page 134


 5250      6E666967 
 5250      00
 5251              	.LASF178:
 5252 053b 4750494F 		.ascii	"GPIO_Mode_Out_PP\000"
 5252      5F4D6F64 
 5252      655F4F75 
 5252      745F5050 
 5252      00
 5253              	.LASF86:
 5254 054c 49324332 		.ascii	"I2C2_ER_IRQn\000"
 5254      5F45525F 
 5254      4952516E 
 5254      00
 5255              	.LASF163:
 5256 0559 4144435F 		.ascii	"ADC_ScanConvMode\000"
 5256      5363616E 
 5256      436F6E76 
 5256      4D6F6465 
 5256      00
 5257              	.LASF46:
 5258 056a 42757346 		.ascii	"BusFault_IRQn\000"
 5258      61756C74 
 5258      5F495251 
 5258      6E00
 5259              	.LASF98:
 5260 0578 55415254 		.ascii	"UART5_IRQn\000"
 5260      355F4952 
 5260      516E00
 5261              	.LASF18:
 5262 0583 4144435F 		.ascii	"ADC_CHANNEL0\000"
 5262      4348414E 
 5262      4E454C30 
 5262      00
 5263              	.LASF19:
 5264 0590 4144435F 		.ascii	"ADC_CHANNEL1\000"
 5264      4348414E 
 5264      4E454C31 
 5264      00
 5265              	.LASF20:
 5266 059d 4144435F 		.ascii	"ADC_CHANNEL2\000"
 5266      4348414E 
 5266      4E454C32 
 5266      00
 5267              	.LASF21:
 5268 05aa 4144435F 		.ascii	"ADC_CHANNEL3\000"
 5268      4348414E 
 5268      4E454C33 
 5268      00
 5269              	.LASF22:
 5270 05b7 4144435F 		.ascii	"ADC_CHANNEL4\000"
 5270      4348414E 
 5270      4E454C34 
 5270      00
 5271              	.LASF23:
 5272 05c4 4144435F 		.ascii	"ADC_CHANNEL5\000"
 5272      4348414E 
 5272      4E454C35 
ARM GAS  C:\Users\user\AppData\Local\Temp\ccH9wMRW.s 			page 135


 5272      00
 5273              	.LASF24:
 5274 05d1 4144435F 		.ascii	"ADC_CHANNEL6\000"
 5274      4348414E 
 5274      4E454C36 
 5274      00
 5275              	.LASF25:
 5276 05de 4144435F 		.ascii	"ADC_CHANNEL7\000"
 5276      4348414E 
 5276      4E454C37 
 5276      00
 5277              	.LASF26:
 5278 05eb 4144435F 		.ascii	"ADC_CHANNEL8\000"
 5278      4348414E 
 5278      4E454C38 
 5278      00
 5279              	.LASF27:
 5280 05f8 4144435F 		.ascii	"ADC_CHANNEL9\000"
 5280      4348414E 
 5280      4E454C39 
 5280      00
 5281              	.LASF7:
 5282 0605 5F5F7569 		.ascii	"__uint32_t\000"
 5282      6E743332 
 5282      5F7400
 5283              	.LASF164:
 5284 0610 4144435F 		.ascii	"ADC_ContinuousConvMode\000"
 5284      436F6E74 
 5284      696E756F 
 5284      7573436F 
 5284      6E764D6F 
 5285              	.LASF100:
 5286 0627 54494D37 		.ascii	"TIM7_IRQn\000"
 5286      5F495251 
 5286      6E00
 5287              	.LASF9:
 5288 0631 6C6F6E67 		.ascii	"long long int\000"
 5288      206C6F6E 
 5288      6720696E 
 5288      7400
 5289              	.LASF107:
 5290 063f 4554485F 		.ascii	"ETH_WKUP_IRQn\000"
 5290      574B5550 
 5290      5F495251 
 5290      6E00
 5291              	.LASF201:
 5292 064d 63707472 		.ascii	"cptr\000"
 5292      00
 5293              	.LASF87:
 5294 0652 53504931 		.ascii	"SPI1_IRQn\000"
 5294      5F495251 
 5294      6E00
 5295              	.LASF231:
 5296 065c 6D656D63 		.ascii	"memcpy\000"
 5296      707900
 5297              	.LASF48:
 5298 0663 53564361 		.ascii	"SVCall_IRQn\000"
ARM GAS  C:\Users\user\AppData\Local\Temp\ccH9wMRW.s 			page 136


 5298      6C6C5F49 
 5298      52516E00 
 5299              	.LASF216:
 5300 066f 78517565 		.ascii	"xQueueGiveFromISR\000"
 5300      75654769 
 5300      76654672 
 5300      6F6D4953 
 5300      5200
 5301              	.LASF40:
 5302 0681 4144435F 		.ascii	"ADC_STATUS_TIMEOUT\000"
 5302      53544154 
 5302      55535F54 
 5302      494D454F 
 5302      555400
 5303              	.LASF93:
 5304 0694 52544341 		.ascii	"RTCAlarm_IRQn\000"
 5304      6C61726D 
 5304      5F495251 
 5304      6E00
 5305              	.LASF97:
 5306 06a2 55415254 		.ascii	"UART4_IRQn\000"
 5306      345F4952 
 5306      516E00
 5307              	.LASF36:
 5308 06ad 41646343 		.ascii	"AdcChannelId\000"
 5308      68616E6E 
 5308      656C4964 
 5308      00
 5309              	.LASF105:
 5310 06ba 444D4132 		.ascii	"DMA2_Channel5_IRQn\000"
 5310      5F436861 
 5310      6E6E656C 
 5310      355F4952 
 5310      516E00
 5311              	.LASF94:
 5312 06cd 4F54475F 		.ascii	"OTG_FS_WKUP_IRQn\000"
 5312      46535F57 
 5312      4B55505F 
 5312      4952516E 
 5312      00
 5313              	.LASF11:
 5314 06de 756E7369 		.ascii	"unsigned int\000"
 5314      676E6564 
 5314      20696E74 
 5314      00
 5315              	.LASF209:
 5316 06eb 41646353 		.ascii	"AdcStop\000"
 5316      746F7000 
 5317              	.LASF85:
 5318 06f3 49324332 		.ascii	"I2C2_EV_IRQn\000"
 5318      5F45565F 
 5318      4952516E 
 5318      00
 5319              	.LASF195:
 5320 0700 4164634D 		.ascii	"AdcManager\000"
 5320      616E6167 
 5320      657200
ARM GAS  C:\Users\user\AppData\Local\Temp\ccH9wMRW.s 			page 137


 5321              	.LASF108:
 5322 070b 43414E32 		.ascii	"CAN2_TX_IRQn\000"
 5322      5F54585F 
 5322      4952516E 
 5322      00
 5323              	.LASF69:
 5324 0718 444D4131 		.ascii	"DMA1_Channel7_IRQn\000"
 5324      5F436861 
 5324      6E6E656C 
 5324      375F4952 
 5324      516E00
 5325              	.LASF204:
 5326 072b 41646343 		.ascii	"AdcChannelCreate\000"
 5326      68616E6E 
 5326      656C4372 
 5326      65617465 
 5326      00
 5327              	.LASF104:
 5328 073c 444D4132 		.ascii	"DMA2_Channel4_IRQn\000"
 5328      5F436861 
 5328      6E6E656C 
 5328      345F4952 
 5328      516E00
 5329              	.LASF165:
 5330 074f 4144435F 		.ascii	"ADC_ExternalTrigConv\000"
 5330      45787465 
 5330      726E616C 
 5330      54726967 
 5330      436F6E76 
 5331              	.LASF191:
 5332 0764 63757272 		.ascii	"current_ch\000"
 5332      656E745F 
 5332      636800
 5333              	.LASF37:
 5334 076f 4144435F 		.ascii	"ADC_STATUS_SUCCESS\000"
 5334      53544154 
 5334      55535F53 
 5334      55434345 
 5334      535300
 5335              	.LASF210:
 5336 0782 41646349 		.ascii	"AdcInit\000"
 5336      6E697400 
 5337              	.LASF141:
 5338 078a 44495341 		.ascii	"DISABLE\000"
 5338      424C4500 
 5339              	.LASF15:
 5340 0792 6C6F6E67 		.ascii	"long double\000"
 5340      20646F75 
 5340      626C6500 
 5341              	.LASF78:
 5342 079e 54494D31 		.ascii	"TIM1_TRG_COM_IRQn\000"
 5342      5F545247 
 5342      5F434F4D 
 5342      5F495251 
 5342      6E00
 5343              	.LASF136:
 5344 07b0 42464152 		.ascii	"BFAR\000"
ARM GAS  C:\Users\user\AppData\Local\Temp\ccH9wMRW.s 			page 138


 5344      00
 5345              	.LASF126:
 5346 07b5 4E564943 		.ascii	"NVIC_Type\000"
 5346      5F547970 
 5346      6500
 5347              	.LASF143:
 5348 07bf 46756E63 		.ascii	"FunctionalState\000"
 5348      74696F6E 
 5348      616C5374 
 5348      61746500 
 5349              	.LASF92:
 5350 07cf 45585449 		.ascii	"EXTI15_10_IRQn\000"
 5350      31355F31 
 5350      305F4952 
 5350      516E00
 5351              	.LASF10:
 5352 07de 6C6F6E67 		.ascii	"long long unsigned int\000"
 5352      206C6F6E 
 5352      6720756E 
 5352      7369676E 
 5352      65642069 
 5353              	.LASF13:
 5354 07f5 75696E74 		.ascii	"uint16_t\000"
 5354      31365F74 
 5354      00
 5355              	.LASF217:
 5356 07fe 4144435F 		.ascii	"ADC_Cmd\000"
 5356      436D6400 
 5357              	.LASF17:
 5358 0806 41646343 		.ascii	"AdcChannel\000"
 5358      68616E6E 
 5358      656C00
 5359              	.LASF81:
 5360 0811 54494D33 		.ascii	"TIM3_IRQn\000"
 5360      5F495251 
 5360      6E00
 5361              	.LASF89:
 5362 081b 55534152 		.ascii	"USART1_IRQn\000"
 5362      54315F49 
 5362      52516E00 
 5363              	.LASF187:
 5364 0827 55426173 		.ascii	"UBaseType_t\000"
 5364      65547970 
 5364      655F7400 
 5365              	.LASF184:
 5366 0833 4750494F 		.ascii	"GPIO_Mode\000"
 5366      5F4D6F64 
 5366      6500
 5367              	.LASF110:
 5368 083d 43414E32 		.ascii	"CAN2_RX1_IRQn\000"
 5368      5F525831 
 5368      5F495251 
 5368      6E00
 5369              	.LASF188:
 5370 084b 5469636B 		.ascii	"TickType_t\000"
 5370      54797065 
 5370      5F7400
ARM GAS  C:\Users\user\AppData\Local\Temp\ccH9wMRW.s 			page 139


 5371              	.LASF190:
 5372 0856 53656D61 		.ascii	"SemaphoreHandle_t\000"
 5372      70686F72 
 5372      6548616E 
 5372      646C655F 
 5372      7400
 5373              	.LASF116:
 5374 0868 49434552 		.ascii	"ICER\000"
 5374      00
 5375              	.LASF232:
 5376 086d 6D656D73 		.ascii	"memset\000"
 5376      657400
 5377              	.LASF181:
 5378 0874 4750494F 		.ascii	"GPIOMode_TypeDef\000"
 5378      4D6F6465 
 5378      5F547970 
 5378      65446566 
 5378      00
 5379              	.LASF166:
 5380 0885 4144435F 		.ascii	"ADC_DataAlign\000"
 5380      44617461 
 5380      416C6967 
 5380      6E00
 5381              	.LASF53:
 5382 0893 5056445F 		.ascii	"PVD_IRQn\000"
 5382      4952516E 
 5382      00
 5383              	.LASF137:
 5384 089c 41465352 		.ascii	"AFSR\000"
 5384      00
 5385              	.LASF58:
 5386 08a1 45585449 		.ascii	"EXTI0_IRQn\000"
 5386      305F4952 
 5386      516E00
 5387              	.LASF132:
 5388 08ac 43465352 		.ascii	"CFSR\000"
 5388      00
 5389              	.LASF220:
 5390 08b1 4144435F 		.ascii	"ADC_GetConversionValue\000"
 5390      47657443 
 5390      6F6E7665 
 5390      7273696F 
 5390      6E56616C 
 5391              	.LASF170:
 5392 08c8 4750494F 		.ascii	"GPIO_Speed_2MHz\000"
 5392      5F537065 
 5392      65645F32 
 5392      4D487A00 
 5393              	.LASF172:
 5394 08d8 4750494F 		.ascii	"GPIOSpeed_TypeDef\000"
 5394      53706565 
 5394      645F5479 
 5394      70654465 
 5394      6600
 5395              	.LASF49:
 5396 08ea 44656275 		.ascii	"DebugMonitor_IRQn\000"
 5396      674D6F6E 
ARM GAS  C:\Users\user\AppData\Local\Temp\ccH9wMRW.s 			page 140


 5396      69746F72 
 5396      5F495251 
 5396      6E00
 5397              	.LASF182:
 5398 08fc 4750494F 		.ascii	"GPIO_Pin\000"
 5398      5F50696E 
 5398      00
 5399              	.LASF106:
 5400 0905 4554485F 		.ascii	"ETH_IRQn\000"
 5400      4952516E 
 5400      00
 5401              	.LASF205:
 5402 090e 706F7274 		.ascii	"port\000"
 5402      00
 5403              	.LASF65:
 5404 0913 444D4131 		.ascii	"DMA1_Channel3_IRQn\000"
 5404      5F436861 
 5404      6E6E656C 
 5404      335F4952 
 5404      516E00
 5405              	.LASF138:
 5406 0926 4D4D4652 		.ascii	"MMFR\000"
 5406      00
 5407              	.LASF135:
 5408 092b 4D4D4641 		.ascii	"MMFAR\000"
 5408      5200
 5409              	.LASF218:
 5410 0931 4144435F 		.ascii	"ADC_SoftwareStartConvCmd\000"
 5410      536F6674 
 5410      77617265 
 5410      53746172 
 5410      74436F6E 
 5411              	.LASF2:
 5412 094a 73686F72 		.ascii	"short int\000"
 5412      7420696E 
 5412      7400
 5413              	.LASF57:
 5414 0954 5243435F 		.ascii	"RCC_IRQn\000"
 5414      4952516E 
 5414      00
 5415              	.LASF213:
 5416 095d 7072696F 		.ascii	"priority\000"
 5416      72697479 
 5416      00
 5417              	.LASF174:
 5418 0966 4750494F 		.ascii	"GPIO_Mode_IN_FLOATING\000"
 5418      5F4D6F64 
 5418      655F494E 
 5418      5F464C4F 
 5418      4154494E 
 5419              	.LASF43:
 5420 097c 4368616E 		.ascii	"ChannelBuffer\000"
 5420      6E656C42 
 5420      75666665 
 5420      7200
 5421              	.LASF146:
 5422 098a 4A4F4652 		.ascii	"JOFR1\000"
ARM GAS  C:\Users\user\AppData\Local\Temp\ccH9wMRW.s 			page 141


 5422      3100
 5423              	.LASF147:
 5424 0990 4A4F4652 		.ascii	"JOFR2\000"
 5424      3200
 5425              	.LASF148:
 5426 0996 4A4F4652 		.ascii	"JOFR3\000"
 5426      3300
 5427              	.LASF149:
 5428 099c 4A4F4652 		.ascii	"JOFR4\000"
 5428      3400
 5429              	.LASF139:
 5430 09a2 49534152 		.ascii	"ISAR\000"
 5430      00
 5431              	.LASF235:
 5432 09a7 474E5520 		.ascii	"GNU C17 10.3.1 20210621 (release) -mcpu=cortex-m3 -"
 5432      43313720 
 5432      31302E33 
 5432      2E312032 
 5432      30323130 
 5433 09da 6D746875 		.ascii	"mthumb -mfloat-abi=soft -march=armv7-m -g -gdwarf-2"
 5433      6D62202D 
 5433      6D666C6F 
 5433      61742D61 
 5433      62693D73 
 5434 0a0d 202D4F73 		.ascii	" -Os -fomit-frame-pointer\000"
 5434      202D666F 
 5434      6D69742D 
 5434      6672616D 
 5434      652D706F 
 5435              	.LASF70:
 5436 0a27 41444331 		.ascii	"ADC1_2_IRQn\000"
 5436      5F325F49 
 5436      52516E00 
 5437              	.LASF226:
 5438 0a33 4144435F 		.ascii	"ADC_Init\000"
 5438      496E6974 
 5438      00
 5439              	.LASF142:
 5440 0a3c 454E4142 		.ascii	"ENABLE\000"
 5440      4C4500
 5441              	.LASF221:
 5442 0a43 4144435F 		.ascii	"ADC_GetITStatus\000"
 5442      47657449 
 5442      54537461 
 5442      74757300 
 5443              	.LASF159:
 5444 0a53 42535252 		.ascii	"BSRR\000"
 5444      00
 5445              	.LASF154:
 5446 0a58 4A445231 		.ascii	"JDR1\000"
 5446      00
 5447              	.LASF155:
 5448 0a5d 4A445232 		.ascii	"JDR2\000"
 5448      00
 5449              	.LASF156:
 5450 0a62 4A445233 		.ascii	"JDR3\000"
 5450      00
ARM GAS  C:\Users\user\AppData\Local\Temp\ccH9wMRW.s 			page 142


 5451              	.LASF157:
 5452 0a67 4A445234 		.ascii	"JDR4\000"
 5452      00
 5453              	.LASF153:
 5454 0a6c 4A535152 		.ascii	"JSQR\000"
 5454      00
 5455              	.LASF161:
 5456 0a71 4750494F 		.ascii	"GPIO_TypeDef\000"
 5456      5F547970 
 5456      65446566 
 5456      00
 5457              	.LASF64:
 5458 0a7e 444D4131 		.ascii	"DMA1_Channel2_IRQn\000"
 5458      5F436861 
 5458      6E6E656C 
 5458      325F4952 
 5458      516E00
 5459              	.LASF99:
 5460 0a91 54494D36 		.ascii	"TIM6_IRQn\000"
 5460      5F495251 
 5460      6E00
 5461              	.LASF237:
 5462 0a9b 443A5C47 		.ascii	"D:\\Git Codes\\Lock\\Lock\000"
 5462      69742043 
 5462      6F646573 
 5462      5C4C6F63 
 5462      6B5C4C6F 
 5463              	.LASF162:
 5464 0ab2 4144435F 		.ascii	"ADC_Mode\000"
 5464      4D6F6465 
 5464      00
 5465              	.LASF14:
 5466 0abb 75696E74 		.ascii	"uint32_t\000"
 5466      33325F74 
 5466      00
 5467              	.LASF167:
 5468 0ac4 4144435F 		.ascii	"ADC_NbrOfChannel\000"
 5468      4E62724F 
 5468      66436861 
 5468      6E6E656C 
 5468      00
 5469              	.LASF77:
 5470 0ad5 54494D31 		.ascii	"TIM1_UP_IRQn\000"
 5470      5F55505F 
 5470      4952516E 
 5470      00
 5471              	.LASF214:
 5472 0ae2 4E564943 		.ascii	"NVIC_SetPriority\000"
 5472      5F536574 
 5472      5072696F 
 5472      72697479 
 5472      00
 5473              	.LASF73:
 5474 0af3 43414E31 		.ascii	"CAN1_RX1_IRQn\000"
 5474      5F525831 
 5474      5F495251 
 5474      6E00
ARM GAS  C:\Users\user\AppData\Local\Temp\ccH9wMRW.s 			page 143


 5475              	.LASF75:
 5476 0b01 45585449 		.ascii	"EXTI9_5_IRQn\000"
 5476      395F355F 
 5476      4952516E 
 5476      00
 5477              	.LASF38:
 5478 0b0e 4144435F 		.ascii	"ADC_STATUS_ERROR\000"
 5478      53544154 
 5478      55535F45 
 5478      52524F52 
 5478      00
 5479              	.LASF169:
 5480 0b1f 4750494F 		.ascii	"GPIO_Speed_10MHz\000"
 5480      5F537065 
 5480      65645F31 
 5480      304D487A 
 5480      00
 5481              	.LASF62:
 5482 0b30 45585449 		.ascii	"EXTI4_IRQn\000"
 5482      345F4952 
 5482      516E00
 5483              	.LASF5:
 5484 0b3b 73686F72 		.ascii	"short unsigned int\000"
 5484      7420756E 
 5484      7369676E 
 5484      65642069 
 5484      6E7400
 5485              	.LASF118:
 5486 0b4e 49535052 		.ascii	"ISPR\000"
 5486      00
 5487              	.LASF61:
 5488 0b53 45585449 		.ascii	"EXTI3_IRQn\000"
 5488      335F4952 
 5488      516E00
 5489              	.LASF50:
 5490 0b5e 50656E64 		.ascii	"PendSV_IRQn\000"
 5490      53565F49 
 5490      52516E00 
 5491              	.LASF230:
 5492 0b6a 78517565 		.ascii	"xQueueGenericReceive\000"
 5492      75654765 
 5492      6E657269 
 5492      63526563 
 5492      65697665 
 5493              	.LASF211:
 5494 0b7f 6164635F 		.ascii	"adc_config\000"
 5494      636F6E66 
 5494      696700
 5495              	.LASF192:
 5496 0b8a 73656D5F 		.ascii	"sem_lock\000"
 5496      6C6F636B 
 5496      00
 5497              	.LASF114:
 5498 0b93 49534552 		.ascii	"ISER\000"
 5498      00
 5499              	.LASF203:
 5500 0b98 41646343 		.ascii	"AdcChannelRead\000"
ARM GAS  C:\Users\user\AppData\Local\Temp\ccH9wMRW.s 			page 144


 5500      68616E6E 
 5500      656C5265 
 5500      616400
 5501              	.LASF68:
 5502 0ba7 444D4131 		.ascii	"DMA1_Channel6_IRQn\000"
 5502      5F436861 
 5502      6E6E656C 
 5502      365F4952 
 5502      516E00
 5503              	.LASF194:
 5504 0bba 64617461 		.ascii	"data\000"
 5504      00
 5505              	.LASF55:
 5506 0bbf 5254435F 		.ascii	"RTC_IRQn\000"
 5506      4952516E 
 5506      00
 5507              	.LASF103:
 5508 0bc8 444D4132 		.ascii	"DMA2_Channel3_IRQn\000"
 5508      5F436861 
 5508      6E6E656C 
 5508      335F4952 
 5508      516E00
 5509              	.LASF175:
 5510 0bdb 4750494F 		.ascii	"GPIO_Mode_IPD\000"
 5510      5F4D6F64 
 5510      655F4950 
 5510      4400
 5511              		.ident	"GCC: (GNU Arm Embedded Toolchain 10.3-2021.07) 10.3.1 20210621 (release)"
ARM GAS  C:\Users\user\AppData\Local\Temp\ccH9wMRW.s 			page 145


DEFINED SYMBOLS
                            *ABS*:00000000 adc.c
C:\Users\user\AppData\Local\Temp\ccH9wMRW.s:83     .text:00000000 $t
C:\Users\user\AppData\Local\Temp\ccH9wMRW.s:91     .text:00000000 AdcInit
C:\Users\user\AppData\Local\Temp\ccH9wMRW.s:279    .text:00000090 $d
C:\Users\user\AppData\Local\Temp\ccH9wMRW.s:286    .text:000000a0 $t
C:\Users\user\AppData\Local\Temp\ccH9wMRW.s:293    .text:000000a0 AdcStop
C:\Users\user\AppData\Local\Temp\ccH9wMRW.s:308    .text:000000a8 $d
C:\Users\user\AppData\Local\Temp\ccH9wMRW.s:312    .text:000000ac $t
C:\Users\user\AppData\Local\Temp\ccH9wMRW.s:319    .text:000000ac AdcChannelCreate
C:\Users\user\AppData\Local\Temp\ccH9wMRW.s:368    .text:000000c8 $d
C:\Users\user\AppData\Local\Temp\ccH9wMRW.s:384    .text:000000d8 $t
C:\Users\user\AppData\Local\Temp\ccH9wMRW.s:605    .text:00000168 $d
C:\Users\user\AppData\Local\Temp\ccH9wMRW.s:611    .text:00000174 $t
C:\Users\user\AppData\Local\Temp\ccH9wMRW.s:618    .text:00000174 AdcHchannel
C:\Users\user\AppData\Local\Temp\ccH9wMRW.s:651    .text:00000182 AdcStart
C:\Users\user\AppData\Local\Temp\ccH9wMRW.s:833    .text:00000214 $d
C:\Users\user\AppData\Local\Temp\ccH9wMRW.s:839    .text:00000220 $t
C:\Users\user\AppData\Local\Temp\ccH9wMRW.s:846    .text:00000220 AdcChannelRead
C:\Users\user\AppData\Local\Temp\ccH9wMRW.s:933    .text:00000250 ADC1_2_IRQHandler
C:\Users\user\AppData\Local\Temp\ccH9wMRW.s:1074   .text:000002c4 $d
C:\Users\user\AppData\Local\Temp\ccH9wMRW.s:1087   .bss:00000000 adc_man
C:\Users\user\AppData\Local\Temp\ccH9wMRW.s:1083   .bss:00000000 $d

UNDEFINED SYMBOLS
xQueueGenericCreate
RCC_APB2PeriphClockCmd
GPIO_Init
ADC_Init
ADC_ITConfig
xQueueGenericSend
ADC_SoftwareStartConvCmd
pvPortMalloc
xQueueGenericReceive
ADC_RegularChannelConfig
ADC_Cmd
memset
memcpy
ADC_GetITStatus
ADC_ClearITPendingBit
ADC_GetConversionValue
xQueueGiveFromISR
