ARM GAS  C:\Users\user\AppData\Local\Temp\ccH9wMRW.s 			page 1


   1              		.cpu cortex-m3
   2              		.eabi_attribute 20, 1	@ Tag_ABI_FP_denormal
   3              		.eabi_attribute 21, 1	@ Tag_ABI_FP_exceptions
   4              		.eabi_attribute 23, 3	@ Tag_ABI_FP_number_model
   5              		.eabi_attribute 24, 1	@ Tag_ABI_align8_needed
   6              		.eabi_attribute 25, 1	@ Tag_ABI_align8_preserved
   7              		.eabi_attribute 26, 1	@ Tag_ABI_enum_size
   8              		.eabi_attribute 30, 4	@ Tag_ABI_optimization_goals
   9              		.eabi_attribute 34, 1	@ Tag_CPU_unaligned_access
  10              		.eabi_attribute 18, 4	@ Tag_ABI_PCS_wchar_t
  11              		.file	"adc.c"
  12              	@ GNU C17 (GNU Arm Embedded Toolchain 10.3-2021.07) version 10.3.1 20210621 (release) (arm-none-eab
  13              	@	compiled by GNU C version 7.3-win32 20180312, GMP version 6.1.0, MPFR version 3.1.4, MPC version 
  14              	
  15              	@ GGC heuristics: --param ggc-min-expand=100 --param ggc-min-heapsize=131072
  16              	@ options passed:  -I . -I ./user -I ./user/driver -I ./user/driver/modem
  17              	@ -I ./user/driver/debug -I ./user/driver/gpio -I ./user/driver/usart
  18              	@ -I ./user/driver/gps -I ./user/driver/rtc -I ./user/driver/led
  19              	@ -I ./user/driver/mux -I ./user/driver/vibration -I ./user/driver/exti
  20              	@ -I ./user/driver/adc -I ./user/driver/18B20 -I ./user/driver/http
  21              	@ -I ./user/driver/w26 -I ./user/driver/i2c -I ./user/driver/system
  22              	@ -I ./user/driver/lock -I ./user/driver/memory -I ./user/driver/spi
  23              	@ -I ./user/driver/w25q -I ./user/driver/rms -I ./user/driver/sensor
  24              	@ -I ./stm32f10x_libraries/CMSIS/CM3/CoreSupport
  25              	@ -I ./stm32f10x_libraries/CMSIS/CM3/DeviceSupport/ST/STM32F10x
  26              	@ -I ./stm32f10x_libraries/STM32F10x_StdPeriph_Driver/inc
  27              	@ -I ./stm32f10x_libraries/STM32F10x_StdPeriph_Driver -I ./freertos/include
  28              	@ -I ./freertos/portable/GCC/ARM_CM3 -imultilib thumb/v7-m/nofp
  29              	@ -iprefix c:\program files (x86)\gnu arm embedded toolchain\10 2021.07\bin\../lib/gcc/arm-none-eab
  30              	@ -isysroot c:\program files (x86)\gnu arm embedded toolchain\10 2021.07\bin\../arm-none-eabi
  31              	@ -D__USES_INITFINI__ -D STM32F10X_CL -D USE_STDPERIPH_DRIVER
  32              	@ -D HSE_VALUE=8000000 -D RUN_FROM_FLASH=1 user/driver/adc/adc.c
  33              	@ -mcpu=cortex-m3 -mthumb -mfloat-abi=soft -mlibarch=armv7-m -march=armv7-m
  34              	@ -auxbase-strip user/driver/adc/adc.o -g -gdwarf-2 -Os -Wall
  35              	@ -fomit-frame-pointer -fverbose-asm
  36              	@ options enabled:  -faggressive-loop-optimizations -fallocation-dce
  37              	@ -fauto-inc-dec -fbranch-count-reg -fcaller-saves -fcode-hoisting
  38              	@ -fcombine-stack-adjustments -fcompare-elim -fcprop-registers
  39              	@ -fcrossjumping -fcse-follow-jumps -fdefer-pop
  40              	@ -fdelete-null-pointer-checks -fdevirtualize -fdevirtualize-speculatively
  41              	@ -fdwarf2-cfi-asm -fearly-inlining -feliminate-unused-debug-symbols
  42              	@ -feliminate-unused-debug-types -fexpensive-optimizations
  43              	@ -fforward-propagate -ffp-int-builtin-inexact -ffunction-cse -fgcse
  44              	@ -fgcse-lm -fgnu-unique -fguess-branch-probability -fhoist-adjacent-loads
  45              	@ -fident -fif-conversion -fif-conversion2 -findirect-inlining -finline
  46              	@ -finline-atomics -finline-functions -finline-functions-called-once
  47              	@ -finline-small-functions -fipa-bit-cp -fipa-cp -fipa-icf
  48              	@ -fipa-icf-functions -fipa-icf-variables -fipa-profile -fipa-pure-const
  49              	@ -fipa-ra -fipa-reference -fipa-reference-addressable -fipa-sra
  50              	@ -fipa-stack-alignment -fipa-vrp -fira-hoist-pressure
  51              	@ -fira-share-save-slots -fira-share-spill-slots
  52              	@ -fisolate-erroneous-paths-dereference -fivopts -fkeep-static-consts
  53              	@ -fleading-underscore -flifetime-dse -flra-remat -fmath-errno
  54              	@ -fmerge-constants -fmerge-debug-strings -fmove-loop-invariants
  55              	@ -fomit-frame-pointer -foptimize-sibling-calls -fpartial-inlining
  56              	@ -fpeephole -fpeephole2 -fplt -fprefetch-loop-arrays -freg-struct-return
  57              	@ -freorder-blocks -freorder-functions -frerun-cse-after-loop
ARM GAS  C:\Users\user\AppData\Local\Temp\ccH9wMRW.s 			page 2


  58              	@ -fsched-critical-path-heuristic -fsched-dep-count-heuristic
  59              	@ -fsched-group-heuristic -fsched-interblock -fsched-last-insn-heuristic
  60              	@ -fsched-pressure -fsched-rank-heuristic -fsched-spec
  61              	@ -fsched-spec-insn-heuristic -fsched-stalled-insns-dep -fschedule-insns2
  62              	@ -fsection-anchors -fsemantic-interposition -fshow-column
  63              	@ -fshrink-wrap-separate -fsigned-zeros -fsplit-ivs-in-unroller
  64              	@ -fsplit-wide-types -fssa-backprop -fssa-phiopt -fstdarg-opt
  65              	@ -fstore-merging -fstrict-aliasing -fstrict-volatile-bitfields
  66              	@ -fsync-libcalls -fthread-jumps -ftoplevel-reorder -ftrapping-math
  67              	@ -ftree-bit-ccp -ftree-builtin-call-dce -ftree-ccp -ftree-ch
  68              	@ -ftree-coalesce-vars -ftree-copy-prop -ftree-cselim -ftree-dce
  69              	@ -ftree-dominator-opts -ftree-dse -ftree-forwprop -ftree-fre
  70              	@ -ftree-loop-distribute-patterns -ftree-loop-if-convert -ftree-loop-im
  71              	@ -ftree-loop-ivcanon -ftree-loop-optimize -ftree-parallelize-loops=
  72              	@ -ftree-phiprop -ftree-pre -ftree-pta -ftree-reassoc -ftree-scev-cprop
  73              	@ -ftree-sink -ftree-slsr -ftree-sra -ftree-switch-conversion
  74              	@ -ftree-tail-merge -ftree-ter -ftree-vrp -funit-at-a-time -fvar-tracking
  75              	@ -fvar-tracking-assignments -fverbose-asm -fzero-initialized-in-bss
  76              	@ -masm-syntax-unified -mbe32 -mfix-cortex-m3-ldrd -mlittle-endian
  77              	@ -mpic-data-is-text-relative -msched-prolog -mthumb -munaligned-access
  78              	@ -mvectorize-with-neon-quad
  79              	
  80              		.text
  81              	.Ltext0:
  82              		.cfi_sections	.debug_frame
  83              		.align	1
  84              		.global	AdcInit
  85              		.arch armv7-m
  86              		.syntax unified
  87              		.thumb
  88              		.thumb_func
  89              		.fpu softvfp
  90              		.type	AdcInit, %function
  91              	AdcInit:
  92              	.LFB34:
  93              		.file 1 "user/driver/adc/adc.c"
   1:user/driver/adc/adc.c **** 
   2:user/driver/adc/adc.c **** #include <stdint.h>
   3:user/driver/adc/adc.c **** #include <string.h>
   4:user/driver/adc/adc.c **** #include "adc.h"
   5:user/driver/adc/adc.c **** #include "FreeRTOS.h"
   6:user/driver/adc/adc.c **** #include "queue.h"
   7:user/driver/adc/adc.c **** #include "semphr.h"
   8:user/driver/adc/adc.c **** #include "stm32f10x.h"
   9:user/driver/adc/adc.c **** #include "stm32f10x_adc.h"
  10:user/driver/adc/adc.c **** #include "stm32f10x_rcc.h"
  11:user/driver/adc/adc.c **** #include "stm32f10x_gpio.h"
  12:user/driver/adc/adc.c **** #include "gpio.h"
  13:user/driver/adc/adc.c **** 
  14:user/driver/adc/adc.c **** typedef struct _NNde
  15:user/driver/adc/adc.c **** {
  16:user/driver/adc/adc.c ****     AdcChannel ch;
  17:user/driver/adc/adc.c ****     struct _NNde *pNext;
  18:user/driver/adc/adc.c **** } ChannelNode;
  19:user/driver/adc/adc.c **** 
  20:user/driver/adc/adc.c **** typedef struct
  21:user/driver/adc/adc.c **** {
ARM GAS  C:\Users\user\AppData\Local\Temp\ccH9wMRW.s 			page 3


  22:user/driver/adc/adc.c ****     AdcChannel current_ch;
  23:user/driver/adc/adc.c ****     xSemaphoreHandle sem_lock;
  24:user/driver/adc/adc.c ****     xSemaphoreHandle done_lock;
  25:user/driver/adc/adc.c ****     ChannelBuffer data;
  26:user/driver/adc/adc.c ****     uint16_t idx;
  27:user/driver/adc/adc.c **** } AdcManager;
  28:user/driver/adc/adc.c **** 
  29:user/driver/adc/adc.c **** AdcManager adc_man;
  30:user/driver/adc/adc.c **** 
  31:user/driver/adc/adc.c **** typedef struct
  32:user/driver/adc/adc.c **** {
  33:user/driver/adc/adc.c ****     AdcChannelId id;
  34:user/driver/adc/adc.c ****     ChannelBuffer data;
  35:user/driver/adc/adc.c ****     bool data_available;
  36:user/driver/adc/adc.c **** } Channel;
  37:user/driver/adc/adc.c **** 
  38:user/driver/adc/adc.c **** uint16_t AdcHchannel(AdcChannel id);
  39:user/driver/adc/adc.c **** 
  40:user/driver/adc/adc.c **** void AdcInit()
  41:user/driver/adc/adc.c **** {
  94              		.loc 1 41 1 view -0
  95              		.cfi_startproc
  96              		@ args = 0, pretend = 0, frame = 24
  97              		@ frame_needed = 0, uses_anonymous_args = 0
  42:user/driver/adc/adc.c ****     // adc_man.data_buffer = xQueueCreate(2, sizeof(ChannelBuffer));
  43:user/driver/adc/adc.c ****     adc_man.current_ch = NULL;
  98              		.loc 1 43 5 view .LVU1
  99              	@ user/driver/adc/adc.c:41: {
  41:user/driver/adc/adc.c ****     // adc_man.data_buffer = xQueueCreate(2, sizeof(ChannelBuffer));
 100              		.loc 1 41 1 is_stmt 0 view .LVU2
 101 0000 F0B5     		push	{r4, r5, r6, r7, lr}	@
 102              	.LCFI0:
 103              		.cfi_def_cfa_offset 20
 104              		.cfi_offset 4, -20
 105              		.cfi_offset 5, -16
 106              		.cfi_offset 6, -12
 107              		.cfi_offset 7, -8
 108              		.cfi_offset 14, -4
 109              	@ user/driver/adc/adc.c:43:     adc_man.current_ch = NULL;
 110              		.loc 1 43 24 view .LVU3
 111 0002 0024     		movs	r4, #0	@ tmp117,
 112 0004 224D     		ldr	r5, .L2	@ tmp116,
 113              	@ user/driver/adc/adc.c:41: {
  41:user/driver/adc/adc.c ****     // adc_man.data_buffer = xQueueCreate(2, sizeof(ChannelBuffer));
 114              		.loc 1 41 1 view .LVU4
 115 0006 87B0     		sub	sp, sp, #28	@,,
 116              	.LCFI1:
 117              		.cfi_def_cfa_offset 48
 118              	@ user/driver/adc/adc.c:45:     adc_man.sem_lock = xSemaphoreCreateBinary();
  44:user/driver/adc/adc.c ****     //adc_man.active_node_list = NULL;
  45:user/driver/adc/adc.c ****     adc_man.sem_lock = xSemaphoreCreateBinary();
 119              		.loc 1 45 24 view .LVU5
 120 0008 2146     		mov	r1, r4	@, tmp117
 121 000a 0322     		movs	r2, #3	@,
 122 000c 0120     		movs	r0, #1	@,
 123              	@ user/driver/adc/adc.c:43:     adc_man.current_ch = NULL;
  43:user/driver/adc/adc.c ****     //adc_man.active_node_list = NULL;
ARM GAS  C:\Users\user\AppData\Local\Temp\ccH9wMRW.s 			page 4


 124              		.loc 1 43 24 view .LVU6
 125 000e 2C60     		str	r4, [r5]	@ tmp117, adc_man.current_ch
 126              		.loc 1 45 5 is_stmt 1 view .LVU7
 127              	@ user/driver/adc/adc.c:45:     adc_man.sem_lock = xSemaphoreCreateBinary();
 128              		.loc 1 45 24 is_stmt 0 view .LVU8
 129 0010 FFF7FEFF 		bl	xQueueGenericCreate		@
 130              	.LVL0:
 131              	@ user/driver/adc/adc.c:46:     adc_man.done_lock = xSemaphoreCreateBinary();
  46:user/driver/adc/adc.c ****     adc_man.done_lock = xSemaphoreCreateBinary();
 132              		.loc 1 46 25 view .LVU9
 133 0014 0322     		movs	r2, #3	@,
 134 0016 2146     		mov	r1, r4	@, tmp117
 135              	@ user/driver/adc/adc.c:45:     adc_man.sem_lock = xSemaphoreCreateBinary();
  45:user/driver/adc/adc.c ****     adc_man.done_lock = xSemaphoreCreateBinary();
 136              		.loc 1 45 22 view .LVU10
 137 0018 6860     		str	r0, [r5, #4]	@ tmp142, adc_man.sem_lock
 138              		.loc 1 46 5 is_stmt 1 view .LVU11
 139              	@ user/driver/adc/adc.c:46:     adc_man.done_lock = xSemaphoreCreateBinary();
 140              		.loc 1 46 25 is_stmt 0 view .LVU12
 141 001a 0120     		movs	r0, #1	@,
 142 001c FFF7FEFF 		bl	xQueueGenericCreate		@
 143              	.LVL1:
 144              	@ user/driver/adc/adc.c:47:     RCC_APB2PeriphClockCmd(RCC_APB2Periph_ADC1, ENABLE);
  47:user/driver/adc/adc.c ****     RCC_APB2PeriphClockCmd(RCC_APB2Periph_ADC1, ENABLE);
 145              		.loc 1 47 5 view .LVU13
 146 0020 0121     		movs	r1, #1	@,
 147              	@ user/driver/adc/adc.c:46:     adc_man.done_lock = xSemaphoreCreateBinary();
  46:user/driver/adc/adc.c ****     adc_man.done_lock = xSemaphoreCreateBinary();
 148              		.loc 1 46 23 view .LVU14
 149 0022 A860     		str	r0, [r5, #8]	@ tmp143, adc_man.done_lock
 150              		.loc 1 47 5 is_stmt 1 view .LVU15
 151 0024 4FF40070 		mov	r0, #512	@,
 152 0028 FFF7FEFF 		bl	RCC_APB2PeriphClockCmd		@
 153              	.LVL2:
  48:user/driver/adc/adc.c **** 
  49:user/driver/adc/adc.c ****     RCC_APB2PeriphClockCmd(RCC_APB2Periph_GPIOA, ENABLE);
 154              		.loc 1 49 5 view .LVU16
 155 002c 0121     		movs	r1, #1	@,
 156 002e 0420     		movs	r0, #4	@,
 157 0030 FFF7FEFF 		bl	RCC_APB2PeriphClockCmd		@
 158              	.LVL3:
  50:user/driver/adc/adc.c **** 
  51:user/driver/adc/adc.c ****     GPIO_InitTypeDef gpio;
 159              		.loc 1 51 5 view .LVU17
  52:user/driver/adc/adc.c ****     gpio.GPIO_Mode = GPIO_Mode_AIN;
 160              		.loc 1 52 5 view .LVU18
  53:user/driver/adc/adc.c ****     gpio.GPIO_Pin = GPIO_Pin_0;
 161              		.loc 1 53 5 view .LVU19
  54:user/driver/adc/adc.c ****     gpio.GPIO_Speed = GPIO_Speed_50MHz;
 162              		.loc 1 54 5 view .LVU20
 163              	@ user/driver/adc/adc.c:53:     gpio.GPIO_Pin = GPIO_Pin_0;
  53:user/driver/adc/adc.c ****     gpio.GPIO_Pin = GPIO_Pin_0;
 164              		.loc 1 53 19 is_stmt 0 view .LVU21
 165 0034 0126     		movs	r6, #1	@ tmp121,
 166              	@ user/driver/adc/adc.c:54:     gpio.GPIO_Speed = GPIO_Speed_50MHz;
 167              		.loc 1 54 21 view .LVU22
 168 0036 0323     		movs	r3, #3	@ tmp123,
ARM GAS  C:\Users\user\AppData\Local\Temp\ccH9wMRW.s 			page 5


 169              	@ user/driver/adc/adc.c:55:     GPIO_Init(GPIOA, &gpio);
  55:user/driver/adc/adc.c ****     GPIO_Init(GPIOA, &gpio);
 170              		.loc 1 55 5 view .LVU23
 171 0038 6946     		mov	r1, sp	@,
 172 003a 1648     		ldr	r0, .L2+4	@,
 173              	@ user/driver/adc/adc.c:54:     gpio.GPIO_Speed = GPIO_Speed_50MHz;
  54:user/driver/adc/adc.c ****     gpio.GPIO_Speed = GPIO_Speed_50MHz;
 174              		.loc 1 54 21 view .LVU24
 175 003c ADF80230 		strh	r3, [sp, #2]	@ movhi	@ tmp123, MEM <unsigned short> [(void *)&gpio + 2B]
 176              		.loc 1 55 5 is_stmt 1 view .LVU25
 177              	@ user/driver/adc/adc.c:53:     gpio.GPIO_Pin = GPIO_Pin_0;
  53:user/driver/adc/adc.c ****     gpio.GPIO_Pin = GPIO_Pin_0;
 178              		.loc 1 53 19 is_stmt 0 view .LVU26
 179 0040 ADF80060 		strh	r6, [sp]	@ movhi	@ tmp121, gpio.GPIO_Pin
 180              	@ user/driver/adc/adc.c:55:     GPIO_Init(GPIOA, &gpio);
 181              		.loc 1 55 5 view .LVU27
 182 0044 FFF7FEFF 		bl	GPIO_Init		@
 183              	.LVL4:
  56:user/driver/adc/adc.c **** 
  57:user/driver/adc/adc.c ****     ADC_InitTypeDef adc_config;
 184              		.loc 1 57 5 is_stmt 1 view .LVU28
  58:user/driver/adc/adc.c **** 
  59:user/driver/adc/adc.c ****     adc_config.ADC_Mode = ADC_Mode_Independent;
 185              		.loc 1 59 5 view .LVU29
  60:user/driver/adc/adc.c ****     adc_config.ADC_ContinuousConvMode = DISABLE;
 186              		.loc 1 60 5 view .LVU30
  61:user/driver/adc/adc.c ****     adc_config.ADC_NbrOfChannel = 1;
 187              		.loc 1 61 5 view .LVU31
 188              	@ user/driver/adc/adc.c:63:     adc_config.ADC_ExternalTrigConv = ADC_ExternalTrigConv_None;
  62:user/driver/adc/adc.c ****     adc_config.ADC_DataAlign = ADC_DataAlign_Right;
  63:user/driver/adc/adc.c ****     adc_config.ADC_ExternalTrigConv = ADC_ExternalTrigConv_None;
 189              		.loc 1 63 37 is_stmt 0 view .LVU32
 190 0048 4FF46023 		mov	r3, #917504	@ tmp129,
 191              	@ user/driver/adc/adc.c:66:     ADC_Init(ADC1, &adc_config);
  64:user/driver/adc/adc.c ****     adc_config.ADC_ScanConvMode = DISABLE;
  65:user/driver/adc/adc.c **** 
  66:user/driver/adc/adc.c ****     ADC_Init(ADC1, &adc_config);
 192              		.loc 1 66 5 view .LVU33
 193 004c 124F     		ldr	r7, .L2+8	@ tmp134,
 194 004e 01A9     		add	r1, sp, #4	@,,
 195 0050 3846     		mov	r0, r7	@, tmp134
 196              	@ user/driver/adc/adc.c:63:     adc_config.ADC_ExternalTrigConv = ADC_ExternalTrigConv_None;
  63:user/driver/adc/adc.c ****     adc_config.ADC_ScanConvMode = DISABLE;
 197              		.loc 1 63 37 view .LVU34
 198 0052 0393     		str	r3, [sp, #12]	@ tmp129, adc_config.ADC_ExternalTrigConv
 199              	@ user/driver/adc/adc.c:61:     adc_config.ADC_NbrOfChannel = 1;
  61:user/driver/adc/adc.c ****     adc_config.ADC_DataAlign = ADC_DataAlign_Right;
 200              		.loc 1 61 33 view .LVU35
 201 0054 8DF81460 		strb	r6, [sp, #20]	@ tmp121, adc_config.ADC_NbrOfChannel
  62:user/driver/adc/adc.c ****     adc_config.ADC_ExternalTrigConv = ADC_ExternalTrigConv_None;
 202              		.loc 1 62 5 is_stmt 1 view .LVU36
 203              	@ user/driver/adc/adc.c:62:     adc_config.ADC_DataAlign = ADC_DataAlign_Right;
  62:user/driver/adc/adc.c ****     adc_config.ADC_ExternalTrigConv = ADC_ExternalTrigConv_None;
 204              		.loc 1 62 30 is_stmt 0 view .LVU37
 205 0058 0494     		str	r4, [sp, #16]	@ tmp117, adc_config.ADC_DataAlign
  63:user/driver/adc/adc.c ****     adc_config.ADC_ScanConvMode = DISABLE;
 206              		.loc 1 63 5 is_stmt 1 view .LVU38
ARM GAS  C:\Users\user\AppData\Local\Temp\ccH9wMRW.s 			page 6


  64:user/driver/adc/adc.c **** 
 207              		.loc 1 64 5 view .LVU39
 208              	@ user/driver/adc/adc.c:59:     adc_config.ADC_Mode = ADC_Mode_Independent;
  59:user/driver/adc/adc.c ****     adc_config.ADC_ContinuousConvMode = DISABLE;
 209              		.loc 1 59 25 is_stmt 0 view .LVU40
 210 005a 0194     		str	r4, [sp, #4]	@ tmp117, adc_config.ADC_Mode
 211              	@ user/driver/adc/adc.c:64:     adc_config.ADC_ScanConvMode = DISABLE;
  64:user/driver/adc/adc.c **** 
 212              		.loc 1 64 33 view .LVU41
 213 005c ADF80840 		strh	r4, [sp, #8]	@ movhi	@ tmp117, MEM <unsigned short> [(<unnamed type> *)&adc_config + 4B]
 214              		.loc 1 66 5 is_stmt 1 view .LVU42
 215 0060 FFF7FEFF 		bl	ADC_Init		@
 216              	.LVL5:
  67:user/driver/adc/adc.c **** 
  68:user/driver/adc/adc.c ****     ADC_ITConfig(ADC1, ADC_IT_EOC, ENABLE);
 217              		.loc 1 68 5 view .LVU43
 218 0064 3246     		mov	r2, r6	@, tmp121
 219 0066 3846     		mov	r0, r7	@, tmp134
 220 0068 4FF40871 		mov	r1, #544	@,
 221 006c FFF7FEFF 		bl	ADC_ITConfig		@
 222              	.LVL6:
  69:user/driver/adc/adc.c ****     NVIC_EnableIRQ(ADC1_2_IRQn);
 223              		.loc 1 69 5 view .LVU44
 224              	.LBB7:
 225              	.LBI7:
 226              		.file 2 "./stm32f10x_libraries/CMSIS/CM3/CoreSupport/core_cm3.h"
   1:./stm32f10x_libraries/CMSIS/CM3/CoreSupport/core_cm3.h **** /**************************************************************************//**
   2:./stm32f10x_libraries/CMSIS/CM3/CoreSupport/core_cm3.h ****  * @file     core_cm3.h
   3:./stm32f10x_libraries/CMSIS/CM3/CoreSupport/core_cm3.h ****  * @brief    CMSIS Cortex-M3 Core Peripheral Access Layer Header File
   4:./stm32f10x_libraries/CMSIS/CM3/CoreSupport/core_cm3.h ****  * @version  V1.30
   5:./stm32f10x_libraries/CMSIS/CM3/CoreSupport/core_cm3.h ****  * @date     30. October 2009
   6:./stm32f10x_libraries/CMSIS/CM3/CoreSupport/core_cm3.h ****  *
   7:./stm32f10x_libraries/CMSIS/CM3/CoreSupport/core_cm3.h ****  * @note
   8:./stm32f10x_libraries/CMSIS/CM3/CoreSupport/core_cm3.h ****  * Copyright (C) 2009 ARM Limited. All rights reserved.
   9:./stm32f10x_libraries/CMSIS/CM3/CoreSupport/core_cm3.h ****  *
  10:./stm32f10x_libraries/CMSIS/CM3/CoreSupport/core_cm3.h ****  * @par
  11:./stm32f10x_libraries/CMSIS/CM3/CoreSupport/core_cm3.h ****  * ARM Limited (ARM) is supplying this software for use with Cortex-M 
  12:./stm32f10x_libraries/CMSIS/CM3/CoreSupport/core_cm3.h ****  * processor based microcontrollers.  This file can be freely distributed 
  13:./stm32f10x_libraries/CMSIS/CM3/CoreSupport/core_cm3.h ****  * within development tools that are supporting such ARM based processors. 
  14:./stm32f10x_libraries/CMSIS/CM3/CoreSupport/core_cm3.h ****  *
  15:./stm32f10x_libraries/CMSIS/CM3/CoreSupport/core_cm3.h ****  * @par
  16:./stm32f10x_libraries/CMSIS/CM3/CoreSupport/core_cm3.h ****  * THIS SOFTWARE IS PROVIDED "AS IS".  NO WARRANTIES, WHETHER EXPRESS, IMPLIED
  17:./stm32f10x_libraries/CMSIS/CM3/CoreSupport/core_cm3.h ****  * OR STATUTORY, INCLUDING, BUT NOT LIMITED TO, IMPLIED WARRANTIES OF
  18:./stm32f10x_libraries/CMSIS/CM3/CoreSupport/core_cm3.h ****  * MERCHANTABILITY AND FITNESS FOR A PARTICULAR PURPOSE APPLY TO THIS SOFTWARE.
  19:./stm32f10x_libraries/CMSIS/CM3/CoreSupport/core_cm3.h ****  * ARM SHALL NOT, IN ANY CIRCUMSTANCES, BE LIABLE FOR SPECIAL, INCIDENTAL, OR
  20:./stm32f10x_libraries/CMSIS/CM3/CoreSupport/core_cm3.h ****  * CONSEQUENTIAL DAMAGES, FOR ANY REASON WHATSOEVER.
  21:./stm32f10x_libraries/CMSIS/CM3/CoreSupport/core_cm3.h ****  *
  22:./stm32f10x_libraries/CMSIS/CM3/CoreSupport/core_cm3.h ****  ******************************************************************************/
  23:./stm32f10x_libraries/CMSIS/CM3/CoreSupport/core_cm3.h **** 
  24:./stm32f10x_libraries/CMSIS/CM3/CoreSupport/core_cm3.h **** #ifndef __CM3_CORE_H__
  25:./stm32f10x_libraries/CMSIS/CM3/CoreSupport/core_cm3.h **** #define __CM3_CORE_H__
  26:./stm32f10x_libraries/CMSIS/CM3/CoreSupport/core_cm3.h **** 
  27:./stm32f10x_libraries/CMSIS/CM3/CoreSupport/core_cm3.h **** /** @addtogroup CMSIS_CM3_core_LintCinfiguration CMSIS CM3 Core Lint Configuration
  28:./stm32f10x_libraries/CMSIS/CM3/CoreSupport/core_cm3.h ****  *
  29:./stm32f10x_libraries/CMSIS/CM3/CoreSupport/core_cm3.h ****  * List of Lint messages which will be suppressed and not shown:
  30:./stm32f10x_libraries/CMSIS/CM3/CoreSupport/core_cm3.h ****  *   - Error 10: \n
  31:./stm32f10x_libraries/CMSIS/CM3/CoreSupport/core_cm3.h ****  *     register uint32_t __regBasePri         __asm("basepri"); \n
ARM GAS  C:\Users\user\AppData\Local\Temp\ccH9wMRW.s 			page 7


  32:./stm32f10x_libraries/CMSIS/CM3/CoreSupport/core_cm3.h ****  *     Error 10: Expecting ';'
  33:./stm32f10x_libraries/CMSIS/CM3/CoreSupport/core_cm3.h ****  * .
  34:./stm32f10x_libraries/CMSIS/CM3/CoreSupport/core_cm3.h ****  *   - Error 530: \n
  35:./stm32f10x_libraries/CMSIS/CM3/CoreSupport/core_cm3.h ****  *     return(__regBasePri); \n
  36:./stm32f10x_libraries/CMSIS/CM3/CoreSupport/core_cm3.h ****  *     Warning 530: Symbol '__regBasePri' (line 264) not initialized
  37:./stm32f10x_libraries/CMSIS/CM3/CoreSupport/core_cm3.h ****  * . 
  38:./stm32f10x_libraries/CMSIS/CM3/CoreSupport/core_cm3.h ****  *   - Error 550: \n
  39:./stm32f10x_libraries/CMSIS/CM3/CoreSupport/core_cm3.h ****  *     __regBasePri = (basePri & 0x1ff); \n
  40:./stm32f10x_libraries/CMSIS/CM3/CoreSupport/core_cm3.h ****  *     Warning 550: Symbol '__regBasePri' (line 271) not accessed
  41:./stm32f10x_libraries/CMSIS/CM3/CoreSupport/core_cm3.h ****  * .
  42:./stm32f10x_libraries/CMSIS/CM3/CoreSupport/core_cm3.h ****  *   - Error 754: \n
  43:./stm32f10x_libraries/CMSIS/CM3/CoreSupport/core_cm3.h ****  *     uint32_t RESERVED0[24]; \n
  44:./stm32f10x_libraries/CMSIS/CM3/CoreSupport/core_cm3.h ****  *     Info 754: local structure member '<some, not used in the HAL>' (line 109, file ./cm3_core.h)
  45:./stm32f10x_libraries/CMSIS/CM3/CoreSupport/core_cm3.h ****  * .
  46:./stm32f10x_libraries/CMSIS/CM3/CoreSupport/core_cm3.h ****  *   - Error 750: \n
  47:./stm32f10x_libraries/CMSIS/CM3/CoreSupport/core_cm3.h ****  *     #define __CM3_CORE_H__ \n
  48:./stm32f10x_libraries/CMSIS/CM3/CoreSupport/core_cm3.h ****  *     Info 750: local macro '__CM3_CORE_H__' (line 43, file./cm3_core.h) not referenced
  49:./stm32f10x_libraries/CMSIS/CM3/CoreSupport/core_cm3.h ****  * .
  50:./stm32f10x_libraries/CMSIS/CM3/CoreSupport/core_cm3.h ****  *   - Error 528: \n
  51:./stm32f10x_libraries/CMSIS/CM3/CoreSupport/core_cm3.h ****  *     static __INLINE void NVIC_DisableIRQ(uint32_t IRQn) \n
  52:./stm32f10x_libraries/CMSIS/CM3/CoreSupport/core_cm3.h ****  *     Warning 528: Symbol 'NVIC_DisableIRQ(unsigned int)' (line 419, file ./cm3_core.h) not refere
  53:./stm32f10x_libraries/CMSIS/CM3/CoreSupport/core_cm3.h ****  * .
  54:./stm32f10x_libraries/CMSIS/CM3/CoreSupport/core_cm3.h ****  *   - Error 751: \n
  55:./stm32f10x_libraries/CMSIS/CM3/CoreSupport/core_cm3.h ****  *     } InterruptType_Type; \n
  56:./stm32f10x_libraries/CMSIS/CM3/CoreSupport/core_cm3.h ****  *     Info 751: local typedef 'InterruptType_Type' (line 170, file ./cm3_core.h) not referenced
  57:./stm32f10x_libraries/CMSIS/CM3/CoreSupport/core_cm3.h ****  * .
  58:./stm32f10x_libraries/CMSIS/CM3/CoreSupport/core_cm3.h ****  * Note:  To re-enable a Message, insert a space before 'lint' *
  59:./stm32f10x_libraries/CMSIS/CM3/CoreSupport/core_cm3.h ****  *
  60:./stm32f10x_libraries/CMSIS/CM3/CoreSupport/core_cm3.h ****  */
  61:./stm32f10x_libraries/CMSIS/CM3/CoreSupport/core_cm3.h **** 
  62:./stm32f10x_libraries/CMSIS/CM3/CoreSupport/core_cm3.h **** /*lint -save */
  63:./stm32f10x_libraries/CMSIS/CM3/CoreSupport/core_cm3.h **** /*lint -e10  */
  64:./stm32f10x_libraries/CMSIS/CM3/CoreSupport/core_cm3.h **** /*lint -e530 */
  65:./stm32f10x_libraries/CMSIS/CM3/CoreSupport/core_cm3.h **** /*lint -e550 */
  66:./stm32f10x_libraries/CMSIS/CM3/CoreSupport/core_cm3.h **** /*lint -e754 */
  67:./stm32f10x_libraries/CMSIS/CM3/CoreSupport/core_cm3.h **** /*lint -e750 */
  68:./stm32f10x_libraries/CMSIS/CM3/CoreSupport/core_cm3.h **** /*lint -e528 */
  69:./stm32f10x_libraries/CMSIS/CM3/CoreSupport/core_cm3.h **** /*lint -e751 */
  70:./stm32f10x_libraries/CMSIS/CM3/CoreSupport/core_cm3.h **** 
  71:./stm32f10x_libraries/CMSIS/CM3/CoreSupport/core_cm3.h **** 
  72:./stm32f10x_libraries/CMSIS/CM3/CoreSupport/core_cm3.h **** /** @addtogroup CMSIS_CM3_core_definitions CM3 Core Definitions
  73:./stm32f10x_libraries/CMSIS/CM3/CoreSupport/core_cm3.h ****   This file defines all structures and symbols for CMSIS core:
  74:./stm32f10x_libraries/CMSIS/CM3/CoreSupport/core_cm3.h ****     - CMSIS version number
  75:./stm32f10x_libraries/CMSIS/CM3/CoreSupport/core_cm3.h ****     - Cortex-M core registers and bitfields
  76:./stm32f10x_libraries/CMSIS/CM3/CoreSupport/core_cm3.h ****     - Cortex-M core peripheral base address
  77:./stm32f10x_libraries/CMSIS/CM3/CoreSupport/core_cm3.h ****   @{
  78:./stm32f10x_libraries/CMSIS/CM3/CoreSupport/core_cm3.h ****  */
  79:./stm32f10x_libraries/CMSIS/CM3/CoreSupport/core_cm3.h **** 
  80:./stm32f10x_libraries/CMSIS/CM3/CoreSupport/core_cm3.h **** #ifdef __cplusplus
  81:./stm32f10x_libraries/CMSIS/CM3/CoreSupport/core_cm3.h ****  extern "C" {
  82:./stm32f10x_libraries/CMSIS/CM3/CoreSupport/core_cm3.h **** #endif 
  83:./stm32f10x_libraries/CMSIS/CM3/CoreSupport/core_cm3.h **** 
  84:./stm32f10x_libraries/CMSIS/CM3/CoreSupport/core_cm3.h **** #define __CM3_CMSIS_VERSION_MAIN  (0x01)                                                       /*!<
  85:./stm32f10x_libraries/CMSIS/CM3/CoreSupport/core_cm3.h **** #define __CM3_CMSIS_VERSION_SUB   (0x30)                                                       /*!<
  86:./stm32f10x_libraries/CMSIS/CM3/CoreSupport/core_cm3.h **** #define __CM3_CMSIS_VERSION       ((__CM3_CMSIS_VERSION_MAIN << 16) | __CM3_CMSIS_VERSION_SUB) /*!<
  87:./stm32f10x_libraries/CMSIS/CM3/CoreSupport/core_cm3.h **** 
  88:./stm32f10x_libraries/CMSIS/CM3/CoreSupport/core_cm3.h **** #define __CORTEX_M                (0x03)                                                       /*!<
ARM GAS  C:\Users\user\AppData\Local\Temp\ccH9wMRW.s 			page 8


  89:./stm32f10x_libraries/CMSIS/CM3/CoreSupport/core_cm3.h **** 
  90:./stm32f10x_libraries/CMSIS/CM3/CoreSupport/core_cm3.h **** #include <stdint.h>                           /* Include standard types */
  91:./stm32f10x_libraries/CMSIS/CM3/CoreSupport/core_cm3.h **** 
  92:./stm32f10x_libraries/CMSIS/CM3/CoreSupport/core_cm3.h **** #if defined (__ICCARM__)
  93:./stm32f10x_libraries/CMSIS/CM3/CoreSupport/core_cm3.h ****   #include <intrinsics.h>                     /* IAR Intrinsics   */
  94:./stm32f10x_libraries/CMSIS/CM3/CoreSupport/core_cm3.h **** #endif
  95:./stm32f10x_libraries/CMSIS/CM3/CoreSupport/core_cm3.h **** 
  96:./stm32f10x_libraries/CMSIS/CM3/CoreSupport/core_cm3.h **** 
  97:./stm32f10x_libraries/CMSIS/CM3/CoreSupport/core_cm3.h **** #ifndef __NVIC_PRIO_BITS
  98:./stm32f10x_libraries/CMSIS/CM3/CoreSupport/core_cm3.h ****   #define __NVIC_PRIO_BITS    4               /*!< standard definition for NVIC Priority Bits */
  99:./stm32f10x_libraries/CMSIS/CM3/CoreSupport/core_cm3.h **** #endif
 100:./stm32f10x_libraries/CMSIS/CM3/CoreSupport/core_cm3.h **** 
 101:./stm32f10x_libraries/CMSIS/CM3/CoreSupport/core_cm3.h **** 
 102:./stm32f10x_libraries/CMSIS/CM3/CoreSupport/core_cm3.h **** 
 103:./stm32f10x_libraries/CMSIS/CM3/CoreSupport/core_cm3.h **** 
 104:./stm32f10x_libraries/CMSIS/CM3/CoreSupport/core_cm3.h **** /**
 105:./stm32f10x_libraries/CMSIS/CM3/CoreSupport/core_cm3.h ****  * IO definitions
 106:./stm32f10x_libraries/CMSIS/CM3/CoreSupport/core_cm3.h ****  *
 107:./stm32f10x_libraries/CMSIS/CM3/CoreSupport/core_cm3.h ****  * define access restrictions to peripheral registers
 108:./stm32f10x_libraries/CMSIS/CM3/CoreSupport/core_cm3.h ****  */
 109:./stm32f10x_libraries/CMSIS/CM3/CoreSupport/core_cm3.h **** 
 110:./stm32f10x_libraries/CMSIS/CM3/CoreSupport/core_cm3.h **** #ifdef __cplusplus
 111:./stm32f10x_libraries/CMSIS/CM3/CoreSupport/core_cm3.h ****   #define     __I     volatile                /*!< defines 'read only' permissions      */
 112:./stm32f10x_libraries/CMSIS/CM3/CoreSupport/core_cm3.h **** #else
 113:./stm32f10x_libraries/CMSIS/CM3/CoreSupport/core_cm3.h ****   #define     __I     volatile const          /*!< defines 'read only' permissions      */
 114:./stm32f10x_libraries/CMSIS/CM3/CoreSupport/core_cm3.h **** #endif
 115:./stm32f10x_libraries/CMSIS/CM3/CoreSupport/core_cm3.h **** #define     __O     volatile                  /*!< defines 'write only' permissions     */
 116:./stm32f10x_libraries/CMSIS/CM3/CoreSupport/core_cm3.h **** #define     __IO    volatile                  /*!< defines 'read / write' permissions   */
 117:./stm32f10x_libraries/CMSIS/CM3/CoreSupport/core_cm3.h **** 
 118:./stm32f10x_libraries/CMSIS/CM3/CoreSupport/core_cm3.h **** 
 119:./stm32f10x_libraries/CMSIS/CM3/CoreSupport/core_cm3.h **** 
 120:./stm32f10x_libraries/CMSIS/CM3/CoreSupport/core_cm3.h **** /*******************************************************************************
 121:./stm32f10x_libraries/CMSIS/CM3/CoreSupport/core_cm3.h ****  *                 Register Abstraction
 122:./stm32f10x_libraries/CMSIS/CM3/CoreSupport/core_cm3.h ****  ******************************************************************************/
 123:./stm32f10x_libraries/CMSIS/CM3/CoreSupport/core_cm3.h **** /** @addtogroup CMSIS_CM3_core_register CMSIS CM3 Core Register
 124:./stm32f10x_libraries/CMSIS/CM3/CoreSupport/core_cm3.h ****  @{
 125:./stm32f10x_libraries/CMSIS/CM3/CoreSupport/core_cm3.h **** */
 126:./stm32f10x_libraries/CMSIS/CM3/CoreSupport/core_cm3.h **** 
 127:./stm32f10x_libraries/CMSIS/CM3/CoreSupport/core_cm3.h **** 
 128:./stm32f10x_libraries/CMSIS/CM3/CoreSupport/core_cm3.h **** /** @addtogroup CMSIS_CM3_NVIC CMSIS CM3 NVIC
 129:./stm32f10x_libraries/CMSIS/CM3/CoreSupport/core_cm3.h ****   memory mapped structure for Nested Vectored Interrupt Controller (NVIC)
 130:./stm32f10x_libraries/CMSIS/CM3/CoreSupport/core_cm3.h ****   @{
 131:./stm32f10x_libraries/CMSIS/CM3/CoreSupport/core_cm3.h ****  */
 132:./stm32f10x_libraries/CMSIS/CM3/CoreSupport/core_cm3.h **** typedef struct
 133:./stm32f10x_libraries/CMSIS/CM3/CoreSupport/core_cm3.h **** {
 134:./stm32f10x_libraries/CMSIS/CM3/CoreSupport/core_cm3.h ****   __IO uint32_t ISER[8];                      /*!< Offset: 0x000  Interrupt Set Enable Register    
 135:./stm32f10x_libraries/CMSIS/CM3/CoreSupport/core_cm3.h ****        uint32_t RESERVED0[24];                                   
 136:./stm32f10x_libraries/CMSIS/CM3/CoreSupport/core_cm3.h ****   __IO uint32_t ICER[8];                      /*!< Offset: 0x080  Interrupt Clear Enable Register  
 137:./stm32f10x_libraries/CMSIS/CM3/CoreSupport/core_cm3.h ****        uint32_t RSERVED1[24];                                    
 138:./stm32f10x_libraries/CMSIS/CM3/CoreSupport/core_cm3.h ****   __IO uint32_t ISPR[8];                      /*!< Offset: 0x100  Interrupt Set Pending Register   
 139:./stm32f10x_libraries/CMSIS/CM3/CoreSupport/core_cm3.h ****        uint32_t RESERVED2[24];                                   
 140:./stm32f10x_libraries/CMSIS/CM3/CoreSupport/core_cm3.h ****   __IO uint32_t ICPR[8];                      /*!< Offset: 0x180  Interrupt Clear Pending Register 
 141:./stm32f10x_libraries/CMSIS/CM3/CoreSupport/core_cm3.h ****        uint32_t RESERVED3[24];                                   
 142:./stm32f10x_libraries/CMSIS/CM3/CoreSupport/core_cm3.h ****   __IO uint32_t IABR[8];                      /*!< Offset: 0x200  Interrupt Active bit Register    
 143:./stm32f10x_libraries/CMSIS/CM3/CoreSupport/core_cm3.h ****        uint32_t RESERVED4[56];                                   
 144:./stm32f10x_libraries/CMSIS/CM3/CoreSupport/core_cm3.h ****   __IO uint8_t  IP[240];                      /*!< Offset: 0x300  Interrupt Priority Register (8Bit
 145:./stm32f10x_libraries/CMSIS/CM3/CoreSupport/core_cm3.h ****        uint32_t RESERVED5[644];                                  
ARM GAS  C:\Users\user\AppData\Local\Temp\ccH9wMRW.s 			page 9


 146:./stm32f10x_libraries/CMSIS/CM3/CoreSupport/core_cm3.h ****   __O  uint32_t STIR;                         /*!< Offset: 0xE00  Software Trigger Interrupt Regist
 147:./stm32f10x_libraries/CMSIS/CM3/CoreSupport/core_cm3.h **** }  NVIC_Type;                                               
 148:./stm32f10x_libraries/CMSIS/CM3/CoreSupport/core_cm3.h **** /*@}*/ /* end of group CMSIS_CM3_NVIC */
 149:./stm32f10x_libraries/CMSIS/CM3/CoreSupport/core_cm3.h **** 
 150:./stm32f10x_libraries/CMSIS/CM3/CoreSupport/core_cm3.h **** 
 151:./stm32f10x_libraries/CMSIS/CM3/CoreSupport/core_cm3.h **** /** @addtogroup CMSIS_CM3_SCB CMSIS CM3 SCB
 152:./stm32f10x_libraries/CMSIS/CM3/CoreSupport/core_cm3.h ****   memory mapped structure for System Control Block (SCB)
 153:./stm32f10x_libraries/CMSIS/CM3/CoreSupport/core_cm3.h ****   @{
 154:./stm32f10x_libraries/CMSIS/CM3/CoreSupport/core_cm3.h ****  */
 155:./stm32f10x_libraries/CMSIS/CM3/CoreSupport/core_cm3.h **** typedef struct
 156:./stm32f10x_libraries/CMSIS/CM3/CoreSupport/core_cm3.h **** {
 157:./stm32f10x_libraries/CMSIS/CM3/CoreSupport/core_cm3.h ****   __I  uint32_t CPUID;                        /*!< Offset: 0x00  CPU ID Base Register              
 158:./stm32f10x_libraries/CMSIS/CM3/CoreSupport/core_cm3.h ****   __IO uint32_t ICSR;                         /*!< Offset: 0x04  Interrupt Control State Register  
 159:./stm32f10x_libraries/CMSIS/CM3/CoreSupport/core_cm3.h ****   __IO uint32_t VTOR;                         /*!< Offset: 0x08  Vector Table Offset Register      
 160:./stm32f10x_libraries/CMSIS/CM3/CoreSupport/core_cm3.h ****   __IO uint32_t AIRCR;                        /*!< Offset: 0x0C  Application Interrupt / Reset Cont
 161:./stm32f10x_libraries/CMSIS/CM3/CoreSupport/core_cm3.h ****   __IO uint32_t SCR;                          /*!< Offset: 0x10  System Control Register           
 162:./stm32f10x_libraries/CMSIS/CM3/CoreSupport/core_cm3.h ****   __IO uint32_t CCR;                          /*!< Offset: 0x14  Configuration Control Register    
 163:./stm32f10x_libraries/CMSIS/CM3/CoreSupport/core_cm3.h ****   __IO uint8_t  SHP[12];                      /*!< Offset: 0x18  System Handlers Priority Registers
 164:./stm32f10x_libraries/CMSIS/CM3/CoreSupport/core_cm3.h ****   __IO uint32_t SHCSR;                        /*!< Offset: 0x24  System Handler Control and State R
 165:./stm32f10x_libraries/CMSIS/CM3/CoreSupport/core_cm3.h ****   __IO uint32_t CFSR;                         /*!< Offset: 0x28  Configurable Fault Status Register
 166:./stm32f10x_libraries/CMSIS/CM3/CoreSupport/core_cm3.h ****   __IO uint32_t HFSR;                         /*!< Offset: 0x2C  Hard Fault Status Register        
 167:./stm32f10x_libraries/CMSIS/CM3/CoreSupport/core_cm3.h ****   __IO uint32_t DFSR;                         /*!< Offset: 0x30  Debug Fault Status Register       
 168:./stm32f10x_libraries/CMSIS/CM3/CoreSupport/core_cm3.h ****   __IO uint32_t MMFAR;                        /*!< Offset: 0x34  Mem Manage Address Register       
 169:./stm32f10x_libraries/CMSIS/CM3/CoreSupport/core_cm3.h ****   __IO uint32_t BFAR;                         /*!< Offset: 0x38  Bus Fault Address Register        
 170:./stm32f10x_libraries/CMSIS/CM3/CoreSupport/core_cm3.h ****   __IO uint32_t AFSR;                         /*!< Offset: 0x3C  Auxiliary Fault Status Register   
 171:./stm32f10x_libraries/CMSIS/CM3/CoreSupport/core_cm3.h ****   __I  uint32_t PFR[2];                       /*!< Offset: 0x40  Processor Feature Register        
 172:./stm32f10x_libraries/CMSIS/CM3/CoreSupport/core_cm3.h ****   __I  uint32_t DFR;                          /*!< Offset: 0x48  Debug Feature Register            
 173:./stm32f10x_libraries/CMSIS/CM3/CoreSupport/core_cm3.h ****   __I  uint32_t ADR;                          /*!< Offset: 0x4C  Auxiliary Feature Register        
 174:./stm32f10x_libraries/CMSIS/CM3/CoreSupport/core_cm3.h ****   __I  uint32_t MMFR[4];                      /*!< Offset: 0x50  Memory Model Feature Register     
 175:./stm32f10x_libraries/CMSIS/CM3/CoreSupport/core_cm3.h ****   __I  uint32_t ISAR[5];                      /*!< Offset: 0x60  ISA Feature Register              
 176:./stm32f10x_libraries/CMSIS/CM3/CoreSupport/core_cm3.h **** } SCB_Type;                                                
 177:./stm32f10x_libraries/CMSIS/CM3/CoreSupport/core_cm3.h **** 
 178:./stm32f10x_libraries/CMSIS/CM3/CoreSupport/core_cm3.h **** /* SCB CPUID Register Definitions */
 179:./stm32f10x_libraries/CMSIS/CM3/CoreSupport/core_cm3.h **** #define SCB_CPUID_IMPLEMENTER_Pos          24                                             /*!< SCB 
 180:./stm32f10x_libraries/CMSIS/CM3/CoreSupport/core_cm3.h **** #define SCB_CPUID_IMPLEMENTER_Msk          (0xFFul << SCB_CPUID_IMPLEMENTER_Pos)          /*!< SCB 
 181:./stm32f10x_libraries/CMSIS/CM3/CoreSupport/core_cm3.h **** 
 182:./stm32f10x_libraries/CMSIS/CM3/CoreSupport/core_cm3.h **** #define SCB_CPUID_VARIANT_Pos              20                                             /*!< SCB 
 183:./stm32f10x_libraries/CMSIS/CM3/CoreSupport/core_cm3.h **** #define SCB_CPUID_VARIANT_Msk              (0xFul << SCB_CPUID_VARIANT_Pos)               /*!< SCB 
 184:./stm32f10x_libraries/CMSIS/CM3/CoreSupport/core_cm3.h **** 
 185:./stm32f10x_libraries/CMSIS/CM3/CoreSupport/core_cm3.h **** #define SCB_CPUID_PARTNO_Pos                4                                             /*!< SCB 
 186:./stm32f10x_libraries/CMSIS/CM3/CoreSupport/core_cm3.h **** #define SCB_CPUID_PARTNO_Msk               (0xFFFul << SCB_CPUID_PARTNO_Pos)              /*!< SCB 
 187:./stm32f10x_libraries/CMSIS/CM3/CoreSupport/core_cm3.h **** 
 188:./stm32f10x_libraries/CMSIS/CM3/CoreSupport/core_cm3.h **** #define SCB_CPUID_REVISION_Pos              0                                             /*!< SCB 
 189:./stm32f10x_libraries/CMSIS/CM3/CoreSupport/core_cm3.h **** #define SCB_CPUID_REVISION_Msk             (0xFul << SCB_CPUID_REVISION_Pos)              /*!< SCB 
 190:./stm32f10x_libraries/CMSIS/CM3/CoreSupport/core_cm3.h **** 
 191:./stm32f10x_libraries/CMSIS/CM3/CoreSupport/core_cm3.h **** /* SCB Interrupt Control State Register Definitions */
 192:./stm32f10x_libraries/CMSIS/CM3/CoreSupport/core_cm3.h **** #define SCB_ICSR_NMIPENDSET_Pos            31                                             /*!< SCB 
 193:./stm32f10x_libraries/CMSIS/CM3/CoreSupport/core_cm3.h **** #define SCB_ICSR_NMIPENDSET_Msk            (1ul << SCB_ICSR_NMIPENDSET_Pos)               /*!< SCB 
 194:./stm32f10x_libraries/CMSIS/CM3/CoreSupport/core_cm3.h **** 
 195:./stm32f10x_libraries/CMSIS/CM3/CoreSupport/core_cm3.h **** #define SCB_ICSR_PENDSVSET_Pos             28                                             /*!< SCB 
 196:./stm32f10x_libraries/CMSIS/CM3/CoreSupport/core_cm3.h **** #define SCB_ICSR_PENDSVSET_Msk             (1ul << SCB_ICSR_PENDSVSET_Pos)                /*!< SCB 
 197:./stm32f10x_libraries/CMSIS/CM3/CoreSupport/core_cm3.h **** 
 198:./stm32f10x_libraries/CMSIS/CM3/CoreSupport/core_cm3.h **** #define SCB_ICSR_PENDSVCLR_Pos             27                                             /*!< SCB 
 199:./stm32f10x_libraries/CMSIS/CM3/CoreSupport/core_cm3.h **** #define SCB_ICSR_PENDSVCLR_Msk             (1ul << SCB_ICSR_PENDSVCLR_Pos)                /*!< SCB 
 200:./stm32f10x_libraries/CMSIS/CM3/CoreSupport/core_cm3.h **** 
 201:./stm32f10x_libraries/CMSIS/CM3/CoreSupport/core_cm3.h **** #define SCB_ICSR_PENDSTSET_Pos             26                                             /*!< SCB 
 202:./stm32f10x_libraries/CMSIS/CM3/CoreSupport/core_cm3.h **** #define SCB_ICSR_PENDSTSET_Msk             (1ul << SCB_ICSR_PENDSTSET_Pos)                /*!< SCB 
ARM GAS  C:\Users\user\AppData\Local\Temp\ccH9wMRW.s 			page 10


 203:./stm32f10x_libraries/CMSIS/CM3/CoreSupport/core_cm3.h **** 
 204:./stm32f10x_libraries/CMSIS/CM3/CoreSupport/core_cm3.h **** #define SCB_ICSR_PENDSTCLR_Pos             25                                             /*!< SCB 
 205:./stm32f10x_libraries/CMSIS/CM3/CoreSupport/core_cm3.h **** #define SCB_ICSR_PENDSTCLR_Msk             (1ul << SCB_ICSR_PENDSTCLR_Pos)                /*!< SCB 
 206:./stm32f10x_libraries/CMSIS/CM3/CoreSupport/core_cm3.h **** 
 207:./stm32f10x_libraries/CMSIS/CM3/CoreSupport/core_cm3.h **** #define SCB_ICSR_ISRPREEMPT_Pos            23                                             /*!< SCB 
 208:./stm32f10x_libraries/CMSIS/CM3/CoreSupport/core_cm3.h **** #define SCB_ICSR_ISRPREEMPT_Msk            (1ul << SCB_ICSR_ISRPREEMPT_Pos)               /*!< SCB 
 209:./stm32f10x_libraries/CMSIS/CM3/CoreSupport/core_cm3.h **** 
 210:./stm32f10x_libraries/CMSIS/CM3/CoreSupport/core_cm3.h **** #define SCB_ICSR_ISRPENDING_Pos            22                                             /*!< SCB 
 211:./stm32f10x_libraries/CMSIS/CM3/CoreSupport/core_cm3.h **** #define SCB_ICSR_ISRPENDING_Msk            (1ul << SCB_ICSR_ISRPENDING_Pos)               /*!< SCB 
 212:./stm32f10x_libraries/CMSIS/CM3/CoreSupport/core_cm3.h **** 
 213:./stm32f10x_libraries/CMSIS/CM3/CoreSupport/core_cm3.h **** #define SCB_ICSR_VECTPENDING_Pos           12                                             /*!< SCB 
 214:./stm32f10x_libraries/CMSIS/CM3/CoreSupport/core_cm3.h **** #define SCB_ICSR_VECTPENDING_Msk           (0x1FFul << SCB_ICSR_VECTPENDING_Pos)          /*!< SCB 
 215:./stm32f10x_libraries/CMSIS/CM3/CoreSupport/core_cm3.h **** 
 216:./stm32f10x_libraries/CMSIS/CM3/CoreSupport/core_cm3.h **** #define SCB_ICSR_RETTOBASE_Pos             11                                             /*!< SCB 
 217:./stm32f10x_libraries/CMSIS/CM3/CoreSupport/core_cm3.h **** #define SCB_ICSR_RETTOBASE_Msk             (1ul << SCB_ICSR_RETTOBASE_Pos)                /*!< SCB 
 218:./stm32f10x_libraries/CMSIS/CM3/CoreSupport/core_cm3.h **** 
 219:./stm32f10x_libraries/CMSIS/CM3/CoreSupport/core_cm3.h **** #define SCB_ICSR_VECTACTIVE_Pos             0                                             /*!< SCB 
 220:./stm32f10x_libraries/CMSIS/CM3/CoreSupport/core_cm3.h **** #define SCB_ICSR_VECTACTIVE_Msk            (0x1FFul << SCB_ICSR_VECTACTIVE_Pos)           /*!< SCB 
 221:./stm32f10x_libraries/CMSIS/CM3/CoreSupport/core_cm3.h **** 
 222:./stm32f10x_libraries/CMSIS/CM3/CoreSupport/core_cm3.h **** /* SCB Interrupt Control State Register Definitions */
 223:./stm32f10x_libraries/CMSIS/CM3/CoreSupport/core_cm3.h **** #define SCB_VTOR_TBLBASE_Pos               29                                             /*!< SCB 
 224:./stm32f10x_libraries/CMSIS/CM3/CoreSupport/core_cm3.h **** #define SCB_VTOR_TBLBASE_Msk               (0x1FFul << SCB_VTOR_TBLBASE_Pos)              /*!< SCB 
 225:./stm32f10x_libraries/CMSIS/CM3/CoreSupport/core_cm3.h **** 
 226:./stm32f10x_libraries/CMSIS/CM3/CoreSupport/core_cm3.h **** #define SCB_VTOR_TBLOFF_Pos                 7                                             /*!< SCB 
 227:./stm32f10x_libraries/CMSIS/CM3/CoreSupport/core_cm3.h **** #define SCB_VTOR_TBLOFF_Msk                (0x3FFFFFul << SCB_VTOR_TBLOFF_Pos)            /*!< SCB 
 228:./stm32f10x_libraries/CMSIS/CM3/CoreSupport/core_cm3.h **** 
 229:./stm32f10x_libraries/CMSIS/CM3/CoreSupport/core_cm3.h **** /* SCB Application Interrupt and Reset Control Register Definitions */
 230:./stm32f10x_libraries/CMSIS/CM3/CoreSupport/core_cm3.h **** #define SCB_AIRCR_VECTKEY_Pos              16                                             /*!< SCB 
 231:./stm32f10x_libraries/CMSIS/CM3/CoreSupport/core_cm3.h **** #define SCB_AIRCR_VECTKEY_Msk              (0xFFFFul << SCB_AIRCR_VECTKEY_Pos)            /*!< SCB 
 232:./stm32f10x_libraries/CMSIS/CM3/CoreSupport/core_cm3.h **** 
 233:./stm32f10x_libraries/CMSIS/CM3/CoreSupport/core_cm3.h **** #define SCB_AIRCR_VECTKEYSTAT_Pos          16                                             /*!< SCB 
 234:./stm32f10x_libraries/CMSIS/CM3/CoreSupport/core_cm3.h **** #define SCB_AIRCR_VECTKEYSTAT_Msk          (0xFFFFul << SCB_AIRCR_VECTKEYSTAT_Pos)        /*!< SCB 
 235:./stm32f10x_libraries/CMSIS/CM3/CoreSupport/core_cm3.h **** 
 236:./stm32f10x_libraries/CMSIS/CM3/CoreSupport/core_cm3.h **** #define SCB_AIRCR_ENDIANESS_Pos            15                                             /*!< SCB 
 237:./stm32f10x_libraries/CMSIS/CM3/CoreSupport/core_cm3.h **** #define SCB_AIRCR_ENDIANESS_Msk            (1ul << SCB_AIRCR_ENDIANESS_Pos)               /*!< SCB 
 238:./stm32f10x_libraries/CMSIS/CM3/CoreSupport/core_cm3.h **** 
 239:./stm32f10x_libraries/CMSIS/CM3/CoreSupport/core_cm3.h **** #define SCB_AIRCR_PRIGROUP_Pos              8                                             /*!< SCB 
 240:./stm32f10x_libraries/CMSIS/CM3/CoreSupport/core_cm3.h **** #define SCB_AIRCR_PRIGROUP_Msk             (7ul << SCB_AIRCR_PRIGROUP_Pos)                /*!< SCB 
 241:./stm32f10x_libraries/CMSIS/CM3/CoreSupport/core_cm3.h **** 
 242:./stm32f10x_libraries/CMSIS/CM3/CoreSupport/core_cm3.h **** #define SCB_AIRCR_SYSRESETREQ_Pos           2                                             /*!< SCB 
 243:./stm32f10x_libraries/CMSIS/CM3/CoreSupport/core_cm3.h **** #define SCB_AIRCR_SYSRESETREQ_Msk          (1ul << SCB_AIRCR_SYSRESETREQ_Pos)             /*!< SCB 
 244:./stm32f10x_libraries/CMSIS/CM3/CoreSupport/core_cm3.h **** 
 245:./stm32f10x_libraries/CMSIS/CM3/CoreSupport/core_cm3.h **** #define SCB_AIRCR_VECTCLRACTIVE_Pos         1                                             /*!< SCB 
 246:./stm32f10x_libraries/CMSIS/CM3/CoreSupport/core_cm3.h **** #define SCB_AIRCR_VECTCLRACTIVE_Msk        (1ul << SCB_AIRCR_VECTCLRACTIVE_Pos)           /*!< SCB 
 247:./stm32f10x_libraries/CMSIS/CM3/CoreSupport/core_cm3.h **** 
 248:./stm32f10x_libraries/CMSIS/CM3/CoreSupport/core_cm3.h **** #define SCB_AIRCR_VECTRESET_Pos             0                                             /*!< SCB 
 249:./stm32f10x_libraries/CMSIS/CM3/CoreSupport/core_cm3.h **** #define SCB_AIRCR_VECTRESET_Msk            (1ul << SCB_AIRCR_VECTRESET_Pos)               /*!< SCB 
 250:./stm32f10x_libraries/CMSIS/CM3/CoreSupport/core_cm3.h **** 
 251:./stm32f10x_libraries/CMSIS/CM3/CoreSupport/core_cm3.h **** /* SCB System Control Register Definitions */
 252:./stm32f10x_libraries/CMSIS/CM3/CoreSupport/core_cm3.h **** #define SCB_SCR_SEVONPEND_Pos               4                                             /*!< SCB 
 253:./stm32f10x_libraries/CMSIS/CM3/CoreSupport/core_cm3.h **** #define SCB_SCR_SEVONPEND_Msk              (1ul << SCB_SCR_SEVONPEND_Pos)                 /*!< SCB 
 254:./stm32f10x_libraries/CMSIS/CM3/CoreSupport/core_cm3.h **** 
 255:./stm32f10x_libraries/CMSIS/CM3/CoreSupport/core_cm3.h **** #define SCB_SCR_SLEEPDEEP_Pos               2                                             /*!< SCB 
 256:./stm32f10x_libraries/CMSIS/CM3/CoreSupport/core_cm3.h **** #define SCB_SCR_SLEEPDEEP_Msk              (1ul << SCB_SCR_SLEEPDEEP_Pos)                 /*!< SCB 
 257:./stm32f10x_libraries/CMSIS/CM3/CoreSupport/core_cm3.h **** 
 258:./stm32f10x_libraries/CMSIS/CM3/CoreSupport/core_cm3.h **** #define SCB_SCR_SLEEPONEXIT_Pos             1                                             /*!< SCB 
 259:./stm32f10x_libraries/CMSIS/CM3/CoreSupport/core_cm3.h **** #define SCB_SCR_SLEEPONEXIT_Msk            (1ul << SCB_SCR_SLEEPONEXIT_Pos)               /*!< SCB 
ARM GAS  C:\Users\user\AppData\Local\Temp\ccH9wMRW.s 			page 11


 260:./stm32f10x_libraries/CMSIS/CM3/CoreSupport/core_cm3.h **** 
 261:./stm32f10x_libraries/CMSIS/CM3/CoreSupport/core_cm3.h **** /* SCB Configuration Control Register Definitions */
 262:./stm32f10x_libraries/CMSIS/CM3/CoreSupport/core_cm3.h **** #define SCB_CCR_STKALIGN_Pos                9                                             /*!< SCB 
 263:./stm32f10x_libraries/CMSIS/CM3/CoreSupport/core_cm3.h **** #define SCB_CCR_STKALIGN_Msk               (1ul << SCB_CCR_STKALIGN_Pos)                  /*!< SCB 
 264:./stm32f10x_libraries/CMSIS/CM3/CoreSupport/core_cm3.h **** 
 265:./stm32f10x_libraries/CMSIS/CM3/CoreSupport/core_cm3.h **** #define SCB_CCR_BFHFNMIGN_Pos               8                                             /*!< SCB 
 266:./stm32f10x_libraries/CMSIS/CM3/CoreSupport/core_cm3.h **** #define SCB_CCR_BFHFNMIGN_Msk              (1ul << SCB_CCR_BFHFNMIGN_Pos)                 /*!< SCB 
 267:./stm32f10x_libraries/CMSIS/CM3/CoreSupport/core_cm3.h **** 
 268:./stm32f10x_libraries/CMSIS/CM3/CoreSupport/core_cm3.h **** #define SCB_CCR_DIV_0_TRP_Pos               4                                             /*!< SCB 
 269:./stm32f10x_libraries/CMSIS/CM3/CoreSupport/core_cm3.h **** #define SCB_CCR_DIV_0_TRP_Msk              (1ul << SCB_CCR_DIV_0_TRP_Pos)                 /*!< SCB 
 270:./stm32f10x_libraries/CMSIS/CM3/CoreSupport/core_cm3.h **** 
 271:./stm32f10x_libraries/CMSIS/CM3/CoreSupport/core_cm3.h **** #define SCB_CCR_UNALIGN_TRP_Pos             3                                             /*!< SCB 
 272:./stm32f10x_libraries/CMSIS/CM3/CoreSupport/core_cm3.h **** #define SCB_CCR_UNALIGN_TRP_Msk            (1ul << SCB_CCR_UNALIGN_TRP_Pos)               /*!< SCB 
 273:./stm32f10x_libraries/CMSIS/CM3/CoreSupport/core_cm3.h **** 
 274:./stm32f10x_libraries/CMSIS/CM3/CoreSupport/core_cm3.h **** #define SCB_CCR_USERSETMPEND_Pos            1                                             /*!< SCB 
 275:./stm32f10x_libraries/CMSIS/CM3/CoreSupport/core_cm3.h **** #define SCB_CCR_USERSETMPEND_Msk           (1ul << SCB_CCR_USERSETMPEND_Pos)              /*!< SCB 
 276:./stm32f10x_libraries/CMSIS/CM3/CoreSupport/core_cm3.h **** 
 277:./stm32f10x_libraries/CMSIS/CM3/CoreSupport/core_cm3.h **** #define SCB_CCR_NONBASETHRDENA_Pos          0                                             /*!< SCB 
 278:./stm32f10x_libraries/CMSIS/CM3/CoreSupport/core_cm3.h **** #define SCB_CCR_NONBASETHRDENA_Msk         (1ul << SCB_CCR_NONBASETHRDENA_Pos)            /*!< SCB 
 279:./stm32f10x_libraries/CMSIS/CM3/CoreSupport/core_cm3.h **** 
 280:./stm32f10x_libraries/CMSIS/CM3/CoreSupport/core_cm3.h **** /* SCB System Handler Control and State Register Definitions */
 281:./stm32f10x_libraries/CMSIS/CM3/CoreSupport/core_cm3.h **** #define SCB_SHCSR_USGFAULTENA_Pos          18                                             /*!< SCB 
 282:./stm32f10x_libraries/CMSIS/CM3/CoreSupport/core_cm3.h **** #define SCB_SHCSR_USGFAULTENA_Msk          (1ul << SCB_SHCSR_USGFAULTENA_Pos)             /*!< SCB 
 283:./stm32f10x_libraries/CMSIS/CM3/CoreSupport/core_cm3.h **** 
 284:./stm32f10x_libraries/CMSIS/CM3/CoreSupport/core_cm3.h **** #define SCB_SHCSR_BUSFAULTENA_Pos          17                                             /*!< SCB 
 285:./stm32f10x_libraries/CMSIS/CM3/CoreSupport/core_cm3.h **** #define SCB_SHCSR_BUSFAULTENA_Msk          (1ul << SCB_SHCSR_BUSFAULTENA_Pos)             /*!< SCB 
 286:./stm32f10x_libraries/CMSIS/CM3/CoreSupport/core_cm3.h **** 
 287:./stm32f10x_libraries/CMSIS/CM3/CoreSupport/core_cm3.h **** #define SCB_SHCSR_MEMFAULTENA_Pos          16                                             /*!< SCB 
 288:./stm32f10x_libraries/CMSIS/CM3/CoreSupport/core_cm3.h **** #define SCB_SHCSR_MEMFAULTENA_Msk          (1ul << SCB_SHCSR_MEMFAULTENA_Pos)             /*!< SCB 
 289:./stm32f10x_libraries/CMSIS/CM3/CoreSupport/core_cm3.h **** 
 290:./stm32f10x_libraries/CMSIS/CM3/CoreSupport/core_cm3.h **** #define SCB_SHCSR_SVCALLPENDED_Pos         15                                             /*!< SCB 
 291:./stm32f10x_libraries/CMSIS/CM3/CoreSupport/core_cm3.h **** #define SCB_SHCSR_SVCALLPENDED_Msk         (1ul << SCB_SHCSR_SVCALLPENDED_Pos)            /*!< SCB 
 292:./stm32f10x_libraries/CMSIS/CM3/CoreSupport/core_cm3.h **** 
 293:./stm32f10x_libraries/CMSIS/CM3/CoreSupport/core_cm3.h **** #define SCB_SHCSR_BUSFAULTPENDED_Pos       14                                             /*!< SCB 
 294:./stm32f10x_libraries/CMSIS/CM3/CoreSupport/core_cm3.h **** #define SCB_SHCSR_BUSFAULTPENDED_Msk       (1ul << SCB_SHCSR_BUSFAULTPENDED_Pos)          /*!< SCB 
 295:./stm32f10x_libraries/CMSIS/CM3/CoreSupport/core_cm3.h **** 
 296:./stm32f10x_libraries/CMSIS/CM3/CoreSupport/core_cm3.h **** #define SCB_SHCSR_MEMFAULTPENDED_Pos       13                                             /*!< SCB 
 297:./stm32f10x_libraries/CMSIS/CM3/CoreSupport/core_cm3.h **** #define SCB_SHCSR_MEMFAULTPENDED_Msk       (1ul << SCB_SHCSR_MEMFAULTPENDED_Pos)          /*!< SCB 
 298:./stm32f10x_libraries/CMSIS/CM3/CoreSupport/core_cm3.h **** 
 299:./stm32f10x_libraries/CMSIS/CM3/CoreSupport/core_cm3.h **** #define SCB_SHCSR_USGFAULTPENDED_Pos       12                                             /*!< SCB 
 300:./stm32f10x_libraries/CMSIS/CM3/CoreSupport/core_cm3.h **** #define SCB_SHCSR_USGFAULTPENDED_Msk       (1ul << SCB_SHCSR_USGFAULTPENDED_Pos)          /*!< SCB 
 301:./stm32f10x_libraries/CMSIS/CM3/CoreSupport/core_cm3.h **** 
 302:./stm32f10x_libraries/CMSIS/CM3/CoreSupport/core_cm3.h **** #define SCB_SHCSR_SYSTICKACT_Pos           11                                             /*!< SCB 
 303:./stm32f10x_libraries/CMSIS/CM3/CoreSupport/core_cm3.h **** #define SCB_SHCSR_SYSTICKACT_Msk           (1ul << SCB_SHCSR_SYSTICKACT_Pos)              /*!< SCB 
 304:./stm32f10x_libraries/CMSIS/CM3/CoreSupport/core_cm3.h **** 
 305:./stm32f10x_libraries/CMSIS/CM3/CoreSupport/core_cm3.h **** #define SCB_SHCSR_PENDSVACT_Pos            10                                             /*!< SCB 
 306:./stm32f10x_libraries/CMSIS/CM3/CoreSupport/core_cm3.h **** #define SCB_SHCSR_PENDSVACT_Msk            (1ul << SCB_SHCSR_PENDSVACT_Pos)               /*!< SCB 
 307:./stm32f10x_libraries/CMSIS/CM3/CoreSupport/core_cm3.h **** 
 308:./stm32f10x_libraries/CMSIS/CM3/CoreSupport/core_cm3.h **** #define SCB_SHCSR_MONITORACT_Pos            8                                             /*!< SCB 
 309:./stm32f10x_libraries/CMSIS/CM3/CoreSupport/core_cm3.h **** #define SCB_SHCSR_MONITORACT_Msk           (1ul << SCB_SHCSR_MONITORACT_Pos)              /*!< SCB 
 310:./stm32f10x_libraries/CMSIS/CM3/CoreSupport/core_cm3.h **** 
 311:./stm32f10x_libraries/CMSIS/CM3/CoreSupport/core_cm3.h **** #define SCB_SHCSR_SVCALLACT_Pos             7                                             /*!< SCB 
 312:./stm32f10x_libraries/CMSIS/CM3/CoreSupport/core_cm3.h **** #define SCB_SHCSR_SVCALLACT_Msk            (1ul << SCB_SHCSR_SVCALLACT_Pos)               /*!< SCB 
 313:./stm32f10x_libraries/CMSIS/CM3/CoreSupport/core_cm3.h ****                                      
 314:./stm32f10x_libraries/CMSIS/CM3/CoreSupport/core_cm3.h **** #define SCB_SHCSR_USGFAULTACT_Pos           3                                             /*!< SCB 
 315:./stm32f10x_libraries/CMSIS/CM3/CoreSupport/core_cm3.h **** #define SCB_SHCSR_USGFAULTACT_Msk          (1ul << SCB_SHCSR_USGFAULTACT_Pos)             /*!< SCB 
 316:./stm32f10x_libraries/CMSIS/CM3/CoreSupport/core_cm3.h **** 
ARM GAS  C:\Users\user\AppData\Local\Temp\ccH9wMRW.s 			page 12


 317:./stm32f10x_libraries/CMSIS/CM3/CoreSupport/core_cm3.h **** #define SCB_SHCSR_BUSFAULTACT_Pos           1                                             /*!< SCB 
 318:./stm32f10x_libraries/CMSIS/CM3/CoreSupport/core_cm3.h **** #define SCB_SHCSR_BUSFAULTACT_Msk          (1ul << SCB_SHCSR_BUSFAULTACT_Pos)             /*!< SCB 
 319:./stm32f10x_libraries/CMSIS/CM3/CoreSupport/core_cm3.h **** 
 320:./stm32f10x_libraries/CMSIS/CM3/CoreSupport/core_cm3.h **** #define SCB_SHCSR_MEMFAULTACT_Pos           0                                             /*!< SCB 
 321:./stm32f10x_libraries/CMSIS/CM3/CoreSupport/core_cm3.h **** #define SCB_SHCSR_MEMFAULTACT_Msk          (1ul << SCB_SHCSR_MEMFAULTACT_Pos)             /*!< SCB 
 322:./stm32f10x_libraries/CMSIS/CM3/CoreSupport/core_cm3.h **** 
 323:./stm32f10x_libraries/CMSIS/CM3/CoreSupport/core_cm3.h **** /* SCB Configurable Fault Status Registers Definitions */
 324:./stm32f10x_libraries/CMSIS/CM3/CoreSupport/core_cm3.h **** #define SCB_CFSR_USGFAULTSR_Pos            16                                             /*!< SCB 
 325:./stm32f10x_libraries/CMSIS/CM3/CoreSupport/core_cm3.h **** #define SCB_CFSR_USGFAULTSR_Msk            (0xFFFFul << SCB_CFSR_USGFAULTSR_Pos)          /*!< SCB 
 326:./stm32f10x_libraries/CMSIS/CM3/CoreSupport/core_cm3.h **** 
 327:./stm32f10x_libraries/CMSIS/CM3/CoreSupport/core_cm3.h **** #define SCB_CFSR_BUSFAULTSR_Pos             8                                             /*!< SCB 
 328:./stm32f10x_libraries/CMSIS/CM3/CoreSupport/core_cm3.h **** #define SCB_CFSR_BUSFAULTSR_Msk            (0xFFul << SCB_CFSR_BUSFAULTSR_Pos)            /*!< SCB 
 329:./stm32f10x_libraries/CMSIS/CM3/CoreSupport/core_cm3.h **** 
 330:./stm32f10x_libraries/CMSIS/CM3/CoreSupport/core_cm3.h **** #define SCB_CFSR_MEMFAULTSR_Pos             0                                             /*!< SCB 
 331:./stm32f10x_libraries/CMSIS/CM3/CoreSupport/core_cm3.h **** #define SCB_CFSR_MEMFAULTSR_Msk            (0xFFul << SCB_CFSR_MEMFAULTSR_Pos)            /*!< SCB 
 332:./stm32f10x_libraries/CMSIS/CM3/CoreSupport/core_cm3.h **** 
 333:./stm32f10x_libraries/CMSIS/CM3/CoreSupport/core_cm3.h **** /* SCB Hard Fault Status Registers Definitions */
 334:./stm32f10x_libraries/CMSIS/CM3/CoreSupport/core_cm3.h **** #define SCB_HFSR_DEBUGEVT_Pos              31                                             /*!< SCB 
 335:./stm32f10x_libraries/CMSIS/CM3/CoreSupport/core_cm3.h **** #define SCB_HFSR_DEBUGEVT_Msk              (1ul << SCB_HFSR_DEBUGEVT_Pos)                 /*!< SCB 
 336:./stm32f10x_libraries/CMSIS/CM3/CoreSupport/core_cm3.h **** 
 337:./stm32f10x_libraries/CMSIS/CM3/CoreSupport/core_cm3.h **** #define SCB_HFSR_FORCED_Pos                30                                             /*!< SCB 
 338:./stm32f10x_libraries/CMSIS/CM3/CoreSupport/core_cm3.h **** #define SCB_HFSR_FORCED_Msk                (1ul << SCB_HFSR_FORCED_Pos)                   /*!< SCB 
 339:./stm32f10x_libraries/CMSIS/CM3/CoreSupport/core_cm3.h **** 
 340:./stm32f10x_libraries/CMSIS/CM3/CoreSupport/core_cm3.h **** #define SCB_HFSR_VECTTBL_Pos                1                                             /*!< SCB 
 341:./stm32f10x_libraries/CMSIS/CM3/CoreSupport/core_cm3.h **** #define SCB_HFSR_VECTTBL_Msk               (1ul << SCB_HFSR_VECTTBL_Pos)                  /*!< SCB 
 342:./stm32f10x_libraries/CMSIS/CM3/CoreSupport/core_cm3.h **** 
 343:./stm32f10x_libraries/CMSIS/CM3/CoreSupport/core_cm3.h **** /* SCB Debug Fault Status Register Definitions */
 344:./stm32f10x_libraries/CMSIS/CM3/CoreSupport/core_cm3.h **** #define SCB_DFSR_EXTERNAL_Pos               4                                             /*!< SCB 
 345:./stm32f10x_libraries/CMSIS/CM3/CoreSupport/core_cm3.h **** #define SCB_DFSR_EXTERNAL_Msk              (1ul << SCB_DFSR_EXTERNAL_Pos)                 /*!< SCB 
 346:./stm32f10x_libraries/CMSIS/CM3/CoreSupport/core_cm3.h **** 
 347:./stm32f10x_libraries/CMSIS/CM3/CoreSupport/core_cm3.h **** #define SCB_DFSR_VCATCH_Pos                 3                                             /*!< SCB 
 348:./stm32f10x_libraries/CMSIS/CM3/CoreSupport/core_cm3.h **** #define SCB_DFSR_VCATCH_Msk                (1ul << SCB_DFSR_VCATCH_Pos)                   /*!< SCB 
 349:./stm32f10x_libraries/CMSIS/CM3/CoreSupport/core_cm3.h **** 
 350:./stm32f10x_libraries/CMSIS/CM3/CoreSupport/core_cm3.h **** #define SCB_DFSR_DWTTRAP_Pos                2                                             /*!< SCB 
 351:./stm32f10x_libraries/CMSIS/CM3/CoreSupport/core_cm3.h **** #define SCB_DFSR_DWTTRAP_Msk               (1ul << SCB_DFSR_DWTTRAP_Pos)                  /*!< SCB 
 352:./stm32f10x_libraries/CMSIS/CM3/CoreSupport/core_cm3.h **** 
 353:./stm32f10x_libraries/CMSIS/CM3/CoreSupport/core_cm3.h **** #define SCB_DFSR_BKPT_Pos                   1                                             /*!< SCB 
 354:./stm32f10x_libraries/CMSIS/CM3/CoreSupport/core_cm3.h **** #define SCB_DFSR_BKPT_Msk                  (1ul << SCB_DFSR_BKPT_Pos)                     /*!< SCB 
 355:./stm32f10x_libraries/CMSIS/CM3/CoreSupport/core_cm3.h **** 
 356:./stm32f10x_libraries/CMSIS/CM3/CoreSupport/core_cm3.h **** #define SCB_DFSR_HALTED_Pos                 0                                             /*!< SCB 
 357:./stm32f10x_libraries/CMSIS/CM3/CoreSupport/core_cm3.h **** #define SCB_DFSR_HALTED_Msk                (1ul << SCB_DFSR_HALTED_Pos)                   /*!< SCB 
 358:./stm32f10x_libraries/CMSIS/CM3/CoreSupport/core_cm3.h **** /*@}*/ /* end of group CMSIS_CM3_SCB */
 359:./stm32f10x_libraries/CMSIS/CM3/CoreSupport/core_cm3.h **** 
 360:./stm32f10x_libraries/CMSIS/CM3/CoreSupport/core_cm3.h **** 
 361:./stm32f10x_libraries/CMSIS/CM3/CoreSupport/core_cm3.h **** /** @addtogroup CMSIS_CM3_SysTick CMSIS CM3 SysTick
 362:./stm32f10x_libraries/CMSIS/CM3/CoreSupport/core_cm3.h ****   memory mapped structure for SysTick
 363:./stm32f10x_libraries/CMSIS/CM3/CoreSupport/core_cm3.h ****   @{
 364:./stm32f10x_libraries/CMSIS/CM3/CoreSupport/core_cm3.h ****  */
 365:./stm32f10x_libraries/CMSIS/CM3/CoreSupport/core_cm3.h **** typedef struct
 366:./stm32f10x_libraries/CMSIS/CM3/CoreSupport/core_cm3.h **** {
 367:./stm32f10x_libraries/CMSIS/CM3/CoreSupport/core_cm3.h ****   __IO uint32_t CTRL;                         /*!< Offset: 0x00  SysTick Control and Status Registe
 368:./stm32f10x_libraries/CMSIS/CM3/CoreSupport/core_cm3.h ****   __IO uint32_t LOAD;                         /*!< Offset: 0x04  SysTick Reload Value Register     
 369:./stm32f10x_libraries/CMSIS/CM3/CoreSupport/core_cm3.h ****   __IO uint32_t VAL;                          /*!< Offset: 0x08  SysTick Current Value Register    
 370:./stm32f10x_libraries/CMSIS/CM3/CoreSupport/core_cm3.h ****   __I  uint32_t CALIB;                        /*!< Offset: 0x0C  SysTick Calibration Register      
 371:./stm32f10x_libraries/CMSIS/CM3/CoreSupport/core_cm3.h **** } SysTick_Type;
 372:./stm32f10x_libraries/CMSIS/CM3/CoreSupport/core_cm3.h **** 
 373:./stm32f10x_libraries/CMSIS/CM3/CoreSupport/core_cm3.h **** /* SysTick Control / Status Register Definitions */
ARM GAS  C:\Users\user\AppData\Local\Temp\ccH9wMRW.s 			page 13


 374:./stm32f10x_libraries/CMSIS/CM3/CoreSupport/core_cm3.h **** #define SysTick_CTRL_COUNTFLAG_Pos         16                                             /*!< SysT
 375:./stm32f10x_libraries/CMSIS/CM3/CoreSupport/core_cm3.h **** #define SysTick_CTRL_COUNTFLAG_Msk         (1ul << SysTick_CTRL_COUNTFLAG_Pos)            /*!< SysT
 376:./stm32f10x_libraries/CMSIS/CM3/CoreSupport/core_cm3.h **** 
 377:./stm32f10x_libraries/CMSIS/CM3/CoreSupport/core_cm3.h **** #define SysTick_CTRL_CLKSOURCE_Pos          2                                             /*!< SysT
 378:./stm32f10x_libraries/CMSIS/CM3/CoreSupport/core_cm3.h **** #define SysTick_CTRL_CLKSOURCE_Msk         (1ul << SysTick_CTRL_CLKSOURCE_Pos)            /*!< SysT
 379:./stm32f10x_libraries/CMSIS/CM3/CoreSupport/core_cm3.h **** 
 380:./stm32f10x_libraries/CMSIS/CM3/CoreSupport/core_cm3.h **** #define SysTick_CTRL_TICKINT_Pos            1                                             /*!< SysT
 381:./stm32f10x_libraries/CMSIS/CM3/CoreSupport/core_cm3.h **** #define SysTick_CTRL_TICKINT_Msk           (1ul << SysTick_CTRL_TICKINT_Pos)              /*!< SysT
 382:./stm32f10x_libraries/CMSIS/CM3/CoreSupport/core_cm3.h **** 
 383:./stm32f10x_libraries/CMSIS/CM3/CoreSupport/core_cm3.h **** #define SysTick_CTRL_ENABLE_Pos             0                                             /*!< SysT
 384:./stm32f10x_libraries/CMSIS/CM3/CoreSupport/core_cm3.h **** #define SysTick_CTRL_ENABLE_Msk            (1ul << SysTick_CTRL_ENABLE_Pos)               /*!< SysT
 385:./stm32f10x_libraries/CMSIS/CM3/CoreSupport/core_cm3.h **** 
 386:./stm32f10x_libraries/CMSIS/CM3/CoreSupport/core_cm3.h **** /* SysTick Reload Register Definitions */
 387:./stm32f10x_libraries/CMSIS/CM3/CoreSupport/core_cm3.h **** #define SysTick_LOAD_RELOAD_Pos             0                                             /*!< SysT
 388:./stm32f10x_libraries/CMSIS/CM3/CoreSupport/core_cm3.h **** #define SysTick_LOAD_RELOAD_Msk            (0xFFFFFFul << SysTick_LOAD_RELOAD_Pos)        /*!< SysT
 389:./stm32f10x_libraries/CMSIS/CM3/CoreSupport/core_cm3.h **** 
 390:./stm32f10x_libraries/CMSIS/CM3/CoreSupport/core_cm3.h **** /* SysTick Current Register Definitions */
 391:./stm32f10x_libraries/CMSIS/CM3/CoreSupport/core_cm3.h **** #define SysTick_VAL_CURRENT_Pos             0                                             /*!< SysT
 392:./stm32f10x_libraries/CMSIS/CM3/CoreSupport/core_cm3.h **** #define SysTick_VAL_CURRENT_Msk            (0xFFFFFFul << SysTick_VAL_CURRENT_Pos)        /*!< SysT
 393:./stm32f10x_libraries/CMSIS/CM3/CoreSupport/core_cm3.h **** 
 394:./stm32f10x_libraries/CMSIS/CM3/CoreSupport/core_cm3.h **** /* SysTick Calibration Register Definitions */
 395:./stm32f10x_libraries/CMSIS/CM3/CoreSupport/core_cm3.h **** #define SysTick_CALIB_NOREF_Pos            31                                             /*!< SysT
 396:./stm32f10x_libraries/CMSIS/CM3/CoreSupport/core_cm3.h **** #define SysTick_CALIB_NOREF_Msk            (1ul << SysTick_CALIB_NOREF_Pos)               /*!< SysT
 397:./stm32f10x_libraries/CMSIS/CM3/CoreSupport/core_cm3.h **** 
 398:./stm32f10x_libraries/CMSIS/CM3/CoreSupport/core_cm3.h **** #define SysTick_CALIB_SKEW_Pos             30                                             /*!< SysT
 399:./stm32f10x_libraries/CMSIS/CM3/CoreSupport/core_cm3.h **** #define SysTick_CALIB_SKEW_Msk             (1ul << SysTick_CALIB_SKEW_Pos)                /*!< SysT
 400:./stm32f10x_libraries/CMSIS/CM3/CoreSupport/core_cm3.h **** 
 401:./stm32f10x_libraries/CMSIS/CM3/CoreSupport/core_cm3.h **** #define SysTick_CALIB_TENMS_Pos             0                                             /*!< SysT
 402:./stm32f10x_libraries/CMSIS/CM3/CoreSupport/core_cm3.h **** #define SysTick_CALIB_TENMS_Msk            (0xFFFFFFul << SysTick_VAL_CURRENT_Pos)        /*!< SysT
 403:./stm32f10x_libraries/CMSIS/CM3/CoreSupport/core_cm3.h **** /*@}*/ /* end of group CMSIS_CM3_SysTick */
 404:./stm32f10x_libraries/CMSIS/CM3/CoreSupport/core_cm3.h **** 
 405:./stm32f10x_libraries/CMSIS/CM3/CoreSupport/core_cm3.h **** 
 406:./stm32f10x_libraries/CMSIS/CM3/CoreSupport/core_cm3.h **** /** @addtogroup CMSIS_CM3_ITM CMSIS CM3 ITM
 407:./stm32f10x_libraries/CMSIS/CM3/CoreSupport/core_cm3.h ****   memory mapped structure for Instrumentation Trace Macrocell (ITM)
 408:./stm32f10x_libraries/CMSIS/CM3/CoreSupport/core_cm3.h ****   @{
 409:./stm32f10x_libraries/CMSIS/CM3/CoreSupport/core_cm3.h ****  */
 410:./stm32f10x_libraries/CMSIS/CM3/CoreSupport/core_cm3.h **** typedef struct
 411:./stm32f10x_libraries/CMSIS/CM3/CoreSupport/core_cm3.h **** {
 412:./stm32f10x_libraries/CMSIS/CM3/CoreSupport/core_cm3.h ****   __O  union  
 413:./stm32f10x_libraries/CMSIS/CM3/CoreSupport/core_cm3.h ****   {
 414:./stm32f10x_libraries/CMSIS/CM3/CoreSupport/core_cm3.h ****     __O  uint8_t    u8;                       /*!< Offset:       ITM Stimulus Port 8-bit           
 415:./stm32f10x_libraries/CMSIS/CM3/CoreSupport/core_cm3.h ****     __O  uint16_t   u16;                      /*!< Offset:       ITM Stimulus Port 16-bit          
 416:./stm32f10x_libraries/CMSIS/CM3/CoreSupport/core_cm3.h ****     __O  uint32_t   u32;                      /*!< Offset:       ITM Stimulus Port 32-bit          
 417:./stm32f10x_libraries/CMSIS/CM3/CoreSupport/core_cm3.h ****   }  PORT [32];                               /*!< Offset: 0x00  ITM Stimulus Port Registers       
 418:./stm32f10x_libraries/CMSIS/CM3/CoreSupport/core_cm3.h ****        uint32_t RESERVED0[864];                                 
 419:./stm32f10x_libraries/CMSIS/CM3/CoreSupport/core_cm3.h ****   __IO uint32_t TER;                          /*!< Offset:       ITM Trace Enable Register         
 420:./stm32f10x_libraries/CMSIS/CM3/CoreSupport/core_cm3.h ****        uint32_t RESERVED1[15];                                  
 421:./stm32f10x_libraries/CMSIS/CM3/CoreSupport/core_cm3.h ****   __IO uint32_t TPR;                          /*!< Offset:       ITM Trace Privilege Register      
 422:./stm32f10x_libraries/CMSIS/CM3/CoreSupport/core_cm3.h ****        uint32_t RESERVED2[15];                                  
 423:./stm32f10x_libraries/CMSIS/CM3/CoreSupport/core_cm3.h ****   __IO uint32_t TCR;                          /*!< Offset:       ITM Trace Control Register        
 424:./stm32f10x_libraries/CMSIS/CM3/CoreSupport/core_cm3.h ****        uint32_t RESERVED3[29];                                  
 425:./stm32f10x_libraries/CMSIS/CM3/CoreSupport/core_cm3.h ****   __IO uint32_t IWR;                          /*!< Offset:       ITM Integration Write Register    
 426:./stm32f10x_libraries/CMSIS/CM3/CoreSupport/core_cm3.h ****   __IO uint32_t IRR;                          /*!< Offset:       ITM Integration Read Register     
 427:./stm32f10x_libraries/CMSIS/CM3/CoreSupport/core_cm3.h ****   __IO uint32_t IMCR;                         /*!< Offset:       ITM Integration Mode Control Regis
 428:./stm32f10x_libraries/CMSIS/CM3/CoreSupport/core_cm3.h ****        uint32_t RESERVED4[43];                                  
 429:./stm32f10x_libraries/CMSIS/CM3/CoreSupport/core_cm3.h ****   __IO uint32_t LAR;                          /*!< Offset:       ITM Lock Access Register          
 430:./stm32f10x_libraries/CMSIS/CM3/CoreSupport/core_cm3.h ****   __IO uint32_t LSR;                          /*!< Offset:       ITM Lock Status Register          
ARM GAS  C:\Users\user\AppData\Local\Temp\ccH9wMRW.s 			page 14


 431:./stm32f10x_libraries/CMSIS/CM3/CoreSupport/core_cm3.h ****        uint32_t RESERVED5[6];                                   
 432:./stm32f10x_libraries/CMSIS/CM3/CoreSupport/core_cm3.h ****   __I  uint32_t PID4;                         /*!< Offset:       ITM Peripheral Identification Regi
 433:./stm32f10x_libraries/CMSIS/CM3/CoreSupport/core_cm3.h ****   __I  uint32_t PID5;                         /*!< Offset:       ITM Peripheral Identification Regi
 434:./stm32f10x_libraries/CMSIS/CM3/CoreSupport/core_cm3.h ****   __I  uint32_t PID6;                         /*!< Offset:       ITM Peripheral Identification Regi
 435:./stm32f10x_libraries/CMSIS/CM3/CoreSupport/core_cm3.h ****   __I  uint32_t PID7;                         /*!< Offset:       ITM Peripheral Identification Regi
 436:./stm32f10x_libraries/CMSIS/CM3/CoreSupport/core_cm3.h ****   __I  uint32_t PID0;                         /*!< Offset:       ITM Peripheral Identification Regi
 437:./stm32f10x_libraries/CMSIS/CM3/CoreSupport/core_cm3.h ****   __I  uint32_t PID1;                         /*!< Offset:       ITM Peripheral Identification Regi
 438:./stm32f10x_libraries/CMSIS/CM3/CoreSupport/core_cm3.h ****   __I  uint32_t PID2;                         /*!< Offset:       ITM Peripheral Identification Regi
 439:./stm32f10x_libraries/CMSIS/CM3/CoreSupport/core_cm3.h ****   __I  uint32_t PID3;                         /*!< Offset:       ITM Peripheral Identification Regi
 440:./stm32f10x_libraries/CMSIS/CM3/CoreSupport/core_cm3.h ****   __I  uint32_t CID0;                         /*!< Offset:       ITM Component  Identification Regi
 441:./stm32f10x_libraries/CMSIS/CM3/CoreSupport/core_cm3.h ****   __I  uint32_t CID1;                         /*!< Offset:       ITM Component  Identification Regi
 442:./stm32f10x_libraries/CMSIS/CM3/CoreSupport/core_cm3.h ****   __I  uint32_t CID2;                         /*!< Offset:       ITM Component  Identification Regi
 443:./stm32f10x_libraries/CMSIS/CM3/CoreSupport/core_cm3.h ****   __I  uint32_t CID3;                         /*!< Offset:       ITM Component  Identification Regi
 444:./stm32f10x_libraries/CMSIS/CM3/CoreSupport/core_cm3.h **** } ITM_Type;                                                
 445:./stm32f10x_libraries/CMSIS/CM3/CoreSupport/core_cm3.h **** 
 446:./stm32f10x_libraries/CMSIS/CM3/CoreSupport/core_cm3.h **** /* ITM Trace Privilege Register Definitions */
 447:./stm32f10x_libraries/CMSIS/CM3/CoreSupport/core_cm3.h **** #define ITM_TPR_PRIVMASK_Pos                0                                             /*!< ITM 
 448:./stm32f10x_libraries/CMSIS/CM3/CoreSupport/core_cm3.h **** #define ITM_TPR_PRIVMASK_Msk               (0xFul << ITM_TPR_PRIVMASK_Pos)                /*!< ITM 
 449:./stm32f10x_libraries/CMSIS/CM3/CoreSupport/core_cm3.h **** 
 450:./stm32f10x_libraries/CMSIS/CM3/CoreSupport/core_cm3.h **** /* ITM Trace Control Register Definitions */
 451:./stm32f10x_libraries/CMSIS/CM3/CoreSupport/core_cm3.h **** #define ITM_TCR_BUSY_Pos                   23                                             /*!< ITM 
 452:./stm32f10x_libraries/CMSIS/CM3/CoreSupport/core_cm3.h **** #define ITM_TCR_BUSY_Msk                   (1ul << ITM_TCR_BUSY_Pos)                      /*!< ITM 
 453:./stm32f10x_libraries/CMSIS/CM3/CoreSupport/core_cm3.h **** 
 454:./stm32f10x_libraries/CMSIS/CM3/CoreSupport/core_cm3.h **** #define ITM_TCR_ATBID_Pos                  16                                             /*!< ITM 
 455:./stm32f10x_libraries/CMSIS/CM3/CoreSupport/core_cm3.h **** #define ITM_TCR_ATBID_Msk                  (0x7Ful << ITM_TCR_ATBID_Pos)                  /*!< ITM 
 456:./stm32f10x_libraries/CMSIS/CM3/CoreSupport/core_cm3.h **** 
 457:./stm32f10x_libraries/CMSIS/CM3/CoreSupport/core_cm3.h **** #define ITM_TCR_TSPrescale_Pos              8                                             /*!< ITM 
 458:./stm32f10x_libraries/CMSIS/CM3/CoreSupport/core_cm3.h **** #define ITM_TCR_TSPrescale_Msk             (3ul << ITM_TCR_TSPrescale_Pos)                /*!< ITM 
 459:./stm32f10x_libraries/CMSIS/CM3/CoreSupport/core_cm3.h **** 
 460:./stm32f10x_libraries/CMSIS/CM3/CoreSupport/core_cm3.h **** #define ITM_TCR_SWOENA_Pos                  4                                             /*!< ITM 
 461:./stm32f10x_libraries/CMSIS/CM3/CoreSupport/core_cm3.h **** #define ITM_TCR_SWOENA_Msk                 (1ul << ITM_TCR_SWOENA_Pos)                    /*!< ITM 
 462:./stm32f10x_libraries/CMSIS/CM3/CoreSupport/core_cm3.h **** 
 463:./stm32f10x_libraries/CMSIS/CM3/CoreSupport/core_cm3.h **** #define ITM_TCR_DWTENA_Pos                  3                                             /*!< ITM 
 464:./stm32f10x_libraries/CMSIS/CM3/CoreSupport/core_cm3.h **** #define ITM_TCR_DWTENA_Msk                 (1ul << ITM_TCR_DWTENA_Pos)                    /*!< ITM 
 465:./stm32f10x_libraries/CMSIS/CM3/CoreSupport/core_cm3.h **** 
 466:./stm32f10x_libraries/CMSIS/CM3/CoreSupport/core_cm3.h **** #define ITM_TCR_SYNCENA_Pos                 2                                             /*!< ITM 
 467:./stm32f10x_libraries/CMSIS/CM3/CoreSupport/core_cm3.h **** #define ITM_TCR_SYNCENA_Msk                (1ul << ITM_TCR_SYNCENA_Pos)                   /*!< ITM 
 468:./stm32f10x_libraries/CMSIS/CM3/CoreSupport/core_cm3.h **** 
 469:./stm32f10x_libraries/CMSIS/CM3/CoreSupport/core_cm3.h **** #define ITM_TCR_TSENA_Pos                   1                                             /*!< ITM 
 470:./stm32f10x_libraries/CMSIS/CM3/CoreSupport/core_cm3.h **** #define ITM_TCR_TSENA_Msk                  (1ul << ITM_TCR_TSENA_Pos)                     /*!< ITM 
 471:./stm32f10x_libraries/CMSIS/CM3/CoreSupport/core_cm3.h **** 
 472:./stm32f10x_libraries/CMSIS/CM3/CoreSupport/core_cm3.h **** #define ITM_TCR_ITMENA_Pos                  0                                             /*!< ITM 
 473:./stm32f10x_libraries/CMSIS/CM3/CoreSupport/core_cm3.h **** #define ITM_TCR_ITMENA_Msk                 (1ul << ITM_TCR_ITMENA_Pos)                    /*!< ITM 
 474:./stm32f10x_libraries/CMSIS/CM3/CoreSupport/core_cm3.h **** 
 475:./stm32f10x_libraries/CMSIS/CM3/CoreSupport/core_cm3.h **** /* ITM Integration Write Register Definitions */
 476:./stm32f10x_libraries/CMSIS/CM3/CoreSupport/core_cm3.h **** #define ITM_IWR_ATVALIDM_Pos                0                                             /*!< ITM 
 477:./stm32f10x_libraries/CMSIS/CM3/CoreSupport/core_cm3.h **** #define ITM_IWR_ATVALIDM_Msk               (1ul << ITM_IWR_ATVALIDM_Pos)                  /*!< ITM 
 478:./stm32f10x_libraries/CMSIS/CM3/CoreSupport/core_cm3.h **** 
 479:./stm32f10x_libraries/CMSIS/CM3/CoreSupport/core_cm3.h **** /* ITM Integration Read Register Definitions */
 480:./stm32f10x_libraries/CMSIS/CM3/CoreSupport/core_cm3.h **** #define ITM_IRR_ATREADYM_Pos                0                                             /*!< ITM 
 481:./stm32f10x_libraries/CMSIS/CM3/CoreSupport/core_cm3.h **** #define ITM_IRR_ATREADYM_Msk               (1ul << ITM_IRR_ATREADYM_Pos)                  /*!< ITM 
 482:./stm32f10x_libraries/CMSIS/CM3/CoreSupport/core_cm3.h **** 
 483:./stm32f10x_libraries/CMSIS/CM3/CoreSupport/core_cm3.h **** /* ITM Integration Mode Control Register Definitions */
 484:./stm32f10x_libraries/CMSIS/CM3/CoreSupport/core_cm3.h **** #define ITM_IMCR_INTEGRATION_Pos            0                                             /*!< ITM 
 485:./stm32f10x_libraries/CMSIS/CM3/CoreSupport/core_cm3.h **** #define ITM_IMCR_INTEGRATION_Msk           (1ul << ITM_IMCR_INTEGRATION_Pos)              /*!< ITM 
 486:./stm32f10x_libraries/CMSIS/CM3/CoreSupport/core_cm3.h **** 
 487:./stm32f10x_libraries/CMSIS/CM3/CoreSupport/core_cm3.h **** /* ITM Lock Status Register Definitions */
ARM GAS  C:\Users\user\AppData\Local\Temp\ccH9wMRW.s 			page 15


 488:./stm32f10x_libraries/CMSIS/CM3/CoreSupport/core_cm3.h **** #define ITM_LSR_ByteAcc_Pos                 2                                             /*!< ITM 
 489:./stm32f10x_libraries/CMSIS/CM3/CoreSupport/core_cm3.h **** #define ITM_LSR_ByteAcc_Msk                (1ul << ITM_LSR_ByteAcc_Pos)                   /*!< ITM 
 490:./stm32f10x_libraries/CMSIS/CM3/CoreSupport/core_cm3.h **** 
 491:./stm32f10x_libraries/CMSIS/CM3/CoreSupport/core_cm3.h **** #define ITM_LSR_Access_Pos                  1                                             /*!< ITM 
 492:./stm32f10x_libraries/CMSIS/CM3/CoreSupport/core_cm3.h **** #define ITM_LSR_Access_Msk                 (1ul << ITM_LSR_Access_Pos)                    /*!< ITM 
 493:./stm32f10x_libraries/CMSIS/CM3/CoreSupport/core_cm3.h **** 
 494:./stm32f10x_libraries/CMSIS/CM3/CoreSupport/core_cm3.h **** #define ITM_LSR_Present_Pos                 0                                             /*!< ITM 
 495:./stm32f10x_libraries/CMSIS/CM3/CoreSupport/core_cm3.h **** #define ITM_LSR_Present_Msk                (1ul << ITM_LSR_Present_Pos)                   /*!< ITM 
 496:./stm32f10x_libraries/CMSIS/CM3/CoreSupport/core_cm3.h **** /*@}*/ /* end of group CMSIS_CM3_ITM */
 497:./stm32f10x_libraries/CMSIS/CM3/CoreSupport/core_cm3.h **** 
 498:./stm32f10x_libraries/CMSIS/CM3/CoreSupport/core_cm3.h **** 
 499:./stm32f10x_libraries/CMSIS/CM3/CoreSupport/core_cm3.h **** /** @addtogroup CMSIS_CM3_InterruptType CMSIS CM3 Interrupt Type
 500:./stm32f10x_libraries/CMSIS/CM3/CoreSupport/core_cm3.h ****   memory mapped structure for Interrupt Type
 501:./stm32f10x_libraries/CMSIS/CM3/CoreSupport/core_cm3.h ****   @{
 502:./stm32f10x_libraries/CMSIS/CM3/CoreSupport/core_cm3.h ****  */
 503:./stm32f10x_libraries/CMSIS/CM3/CoreSupport/core_cm3.h **** typedef struct
 504:./stm32f10x_libraries/CMSIS/CM3/CoreSupport/core_cm3.h **** {
 505:./stm32f10x_libraries/CMSIS/CM3/CoreSupport/core_cm3.h ****        uint32_t RESERVED0;
 506:./stm32f10x_libraries/CMSIS/CM3/CoreSupport/core_cm3.h ****   __I  uint32_t ICTR;                         /*!< Offset: 0x04  Interrupt Control Type Register */
 507:./stm32f10x_libraries/CMSIS/CM3/CoreSupport/core_cm3.h **** #if ((defined __CM3_REV) && (__CM3_REV >= 0x200))
 508:./stm32f10x_libraries/CMSIS/CM3/CoreSupport/core_cm3.h ****   __IO uint32_t ACTLR;                        /*!< Offset: 0x08  Auxiliary Control Register      */
 509:./stm32f10x_libraries/CMSIS/CM3/CoreSupport/core_cm3.h **** #else
 510:./stm32f10x_libraries/CMSIS/CM3/CoreSupport/core_cm3.h ****        uint32_t RESERVED1;
 511:./stm32f10x_libraries/CMSIS/CM3/CoreSupport/core_cm3.h **** #endif
 512:./stm32f10x_libraries/CMSIS/CM3/CoreSupport/core_cm3.h **** } InterruptType_Type;
 513:./stm32f10x_libraries/CMSIS/CM3/CoreSupport/core_cm3.h **** 
 514:./stm32f10x_libraries/CMSIS/CM3/CoreSupport/core_cm3.h **** /* Interrupt Controller Type Register Definitions */
 515:./stm32f10x_libraries/CMSIS/CM3/CoreSupport/core_cm3.h **** #define InterruptType_ICTR_INTLINESNUM_Pos  0                                             /*!< Inte
 516:./stm32f10x_libraries/CMSIS/CM3/CoreSupport/core_cm3.h **** #define InterruptType_ICTR_INTLINESNUM_Msk (0x1Ful << InterruptType_ICTR_INTLINESNUM_Pos) /*!< Inte
 517:./stm32f10x_libraries/CMSIS/CM3/CoreSupport/core_cm3.h **** 
 518:./stm32f10x_libraries/CMSIS/CM3/CoreSupport/core_cm3.h **** /* Auxiliary Control Register Definitions */
 519:./stm32f10x_libraries/CMSIS/CM3/CoreSupport/core_cm3.h **** #define InterruptType_ACTLR_DISFOLD_Pos     2                                             /*!< Inte
 520:./stm32f10x_libraries/CMSIS/CM3/CoreSupport/core_cm3.h **** #define InterruptType_ACTLR_DISFOLD_Msk    (1ul << InterruptType_ACTLR_DISFOLD_Pos)       /*!< Inte
 521:./stm32f10x_libraries/CMSIS/CM3/CoreSupport/core_cm3.h **** 
 522:./stm32f10x_libraries/CMSIS/CM3/CoreSupport/core_cm3.h **** #define InterruptType_ACTLR_DISDEFWBUF_Pos  1                                             /*!< Inte
 523:./stm32f10x_libraries/CMSIS/CM3/CoreSupport/core_cm3.h **** #define InterruptType_ACTLR_DISDEFWBUF_Msk (1ul << InterruptType_ACTLR_DISDEFWBUF_Pos)    /*!< Inte
 524:./stm32f10x_libraries/CMSIS/CM3/CoreSupport/core_cm3.h **** 
 525:./stm32f10x_libraries/CMSIS/CM3/CoreSupport/core_cm3.h **** #define InterruptType_ACTLR_DISMCYCINT_Pos  0                                             /*!< Inte
 526:./stm32f10x_libraries/CMSIS/CM3/CoreSupport/core_cm3.h **** #define InterruptType_ACTLR_DISMCYCINT_Msk (1ul << InterruptType_ACTLR_DISMCYCINT_Pos)    /*!< Inte
 527:./stm32f10x_libraries/CMSIS/CM3/CoreSupport/core_cm3.h **** /*@}*/ /* end of group CMSIS_CM3_InterruptType */
 528:./stm32f10x_libraries/CMSIS/CM3/CoreSupport/core_cm3.h **** 
 529:./stm32f10x_libraries/CMSIS/CM3/CoreSupport/core_cm3.h **** 
 530:./stm32f10x_libraries/CMSIS/CM3/CoreSupport/core_cm3.h **** #if defined (__MPU_PRESENT) && (__MPU_PRESENT == 1)
 531:./stm32f10x_libraries/CMSIS/CM3/CoreSupport/core_cm3.h **** /** @addtogroup CMSIS_CM3_MPU CMSIS CM3 MPU
 532:./stm32f10x_libraries/CMSIS/CM3/CoreSupport/core_cm3.h ****   memory mapped structure for Memory Protection Unit (MPU)
 533:./stm32f10x_libraries/CMSIS/CM3/CoreSupport/core_cm3.h ****   @{
 534:./stm32f10x_libraries/CMSIS/CM3/CoreSupport/core_cm3.h ****  */
 535:./stm32f10x_libraries/CMSIS/CM3/CoreSupport/core_cm3.h **** typedef struct
 536:./stm32f10x_libraries/CMSIS/CM3/CoreSupport/core_cm3.h **** {
 537:./stm32f10x_libraries/CMSIS/CM3/CoreSupport/core_cm3.h ****   __I  uint32_t TYPE;                         /*!< Offset: 0x00  MPU Type Register                 
 538:./stm32f10x_libraries/CMSIS/CM3/CoreSupport/core_cm3.h ****   __IO uint32_t CTRL;                         /*!< Offset: 0x04  MPU Control Register              
 539:./stm32f10x_libraries/CMSIS/CM3/CoreSupport/core_cm3.h ****   __IO uint32_t RNR;                          /*!< Offset: 0x08  MPU Region RNRber Register        
 540:./stm32f10x_libraries/CMSIS/CM3/CoreSupport/core_cm3.h ****   __IO uint32_t RBAR;                         /*!< Offset: 0x0C  MPU Region Base Address Register  
 541:./stm32f10x_libraries/CMSIS/CM3/CoreSupport/core_cm3.h ****   __IO uint32_t RASR;                         /*!< Offset: 0x10  MPU Region Attribute and Size Regi
 542:./stm32f10x_libraries/CMSIS/CM3/CoreSupport/core_cm3.h ****   __IO uint32_t RBAR_A1;                      /*!< Offset: 0x14  MPU Alias 1 Region Base Address Re
 543:./stm32f10x_libraries/CMSIS/CM3/CoreSupport/core_cm3.h ****   __IO uint32_t RASR_A1;                      /*!< Offset: 0x18  MPU Alias 1 Region Attribute and S
 544:./stm32f10x_libraries/CMSIS/CM3/CoreSupport/core_cm3.h ****   __IO uint32_t RBAR_A2;                      /*!< Offset: 0x1C  MPU Alias 2 Region Base Address Re
ARM GAS  C:\Users\user\AppData\Local\Temp\ccH9wMRW.s 			page 16


 545:./stm32f10x_libraries/CMSIS/CM3/CoreSupport/core_cm3.h ****   __IO uint32_t RASR_A2;                      /*!< Offset: 0x20  MPU Alias 2 Region Attribute and S
 546:./stm32f10x_libraries/CMSIS/CM3/CoreSupport/core_cm3.h ****   __IO uint32_t RBAR_A3;                      /*!< Offset: 0x24  MPU Alias 3 Region Base Address Re
 547:./stm32f10x_libraries/CMSIS/CM3/CoreSupport/core_cm3.h ****   __IO uint32_t RASR_A3;                      /*!< Offset: 0x28  MPU Alias 3 Region Attribute and S
 548:./stm32f10x_libraries/CMSIS/CM3/CoreSupport/core_cm3.h **** } MPU_Type;                                                
 549:./stm32f10x_libraries/CMSIS/CM3/CoreSupport/core_cm3.h **** 
 550:./stm32f10x_libraries/CMSIS/CM3/CoreSupport/core_cm3.h **** /* MPU Type Register */
 551:./stm32f10x_libraries/CMSIS/CM3/CoreSupport/core_cm3.h **** #define MPU_TYPE_IREGION_Pos               16                                             /*!< MPU 
 552:./stm32f10x_libraries/CMSIS/CM3/CoreSupport/core_cm3.h **** #define MPU_TYPE_IREGION_Msk               (0xFFul << MPU_TYPE_IREGION_Pos)               /*!< MPU 
 553:./stm32f10x_libraries/CMSIS/CM3/CoreSupport/core_cm3.h **** 
 554:./stm32f10x_libraries/CMSIS/CM3/CoreSupport/core_cm3.h **** #define MPU_TYPE_DREGION_Pos                8                                             /*!< MPU 
 555:./stm32f10x_libraries/CMSIS/CM3/CoreSupport/core_cm3.h **** #define MPU_TYPE_DREGION_Msk               (0xFFul << MPU_TYPE_DREGION_Pos)               /*!< MPU 
 556:./stm32f10x_libraries/CMSIS/CM3/CoreSupport/core_cm3.h **** 
 557:./stm32f10x_libraries/CMSIS/CM3/CoreSupport/core_cm3.h **** #define MPU_TYPE_SEPARATE_Pos               0                                             /*!< MPU 
 558:./stm32f10x_libraries/CMSIS/CM3/CoreSupport/core_cm3.h **** #define MPU_TYPE_SEPARATE_Msk              (1ul << MPU_TYPE_SEPARATE_Pos)                 /*!< MPU 
 559:./stm32f10x_libraries/CMSIS/CM3/CoreSupport/core_cm3.h **** 
 560:./stm32f10x_libraries/CMSIS/CM3/CoreSupport/core_cm3.h **** /* MPU Control Register */
 561:./stm32f10x_libraries/CMSIS/CM3/CoreSupport/core_cm3.h **** #define MPU_CTRL_PRIVDEFENA_Pos             2                                             /*!< MPU 
 562:./stm32f10x_libraries/CMSIS/CM3/CoreSupport/core_cm3.h **** #define MPU_CTRL_PRIVDEFENA_Msk            (1ul << MPU_CTRL_PRIVDEFENA_Pos)               /*!< MPU 
 563:./stm32f10x_libraries/CMSIS/CM3/CoreSupport/core_cm3.h **** 
 564:./stm32f10x_libraries/CMSIS/CM3/CoreSupport/core_cm3.h **** #define MPU_CTRL_HFNMIENA_Pos               1                                             /*!< MPU 
 565:./stm32f10x_libraries/CMSIS/CM3/CoreSupport/core_cm3.h **** #define MPU_CTRL_HFNMIENA_Msk              (1ul << MPU_CTRL_HFNMIENA_Pos)                 /*!< MPU 
 566:./stm32f10x_libraries/CMSIS/CM3/CoreSupport/core_cm3.h **** 
 567:./stm32f10x_libraries/CMSIS/CM3/CoreSupport/core_cm3.h **** #define MPU_CTRL_ENABLE_Pos                 0                                             /*!< MPU 
 568:./stm32f10x_libraries/CMSIS/CM3/CoreSupport/core_cm3.h **** #define MPU_CTRL_ENABLE_Msk                (1ul << MPU_CTRL_ENABLE_Pos)                   /*!< MPU 
 569:./stm32f10x_libraries/CMSIS/CM3/CoreSupport/core_cm3.h **** 
 570:./stm32f10x_libraries/CMSIS/CM3/CoreSupport/core_cm3.h **** /* MPU Region Number Register */
 571:./stm32f10x_libraries/CMSIS/CM3/CoreSupport/core_cm3.h **** #define MPU_RNR_REGION_Pos                  0                                             /*!< MPU 
 572:./stm32f10x_libraries/CMSIS/CM3/CoreSupport/core_cm3.h **** #define MPU_RNR_REGION_Msk                 (0xFFul << MPU_RNR_REGION_Pos)                 /*!< MPU 
 573:./stm32f10x_libraries/CMSIS/CM3/CoreSupport/core_cm3.h **** 
 574:./stm32f10x_libraries/CMSIS/CM3/CoreSupport/core_cm3.h **** /* MPU Region Base Address Register */
 575:./stm32f10x_libraries/CMSIS/CM3/CoreSupport/core_cm3.h **** #define MPU_RBAR_ADDR_Pos                   5                                             /*!< MPU 
 576:./stm32f10x_libraries/CMSIS/CM3/CoreSupport/core_cm3.h **** #define MPU_RBAR_ADDR_Msk                  (0x7FFFFFFul << MPU_RBAR_ADDR_Pos)             /*!< MPU 
 577:./stm32f10x_libraries/CMSIS/CM3/CoreSupport/core_cm3.h **** 
 578:./stm32f10x_libraries/CMSIS/CM3/CoreSupport/core_cm3.h **** #define MPU_RBAR_VALID_Pos                  4                                             /*!< MPU 
 579:./stm32f10x_libraries/CMSIS/CM3/CoreSupport/core_cm3.h **** #define MPU_RBAR_VALID_Msk                 (1ul << MPU_RBAR_VALID_Pos)                    /*!< MPU 
 580:./stm32f10x_libraries/CMSIS/CM3/CoreSupport/core_cm3.h **** 
 581:./stm32f10x_libraries/CMSIS/CM3/CoreSupport/core_cm3.h **** #define MPU_RBAR_REGION_Pos                 0                                             /*!< MPU 
 582:./stm32f10x_libraries/CMSIS/CM3/CoreSupport/core_cm3.h **** #define MPU_RBAR_REGION_Msk                (0xFul << MPU_RBAR_REGION_Pos)                 /*!< MPU 
 583:./stm32f10x_libraries/CMSIS/CM3/CoreSupport/core_cm3.h **** 
 584:./stm32f10x_libraries/CMSIS/CM3/CoreSupport/core_cm3.h **** /* MPU Region Attribute and Size Register */
 585:./stm32f10x_libraries/CMSIS/CM3/CoreSupport/core_cm3.h **** #define MPU_RASR_XN_Pos                    28                                             /*!< MPU 
 586:./stm32f10x_libraries/CMSIS/CM3/CoreSupport/core_cm3.h **** #define MPU_RASR_XN_Msk                    (1ul << MPU_RASR_XN_Pos)                       /*!< MPU 
 587:./stm32f10x_libraries/CMSIS/CM3/CoreSupport/core_cm3.h **** 
 588:./stm32f10x_libraries/CMSIS/CM3/CoreSupport/core_cm3.h **** #define MPU_RASR_AP_Pos                    24                                             /*!< MPU 
 589:./stm32f10x_libraries/CMSIS/CM3/CoreSupport/core_cm3.h **** #define MPU_RASR_AP_Msk                    (7ul << MPU_RASR_AP_Pos)                       /*!< MPU 
 590:./stm32f10x_libraries/CMSIS/CM3/CoreSupport/core_cm3.h **** 
 591:./stm32f10x_libraries/CMSIS/CM3/CoreSupport/core_cm3.h **** #define MPU_RASR_TEX_Pos                   19                                             /*!< MPU 
 592:./stm32f10x_libraries/CMSIS/CM3/CoreSupport/core_cm3.h **** #define MPU_RASR_TEX_Msk                   (7ul << MPU_RASR_TEX_Pos)                      /*!< MPU 
 593:./stm32f10x_libraries/CMSIS/CM3/CoreSupport/core_cm3.h **** 
 594:./stm32f10x_libraries/CMSIS/CM3/CoreSupport/core_cm3.h **** #define MPU_RASR_S_Pos                     18                                             /*!< MPU 
 595:./stm32f10x_libraries/CMSIS/CM3/CoreSupport/core_cm3.h **** #define MPU_RASR_S_Msk                     (1ul << MPU_RASR_S_Pos)                        /*!< MPU 
 596:./stm32f10x_libraries/CMSIS/CM3/CoreSupport/core_cm3.h **** 
 597:./stm32f10x_libraries/CMSIS/CM3/CoreSupport/core_cm3.h **** #define MPU_RASR_C_Pos                     17                                             /*!< MPU 
 598:./stm32f10x_libraries/CMSIS/CM3/CoreSupport/core_cm3.h **** #define MPU_RASR_C_Msk                     (1ul << MPU_RASR_C_Pos)                        /*!< MPU 
 599:./stm32f10x_libraries/CMSIS/CM3/CoreSupport/core_cm3.h **** 
 600:./stm32f10x_libraries/CMSIS/CM3/CoreSupport/core_cm3.h **** #define MPU_RASR_B_Pos                     16                                             /*!< MPU 
 601:./stm32f10x_libraries/CMSIS/CM3/CoreSupport/core_cm3.h **** #define MPU_RASR_B_Msk                     (1ul << MPU_RASR_B_Pos)                        /*!< MPU 
ARM GAS  C:\Users\user\AppData\Local\Temp\ccH9wMRW.s 			page 17


 602:./stm32f10x_libraries/CMSIS/CM3/CoreSupport/core_cm3.h **** 
 603:./stm32f10x_libraries/CMSIS/CM3/CoreSupport/core_cm3.h **** #define MPU_RASR_SRD_Pos                    8                                             /*!< MPU 
 604:./stm32f10x_libraries/CMSIS/CM3/CoreSupport/core_cm3.h **** #define MPU_RASR_SRD_Msk                   (0xFFul << MPU_RASR_SRD_Pos)                   /*!< MPU 
 605:./stm32f10x_libraries/CMSIS/CM3/CoreSupport/core_cm3.h **** 
 606:./stm32f10x_libraries/CMSIS/CM3/CoreSupport/core_cm3.h **** #define MPU_RASR_SIZE_Pos                   1                                             /*!< MPU 
 607:./stm32f10x_libraries/CMSIS/CM3/CoreSupport/core_cm3.h **** #define MPU_RASR_SIZE_Msk                  (0x1Ful << MPU_RASR_SIZE_Pos)                  /*!< MPU 
 608:./stm32f10x_libraries/CMSIS/CM3/CoreSupport/core_cm3.h **** 
 609:./stm32f10x_libraries/CMSIS/CM3/CoreSupport/core_cm3.h **** #define MPU_RASR_ENA_Pos                     0                                            /*!< MPU 
 610:./stm32f10x_libraries/CMSIS/CM3/CoreSupport/core_cm3.h **** #define MPU_RASR_ENA_Msk                    (0x1Ful << MPU_RASR_ENA_Pos)                  /*!< MPU 
 611:./stm32f10x_libraries/CMSIS/CM3/CoreSupport/core_cm3.h **** 
 612:./stm32f10x_libraries/CMSIS/CM3/CoreSupport/core_cm3.h **** /*@}*/ /* end of group CMSIS_CM3_MPU */
 613:./stm32f10x_libraries/CMSIS/CM3/CoreSupport/core_cm3.h **** #endif
 614:./stm32f10x_libraries/CMSIS/CM3/CoreSupport/core_cm3.h **** 
 615:./stm32f10x_libraries/CMSIS/CM3/CoreSupport/core_cm3.h **** 
 616:./stm32f10x_libraries/CMSIS/CM3/CoreSupport/core_cm3.h **** /** @addtogroup CMSIS_CM3_CoreDebug CMSIS CM3 Core Debug
 617:./stm32f10x_libraries/CMSIS/CM3/CoreSupport/core_cm3.h ****   memory mapped structure for Core Debug Register
 618:./stm32f10x_libraries/CMSIS/CM3/CoreSupport/core_cm3.h ****   @{
 619:./stm32f10x_libraries/CMSIS/CM3/CoreSupport/core_cm3.h ****  */
 620:./stm32f10x_libraries/CMSIS/CM3/CoreSupport/core_cm3.h **** typedef struct
 621:./stm32f10x_libraries/CMSIS/CM3/CoreSupport/core_cm3.h **** {
 622:./stm32f10x_libraries/CMSIS/CM3/CoreSupport/core_cm3.h ****   __IO uint32_t DHCSR;                        /*!< Offset: 0x00  Debug Halting Control and Status R
 623:./stm32f10x_libraries/CMSIS/CM3/CoreSupport/core_cm3.h ****   __O  uint32_t DCRSR;                        /*!< Offset: 0x04  Debug Core Register Selector Regis
 624:./stm32f10x_libraries/CMSIS/CM3/CoreSupport/core_cm3.h ****   __IO uint32_t DCRDR;                        /*!< Offset: 0x08  Debug Core Register Data Register 
 625:./stm32f10x_libraries/CMSIS/CM3/CoreSupport/core_cm3.h ****   __IO uint32_t DEMCR;                        /*!< Offset: 0x0C  Debug Exception and Monitor Contro
 626:./stm32f10x_libraries/CMSIS/CM3/CoreSupport/core_cm3.h **** } CoreDebug_Type;
 627:./stm32f10x_libraries/CMSIS/CM3/CoreSupport/core_cm3.h **** 
 628:./stm32f10x_libraries/CMSIS/CM3/CoreSupport/core_cm3.h **** /* Debug Halting Control and Status Register */
 629:./stm32f10x_libraries/CMSIS/CM3/CoreSupport/core_cm3.h **** #define CoreDebug_DHCSR_DBGKEY_Pos         16                                             /*!< Core
 630:./stm32f10x_libraries/CMSIS/CM3/CoreSupport/core_cm3.h **** #define CoreDebug_DHCSR_DBGKEY_Msk         (0xFFFFul << CoreDebug_DHCSR_DBGKEY_Pos)       /*!< Core
 631:./stm32f10x_libraries/CMSIS/CM3/CoreSupport/core_cm3.h **** 
 632:./stm32f10x_libraries/CMSIS/CM3/CoreSupport/core_cm3.h **** #define CoreDebug_DHCSR_S_RESET_ST_Pos     25                                             /*!< Core
 633:./stm32f10x_libraries/CMSIS/CM3/CoreSupport/core_cm3.h **** #define CoreDebug_DHCSR_S_RESET_ST_Msk     (1ul << CoreDebug_DHCSR_S_RESET_ST_Pos)        /*!< Core
 634:./stm32f10x_libraries/CMSIS/CM3/CoreSupport/core_cm3.h **** 
 635:./stm32f10x_libraries/CMSIS/CM3/CoreSupport/core_cm3.h **** #define CoreDebug_DHCSR_S_RETIRE_ST_Pos    24                                             /*!< Core
 636:./stm32f10x_libraries/CMSIS/CM3/CoreSupport/core_cm3.h **** #define CoreDebug_DHCSR_S_RETIRE_ST_Msk    (1ul << CoreDebug_DHCSR_S_RETIRE_ST_Pos)       /*!< Core
 637:./stm32f10x_libraries/CMSIS/CM3/CoreSupport/core_cm3.h **** 
 638:./stm32f10x_libraries/CMSIS/CM3/CoreSupport/core_cm3.h **** #define CoreDebug_DHCSR_S_LOCKUP_Pos       19                                             /*!< Core
 639:./stm32f10x_libraries/CMSIS/CM3/CoreSupport/core_cm3.h **** #define CoreDebug_DHCSR_S_LOCKUP_Msk       (1ul << CoreDebug_DHCSR_S_LOCKUP_Pos)          /*!< Core
 640:./stm32f10x_libraries/CMSIS/CM3/CoreSupport/core_cm3.h **** 
 641:./stm32f10x_libraries/CMSIS/CM3/CoreSupport/core_cm3.h **** #define CoreDebug_DHCSR_S_SLEEP_Pos        18                                             /*!< Core
 642:./stm32f10x_libraries/CMSIS/CM3/CoreSupport/core_cm3.h **** #define CoreDebug_DHCSR_S_SLEEP_Msk        (1ul << CoreDebug_DHCSR_S_SLEEP_Pos)           /*!< Core
 643:./stm32f10x_libraries/CMSIS/CM3/CoreSupport/core_cm3.h **** 
 644:./stm32f10x_libraries/CMSIS/CM3/CoreSupport/core_cm3.h **** #define CoreDebug_DHCSR_S_HALT_Pos         17                                             /*!< Core
 645:./stm32f10x_libraries/CMSIS/CM3/CoreSupport/core_cm3.h **** #define CoreDebug_DHCSR_S_HALT_Msk         (1ul << CoreDebug_DHCSR_S_HALT_Pos)            /*!< Core
 646:./stm32f10x_libraries/CMSIS/CM3/CoreSupport/core_cm3.h **** 
 647:./stm32f10x_libraries/CMSIS/CM3/CoreSupport/core_cm3.h **** #define CoreDebug_DHCSR_S_REGRDY_Pos       16                                             /*!< Core
 648:./stm32f10x_libraries/CMSIS/CM3/CoreSupport/core_cm3.h **** #define CoreDebug_DHCSR_S_REGRDY_Msk       (1ul << CoreDebug_DHCSR_S_REGRDY_Pos)          /*!< Core
 649:./stm32f10x_libraries/CMSIS/CM3/CoreSupport/core_cm3.h **** 
 650:./stm32f10x_libraries/CMSIS/CM3/CoreSupport/core_cm3.h **** #define CoreDebug_DHCSR_C_SNAPSTALL_Pos     5                                             /*!< Core
 651:./stm32f10x_libraries/CMSIS/CM3/CoreSupport/core_cm3.h **** #define CoreDebug_DHCSR_C_SNAPSTALL_Msk    (1ul << CoreDebug_DHCSR_C_SNAPSTALL_Pos)       /*!< Core
 652:./stm32f10x_libraries/CMSIS/CM3/CoreSupport/core_cm3.h **** 
 653:./stm32f10x_libraries/CMSIS/CM3/CoreSupport/core_cm3.h **** #define CoreDebug_DHCSR_C_MASKINTS_Pos      3                                             /*!< Core
 654:./stm32f10x_libraries/CMSIS/CM3/CoreSupport/core_cm3.h **** #define CoreDebug_DHCSR_C_MASKINTS_Msk     (1ul << CoreDebug_DHCSR_C_MASKINTS_Pos)        /*!< Core
 655:./stm32f10x_libraries/CMSIS/CM3/CoreSupport/core_cm3.h **** 
 656:./stm32f10x_libraries/CMSIS/CM3/CoreSupport/core_cm3.h **** #define CoreDebug_DHCSR_C_STEP_Pos          2                                             /*!< Core
 657:./stm32f10x_libraries/CMSIS/CM3/CoreSupport/core_cm3.h **** #define CoreDebug_DHCSR_C_STEP_Msk         (1ul << CoreDebug_DHCSR_C_STEP_Pos)            /*!< Core
 658:./stm32f10x_libraries/CMSIS/CM3/CoreSupport/core_cm3.h **** 
ARM GAS  C:\Users\user\AppData\Local\Temp\ccH9wMRW.s 			page 18


 659:./stm32f10x_libraries/CMSIS/CM3/CoreSupport/core_cm3.h **** #define CoreDebug_DHCSR_C_HALT_Pos          1                                             /*!< Core
 660:./stm32f10x_libraries/CMSIS/CM3/CoreSupport/core_cm3.h **** #define CoreDebug_DHCSR_C_HALT_Msk         (1ul << CoreDebug_DHCSR_C_HALT_Pos)            /*!< Core
 661:./stm32f10x_libraries/CMSIS/CM3/CoreSupport/core_cm3.h **** 
 662:./stm32f10x_libraries/CMSIS/CM3/CoreSupport/core_cm3.h **** #define CoreDebug_DHCSR_C_DEBUGEN_Pos       0                                             /*!< Core
 663:./stm32f10x_libraries/CMSIS/CM3/CoreSupport/core_cm3.h **** #define CoreDebug_DHCSR_C_DEBUGEN_Msk      (1ul << CoreDebug_DHCSR_C_DEBUGEN_Pos)         /*!< Core
 664:./stm32f10x_libraries/CMSIS/CM3/CoreSupport/core_cm3.h **** 
 665:./stm32f10x_libraries/CMSIS/CM3/CoreSupport/core_cm3.h **** /* Debug Core Register Selector Register */
 666:./stm32f10x_libraries/CMSIS/CM3/CoreSupport/core_cm3.h **** #define CoreDebug_DCRSR_REGWnR_Pos         16                                             /*!< Core
 667:./stm32f10x_libraries/CMSIS/CM3/CoreSupport/core_cm3.h **** #define CoreDebug_DCRSR_REGWnR_Msk         (1ul << CoreDebug_DCRSR_REGWnR_Pos)            /*!< Core
 668:./stm32f10x_libraries/CMSIS/CM3/CoreSupport/core_cm3.h **** 
 669:./stm32f10x_libraries/CMSIS/CM3/CoreSupport/core_cm3.h **** #define CoreDebug_DCRSR_REGSEL_Pos          0                                             /*!< Core
 670:./stm32f10x_libraries/CMSIS/CM3/CoreSupport/core_cm3.h **** #define CoreDebug_DCRSR_REGSEL_Msk         (0x1Ful << CoreDebug_DCRSR_REGSEL_Pos)         /*!< Core
 671:./stm32f10x_libraries/CMSIS/CM3/CoreSupport/core_cm3.h **** 
 672:./stm32f10x_libraries/CMSIS/CM3/CoreSupport/core_cm3.h **** /* Debug Exception and Monitor Control Register */
 673:./stm32f10x_libraries/CMSIS/CM3/CoreSupport/core_cm3.h **** #define CoreDebug_DEMCR_TRCENA_Pos         24                                             /*!< Core
 674:./stm32f10x_libraries/CMSIS/CM3/CoreSupport/core_cm3.h **** #define CoreDebug_DEMCR_TRCENA_Msk         (1ul << CoreDebug_DEMCR_TRCENA_Pos)            /*!< Core
 675:./stm32f10x_libraries/CMSIS/CM3/CoreSupport/core_cm3.h **** 
 676:./stm32f10x_libraries/CMSIS/CM3/CoreSupport/core_cm3.h **** #define CoreDebug_DEMCR_MON_REQ_Pos        19                                             /*!< Core
 677:./stm32f10x_libraries/CMSIS/CM3/CoreSupport/core_cm3.h **** #define CoreDebug_DEMCR_MON_REQ_Msk        (1ul << CoreDebug_DEMCR_MON_REQ_Pos)           /*!< Core
 678:./stm32f10x_libraries/CMSIS/CM3/CoreSupport/core_cm3.h **** 
 679:./stm32f10x_libraries/CMSIS/CM3/CoreSupport/core_cm3.h **** #define CoreDebug_DEMCR_MON_STEP_Pos       18                                             /*!< Core
 680:./stm32f10x_libraries/CMSIS/CM3/CoreSupport/core_cm3.h **** #define CoreDebug_DEMCR_MON_STEP_Msk       (1ul << CoreDebug_DEMCR_MON_STEP_Pos)          /*!< Core
 681:./stm32f10x_libraries/CMSIS/CM3/CoreSupport/core_cm3.h **** 
 682:./stm32f10x_libraries/CMSIS/CM3/CoreSupport/core_cm3.h **** #define CoreDebug_DEMCR_MON_PEND_Pos       17                                             /*!< Core
 683:./stm32f10x_libraries/CMSIS/CM3/CoreSupport/core_cm3.h **** #define CoreDebug_DEMCR_MON_PEND_Msk       (1ul << CoreDebug_DEMCR_MON_PEND_Pos)          /*!< Core
 684:./stm32f10x_libraries/CMSIS/CM3/CoreSupport/core_cm3.h **** 
 685:./stm32f10x_libraries/CMSIS/CM3/CoreSupport/core_cm3.h **** #define CoreDebug_DEMCR_MON_EN_Pos         16                                             /*!< Core
 686:./stm32f10x_libraries/CMSIS/CM3/CoreSupport/core_cm3.h **** #define CoreDebug_DEMCR_MON_EN_Msk         (1ul << CoreDebug_DEMCR_MON_EN_Pos)            /*!< Core
 687:./stm32f10x_libraries/CMSIS/CM3/CoreSupport/core_cm3.h **** 
 688:./stm32f10x_libraries/CMSIS/CM3/CoreSupport/core_cm3.h **** #define CoreDebug_DEMCR_VC_HARDERR_Pos     10                                             /*!< Core
 689:./stm32f10x_libraries/CMSIS/CM3/CoreSupport/core_cm3.h **** #define CoreDebug_DEMCR_VC_HARDERR_Msk     (1ul << CoreDebug_DEMCR_VC_HARDERR_Pos)        /*!< Core
 690:./stm32f10x_libraries/CMSIS/CM3/CoreSupport/core_cm3.h **** 
 691:./stm32f10x_libraries/CMSIS/CM3/CoreSupport/core_cm3.h **** #define CoreDebug_DEMCR_VC_INTERR_Pos       9                                             /*!< Core
 692:./stm32f10x_libraries/CMSIS/CM3/CoreSupport/core_cm3.h **** #define CoreDebug_DEMCR_VC_INTERR_Msk      (1ul << CoreDebug_DEMCR_VC_INTERR_Pos)         /*!< Core
 693:./stm32f10x_libraries/CMSIS/CM3/CoreSupport/core_cm3.h **** 
 694:./stm32f10x_libraries/CMSIS/CM3/CoreSupport/core_cm3.h **** #define CoreDebug_DEMCR_VC_BUSERR_Pos       8                                             /*!< Core
 695:./stm32f10x_libraries/CMSIS/CM3/CoreSupport/core_cm3.h **** #define CoreDebug_DEMCR_VC_BUSERR_Msk      (1ul << CoreDebug_DEMCR_VC_BUSERR_Pos)         /*!< Core
 696:./stm32f10x_libraries/CMSIS/CM3/CoreSupport/core_cm3.h **** 
 697:./stm32f10x_libraries/CMSIS/CM3/CoreSupport/core_cm3.h **** #define CoreDebug_DEMCR_VC_STATERR_Pos      7                                             /*!< Core
 698:./stm32f10x_libraries/CMSIS/CM3/CoreSupport/core_cm3.h **** #define CoreDebug_DEMCR_VC_STATERR_Msk     (1ul << CoreDebug_DEMCR_VC_STATERR_Pos)        /*!< Core
 699:./stm32f10x_libraries/CMSIS/CM3/CoreSupport/core_cm3.h **** 
 700:./stm32f10x_libraries/CMSIS/CM3/CoreSupport/core_cm3.h **** #define CoreDebug_DEMCR_VC_CHKERR_Pos       6                                             /*!< Core
 701:./stm32f10x_libraries/CMSIS/CM3/CoreSupport/core_cm3.h **** #define CoreDebug_DEMCR_VC_CHKERR_Msk      (1ul << CoreDebug_DEMCR_VC_CHKERR_Pos)         /*!< Core
 702:./stm32f10x_libraries/CMSIS/CM3/CoreSupport/core_cm3.h **** 
 703:./stm32f10x_libraries/CMSIS/CM3/CoreSupport/core_cm3.h **** #define CoreDebug_DEMCR_VC_NOCPERR_Pos      5                                             /*!< Core
 704:./stm32f10x_libraries/CMSIS/CM3/CoreSupport/core_cm3.h **** #define CoreDebug_DEMCR_VC_NOCPERR_Msk     (1ul << CoreDebug_DEMCR_VC_NOCPERR_Pos)        /*!< Core
 705:./stm32f10x_libraries/CMSIS/CM3/CoreSupport/core_cm3.h **** 
 706:./stm32f10x_libraries/CMSIS/CM3/CoreSupport/core_cm3.h **** #define CoreDebug_DEMCR_VC_MMERR_Pos        4                                             /*!< Core
 707:./stm32f10x_libraries/CMSIS/CM3/CoreSupport/core_cm3.h **** #define CoreDebug_DEMCR_VC_MMERR_Msk       (1ul << CoreDebug_DEMCR_VC_MMERR_Pos)          /*!< Core
 708:./stm32f10x_libraries/CMSIS/CM3/CoreSupport/core_cm3.h **** 
 709:./stm32f10x_libraries/CMSIS/CM3/CoreSupport/core_cm3.h **** #define CoreDebug_DEMCR_VC_CORERESET_Pos    0                                             /*!< Core
 710:./stm32f10x_libraries/CMSIS/CM3/CoreSupport/core_cm3.h **** #define CoreDebug_DEMCR_VC_CORERESET_Msk   (1ul << CoreDebug_DEMCR_VC_CORERESET_Pos)      /*!< Core
 711:./stm32f10x_libraries/CMSIS/CM3/CoreSupport/core_cm3.h **** /*@}*/ /* end of group CMSIS_CM3_CoreDebug */
 712:./stm32f10x_libraries/CMSIS/CM3/CoreSupport/core_cm3.h **** 
 713:./stm32f10x_libraries/CMSIS/CM3/CoreSupport/core_cm3.h **** 
 714:./stm32f10x_libraries/CMSIS/CM3/CoreSupport/core_cm3.h **** /* Memory mapping of Cortex-M3 Hardware */
 715:./stm32f10x_libraries/CMSIS/CM3/CoreSupport/core_cm3.h **** #define SCS_BASE            (0xE000E000)                              /*!< System Control Space Bas
ARM GAS  C:\Users\user\AppData\Local\Temp\ccH9wMRW.s 			page 19


 716:./stm32f10x_libraries/CMSIS/CM3/CoreSupport/core_cm3.h **** #define ITM_BASE            (0xE0000000)                              /*!< ITM Base Address        
 717:./stm32f10x_libraries/CMSIS/CM3/CoreSupport/core_cm3.h **** #define CoreDebug_BASE      (0xE000EDF0)                              /*!< Core Debug Base Address 
 718:./stm32f10x_libraries/CMSIS/CM3/CoreSupport/core_cm3.h **** #define SysTick_BASE        (SCS_BASE +  0x0010)                      /*!< SysTick Base Address    
 719:./stm32f10x_libraries/CMSIS/CM3/CoreSupport/core_cm3.h **** #define NVIC_BASE           (SCS_BASE +  0x0100)                      /*!< NVIC Base Address       
 720:./stm32f10x_libraries/CMSIS/CM3/CoreSupport/core_cm3.h **** #define SCB_BASE            (SCS_BASE +  0x0D00)                      /*!< System Control Block Bas
 721:./stm32f10x_libraries/CMSIS/CM3/CoreSupport/core_cm3.h **** 
 722:./stm32f10x_libraries/CMSIS/CM3/CoreSupport/core_cm3.h **** #define InterruptType       ((InterruptType_Type *) SCS_BASE)         /*!< Interrupt Type Register 
 723:./stm32f10x_libraries/CMSIS/CM3/CoreSupport/core_cm3.h **** #define SCB                 ((SCB_Type *)           SCB_BASE)         /*!< SCB configuration struct
 724:./stm32f10x_libraries/CMSIS/CM3/CoreSupport/core_cm3.h **** #define SysTick             ((SysTick_Type *)       SysTick_BASE)     /*!< SysTick configuration st
 725:./stm32f10x_libraries/CMSIS/CM3/CoreSupport/core_cm3.h **** #define NVIC                ((NVIC_Type *)          NVIC_BASE)        /*!< NVIC configuration struc
 726:./stm32f10x_libraries/CMSIS/CM3/CoreSupport/core_cm3.h **** #define ITM                 ((ITM_Type *)           ITM_BASE)         /*!< ITM configuration struct
 727:./stm32f10x_libraries/CMSIS/CM3/CoreSupport/core_cm3.h **** #define CoreDebug           ((CoreDebug_Type *)     CoreDebug_BASE)   /*!< Core Debug configuration
 728:./stm32f10x_libraries/CMSIS/CM3/CoreSupport/core_cm3.h **** 
 729:./stm32f10x_libraries/CMSIS/CM3/CoreSupport/core_cm3.h **** #if defined (__MPU_PRESENT) && (__MPU_PRESENT == 1)
 730:./stm32f10x_libraries/CMSIS/CM3/CoreSupport/core_cm3.h ****   #define MPU_BASE          (SCS_BASE +  0x0D90)                      /*!< Memory Protection Unit  
 731:./stm32f10x_libraries/CMSIS/CM3/CoreSupport/core_cm3.h ****   #define MPU               ((MPU_Type*)            MPU_BASE)         /*!< Memory Protection Unit  
 732:./stm32f10x_libraries/CMSIS/CM3/CoreSupport/core_cm3.h **** #endif
 733:./stm32f10x_libraries/CMSIS/CM3/CoreSupport/core_cm3.h **** 
 734:./stm32f10x_libraries/CMSIS/CM3/CoreSupport/core_cm3.h **** /*@}*/ /* end of group CMSIS_CM3_core_register */
 735:./stm32f10x_libraries/CMSIS/CM3/CoreSupport/core_cm3.h **** 
 736:./stm32f10x_libraries/CMSIS/CM3/CoreSupport/core_cm3.h **** 
 737:./stm32f10x_libraries/CMSIS/CM3/CoreSupport/core_cm3.h **** /*******************************************************************************
 738:./stm32f10x_libraries/CMSIS/CM3/CoreSupport/core_cm3.h ****  *                Hardware Abstraction Layer
 739:./stm32f10x_libraries/CMSIS/CM3/CoreSupport/core_cm3.h ****  ******************************************************************************/
 740:./stm32f10x_libraries/CMSIS/CM3/CoreSupport/core_cm3.h **** 
 741:./stm32f10x_libraries/CMSIS/CM3/CoreSupport/core_cm3.h **** #if defined ( __CC_ARM   )
 742:./stm32f10x_libraries/CMSIS/CM3/CoreSupport/core_cm3.h ****   #define __ASM            __asm                                      /*!< asm keyword for ARM Comp
 743:./stm32f10x_libraries/CMSIS/CM3/CoreSupport/core_cm3.h ****   #define __INLINE         __inline                                   /*!< inline keyword for ARM C
 744:./stm32f10x_libraries/CMSIS/CM3/CoreSupport/core_cm3.h **** 
 745:./stm32f10x_libraries/CMSIS/CM3/CoreSupport/core_cm3.h **** #elif defined ( __ICCARM__ )
 746:./stm32f10x_libraries/CMSIS/CM3/CoreSupport/core_cm3.h ****   #define __ASM           __asm                                       /*!< asm keyword for IAR Comp
 747:./stm32f10x_libraries/CMSIS/CM3/CoreSupport/core_cm3.h ****   #define __INLINE        inline                                      /*!< inline keyword for IAR C
 748:./stm32f10x_libraries/CMSIS/CM3/CoreSupport/core_cm3.h **** 
 749:./stm32f10x_libraries/CMSIS/CM3/CoreSupport/core_cm3.h **** #elif defined   (  __GNUC__  )
 750:./stm32f10x_libraries/CMSIS/CM3/CoreSupport/core_cm3.h ****   #define __ASM            __asm                                      /*!< asm keyword for GNU Comp
 751:./stm32f10x_libraries/CMSIS/CM3/CoreSupport/core_cm3.h ****   #define __INLINE         inline                                     /*!< inline keyword for GNU C
 752:./stm32f10x_libraries/CMSIS/CM3/CoreSupport/core_cm3.h **** 
 753:./stm32f10x_libraries/CMSIS/CM3/CoreSupport/core_cm3.h **** #elif defined   (  __TASKING__  )
 754:./stm32f10x_libraries/CMSIS/CM3/CoreSupport/core_cm3.h ****   #define __ASM            __asm                                      /*!< asm keyword for TASKING 
 755:./stm32f10x_libraries/CMSIS/CM3/CoreSupport/core_cm3.h ****   #define __INLINE         inline                                     /*!< inline keyword for TASKI
 756:./stm32f10x_libraries/CMSIS/CM3/CoreSupport/core_cm3.h **** 
 757:./stm32f10x_libraries/CMSIS/CM3/CoreSupport/core_cm3.h **** #endif
 758:./stm32f10x_libraries/CMSIS/CM3/CoreSupport/core_cm3.h **** 
 759:./stm32f10x_libraries/CMSIS/CM3/CoreSupport/core_cm3.h **** 
 760:./stm32f10x_libraries/CMSIS/CM3/CoreSupport/core_cm3.h **** /* ###################  Compiler specific Intrinsics  ########################### */
 761:./stm32f10x_libraries/CMSIS/CM3/CoreSupport/core_cm3.h **** 
 762:./stm32f10x_libraries/CMSIS/CM3/CoreSupport/core_cm3.h **** #if defined ( __CC_ARM   ) /*------------------RealView Compiler -----------------*/
 763:./stm32f10x_libraries/CMSIS/CM3/CoreSupport/core_cm3.h **** /* ARM armcc specific functions */
 764:./stm32f10x_libraries/CMSIS/CM3/CoreSupport/core_cm3.h **** 
 765:./stm32f10x_libraries/CMSIS/CM3/CoreSupport/core_cm3.h **** #define __enable_fault_irq                __enable_fiq
 766:./stm32f10x_libraries/CMSIS/CM3/CoreSupport/core_cm3.h **** #define __disable_fault_irq               __disable_fiq
 767:./stm32f10x_libraries/CMSIS/CM3/CoreSupport/core_cm3.h **** 
 768:./stm32f10x_libraries/CMSIS/CM3/CoreSupport/core_cm3.h **** #define __NOP                             __nop
 769:./stm32f10x_libraries/CMSIS/CM3/CoreSupport/core_cm3.h **** #define __WFI                             __wfi
 770:./stm32f10x_libraries/CMSIS/CM3/CoreSupport/core_cm3.h **** #define __WFE                             __wfe
 771:./stm32f10x_libraries/CMSIS/CM3/CoreSupport/core_cm3.h **** #define __SEV                             __sev
 772:./stm32f10x_libraries/CMSIS/CM3/CoreSupport/core_cm3.h **** #define __ISB()                           __isb(0)
ARM GAS  C:\Users\user\AppData\Local\Temp\ccH9wMRW.s 			page 20


 773:./stm32f10x_libraries/CMSIS/CM3/CoreSupport/core_cm3.h **** #define __DSB()                           __dsb(0)
 774:./stm32f10x_libraries/CMSIS/CM3/CoreSupport/core_cm3.h **** #define __DMB()                           __dmb(0)
 775:./stm32f10x_libraries/CMSIS/CM3/CoreSupport/core_cm3.h **** #define __REV                             __rev
 776:./stm32f10x_libraries/CMSIS/CM3/CoreSupport/core_cm3.h **** #define __RBIT                            __rbit
 777:./stm32f10x_libraries/CMSIS/CM3/CoreSupport/core_cm3.h **** #define __LDREXB(ptr)                     ((unsigned char ) __ldrex(ptr))
 778:./stm32f10x_libraries/CMSIS/CM3/CoreSupport/core_cm3.h **** #define __LDREXH(ptr)                     ((unsigned short) __ldrex(ptr))
 779:./stm32f10x_libraries/CMSIS/CM3/CoreSupport/core_cm3.h **** #define __LDREXW(ptr)                     ((unsigned int  ) __ldrex(ptr))
 780:./stm32f10x_libraries/CMSIS/CM3/CoreSupport/core_cm3.h **** #define __STREXB(value, ptr)              __strex(value, ptr)
 781:./stm32f10x_libraries/CMSIS/CM3/CoreSupport/core_cm3.h **** #define __STREXH(value, ptr)              __strex(value, ptr)
 782:./stm32f10x_libraries/CMSIS/CM3/CoreSupport/core_cm3.h **** #define __STREXW(value, ptr)              __strex(value, ptr)
 783:./stm32f10x_libraries/CMSIS/CM3/CoreSupport/core_cm3.h **** 
 784:./stm32f10x_libraries/CMSIS/CM3/CoreSupport/core_cm3.h **** 
 785:./stm32f10x_libraries/CMSIS/CM3/CoreSupport/core_cm3.h **** /* intrinsic unsigned long long __ldrexd(volatile void *ptr) */
 786:./stm32f10x_libraries/CMSIS/CM3/CoreSupport/core_cm3.h **** /* intrinsic int __strexd(unsigned long long val, volatile void *ptr) */
 787:./stm32f10x_libraries/CMSIS/CM3/CoreSupport/core_cm3.h **** /* intrinsic void __enable_irq();     */
 788:./stm32f10x_libraries/CMSIS/CM3/CoreSupport/core_cm3.h **** /* intrinsic void __disable_irq();    */
 789:./stm32f10x_libraries/CMSIS/CM3/CoreSupport/core_cm3.h **** 
 790:./stm32f10x_libraries/CMSIS/CM3/CoreSupport/core_cm3.h **** 
 791:./stm32f10x_libraries/CMSIS/CM3/CoreSupport/core_cm3.h **** /**
 792:./stm32f10x_libraries/CMSIS/CM3/CoreSupport/core_cm3.h ****  * @brief  Return the Process Stack Pointer
 793:./stm32f10x_libraries/CMSIS/CM3/CoreSupport/core_cm3.h ****  *
 794:./stm32f10x_libraries/CMSIS/CM3/CoreSupport/core_cm3.h ****  * @return ProcessStackPointer
 795:./stm32f10x_libraries/CMSIS/CM3/CoreSupport/core_cm3.h ****  *
 796:./stm32f10x_libraries/CMSIS/CM3/CoreSupport/core_cm3.h ****  * Return the actual process stack pointer
 797:./stm32f10x_libraries/CMSIS/CM3/CoreSupport/core_cm3.h ****  */
 798:./stm32f10x_libraries/CMSIS/CM3/CoreSupport/core_cm3.h **** extern uint32_t __get_PSP(void);
 799:./stm32f10x_libraries/CMSIS/CM3/CoreSupport/core_cm3.h **** 
 800:./stm32f10x_libraries/CMSIS/CM3/CoreSupport/core_cm3.h **** /**
 801:./stm32f10x_libraries/CMSIS/CM3/CoreSupport/core_cm3.h ****  * @brief  Set the Process Stack Pointer
 802:./stm32f10x_libraries/CMSIS/CM3/CoreSupport/core_cm3.h ****  *
 803:./stm32f10x_libraries/CMSIS/CM3/CoreSupport/core_cm3.h ****  * @param  topOfProcStack  Process Stack Pointer
 804:./stm32f10x_libraries/CMSIS/CM3/CoreSupport/core_cm3.h ****  *
 805:./stm32f10x_libraries/CMSIS/CM3/CoreSupport/core_cm3.h ****  * Assign the value ProcessStackPointer to the MSP 
 806:./stm32f10x_libraries/CMSIS/CM3/CoreSupport/core_cm3.h ****  * (process stack pointer) Cortex processor register
 807:./stm32f10x_libraries/CMSIS/CM3/CoreSupport/core_cm3.h ****  */
 808:./stm32f10x_libraries/CMSIS/CM3/CoreSupport/core_cm3.h **** extern void __set_PSP(uint32_t topOfProcStack);
 809:./stm32f10x_libraries/CMSIS/CM3/CoreSupport/core_cm3.h **** 
 810:./stm32f10x_libraries/CMSIS/CM3/CoreSupport/core_cm3.h **** /**
 811:./stm32f10x_libraries/CMSIS/CM3/CoreSupport/core_cm3.h ****  * @brief  Return the Main Stack Pointer
 812:./stm32f10x_libraries/CMSIS/CM3/CoreSupport/core_cm3.h ****  *
 813:./stm32f10x_libraries/CMSIS/CM3/CoreSupport/core_cm3.h ****  * @return Main Stack Pointer
 814:./stm32f10x_libraries/CMSIS/CM3/CoreSupport/core_cm3.h ****  *
 815:./stm32f10x_libraries/CMSIS/CM3/CoreSupport/core_cm3.h ****  * Return the current value of the MSP (main stack pointer)
 816:./stm32f10x_libraries/CMSIS/CM3/CoreSupport/core_cm3.h ****  * Cortex processor register
 817:./stm32f10x_libraries/CMSIS/CM3/CoreSupport/core_cm3.h ****  */
 818:./stm32f10x_libraries/CMSIS/CM3/CoreSupport/core_cm3.h **** extern uint32_t __get_MSP(void);
 819:./stm32f10x_libraries/CMSIS/CM3/CoreSupport/core_cm3.h **** 
 820:./stm32f10x_libraries/CMSIS/CM3/CoreSupport/core_cm3.h **** /**
 821:./stm32f10x_libraries/CMSIS/CM3/CoreSupport/core_cm3.h ****  * @brief  Set the Main Stack Pointer
 822:./stm32f10x_libraries/CMSIS/CM3/CoreSupport/core_cm3.h ****  *
 823:./stm32f10x_libraries/CMSIS/CM3/CoreSupport/core_cm3.h ****  * @param  topOfMainStack  Main Stack Pointer
 824:./stm32f10x_libraries/CMSIS/CM3/CoreSupport/core_cm3.h ****  *
 825:./stm32f10x_libraries/CMSIS/CM3/CoreSupport/core_cm3.h ****  * Assign the value mainStackPointer to the MSP 
 826:./stm32f10x_libraries/CMSIS/CM3/CoreSupport/core_cm3.h ****  * (main stack pointer) Cortex processor register
 827:./stm32f10x_libraries/CMSIS/CM3/CoreSupport/core_cm3.h ****  */
 828:./stm32f10x_libraries/CMSIS/CM3/CoreSupport/core_cm3.h **** extern void __set_MSP(uint32_t topOfMainStack);
 829:./stm32f10x_libraries/CMSIS/CM3/CoreSupport/core_cm3.h **** 
ARM GAS  C:\Users\user\AppData\Local\Temp\ccH9wMRW.s 			page 21


 830:./stm32f10x_libraries/CMSIS/CM3/CoreSupport/core_cm3.h **** /**
 831:./stm32f10x_libraries/CMSIS/CM3/CoreSupport/core_cm3.h ****  * @brief  Reverse byte order in unsigned short value
 832:./stm32f10x_libraries/CMSIS/CM3/CoreSupport/core_cm3.h ****  *
 833:./stm32f10x_libraries/CMSIS/CM3/CoreSupport/core_cm3.h ****  * @param   value  value to reverse
 834:./stm32f10x_libraries/CMSIS/CM3/CoreSupport/core_cm3.h ****  * @return         reversed value
 835:./stm32f10x_libraries/CMSIS/CM3/CoreSupport/core_cm3.h ****  *
 836:./stm32f10x_libraries/CMSIS/CM3/CoreSupport/core_cm3.h ****  * Reverse byte order in unsigned short value
 837:./stm32f10x_libraries/CMSIS/CM3/CoreSupport/core_cm3.h ****  */
 838:./stm32f10x_libraries/CMSIS/CM3/CoreSupport/core_cm3.h **** extern uint32_t __REV16(uint16_t value);
 839:./stm32f10x_libraries/CMSIS/CM3/CoreSupport/core_cm3.h **** 
 840:./stm32f10x_libraries/CMSIS/CM3/CoreSupport/core_cm3.h **** /**
 841:./stm32f10x_libraries/CMSIS/CM3/CoreSupport/core_cm3.h ****  * @brief  Reverse byte order in signed short value with sign extension to integer
 842:./stm32f10x_libraries/CMSIS/CM3/CoreSupport/core_cm3.h ****  *
 843:./stm32f10x_libraries/CMSIS/CM3/CoreSupport/core_cm3.h ****  * @param   value  value to reverse
 844:./stm32f10x_libraries/CMSIS/CM3/CoreSupport/core_cm3.h ****  * @return         reversed value
 845:./stm32f10x_libraries/CMSIS/CM3/CoreSupport/core_cm3.h ****  *
 846:./stm32f10x_libraries/CMSIS/CM3/CoreSupport/core_cm3.h ****  * Reverse byte order in signed short value with sign extension to integer
 847:./stm32f10x_libraries/CMSIS/CM3/CoreSupport/core_cm3.h ****  */
 848:./stm32f10x_libraries/CMSIS/CM3/CoreSupport/core_cm3.h **** extern int32_t __REVSH(int16_t value);
 849:./stm32f10x_libraries/CMSIS/CM3/CoreSupport/core_cm3.h **** 
 850:./stm32f10x_libraries/CMSIS/CM3/CoreSupport/core_cm3.h **** 
 851:./stm32f10x_libraries/CMSIS/CM3/CoreSupport/core_cm3.h **** #if (__ARMCC_VERSION < 400000)
 852:./stm32f10x_libraries/CMSIS/CM3/CoreSupport/core_cm3.h **** 
 853:./stm32f10x_libraries/CMSIS/CM3/CoreSupport/core_cm3.h **** /**
 854:./stm32f10x_libraries/CMSIS/CM3/CoreSupport/core_cm3.h ****  * @brief  Remove the exclusive lock created by ldrex
 855:./stm32f10x_libraries/CMSIS/CM3/CoreSupport/core_cm3.h ****  *
 856:./stm32f10x_libraries/CMSIS/CM3/CoreSupport/core_cm3.h ****  * Removes the exclusive lock which is created by ldrex.
 857:./stm32f10x_libraries/CMSIS/CM3/CoreSupport/core_cm3.h ****  */
 858:./stm32f10x_libraries/CMSIS/CM3/CoreSupport/core_cm3.h **** extern void __CLREX(void);
 859:./stm32f10x_libraries/CMSIS/CM3/CoreSupport/core_cm3.h **** 
 860:./stm32f10x_libraries/CMSIS/CM3/CoreSupport/core_cm3.h **** /**
 861:./stm32f10x_libraries/CMSIS/CM3/CoreSupport/core_cm3.h ****  * @brief  Return the Base Priority value
 862:./stm32f10x_libraries/CMSIS/CM3/CoreSupport/core_cm3.h ****  *
 863:./stm32f10x_libraries/CMSIS/CM3/CoreSupport/core_cm3.h ****  * @return BasePriority
 864:./stm32f10x_libraries/CMSIS/CM3/CoreSupport/core_cm3.h ****  *
 865:./stm32f10x_libraries/CMSIS/CM3/CoreSupport/core_cm3.h ****  * Return the content of the base priority register
 866:./stm32f10x_libraries/CMSIS/CM3/CoreSupport/core_cm3.h ****  */
 867:./stm32f10x_libraries/CMSIS/CM3/CoreSupport/core_cm3.h **** extern uint32_t __get_BASEPRI(void);
 868:./stm32f10x_libraries/CMSIS/CM3/CoreSupport/core_cm3.h **** 
 869:./stm32f10x_libraries/CMSIS/CM3/CoreSupport/core_cm3.h **** /**
 870:./stm32f10x_libraries/CMSIS/CM3/CoreSupport/core_cm3.h ****  * @brief  Set the Base Priority value
 871:./stm32f10x_libraries/CMSIS/CM3/CoreSupport/core_cm3.h ****  *
 872:./stm32f10x_libraries/CMSIS/CM3/CoreSupport/core_cm3.h ****  * @param  basePri  BasePriority
 873:./stm32f10x_libraries/CMSIS/CM3/CoreSupport/core_cm3.h ****  *
 874:./stm32f10x_libraries/CMSIS/CM3/CoreSupport/core_cm3.h ****  * Set the base priority register
 875:./stm32f10x_libraries/CMSIS/CM3/CoreSupport/core_cm3.h ****  */
 876:./stm32f10x_libraries/CMSIS/CM3/CoreSupport/core_cm3.h **** extern void __set_BASEPRI(uint32_t basePri);
 877:./stm32f10x_libraries/CMSIS/CM3/CoreSupport/core_cm3.h **** 
 878:./stm32f10x_libraries/CMSIS/CM3/CoreSupport/core_cm3.h **** /**
 879:./stm32f10x_libraries/CMSIS/CM3/CoreSupport/core_cm3.h ****  * @brief  Return the Priority Mask value
 880:./stm32f10x_libraries/CMSIS/CM3/CoreSupport/core_cm3.h ****  *
 881:./stm32f10x_libraries/CMSIS/CM3/CoreSupport/core_cm3.h ****  * @return PriMask
 882:./stm32f10x_libraries/CMSIS/CM3/CoreSupport/core_cm3.h ****  *
 883:./stm32f10x_libraries/CMSIS/CM3/CoreSupport/core_cm3.h ****  * Return state of the priority mask bit from the priority mask register
 884:./stm32f10x_libraries/CMSIS/CM3/CoreSupport/core_cm3.h ****  */
 885:./stm32f10x_libraries/CMSIS/CM3/CoreSupport/core_cm3.h **** extern uint32_t __get_PRIMASK(void);
 886:./stm32f10x_libraries/CMSIS/CM3/CoreSupport/core_cm3.h **** 
ARM GAS  C:\Users\user\AppData\Local\Temp\ccH9wMRW.s 			page 22


 887:./stm32f10x_libraries/CMSIS/CM3/CoreSupport/core_cm3.h **** /**
 888:./stm32f10x_libraries/CMSIS/CM3/CoreSupport/core_cm3.h ****  * @brief  Set the Priority Mask value
 889:./stm32f10x_libraries/CMSIS/CM3/CoreSupport/core_cm3.h ****  *
 890:./stm32f10x_libraries/CMSIS/CM3/CoreSupport/core_cm3.h ****  * @param   priMask  PriMask
 891:./stm32f10x_libraries/CMSIS/CM3/CoreSupport/core_cm3.h ****  *
 892:./stm32f10x_libraries/CMSIS/CM3/CoreSupport/core_cm3.h ****  * Set the priority mask bit in the priority mask register
 893:./stm32f10x_libraries/CMSIS/CM3/CoreSupport/core_cm3.h ****  */
 894:./stm32f10x_libraries/CMSIS/CM3/CoreSupport/core_cm3.h **** extern void __set_PRIMASK(uint32_t priMask);
 895:./stm32f10x_libraries/CMSIS/CM3/CoreSupport/core_cm3.h **** 
 896:./stm32f10x_libraries/CMSIS/CM3/CoreSupport/core_cm3.h **** /**
 897:./stm32f10x_libraries/CMSIS/CM3/CoreSupport/core_cm3.h ****  * @brief  Return the Fault Mask value
 898:./stm32f10x_libraries/CMSIS/CM3/CoreSupport/core_cm3.h ****  *
 899:./stm32f10x_libraries/CMSIS/CM3/CoreSupport/core_cm3.h ****  * @return FaultMask
 900:./stm32f10x_libraries/CMSIS/CM3/CoreSupport/core_cm3.h ****  *
 901:./stm32f10x_libraries/CMSIS/CM3/CoreSupport/core_cm3.h ****  * Return the content of the fault mask register
 902:./stm32f10x_libraries/CMSIS/CM3/CoreSupport/core_cm3.h ****  */
 903:./stm32f10x_libraries/CMSIS/CM3/CoreSupport/core_cm3.h **** extern uint32_t __get_FAULTMASK(void);
 904:./stm32f10x_libraries/CMSIS/CM3/CoreSupport/core_cm3.h **** 
 905:./stm32f10x_libraries/CMSIS/CM3/CoreSupport/core_cm3.h **** /**
 906:./stm32f10x_libraries/CMSIS/CM3/CoreSupport/core_cm3.h ****  * @brief  Set the Fault Mask value
 907:./stm32f10x_libraries/CMSIS/CM3/CoreSupport/core_cm3.h ****  *
 908:./stm32f10x_libraries/CMSIS/CM3/CoreSupport/core_cm3.h ****  * @param  faultMask faultMask value
 909:./stm32f10x_libraries/CMSIS/CM3/CoreSupport/core_cm3.h ****  *
 910:./stm32f10x_libraries/CMSIS/CM3/CoreSupport/core_cm3.h ****  * Set the fault mask register
 911:./stm32f10x_libraries/CMSIS/CM3/CoreSupport/core_cm3.h ****  */
 912:./stm32f10x_libraries/CMSIS/CM3/CoreSupport/core_cm3.h **** extern void __set_FAULTMASK(uint32_t faultMask);
 913:./stm32f10x_libraries/CMSIS/CM3/CoreSupport/core_cm3.h **** 
 914:./stm32f10x_libraries/CMSIS/CM3/CoreSupport/core_cm3.h **** /**
 915:./stm32f10x_libraries/CMSIS/CM3/CoreSupport/core_cm3.h ****  * @brief  Return the Control Register value
 916:./stm32f10x_libraries/CMSIS/CM3/CoreSupport/core_cm3.h ****  * 
 917:./stm32f10x_libraries/CMSIS/CM3/CoreSupport/core_cm3.h ****  * @return Control value
 918:./stm32f10x_libraries/CMSIS/CM3/CoreSupport/core_cm3.h ****  *
 919:./stm32f10x_libraries/CMSIS/CM3/CoreSupport/core_cm3.h ****  * Return the content of the control register
 920:./stm32f10x_libraries/CMSIS/CM3/CoreSupport/core_cm3.h ****  */
 921:./stm32f10x_libraries/CMSIS/CM3/CoreSupport/core_cm3.h **** extern uint32_t __get_CONTROL(void);
 922:./stm32f10x_libraries/CMSIS/CM3/CoreSupport/core_cm3.h **** 
 923:./stm32f10x_libraries/CMSIS/CM3/CoreSupport/core_cm3.h **** /**
 924:./stm32f10x_libraries/CMSIS/CM3/CoreSupport/core_cm3.h ****  * @brief  Set the Control Register value
 925:./stm32f10x_libraries/CMSIS/CM3/CoreSupport/core_cm3.h ****  *
 926:./stm32f10x_libraries/CMSIS/CM3/CoreSupport/core_cm3.h ****  * @param  control  Control value
 927:./stm32f10x_libraries/CMSIS/CM3/CoreSupport/core_cm3.h ****  *
 928:./stm32f10x_libraries/CMSIS/CM3/CoreSupport/core_cm3.h ****  * Set the control register
 929:./stm32f10x_libraries/CMSIS/CM3/CoreSupport/core_cm3.h ****  */
 930:./stm32f10x_libraries/CMSIS/CM3/CoreSupport/core_cm3.h **** extern void __set_CONTROL(uint32_t control);
 931:./stm32f10x_libraries/CMSIS/CM3/CoreSupport/core_cm3.h **** 
 932:./stm32f10x_libraries/CMSIS/CM3/CoreSupport/core_cm3.h **** #else  /* (__ARMCC_VERSION >= 400000)  */
 933:./stm32f10x_libraries/CMSIS/CM3/CoreSupport/core_cm3.h **** 
 934:./stm32f10x_libraries/CMSIS/CM3/CoreSupport/core_cm3.h **** /**
 935:./stm32f10x_libraries/CMSIS/CM3/CoreSupport/core_cm3.h ****  * @brief  Remove the exclusive lock created by ldrex
 936:./stm32f10x_libraries/CMSIS/CM3/CoreSupport/core_cm3.h ****  *
 937:./stm32f10x_libraries/CMSIS/CM3/CoreSupport/core_cm3.h ****  * Removes the exclusive lock which is created by ldrex.
 938:./stm32f10x_libraries/CMSIS/CM3/CoreSupport/core_cm3.h ****  */
 939:./stm32f10x_libraries/CMSIS/CM3/CoreSupport/core_cm3.h **** #define __CLREX                           __clrex
 940:./stm32f10x_libraries/CMSIS/CM3/CoreSupport/core_cm3.h **** 
 941:./stm32f10x_libraries/CMSIS/CM3/CoreSupport/core_cm3.h **** /**
 942:./stm32f10x_libraries/CMSIS/CM3/CoreSupport/core_cm3.h ****  * @brief  Return the Base Priority value
 943:./stm32f10x_libraries/CMSIS/CM3/CoreSupport/core_cm3.h ****  *
ARM GAS  C:\Users\user\AppData\Local\Temp\ccH9wMRW.s 			page 23


 944:./stm32f10x_libraries/CMSIS/CM3/CoreSupport/core_cm3.h ****  * @return BasePriority
 945:./stm32f10x_libraries/CMSIS/CM3/CoreSupport/core_cm3.h ****  *
 946:./stm32f10x_libraries/CMSIS/CM3/CoreSupport/core_cm3.h ****  * Return the content of the base priority register
 947:./stm32f10x_libraries/CMSIS/CM3/CoreSupport/core_cm3.h ****  */
 948:./stm32f10x_libraries/CMSIS/CM3/CoreSupport/core_cm3.h **** static __INLINE uint32_t  __get_BASEPRI(void)
 949:./stm32f10x_libraries/CMSIS/CM3/CoreSupport/core_cm3.h **** {
 950:./stm32f10x_libraries/CMSIS/CM3/CoreSupport/core_cm3.h ****   register uint32_t __regBasePri         __ASM("basepri");
 951:./stm32f10x_libraries/CMSIS/CM3/CoreSupport/core_cm3.h ****   return(__regBasePri);
 952:./stm32f10x_libraries/CMSIS/CM3/CoreSupport/core_cm3.h **** }
 953:./stm32f10x_libraries/CMSIS/CM3/CoreSupport/core_cm3.h **** 
 954:./stm32f10x_libraries/CMSIS/CM3/CoreSupport/core_cm3.h **** /**
 955:./stm32f10x_libraries/CMSIS/CM3/CoreSupport/core_cm3.h ****  * @brief  Set the Base Priority value
 956:./stm32f10x_libraries/CMSIS/CM3/CoreSupport/core_cm3.h ****  *
 957:./stm32f10x_libraries/CMSIS/CM3/CoreSupport/core_cm3.h ****  * @param  basePri  BasePriority
 958:./stm32f10x_libraries/CMSIS/CM3/CoreSupport/core_cm3.h ****  *
 959:./stm32f10x_libraries/CMSIS/CM3/CoreSupport/core_cm3.h ****  * Set the base priority register
 960:./stm32f10x_libraries/CMSIS/CM3/CoreSupport/core_cm3.h ****  */
 961:./stm32f10x_libraries/CMSIS/CM3/CoreSupport/core_cm3.h **** static __INLINE void __set_BASEPRI(uint32_t basePri)
 962:./stm32f10x_libraries/CMSIS/CM3/CoreSupport/core_cm3.h **** {
 963:./stm32f10x_libraries/CMSIS/CM3/CoreSupport/core_cm3.h ****   register uint32_t __regBasePri         __ASM("basepri");
 964:./stm32f10x_libraries/CMSIS/CM3/CoreSupport/core_cm3.h ****   __regBasePri = (basePri & 0xff);
 965:./stm32f10x_libraries/CMSIS/CM3/CoreSupport/core_cm3.h **** }
 966:./stm32f10x_libraries/CMSIS/CM3/CoreSupport/core_cm3.h **** 
 967:./stm32f10x_libraries/CMSIS/CM3/CoreSupport/core_cm3.h **** /**
 968:./stm32f10x_libraries/CMSIS/CM3/CoreSupport/core_cm3.h ****  * @brief  Return the Priority Mask value
 969:./stm32f10x_libraries/CMSIS/CM3/CoreSupport/core_cm3.h ****  *
 970:./stm32f10x_libraries/CMSIS/CM3/CoreSupport/core_cm3.h ****  * @return PriMask
 971:./stm32f10x_libraries/CMSIS/CM3/CoreSupport/core_cm3.h ****  *
 972:./stm32f10x_libraries/CMSIS/CM3/CoreSupport/core_cm3.h ****  * Return state of the priority mask bit from the priority mask register
 973:./stm32f10x_libraries/CMSIS/CM3/CoreSupport/core_cm3.h ****  */
 974:./stm32f10x_libraries/CMSIS/CM3/CoreSupport/core_cm3.h **** static __INLINE uint32_t __get_PRIMASK(void)
 975:./stm32f10x_libraries/CMSIS/CM3/CoreSupport/core_cm3.h **** {
 976:./stm32f10x_libraries/CMSIS/CM3/CoreSupport/core_cm3.h ****   register uint32_t __regPriMask         __ASM("primask");
 977:./stm32f10x_libraries/CMSIS/CM3/CoreSupport/core_cm3.h ****   return(__regPriMask);
 978:./stm32f10x_libraries/CMSIS/CM3/CoreSupport/core_cm3.h **** }
 979:./stm32f10x_libraries/CMSIS/CM3/CoreSupport/core_cm3.h **** 
 980:./stm32f10x_libraries/CMSIS/CM3/CoreSupport/core_cm3.h **** /**
 981:./stm32f10x_libraries/CMSIS/CM3/CoreSupport/core_cm3.h ****  * @brief  Set the Priority Mask value
 982:./stm32f10x_libraries/CMSIS/CM3/CoreSupport/core_cm3.h ****  *
 983:./stm32f10x_libraries/CMSIS/CM3/CoreSupport/core_cm3.h ****  * @param  priMask  PriMask
 984:./stm32f10x_libraries/CMSIS/CM3/CoreSupport/core_cm3.h ****  *
 985:./stm32f10x_libraries/CMSIS/CM3/CoreSupport/core_cm3.h ****  * Set the priority mask bit in the priority mask register
 986:./stm32f10x_libraries/CMSIS/CM3/CoreSupport/core_cm3.h ****  */
 987:./stm32f10x_libraries/CMSIS/CM3/CoreSupport/core_cm3.h **** static __INLINE void __set_PRIMASK(uint32_t priMask)
 988:./stm32f10x_libraries/CMSIS/CM3/CoreSupport/core_cm3.h **** {
 989:./stm32f10x_libraries/CMSIS/CM3/CoreSupport/core_cm3.h ****   register uint32_t __regPriMask         __ASM("primask");
 990:./stm32f10x_libraries/CMSIS/CM3/CoreSupport/core_cm3.h ****   __regPriMask = (priMask);
 991:./stm32f10x_libraries/CMSIS/CM3/CoreSupport/core_cm3.h **** }
 992:./stm32f10x_libraries/CMSIS/CM3/CoreSupport/core_cm3.h **** 
 993:./stm32f10x_libraries/CMSIS/CM3/CoreSupport/core_cm3.h **** /**
 994:./stm32f10x_libraries/CMSIS/CM3/CoreSupport/core_cm3.h ****  * @brief  Return the Fault Mask value
 995:./stm32f10x_libraries/CMSIS/CM3/CoreSupport/core_cm3.h ****  *
 996:./stm32f10x_libraries/CMSIS/CM3/CoreSupport/core_cm3.h ****  * @return FaultMask
 997:./stm32f10x_libraries/CMSIS/CM3/CoreSupport/core_cm3.h ****  *
 998:./stm32f10x_libraries/CMSIS/CM3/CoreSupport/core_cm3.h ****  * Return the content of the fault mask register
 999:./stm32f10x_libraries/CMSIS/CM3/CoreSupport/core_cm3.h ****  */
1000:./stm32f10x_libraries/CMSIS/CM3/CoreSupport/core_cm3.h **** static __INLINE uint32_t __get_FAULTMASK(void)
ARM GAS  C:\Users\user\AppData\Local\Temp\ccH9wMRW.s 			page 24


1001:./stm32f10x_libraries/CMSIS/CM3/CoreSupport/core_cm3.h **** {
1002:./stm32f10x_libraries/CMSIS/CM3/CoreSupport/core_cm3.h ****   register uint32_t __regFaultMask       __ASM("faultmask");
1003:./stm32f10x_libraries/CMSIS/CM3/CoreSupport/core_cm3.h ****   return(__regFaultMask);
1004:./stm32f10x_libraries/CMSIS/CM3/CoreSupport/core_cm3.h **** }
1005:./stm32f10x_libraries/CMSIS/CM3/CoreSupport/core_cm3.h **** 
1006:./stm32f10x_libraries/CMSIS/CM3/CoreSupport/core_cm3.h **** /**
1007:./stm32f10x_libraries/CMSIS/CM3/CoreSupport/core_cm3.h ****  * @brief  Set the Fault Mask value
1008:./stm32f10x_libraries/CMSIS/CM3/CoreSupport/core_cm3.h ****  *
1009:./stm32f10x_libraries/CMSIS/CM3/CoreSupport/core_cm3.h ****  * @param  faultMask  faultMask value
1010:./stm32f10x_libraries/CMSIS/CM3/CoreSupport/core_cm3.h ****  *
1011:./stm32f10x_libraries/CMSIS/CM3/CoreSupport/core_cm3.h ****  * Set the fault mask register
1012:./stm32f10x_libraries/CMSIS/CM3/CoreSupport/core_cm3.h ****  */
1013:./stm32f10x_libraries/CMSIS/CM3/CoreSupport/core_cm3.h **** static __INLINE void __set_FAULTMASK(uint32_t faultMask)
1014:./stm32f10x_libraries/CMSIS/CM3/CoreSupport/core_cm3.h **** {
1015:./stm32f10x_libraries/CMSIS/CM3/CoreSupport/core_cm3.h ****   register uint32_t __regFaultMask       __ASM("faultmask");
1016:./stm32f10x_libraries/CMSIS/CM3/CoreSupport/core_cm3.h ****   __regFaultMask = (faultMask & 1);
1017:./stm32f10x_libraries/CMSIS/CM3/CoreSupport/core_cm3.h **** }
1018:./stm32f10x_libraries/CMSIS/CM3/CoreSupport/core_cm3.h **** 
1019:./stm32f10x_libraries/CMSIS/CM3/CoreSupport/core_cm3.h **** /**
1020:./stm32f10x_libraries/CMSIS/CM3/CoreSupport/core_cm3.h ****  * @brief  Return the Control Register value
1021:./stm32f10x_libraries/CMSIS/CM3/CoreSupport/core_cm3.h ****  * 
1022:./stm32f10x_libraries/CMSIS/CM3/CoreSupport/core_cm3.h ****  * @return Control value
1023:./stm32f10x_libraries/CMSIS/CM3/CoreSupport/core_cm3.h ****  *
1024:./stm32f10x_libraries/CMSIS/CM3/CoreSupport/core_cm3.h ****  * Return the content of the control register
1025:./stm32f10x_libraries/CMSIS/CM3/CoreSupport/core_cm3.h ****  */
1026:./stm32f10x_libraries/CMSIS/CM3/CoreSupport/core_cm3.h **** static __INLINE uint32_t __get_CONTROL(void)
1027:./stm32f10x_libraries/CMSIS/CM3/CoreSupport/core_cm3.h **** {
1028:./stm32f10x_libraries/CMSIS/CM3/CoreSupport/core_cm3.h ****   register uint32_t __regControl         __ASM("control");
1029:./stm32f10x_libraries/CMSIS/CM3/CoreSupport/core_cm3.h ****   return(__regControl);
1030:./stm32f10x_libraries/CMSIS/CM3/CoreSupport/core_cm3.h **** }
1031:./stm32f10x_libraries/CMSIS/CM3/CoreSupport/core_cm3.h **** 
1032:./stm32f10x_libraries/CMSIS/CM3/CoreSupport/core_cm3.h **** /**
1033:./stm32f10x_libraries/CMSIS/CM3/CoreSupport/core_cm3.h ****  * @brief  Set the Control Register value
1034:./stm32f10x_libraries/CMSIS/CM3/CoreSupport/core_cm3.h ****  *
1035:./stm32f10x_libraries/CMSIS/CM3/CoreSupport/core_cm3.h ****  * @param  control  Control value
1036:./stm32f10x_libraries/CMSIS/CM3/CoreSupport/core_cm3.h ****  *
1037:./stm32f10x_libraries/CMSIS/CM3/CoreSupport/core_cm3.h ****  * Set the control register
1038:./stm32f10x_libraries/CMSIS/CM3/CoreSupport/core_cm3.h ****  */
1039:./stm32f10x_libraries/CMSIS/CM3/CoreSupport/core_cm3.h **** static __INLINE void __set_CONTROL(uint32_t control)
1040:./stm32f10x_libraries/CMSIS/CM3/CoreSupport/core_cm3.h **** {
1041:./stm32f10x_libraries/CMSIS/CM3/CoreSupport/core_cm3.h ****   register uint32_t __regControl         __ASM("control");
1042:./stm32f10x_libraries/CMSIS/CM3/CoreSupport/core_cm3.h ****   __regControl = control;
1043:./stm32f10x_libraries/CMSIS/CM3/CoreSupport/core_cm3.h **** }
1044:./stm32f10x_libraries/CMSIS/CM3/CoreSupport/core_cm3.h **** 
1045:./stm32f10x_libraries/CMSIS/CM3/CoreSupport/core_cm3.h **** #endif /* __ARMCC_VERSION  */ 
1046:./stm32f10x_libraries/CMSIS/CM3/CoreSupport/core_cm3.h **** 
1047:./stm32f10x_libraries/CMSIS/CM3/CoreSupport/core_cm3.h **** 
1048:./stm32f10x_libraries/CMSIS/CM3/CoreSupport/core_cm3.h **** 
1049:./stm32f10x_libraries/CMSIS/CM3/CoreSupport/core_cm3.h **** #elif (defined (__ICCARM__)) /*------------------ ICC Compiler -------------------*/
1050:./stm32f10x_libraries/CMSIS/CM3/CoreSupport/core_cm3.h **** /* IAR iccarm specific functions */
1051:./stm32f10x_libraries/CMSIS/CM3/CoreSupport/core_cm3.h **** 
1052:./stm32f10x_libraries/CMSIS/CM3/CoreSupport/core_cm3.h **** #define __enable_irq                              __enable_interrupt        /*!< global Interrupt e
1053:./stm32f10x_libraries/CMSIS/CM3/CoreSupport/core_cm3.h **** #define __disable_irq                             __disable_interrupt       /*!< global Interrupt d
1054:./stm32f10x_libraries/CMSIS/CM3/CoreSupport/core_cm3.h **** 
1055:./stm32f10x_libraries/CMSIS/CM3/CoreSupport/core_cm3.h **** static __INLINE void __enable_fault_irq()         { __ASM ("cpsie f"); }
1056:./stm32f10x_libraries/CMSIS/CM3/CoreSupport/core_cm3.h **** static __INLINE void __disable_fault_irq()        { __ASM ("cpsid f"); }
1057:./stm32f10x_libraries/CMSIS/CM3/CoreSupport/core_cm3.h **** 
ARM GAS  C:\Users\user\AppData\Local\Temp\ccH9wMRW.s 			page 25


1058:./stm32f10x_libraries/CMSIS/CM3/CoreSupport/core_cm3.h **** #define __NOP                                     __no_operation            /*!< no operation intri
1059:./stm32f10x_libraries/CMSIS/CM3/CoreSupport/core_cm3.h **** static __INLINE  void __WFI()                     { __ASM ("wfi"); }
1060:./stm32f10x_libraries/CMSIS/CM3/CoreSupport/core_cm3.h **** static __INLINE  void __WFE()                     { __ASM ("wfe"); }
1061:./stm32f10x_libraries/CMSIS/CM3/CoreSupport/core_cm3.h **** static __INLINE  void __SEV()                     { __ASM ("sev"); }
1062:./stm32f10x_libraries/CMSIS/CM3/CoreSupport/core_cm3.h **** static __INLINE  void __CLREX()                   { __ASM ("clrex"); }
1063:./stm32f10x_libraries/CMSIS/CM3/CoreSupport/core_cm3.h **** 
1064:./stm32f10x_libraries/CMSIS/CM3/CoreSupport/core_cm3.h **** /* intrinsic void __ISB(void)                                     */
1065:./stm32f10x_libraries/CMSIS/CM3/CoreSupport/core_cm3.h **** /* intrinsic void __DSB(void)                                     */
1066:./stm32f10x_libraries/CMSIS/CM3/CoreSupport/core_cm3.h **** /* intrinsic void __DMB(void)                                     */
1067:./stm32f10x_libraries/CMSIS/CM3/CoreSupport/core_cm3.h **** /* intrinsic void __set_PRIMASK();                                */
1068:./stm32f10x_libraries/CMSIS/CM3/CoreSupport/core_cm3.h **** /* intrinsic void __get_PRIMASK();                                */
1069:./stm32f10x_libraries/CMSIS/CM3/CoreSupport/core_cm3.h **** /* intrinsic void __set_FAULTMASK();                              */
1070:./stm32f10x_libraries/CMSIS/CM3/CoreSupport/core_cm3.h **** /* intrinsic void __get_FAULTMASK();                              */
1071:./stm32f10x_libraries/CMSIS/CM3/CoreSupport/core_cm3.h **** /* intrinsic uint32_t __REV(uint32_t value);                      */
1072:./stm32f10x_libraries/CMSIS/CM3/CoreSupport/core_cm3.h **** /* intrinsic uint32_t __REVSH(uint32_t value);                    */
1073:./stm32f10x_libraries/CMSIS/CM3/CoreSupport/core_cm3.h **** /* intrinsic unsigned long __STREX(unsigned long, unsigned long); */
1074:./stm32f10x_libraries/CMSIS/CM3/CoreSupport/core_cm3.h **** /* intrinsic unsigned long __LDREX(unsigned long *);              */
1075:./stm32f10x_libraries/CMSIS/CM3/CoreSupport/core_cm3.h **** 
1076:./stm32f10x_libraries/CMSIS/CM3/CoreSupport/core_cm3.h **** 
1077:./stm32f10x_libraries/CMSIS/CM3/CoreSupport/core_cm3.h **** /**
1078:./stm32f10x_libraries/CMSIS/CM3/CoreSupport/core_cm3.h ****  * @brief  Return the Process Stack Pointer
1079:./stm32f10x_libraries/CMSIS/CM3/CoreSupport/core_cm3.h ****  *
1080:./stm32f10x_libraries/CMSIS/CM3/CoreSupport/core_cm3.h ****  * @return ProcessStackPointer
1081:./stm32f10x_libraries/CMSIS/CM3/CoreSupport/core_cm3.h ****  *
1082:./stm32f10x_libraries/CMSIS/CM3/CoreSupport/core_cm3.h ****  * Return the actual process stack pointer
1083:./stm32f10x_libraries/CMSIS/CM3/CoreSupport/core_cm3.h ****  */
1084:./stm32f10x_libraries/CMSIS/CM3/CoreSupport/core_cm3.h **** extern uint32_t __get_PSP(void);
1085:./stm32f10x_libraries/CMSIS/CM3/CoreSupport/core_cm3.h **** 
1086:./stm32f10x_libraries/CMSIS/CM3/CoreSupport/core_cm3.h **** /**
1087:./stm32f10x_libraries/CMSIS/CM3/CoreSupport/core_cm3.h ****  * @brief  Set the Process Stack Pointer
1088:./stm32f10x_libraries/CMSIS/CM3/CoreSupport/core_cm3.h ****  *
1089:./stm32f10x_libraries/CMSIS/CM3/CoreSupport/core_cm3.h ****  * @param  topOfProcStack  Process Stack Pointer
1090:./stm32f10x_libraries/CMSIS/CM3/CoreSupport/core_cm3.h ****  *
1091:./stm32f10x_libraries/CMSIS/CM3/CoreSupport/core_cm3.h ****  * Assign the value ProcessStackPointer to the MSP 
1092:./stm32f10x_libraries/CMSIS/CM3/CoreSupport/core_cm3.h ****  * (process stack pointer) Cortex processor register
1093:./stm32f10x_libraries/CMSIS/CM3/CoreSupport/core_cm3.h ****  */
1094:./stm32f10x_libraries/CMSIS/CM3/CoreSupport/core_cm3.h **** extern void __set_PSP(uint32_t topOfProcStack);
1095:./stm32f10x_libraries/CMSIS/CM3/CoreSupport/core_cm3.h **** 
1096:./stm32f10x_libraries/CMSIS/CM3/CoreSupport/core_cm3.h **** /**
1097:./stm32f10x_libraries/CMSIS/CM3/CoreSupport/core_cm3.h ****  * @brief  Return the Main Stack Pointer
1098:./stm32f10x_libraries/CMSIS/CM3/CoreSupport/core_cm3.h ****  *
1099:./stm32f10x_libraries/CMSIS/CM3/CoreSupport/core_cm3.h ****  * @return Main Stack Pointer
1100:./stm32f10x_libraries/CMSIS/CM3/CoreSupport/core_cm3.h ****  *
1101:./stm32f10x_libraries/CMSIS/CM3/CoreSupport/core_cm3.h ****  * Return the current value of the MSP (main stack pointer)
1102:./stm32f10x_libraries/CMSIS/CM3/CoreSupport/core_cm3.h ****  * Cortex processor register
1103:./stm32f10x_libraries/CMSIS/CM3/CoreSupport/core_cm3.h ****  */
1104:./stm32f10x_libraries/CMSIS/CM3/CoreSupport/core_cm3.h **** extern uint32_t __get_MSP(void);
1105:./stm32f10x_libraries/CMSIS/CM3/CoreSupport/core_cm3.h **** 
1106:./stm32f10x_libraries/CMSIS/CM3/CoreSupport/core_cm3.h **** /**
1107:./stm32f10x_libraries/CMSIS/CM3/CoreSupport/core_cm3.h ****  * @brief  Set the Main Stack Pointer
1108:./stm32f10x_libraries/CMSIS/CM3/CoreSupport/core_cm3.h ****  *
1109:./stm32f10x_libraries/CMSIS/CM3/CoreSupport/core_cm3.h ****  * @param  topOfMainStack  Main Stack Pointer
1110:./stm32f10x_libraries/CMSIS/CM3/CoreSupport/core_cm3.h ****  *
1111:./stm32f10x_libraries/CMSIS/CM3/CoreSupport/core_cm3.h ****  * Assign the value mainStackPointer to the MSP 
1112:./stm32f10x_libraries/CMSIS/CM3/CoreSupport/core_cm3.h ****  * (main stack pointer) Cortex processor register
1113:./stm32f10x_libraries/CMSIS/CM3/CoreSupport/core_cm3.h ****  */
1114:./stm32f10x_libraries/CMSIS/CM3/CoreSupport/core_cm3.h **** extern void __set_MSP(uint32_t topOfMainStack);
ARM GAS  C:\Users\user\AppData\Local\Temp\ccH9wMRW.s 			page 26


1115:./stm32f10x_libraries/CMSIS/CM3/CoreSupport/core_cm3.h **** 
1116:./stm32f10x_libraries/CMSIS/CM3/CoreSupport/core_cm3.h **** /**
1117:./stm32f10x_libraries/CMSIS/CM3/CoreSupport/core_cm3.h ****  * @brief  Reverse byte order in unsigned short value
1118:./stm32f10x_libraries/CMSIS/CM3/CoreSupport/core_cm3.h ****  *
1119:./stm32f10x_libraries/CMSIS/CM3/CoreSupport/core_cm3.h ****  * @param  value  value to reverse
1120:./stm32f10x_libraries/CMSIS/CM3/CoreSupport/core_cm3.h ****  * @return        reversed value
1121:./stm32f10x_libraries/CMSIS/CM3/CoreSupport/core_cm3.h ****  *
1122:./stm32f10x_libraries/CMSIS/CM3/CoreSupport/core_cm3.h ****  * Reverse byte order in unsigned short value
1123:./stm32f10x_libraries/CMSIS/CM3/CoreSupport/core_cm3.h ****  */
1124:./stm32f10x_libraries/CMSIS/CM3/CoreSupport/core_cm3.h **** extern uint32_t __REV16(uint16_t value);
1125:./stm32f10x_libraries/CMSIS/CM3/CoreSupport/core_cm3.h **** 
1126:./stm32f10x_libraries/CMSIS/CM3/CoreSupport/core_cm3.h **** /**
1127:./stm32f10x_libraries/CMSIS/CM3/CoreSupport/core_cm3.h ****  * @brief  Reverse bit order of value
1128:./stm32f10x_libraries/CMSIS/CM3/CoreSupport/core_cm3.h ****  *
1129:./stm32f10x_libraries/CMSIS/CM3/CoreSupport/core_cm3.h ****  * @param  value  value to reverse
1130:./stm32f10x_libraries/CMSIS/CM3/CoreSupport/core_cm3.h ****  * @return        reversed value
1131:./stm32f10x_libraries/CMSIS/CM3/CoreSupport/core_cm3.h ****  *
1132:./stm32f10x_libraries/CMSIS/CM3/CoreSupport/core_cm3.h ****  * Reverse bit order of value
1133:./stm32f10x_libraries/CMSIS/CM3/CoreSupport/core_cm3.h ****  */
1134:./stm32f10x_libraries/CMSIS/CM3/CoreSupport/core_cm3.h **** extern uint32_t __RBIT(uint32_t value);
1135:./stm32f10x_libraries/CMSIS/CM3/CoreSupport/core_cm3.h **** 
1136:./stm32f10x_libraries/CMSIS/CM3/CoreSupport/core_cm3.h **** /**
1137:./stm32f10x_libraries/CMSIS/CM3/CoreSupport/core_cm3.h ****  * @brief  LDR Exclusive (8 bit)
1138:./stm32f10x_libraries/CMSIS/CM3/CoreSupport/core_cm3.h ****  *
1139:./stm32f10x_libraries/CMSIS/CM3/CoreSupport/core_cm3.h ****  * @param  *addr  address pointer
1140:./stm32f10x_libraries/CMSIS/CM3/CoreSupport/core_cm3.h ****  * @return        value of (*address)
1141:./stm32f10x_libraries/CMSIS/CM3/CoreSupport/core_cm3.h ****  *
1142:./stm32f10x_libraries/CMSIS/CM3/CoreSupport/core_cm3.h ****  * Exclusive LDR command for 8 bit values)
1143:./stm32f10x_libraries/CMSIS/CM3/CoreSupport/core_cm3.h ****  */
1144:./stm32f10x_libraries/CMSIS/CM3/CoreSupport/core_cm3.h **** extern uint8_t __LDREXB(uint8_t *addr);
1145:./stm32f10x_libraries/CMSIS/CM3/CoreSupport/core_cm3.h **** 
1146:./stm32f10x_libraries/CMSIS/CM3/CoreSupport/core_cm3.h **** /**
1147:./stm32f10x_libraries/CMSIS/CM3/CoreSupport/core_cm3.h ****  * @brief  LDR Exclusive (16 bit)
1148:./stm32f10x_libraries/CMSIS/CM3/CoreSupport/core_cm3.h ****  *
1149:./stm32f10x_libraries/CMSIS/CM3/CoreSupport/core_cm3.h ****  * @param  *addr  address pointer
1150:./stm32f10x_libraries/CMSIS/CM3/CoreSupport/core_cm3.h ****  * @return        value of (*address)
1151:./stm32f10x_libraries/CMSIS/CM3/CoreSupport/core_cm3.h ****  *
1152:./stm32f10x_libraries/CMSIS/CM3/CoreSupport/core_cm3.h ****  * Exclusive LDR command for 16 bit values
1153:./stm32f10x_libraries/CMSIS/CM3/CoreSupport/core_cm3.h ****  */
1154:./stm32f10x_libraries/CMSIS/CM3/CoreSupport/core_cm3.h **** extern uint16_t __LDREXH(uint16_t *addr);
1155:./stm32f10x_libraries/CMSIS/CM3/CoreSupport/core_cm3.h **** 
1156:./stm32f10x_libraries/CMSIS/CM3/CoreSupport/core_cm3.h **** /**
1157:./stm32f10x_libraries/CMSIS/CM3/CoreSupport/core_cm3.h ****  * @brief  LDR Exclusive (32 bit)
1158:./stm32f10x_libraries/CMSIS/CM3/CoreSupport/core_cm3.h ****  *
1159:./stm32f10x_libraries/CMSIS/CM3/CoreSupport/core_cm3.h ****  * @param  *addr  address pointer
1160:./stm32f10x_libraries/CMSIS/CM3/CoreSupport/core_cm3.h ****  * @return        value of (*address)
1161:./stm32f10x_libraries/CMSIS/CM3/CoreSupport/core_cm3.h ****  *
1162:./stm32f10x_libraries/CMSIS/CM3/CoreSupport/core_cm3.h ****  * Exclusive LDR command for 32 bit values
1163:./stm32f10x_libraries/CMSIS/CM3/CoreSupport/core_cm3.h ****  */
1164:./stm32f10x_libraries/CMSIS/CM3/CoreSupport/core_cm3.h **** extern uint32_t __LDREXW(uint32_t *addr);
1165:./stm32f10x_libraries/CMSIS/CM3/CoreSupport/core_cm3.h **** 
1166:./stm32f10x_libraries/CMSIS/CM3/CoreSupport/core_cm3.h **** /**
1167:./stm32f10x_libraries/CMSIS/CM3/CoreSupport/core_cm3.h ****  * @brief  STR Exclusive (8 bit)
1168:./stm32f10x_libraries/CMSIS/CM3/CoreSupport/core_cm3.h ****  *
1169:./stm32f10x_libraries/CMSIS/CM3/CoreSupport/core_cm3.h ****  * @param  value  value to store
1170:./stm32f10x_libraries/CMSIS/CM3/CoreSupport/core_cm3.h ****  * @param  *addr  address pointer
1171:./stm32f10x_libraries/CMSIS/CM3/CoreSupport/core_cm3.h ****  * @return        successful / failed
ARM GAS  C:\Users\user\AppData\Local\Temp\ccH9wMRW.s 			page 27


1172:./stm32f10x_libraries/CMSIS/CM3/CoreSupport/core_cm3.h ****  *
1173:./stm32f10x_libraries/CMSIS/CM3/CoreSupport/core_cm3.h ****  * Exclusive STR command for 8 bit values
1174:./stm32f10x_libraries/CMSIS/CM3/CoreSupport/core_cm3.h ****  */
1175:./stm32f10x_libraries/CMSIS/CM3/CoreSupport/core_cm3.h **** extern uint32_t __STREXB(uint8_t value, uint8_t *addr);
1176:./stm32f10x_libraries/CMSIS/CM3/CoreSupport/core_cm3.h **** 
1177:./stm32f10x_libraries/CMSIS/CM3/CoreSupport/core_cm3.h **** /**
1178:./stm32f10x_libraries/CMSIS/CM3/CoreSupport/core_cm3.h ****  * @brief  STR Exclusive (16 bit)
1179:./stm32f10x_libraries/CMSIS/CM3/CoreSupport/core_cm3.h ****  *
1180:./stm32f10x_libraries/CMSIS/CM3/CoreSupport/core_cm3.h ****  * @param  value  value to store
1181:./stm32f10x_libraries/CMSIS/CM3/CoreSupport/core_cm3.h ****  * @param  *addr  address pointer
1182:./stm32f10x_libraries/CMSIS/CM3/CoreSupport/core_cm3.h ****  * @return        successful / failed
1183:./stm32f10x_libraries/CMSIS/CM3/CoreSupport/core_cm3.h ****  *
1184:./stm32f10x_libraries/CMSIS/CM3/CoreSupport/core_cm3.h ****  * Exclusive STR command for 16 bit values
1185:./stm32f10x_libraries/CMSIS/CM3/CoreSupport/core_cm3.h ****  */
1186:./stm32f10x_libraries/CMSIS/CM3/CoreSupport/core_cm3.h **** extern uint32_t __STREXH(uint16_t value, uint16_t *addr);
1187:./stm32f10x_libraries/CMSIS/CM3/CoreSupport/core_cm3.h **** 
1188:./stm32f10x_libraries/CMSIS/CM3/CoreSupport/core_cm3.h **** /**
1189:./stm32f10x_libraries/CMSIS/CM3/CoreSupport/core_cm3.h ****  * @brief  STR Exclusive (32 bit)
1190:./stm32f10x_libraries/CMSIS/CM3/CoreSupport/core_cm3.h ****  *
1191:./stm32f10x_libraries/CMSIS/CM3/CoreSupport/core_cm3.h ****  * @param  value  value to store
1192:./stm32f10x_libraries/CMSIS/CM3/CoreSupport/core_cm3.h ****  * @param  *addr  address pointer
1193:./stm32f10x_libraries/CMSIS/CM3/CoreSupport/core_cm3.h ****  * @return        successful / failed
1194:./stm32f10x_libraries/CMSIS/CM3/CoreSupport/core_cm3.h ****  *
1195:./stm32f10x_libraries/CMSIS/CM3/CoreSupport/core_cm3.h ****  * Exclusive STR command for 32 bit values
1196:./stm32f10x_libraries/CMSIS/CM3/CoreSupport/core_cm3.h ****  */
1197:./stm32f10x_libraries/CMSIS/CM3/CoreSupport/core_cm3.h **** extern uint32_t __STREXW(uint32_t value, uint32_t *addr);
1198:./stm32f10x_libraries/CMSIS/CM3/CoreSupport/core_cm3.h **** 
1199:./stm32f10x_libraries/CMSIS/CM3/CoreSupport/core_cm3.h **** 
1200:./stm32f10x_libraries/CMSIS/CM3/CoreSupport/core_cm3.h **** 
1201:./stm32f10x_libraries/CMSIS/CM3/CoreSupport/core_cm3.h **** #elif (defined (__GNUC__)) /*------------------ GNU Compiler ---------------------*/
1202:./stm32f10x_libraries/CMSIS/CM3/CoreSupport/core_cm3.h **** /* GNU gcc specific functions */
1203:./stm32f10x_libraries/CMSIS/CM3/CoreSupport/core_cm3.h **** 
1204:./stm32f10x_libraries/CMSIS/CM3/CoreSupport/core_cm3.h **** static __INLINE void __enable_irq()               { __ASM volatile ("cpsie i"); }
1205:./stm32f10x_libraries/CMSIS/CM3/CoreSupport/core_cm3.h **** static __INLINE void __disable_irq()              { __ASM volatile ("cpsid i"); }
1206:./stm32f10x_libraries/CMSIS/CM3/CoreSupport/core_cm3.h **** 
1207:./stm32f10x_libraries/CMSIS/CM3/CoreSupport/core_cm3.h **** static __INLINE void __enable_fault_irq()         { __ASM volatile ("cpsie f"); }
1208:./stm32f10x_libraries/CMSIS/CM3/CoreSupport/core_cm3.h **** static __INLINE void __disable_fault_irq()        { __ASM volatile ("cpsid f"); }
1209:./stm32f10x_libraries/CMSIS/CM3/CoreSupport/core_cm3.h **** 
1210:./stm32f10x_libraries/CMSIS/CM3/CoreSupport/core_cm3.h **** static __INLINE void __NOP()                      { __ASM volatile ("nop"); }
1211:./stm32f10x_libraries/CMSIS/CM3/CoreSupport/core_cm3.h **** static __INLINE void __WFI()                      { __ASM volatile ("wfi"); }
1212:./stm32f10x_libraries/CMSIS/CM3/CoreSupport/core_cm3.h **** static __INLINE void __WFE()                      { __ASM volatile ("wfe"); }
1213:./stm32f10x_libraries/CMSIS/CM3/CoreSupport/core_cm3.h **** static __INLINE void __SEV()                      { __ASM volatile ("sev"); }
1214:./stm32f10x_libraries/CMSIS/CM3/CoreSupport/core_cm3.h **** static __INLINE void __ISB()                      { __ASM volatile ("isb"); }
1215:./stm32f10x_libraries/CMSIS/CM3/CoreSupport/core_cm3.h **** static __INLINE void __DSB()                      { __ASM volatile ("dsb"); }
1216:./stm32f10x_libraries/CMSIS/CM3/CoreSupport/core_cm3.h **** static __INLINE void __DMB()                      { __ASM volatile ("dmb"); }
1217:./stm32f10x_libraries/CMSIS/CM3/CoreSupport/core_cm3.h **** static __INLINE void __CLREX()                    { __ASM volatile ("clrex"); }
1218:./stm32f10x_libraries/CMSIS/CM3/CoreSupport/core_cm3.h **** 
1219:./stm32f10x_libraries/CMSIS/CM3/CoreSupport/core_cm3.h **** 
1220:./stm32f10x_libraries/CMSIS/CM3/CoreSupport/core_cm3.h **** /**
1221:./stm32f10x_libraries/CMSIS/CM3/CoreSupport/core_cm3.h ****  * @brief  Return the Process Stack Pointer
1222:./stm32f10x_libraries/CMSIS/CM3/CoreSupport/core_cm3.h ****  *
1223:./stm32f10x_libraries/CMSIS/CM3/CoreSupport/core_cm3.h ****  * @return ProcessStackPointer
1224:./stm32f10x_libraries/CMSIS/CM3/CoreSupport/core_cm3.h ****  *
1225:./stm32f10x_libraries/CMSIS/CM3/CoreSupport/core_cm3.h ****  * Return the actual process stack pointer
1226:./stm32f10x_libraries/CMSIS/CM3/CoreSupport/core_cm3.h ****  */
1227:./stm32f10x_libraries/CMSIS/CM3/CoreSupport/core_cm3.h **** extern uint32_t __get_PSP(void);
1228:./stm32f10x_libraries/CMSIS/CM3/CoreSupport/core_cm3.h **** 
ARM GAS  C:\Users\user\AppData\Local\Temp\ccH9wMRW.s 			page 28


1229:./stm32f10x_libraries/CMSIS/CM3/CoreSupport/core_cm3.h **** /**
1230:./stm32f10x_libraries/CMSIS/CM3/CoreSupport/core_cm3.h ****  * @brief  Set the Process Stack Pointer
1231:./stm32f10x_libraries/CMSIS/CM3/CoreSupport/core_cm3.h ****  *
1232:./stm32f10x_libraries/CMSIS/CM3/CoreSupport/core_cm3.h ****  * @param  topOfProcStack  Process Stack Pointer
1233:./stm32f10x_libraries/CMSIS/CM3/CoreSupport/core_cm3.h ****  *
1234:./stm32f10x_libraries/CMSIS/CM3/CoreSupport/core_cm3.h ****  * Assign the value ProcessStackPointer to the MSP 
1235:./stm32f10x_libraries/CMSIS/CM3/CoreSupport/core_cm3.h ****  * (process stack pointer) Cortex processor register
1236:./stm32f10x_libraries/CMSIS/CM3/CoreSupport/core_cm3.h ****  */
1237:./stm32f10x_libraries/CMSIS/CM3/CoreSupport/core_cm3.h **** extern void __set_PSP(uint32_t topOfProcStack);
1238:./stm32f10x_libraries/CMSIS/CM3/CoreSupport/core_cm3.h **** 
1239:./stm32f10x_libraries/CMSIS/CM3/CoreSupport/core_cm3.h **** /**
1240:./stm32f10x_libraries/CMSIS/CM3/CoreSupport/core_cm3.h ****  * @brief  Return the Main Stack Pointer
1241:./stm32f10x_libraries/CMSIS/CM3/CoreSupport/core_cm3.h ****  *
1242:./stm32f10x_libraries/CMSIS/CM3/CoreSupport/core_cm3.h ****  * @return Main Stack Pointer
1243:./stm32f10x_libraries/CMSIS/CM3/CoreSupport/core_cm3.h ****  *
1244:./stm32f10x_libraries/CMSIS/CM3/CoreSupport/core_cm3.h ****  * Return the current value of the MSP (main stack pointer)
1245:./stm32f10x_libraries/CMSIS/CM3/CoreSupport/core_cm3.h ****  * Cortex processor register
1246:./stm32f10x_libraries/CMSIS/CM3/CoreSupport/core_cm3.h ****  */
1247:./stm32f10x_libraries/CMSIS/CM3/CoreSupport/core_cm3.h **** extern uint32_t __get_MSP(void);
1248:./stm32f10x_libraries/CMSIS/CM3/CoreSupport/core_cm3.h **** 
1249:./stm32f10x_libraries/CMSIS/CM3/CoreSupport/core_cm3.h **** /**
1250:./stm32f10x_libraries/CMSIS/CM3/CoreSupport/core_cm3.h ****  * @brief  Set the Main Stack Pointer
1251:./stm32f10x_libraries/CMSIS/CM3/CoreSupport/core_cm3.h ****  *
1252:./stm32f10x_libraries/CMSIS/CM3/CoreSupport/core_cm3.h ****  * @param  topOfMainStack  Main Stack Pointer
1253:./stm32f10x_libraries/CMSIS/CM3/CoreSupport/core_cm3.h ****  *
1254:./stm32f10x_libraries/CMSIS/CM3/CoreSupport/core_cm3.h ****  * Assign the value mainStackPointer to the MSP 
1255:./stm32f10x_libraries/CMSIS/CM3/CoreSupport/core_cm3.h ****  * (main stack pointer) Cortex processor register
1256:./stm32f10x_libraries/CMSIS/CM3/CoreSupport/core_cm3.h ****  */
1257:./stm32f10x_libraries/CMSIS/CM3/CoreSupport/core_cm3.h **** extern void __set_MSP(uint32_t topOfMainStack);
1258:./stm32f10x_libraries/CMSIS/CM3/CoreSupport/core_cm3.h **** 
1259:./stm32f10x_libraries/CMSIS/CM3/CoreSupport/core_cm3.h **** /**
1260:./stm32f10x_libraries/CMSIS/CM3/CoreSupport/core_cm3.h ****  * @brief  Return the Base Priority value
1261:./stm32f10x_libraries/CMSIS/CM3/CoreSupport/core_cm3.h ****  *
1262:./stm32f10x_libraries/CMSIS/CM3/CoreSupport/core_cm3.h ****  * @return BasePriority
1263:./stm32f10x_libraries/CMSIS/CM3/CoreSupport/core_cm3.h ****  *
1264:./stm32f10x_libraries/CMSIS/CM3/CoreSupport/core_cm3.h ****  * Return the content of the base priority register
1265:./stm32f10x_libraries/CMSIS/CM3/CoreSupport/core_cm3.h ****  */
1266:./stm32f10x_libraries/CMSIS/CM3/CoreSupport/core_cm3.h **** extern uint32_t __get_BASEPRI(void);
1267:./stm32f10x_libraries/CMSIS/CM3/CoreSupport/core_cm3.h **** 
1268:./stm32f10x_libraries/CMSIS/CM3/CoreSupport/core_cm3.h **** /**
1269:./stm32f10x_libraries/CMSIS/CM3/CoreSupport/core_cm3.h ****  * @brief  Set the Base Priority value
1270:./stm32f10x_libraries/CMSIS/CM3/CoreSupport/core_cm3.h ****  *
1271:./stm32f10x_libraries/CMSIS/CM3/CoreSupport/core_cm3.h ****  * @param  basePri  BasePriority
1272:./stm32f10x_libraries/CMSIS/CM3/CoreSupport/core_cm3.h ****  *
1273:./stm32f10x_libraries/CMSIS/CM3/CoreSupport/core_cm3.h ****  * Set the base priority register
1274:./stm32f10x_libraries/CMSIS/CM3/CoreSupport/core_cm3.h ****  */
1275:./stm32f10x_libraries/CMSIS/CM3/CoreSupport/core_cm3.h **** extern void __set_BASEPRI(uint32_t basePri);
1276:./stm32f10x_libraries/CMSIS/CM3/CoreSupport/core_cm3.h **** 
1277:./stm32f10x_libraries/CMSIS/CM3/CoreSupport/core_cm3.h **** /**
1278:./stm32f10x_libraries/CMSIS/CM3/CoreSupport/core_cm3.h ****  * @brief  Return the Priority Mask value
1279:./stm32f10x_libraries/CMSIS/CM3/CoreSupport/core_cm3.h ****  *
1280:./stm32f10x_libraries/CMSIS/CM3/CoreSupport/core_cm3.h ****  * @return PriMask
1281:./stm32f10x_libraries/CMSIS/CM3/CoreSupport/core_cm3.h ****  *
1282:./stm32f10x_libraries/CMSIS/CM3/CoreSupport/core_cm3.h ****  * Return state of the priority mask bit from the priority mask register
1283:./stm32f10x_libraries/CMSIS/CM3/CoreSupport/core_cm3.h ****  */
1284:./stm32f10x_libraries/CMSIS/CM3/CoreSupport/core_cm3.h **** extern uint32_t  __get_PRIMASK(void);
1285:./stm32f10x_libraries/CMSIS/CM3/CoreSupport/core_cm3.h **** 
ARM GAS  C:\Users\user\AppData\Local\Temp\ccH9wMRW.s 			page 29


1286:./stm32f10x_libraries/CMSIS/CM3/CoreSupport/core_cm3.h **** /**
1287:./stm32f10x_libraries/CMSIS/CM3/CoreSupport/core_cm3.h ****  * @brief  Set the Priority Mask value
1288:./stm32f10x_libraries/CMSIS/CM3/CoreSupport/core_cm3.h ****  *
1289:./stm32f10x_libraries/CMSIS/CM3/CoreSupport/core_cm3.h ****  * @param  priMask  PriMask
1290:./stm32f10x_libraries/CMSIS/CM3/CoreSupport/core_cm3.h ****  *
1291:./stm32f10x_libraries/CMSIS/CM3/CoreSupport/core_cm3.h ****  * Set the priority mask bit in the priority mask register
1292:./stm32f10x_libraries/CMSIS/CM3/CoreSupport/core_cm3.h ****  */
1293:./stm32f10x_libraries/CMSIS/CM3/CoreSupport/core_cm3.h **** extern void __set_PRIMASK(uint32_t priMask);
1294:./stm32f10x_libraries/CMSIS/CM3/CoreSupport/core_cm3.h **** 
1295:./stm32f10x_libraries/CMSIS/CM3/CoreSupport/core_cm3.h **** /**
1296:./stm32f10x_libraries/CMSIS/CM3/CoreSupport/core_cm3.h ****  * @brief  Return the Fault Mask value
1297:./stm32f10x_libraries/CMSIS/CM3/CoreSupport/core_cm3.h ****  *
1298:./stm32f10x_libraries/CMSIS/CM3/CoreSupport/core_cm3.h ****  * @return FaultMask
1299:./stm32f10x_libraries/CMSIS/CM3/CoreSupport/core_cm3.h ****  *
1300:./stm32f10x_libraries/CMSIS/CM3/CoreSupport/core_cm3.h ****  * Return the content of the fault mask register
1301:./stm32f10x_libraries/CMSIS/CM3/CoreSupport/core_cm3.h ****  */
1302:./stm32f10x_libraries/CMSIS/CM3/CoreSupport/core_cm3.h **** extern uint32_t __get_FAULTMASK(void);
1303:./stm32f10x_libraries/CMSIS/CM3/CoreSupport/core_cm3.h **** 
1304:./stm32f10x_libraries/CMSIS/CM3/CoreSupport/core_cm3.h **** /**
1305:./stm32f10x_libraries/CMSIS/CM3/CoreSupport/core_cm3.h ****  * @brief  Set the Fault Mask value
1306:./stm32f10x_libraries/CMSIS/CM3/CoreSupport/core_cm3.h ****  *
1307:./stm32f10x_libraries/CMSIS/CM3/CoreSupport/core_cm3.h ****  * @param  faultMask  faultMask value
1308:./stm32f10x_libraries/CMSIS/CM3/CoreSupport/core_cm3.h ****  *
1309:./stm32f10x_libraries/CMSIS/CM3/CoreSupport/core_cm3.h ****  * Set the fault mask register
1310:./stm32f10x_libraries/CMSIS/CM3/CoreSupport/core_cm3.h ****  */
1311:./stm32f10x_libraries/CMSIS/CM3/CoreSupport/core_cm3.h **** extern void __set_FAULTMASK(uint32_t faultMask);
1312:./stm32f10x_libraries/CMSIS/CM3/CoreSupport/core_cm3.h **** 
1313:./stm32f10x_libraries/CMSIS/CM3/CoreSupport/core_cm3.h **** /**
1314:./stm32f10x_libraries/CMSIS/CM3/CoreSupport/core_cm3.h ****  * @brief  Return the Control Register value
1315:./stm32f10x_libraries/CMSIS/CM3/CoreSupport/core_cm3.h **** * 
1316:./stm32f10x_libraries/CMSIS/CM3/CoreSupport/core_cm3.h **** *  @return Control value
1317:./stm32f10x_libraries/CMSIS/CM3/CoreSupport/core_cm3.h ****  *
1318:./stm32f10x_libraries/CMSIS/CM3/CoreSupport/core_cm3.h ****  * Return the content of the control register
1319:./stm32f10x_libraries/CMSIS/CM3/CoreSupport/core_cm3.h ****  */
1320:./stm32f10x_libraries/CMSIS/CM3/CoreSupport/core_cm3.h **** extern uint32_t __get_CONTROL(void);
1321:./stm32f10x_libraries/CMSIS/CM3/CoreSupport/core_cm3.h **** 
1322:./stm32f10x_libraries/CMSIS/CM3/CoreSupport/core_cm3.h **** /**
1323:./stm32f10x_libraries/CMSIS/CM3/CoreSupport/core_cm3.h ****  * @brief  Set the Control Register value
1324:./stm32f10x_libraries/CMSIS/CM3/CoreSupport/core_cm3.h ****  *
1325:./stm32f10x_libraries/CMSIS/CM3/CoreSupport/core_cm3.h ****  * @param  control  Control value
1326:./stm32f10x_libraries/CMSIS/CM3/CoreSupport/core_cm3.h ****  *
1327:./stm32f10x_libraries/CMSIS/CM3/CoreSupport/core_cm3.h ****  * Set the control register
1328:./stm32f10x_libraries/CMSIS/CM3/CoreSupport/core_cm3.h ****  */
1329:./stm32f10x_libraries/CMSIS/CM3/CoreSupport/core_cm3.h **** extern void __set_CONTROL(uint32_t control);
1330:./stm32f10x_libraries/CMSIS/CM3/CoreSupport/core_cm3.h **** 
1331:./stm32f10x_libraries/CMSIS/CM3/CoreSupport/core_cm3.h **** /**
1332:./stm32f10x_libraries/CMSIS/CM3/CoreSupport/core_cm3.h ****  * @brief  Reverse byte order in integer value
1333:./stm32f10x_libraries/CMSIS/CM3/CoreSupport/core_cm3.h ****  *
1334:./stm32f10x_libraries/CMSIS/CM3/CoreSupport/core_cm3.h ****  * @param  value  value to reverse
1335:./stm32f10x_libraries/CMSIS/CM3/CoreSupport/core_cm3.h ****  * @return        reversed value
1336:./stm32f10x_libraries/CMSIS/CM3/CoreSupport/core_cm3.h ****  *
1337:./stm32f10x_libraries/CMSIS/CM3/CoreSupport/core_cm3.h ****  * Reverse byte order in integer value
1338:./stm32f10x_libraries/CMSIS/CM3/CoreSupport/core_cm3.h ****  */
1339:./stm32f10x_libraries/CMSIS/CM3/CoreSupport/core_cm3.h **** extern uint32_t __REV(uint32_t value);
1340:./stm32f10x_libraries/CMSIS/CM3/CoreSupport/core_cm3.h **** 
1341:./stm32f10x_libraries/CMSIS/CM3/CoreSupport/core_cm3.h **** /**
1342:./stm32f10x_libraries/CMSIS/CM3/CoreSupport/core_cm3.h ****  * @brief  Reverse byte order in unsigned short value
ARM GAS  C:\Users\user\AppData\Local\Temp\ccH9wMRW.s 			page 30


1343:./stm32f10x_libraries/CMSIS/CM3/CoreSupport/core_cm3.h ****  *
1344:./stm32f10x_libraries/CMSIS/CM3/CoreSupport/core_cm3.h ****  * @param  value  value to reverse
1345:./stm32f10x_libraries/CMSIS/CM3/CoreSupport/core_cm3.h ****  * @return        reversed value
1346:./stm32f10x_libraries/CMSIS/CM3/CoreSupport/core_cm3.h ****  *
1347:./stm32f10x_libraries/CMSIS/CM3/CoreSupport/core_cm3.h ****  * Reverse byte order in unsigned short value
1348:./stm32f10x_libraries/CMSIS/CM3/CoreSupport/core_cm3.h ****  */
1349:./stm32f10x_libraries/CMSIS/CM3/CoreSupport/core_cm3.h **** extern uint32_t __REV16(uint16_t value);
1350:./stm32f10x_libraries/CMSIS/CM3/CoreSupport/core_cm3.h **** 
1351:./stm32f10x_libraries/CMSIS/CM3/CoreSupport/core_cm3.h **** /**
1352:./stm32f10x_libraries/CMSIS/CM3/CoreSupport/core_cm3.h ****  * @brief  Reverse byte order in signed short value with sign extension to integer
1353:./stm32f10x_libraries/CMSIS/CM3/CoreSupport/core_cm3.h ****  *
1354:./stm32f10x_libraries/CMSIS/CM3/CoreSupport/core_cm3.h ****  * @param  value  value to reverse
1355:./stm32f10x_libraries/CMSIS/CM3/CoreSupport/core_cm3.h ****  * @return        reversed value
1356:./stm32f10x_libraries/CMSIS/CM3/CoreSupport/core_cm3.h ****  *
1357:./stm32f10x_libraries/CMSIS/CM3/CoreSupport/core_cm3.h ****  * Reverse byte order in signed short value with sign extension to integer
1358:./stm32f10x_libraries/CMSIS/CM3/CoreSupport/core_cm3.h ****  */
1359:./stm32f10x_libraries/CMSIS/CM3/CoreSupport/core_cm3.h **** extern int32_t __REVSH(int16_t value);
1360:./stm32f10x_libraries/CMSIS/CM3/CoreSupport/core_cm3.h **** 
1361:./stm32f10x_libraries/CMSIS/CM3/CoreSupport/core_cm3.h **** /**
1362:./stm32f10x_libraries/CMSIS/CM3/CoreSupport/core_cm3.h ****  * @brief  Reverse bit order of value
1363:./stm32f10x_libraries/CMSIS/CM3/CoreSupport/core_cm3.h ****  *
1364:./stm32f10x_libraries/CMSIS/CM3/CoreSupport/core_cm3.h ****  * @param  value  value to reverse
1365:./stm32f10x_libraries/CMSIS/CM3/CoreSupport/core_cm3.h ****  * @return        reversed value
1366:./stm32f10x_libraries/CMSIS/CM3/CoreSupport/core_cm3.h ****  *
1367:./stm32f10x_libraries/CMSIS/CM3/CoreSupport/core_cm3.h ****  * Reverse bit order of value
1368:./stm32f10x_libraries/CMSIS/CM3/CoreSupport/core_cm3.h ****  */
1369:./stm32f10x_libraries/CMSIS/CM3/CoreSupport/core_cm3.h **** extern uint32_t __RBIT(uint32_t value);
1370:./stm32f10x_libraries/CMSIS/CM3/CoreSupport/core_cm3.h **** 
1371:./stm32f10x_libraries/CMSIS/CM3/CoreSupport/core_cm3.h **** /**
1372:./stm32f10x_libraries/CMSIS/CM3/CoreSupport/core_cm3.h ****  * @brief  LDR Exclusive (8 bit)
1373:./stm32f10x_libraries/CMSIS/CM3/CoreSupport/core_cm3.h ****  *
1374:./stm32f10x_libraries/CMSIS/CM3/CoreSupport/core_cm3.h ****  * @param  *addr  address pointer
1375:./stm32f10x_libraries/CMSIS/CM3/CoreSupport/core_cm3.h ****  * @return        value of (*address)
1376:./stm32f10x_libraries/CMSIS/CM3/CoreSupport/core_cm3.h ****  *
1377:./stm32f10x_libraries/CMSIS/CM3/CoreSupport/core_cm3.h ****  * Exclusive LDR command for 8 bit value
1378:./stm32f10x_libraries/CMSIS/CM3/CoreSupport/core_cm3.h ****  */
1379:./stm32f10x_libraries/CMSIS/CM3/CoreSupport/core_cm3.h **** extern uint8_t __LDREXB(uint8_t *addr);
1380:./stm32f10x_libraries/CMSIS/CM3/CoreSupport/core_cm3.h **** 
1381:./stm32f10x_libraries/CMSIS/CM3/CoreSupport/core_cm3.h **** /**
1382:./stm32f10x_libraries/CMSIS/CM3/CoreSupport/core_cm3.h ****  * @brief  LDR Exclusive (16 bit)
1383:./stm32f10x_libraries/CMSIS/CM3/CoreSupport/core_cm3.h ****  *
1384:./stm32f10x_libraries/CMSIS/CM3/CoreSupport/core_cm3.h ****  * @param  *addr  address pointer
1385:./stm32f10x_libraries/CMSIS/CM3/CoreSupport/core_cm3.h ****  * @return        value of (*address)
1386:./stm32f10x_libraries/CMSIS/CM3/CoreSupport/core_cm3.h ****  *
1387:./stm32f10x_libraries/CMSIS/CM3/CoreSupport/core_cm3.h ****  * Exclusive LDR command for 16 bit values
1388:./stm32f10x_libraries/CMSIS/CM3/CoreSupport/core_cm3.h ****  */
1389:./stm32f10x_libraries/CMSIS/CM3/CoreSupport/core_cm3.h **** extern uint16_t __LDREXH(uint16_t *addr);
1390:./stm32f10x_libraries/CMSIS/CM3/CoreSupport/core_cm3.h **** 
1391:./stm32f10x_libraries/CMSIS/CM3/CoreSupport/core_cm3.h **** /**
1392:./stm32f10x_libraries/CMSIS/CM3/CoreSupport/core_cm3.h ****  * @brief  LDR Exclusive (32 bit)
1393:./stm32f10x_libraries/CMSIS/CM3/CoreSupport/core_cm3.h ****  *
1394:./stm32f10x_libraries/CMSIS/CM3/CoreSupport/core_cm3.h ****  * @param  *addr  address pointer
1395:./stm32f10x_libraries/CMSIS/CM3/CoreSupport/core_cm3.h ****  * @return        value of (*address)
1396:./stm32f10x_libraries/CMSIS/CM3/CoreSupport/core_cm3.h ****  *
1397:./stm32f10x_libraries/CMSIS/CM3/CoreSupport/core_cm3.h ****  * Exclusive LDR command for 32 bit values
1398:./stm32f10x_libraries/CMSIS/CM3/CoreSupport/core_cm3.h ****  */
1399:./stm32f10x_libraries/CMSIS/CM3/CoreSupport/core_cm3.h **** extern uint32_t __LDREXW(uint32_t *addr);
ARM GAS  C:\Users\user\AppData\Local\Temp\ccH9wMRW.s 			page 31


1400:./stm32f10x_libraries/CMSIS/CM3/CoreSupport/core_cm3.h **** 
1401:./stm32f10x_libraries/CMSIS/CM3/CoreSupport/core_cm3.h **** /**
1402:./stm32f10x_libraries/CMSIS/CM3/CoreSupport/core_cm3.h ****  * @brief  STR Exclusive (8 bit)
1403:./stm32f10x_libraries/CMSIS/CM3/CoreSupport/core_cm3.h ****  *
1404:./stm32f10x_libraries/CMSIS/CM3/CoreSupport/core_cm3.h ****  * @param  value  value to store
1405:./stm32f10x_libraries/CMSIS/CM3/CoreSupport/core_cm3.h ****  * @param  *addr  address pointer
1406:./stm32f10x_libraries/CMSIS/CM3/CoreSupport/core_cm3.h ****  * @return        successful / failed
1407:./stm32f10x_libraries/CMSIS/CM3/CoreSupport/core_cm3.h ****  *
1408:./stm32f10x_libraries/CMSIS/CM3/CoreSupport/core_cm3.h ****  * Exclusive STR command for 8 bit values
1409:./stm32f10x_libraries/CMSIS/CM3/CoreSupport/core_cm3.h ****  */
1410:./stm32f10x_libraries/CMSIS/CM3/CoreSupport/core_cm3.h **** extern uint32_t __STREXB(uint8_t value, uint8_t *addr);
1411:./stm32f10x_libraries/CMSIS/CM3/CoreSupport/core_cm3.h **** 
1412:./stm32f10x_libraries/CMSIS/CM3/CoreSupport/core_cm3.h **** /**
1413:./stm32f10x_libraries/CMSIS/CM3/CoreSupport/core_cm3.h ****  * @brief  STR Exclusive (16 bit)
1414:./stm32f10x_libraries/CMSIS/CM3/CoreSupport/core_cm3.h ****  *
1415:./stm32f10x_libraries/CMSIS/CM3/CoreSupport/core_cm3.h ****  * @param  value  value to store
1416:./stm32f10x_libraries/CMSIS/CM3/CoreSupport/core_cm3.h ****  * @param  *addr  address pointer
1417:./stm32f10x_libraries/CMSIS/CM3/CoreSupport/core_cm3.h ****  * @return        successful / failed
1418:./stm32f10x_libraries/CMSIS/CM3/CoreSupport/core_cm3.h ****  *
1419:./stm32f10x_libraries/CMSIS/CM3/CoreSupport/core_cm3.h ****  * Exclusive STR command for 16 bit values
1420:./stm32f10x_libraries/CMSIS/CM3/CoreSupport/core_cm3.h ****  */
1421:./stm32f10x_libraries/CMSIS/CM3/CoreSupport/core_cm3.h **** extern uint32_t __STREXH(uint16_t value, uint16_t *addr);
1422:./stm32f10x_libraries/CMSIS/CM3/CoreSupport/core_cm3.h **** 
1423:./stm32f10x_libraries/CMSIS/CM3/CoreSupport/core_cm3.h **** /**
1424:./stm32f10x_libraries/CMSIS/CM3/CoreSupport/core_cm3.h ****  * @brief  STR Exclusive (32 bit)
1425:./stm32f10x_libraries/CMSIS/CM3/CoreSupport/core_cm3.h ****  *
1426:./stm32f10x_libraries/CMSIS/CM3/CoreSupport/core_cm3.h ****  * @param  value  value to store
1427:./stm32f10x_libraries/CMSIS/CM3/CoreSupport/core_cm3.h ****  * @param  *addr  address pointer
1428:./stm32f10x_libraries/CMSIS/CM3/CoreSupport/core_cm3.h ****  * @return        successful / failed
1429:./stm32f10x_libraries/CMSIS/CM3/CoreSupport/core_cm3.h ****  *
1430:./stm32f10x_libraries/CMSIS/CM3/CoreSupport/core_cm3.h ****  * Exclusive STR command for 32 bit values
1431:./stm32f10x_libraries/CMSIS/CM3/CoreSupport/core_cm3.h ****  */
1432:./stm32f10x_libraries/CMSIS/CM3/CoreSupport/core_cm3.h **** extern uint32_t __STREXW(uint32_t value, uint32_t *addr);
1433:./stm32f10x_libraries/CMSIS/CM3/CoreSupport/core_cm3.h **** 
1434:./stm32f10x_libraries/CMSIS/CM3/CoreSupport/core_cm3.h **** 
1435:./stm32f10x_libraries/CMSIS/CM3/CoreSupport/core_cm3.h **** #elif (defined (__TASKING__)) /*------------------ TASKING Compiler ---------------------*/
1436:./stm32f10x_libraries/CMSIS/CM3/CoreSupport/core_cm3.h **** /* TASKING carm specific functions */
1437:./stm32f10x_libraries/CMSIS/CM3/CoreSupport/core_cm3.h **** 
1438:./stm32f10x_libraries/CMSIS/CM3/CoreSupport/core_cm3.h **** /*
1439:./stm32f10x_libraries/CMSIS/CM3/CoreSupport/core_cm3.h ****  * The CMSIS functions have been implemented as intrinsics in the compiler.
1440:./stm32f10x_libraries/CMSIS/CM3/CoreSupport/core_cm3.h ****  * Please use "carm -?i" to get an up to date list of all instrinsics,
1441:./stm32f10x_libraries/CMSIS/CM3/CoreSupport/core_cm3.h ****  * Including the CMSIS ones.
1442:./stm32f10x_libraries/CMSIS/CM3/CoreSupport/core_cm3.h ****  */
1443:./stm32f10x_libraries/CMSIS/CM3/CoreSupport/core_cm3.h **** 
1444:./stm32f10x_libraries/CMSIS/CM3/CoreSupport/core_cm3.h **** #endif
1445:./stm32f10x_libraries/CMSIS/CM3/CoreSupport/core_cm3.h **** 
1446:./stm32f10x_libraries/CMSIS/CM3/CoreSupport/core_cm3.h **** 
1447:./stm32f10x_libraries/CMSIS/CM3/CoreSupport/core_cm3.h **** /** @addtogroup CMSIS_CM3_Core_FunctionInterface CMSIS CM3 Core Function Interface
1448:./stm32f10x_libraries/CMSIS/CM3/CoreSupport/core_cm3.h ****   Core  Function Interface containing:
1449:./stm32f10x_libraries/CMSIS/CM3/CoreSupport/core_cm3.h ****   - Core NVIC Functions
1450:./stm32f10x_libraries/CMSIS/CM3/CoreSupport/core_cm3.h ****   - Core SysTick Functions
1451:./stm32f10x_libraries/CMSIS/CM3/CoreSupport/core_cm3.h ****   - Core Reset Functions
1452:./stm32f10x_libraries/CMSIS/CM3/CoreSupport/core_cm3.h **** */
1453:./stm32f10x_libraries/CMSIS/CM3/CoreSupport/core_cm3.h **** /*@{*/
1454:./stm32f10x_libraries/CMSIS/CM3/CoreSupport/core_cm3.h **** 
1455:./stm32f10x_libraries/CMSIS/CM3/CoreSupport/core_cm3.h **** /* ##########################   NVIC functions  #################################### */
1456:./stm32f10x_libraries/CMSIS/CM3/CoreSupport/core_cm3.h **** 
ARM GAS  C:\Users\user\AppData\Local\Temp\ccH9wMRW.s 			page 32


1457:./stm32f10x_libraries/CMSIS/CM3/CoreSupport/core_cm3.h **** /**
1458:./stm32f10x_libraries/CMSIS/CM3/CoreSupport/core_cm3.h ****  * @brief  Set the Priority Grouping in NVIC Interrupt Controller
1459:./stm32f10x_libraries/CMSIS/CM3/CoreSupport/core_cm3.h ****  *
1460:./stm32f10x_libraries/CMSIS/CM3/CoreSupport/core_cm3.h ****  * @param  PriorityGroup is priority grouping field
1461:./stm32f10x_libraries/CMSIS/CM3/CoreSupport/core_cm3.h ****  *
1462:./stm32f10x_libraries/CMSIS/CM3/CoreSupport/core_cm3.h ****  * Set the priority grouping field using the required unlock sequence.
1463:./stm32f10x_libraries/CMSIS/CM3/CoreSupport/core_cm3.h ****  * The parameter priority_grouping is assigned to the field 
1464:./stm32f10x_libraries/CMSIS/CM3/CoreSupport/core_cm3.h ****  * SCB->AIRCR [10:8] PRIGROUP field. Only values from 0..7 are used.
1465:./stm32f10x_libraries/CMSIS/CM3/CoreSupport/core_cm3.h ****  * In case of a conflict between priority grouping and available
1466:./stm32f10x_libraries/CMSIS/CM3/CoreSupport/core_cm3.h ****  * priority bits (__NVIC_PRIO_BITS) the smallest possible priority group is set.
1467:./stm32f10x_libraries/CMSIS/CM3/CoreSupport/core_cm3.h ****  */
1468:./stm32f10x_libraries/CMSIS/CM3/CoreSupport/core_cm3.h **** static __INLINE void NVIC_SetPriorityGrouping(uint32_t PriorityGroup)
1469:./stm32f10x_libraries/CMSIS/CM3/CoreSupport/core_cm3.h **** {
1470:./stm32f10x_libraries/CMSIS/CM3/CoreSupport/core_cm3.h ****   uint32_t reg_value;
1471:./stm32f10x_libraries/CMSIS/CM3/CoreSupport/core_cm3.h ****   uint32_t PriorityGroupTmp = (PriorityGroup & 0x07);                         /* only values 0..7 a
1472:./stm32f10x_libraries/CMSIS/CM3/CoreSupport/core_cm3.h ****   
1473:./stm32f10x_libraries/CMSIS/CM3/CoreSupport/core_cm3.h ****   reg_value  =  SCB->AIRCR;                                                   /* read old register 
1474:./stm32f10x_libraries/CMSIS/CM3/CoreSupport/core_cm3.h ****   reg_value &= ~(SCB_AIRCR_VECTKEY_Msk | SCB_AIRCR_PRIGROUP_Msk);             /* clear bits to chan
1475:./stm32f10x_libraries/CMSIS/CM3/CoreSupport/core_cm3.h ****   reg_value  =  (reg_value                       |
1476:./stm32f10x_libraries/CMSIS/CM3/CoreSupport/core_cm3.h ****                 (0x5FA << SCB_AIRCR_VECTKEY_Pos) | 
1477:./stm32f10x_libraries/CMSIS/CM3/CoreSupport/core_cm3.h ****                 (PriorityGroupTmp << 8));                                     /* Insert write key a
1478:./stm32f10x_libraries/CMSIS/CM3/CoreSupport/core_cm3.h ****   SCB->AIRCR =  reg_value;
1479:./stm32f10x_libraries/CMSIS/CM3/CoreSupport/core_cm3.h **** }
1480:./stm32f10x_libraries/CMSIS/CM3/CoreSupport/core_cm3.h **** 
1481:./stm32f10x_libraries/CMSIS/CM3/CoreSupport/core_cm3.h **** /**
1482:./stm32f10x_libraries/CMSIS/CM3/CoreSupport/core_cm3.h ****  * @brief  Get the Priority Grouping from NVIC Interrupt Controller
1483:./stm32f10x_libraries/CMSIS/CM3/CoreSupport/core_cm3.h ****  *
1484:./stm32f10x_libraries/CMSIS/CM3/CoreSupport/core_cm3.h ****  * @return priority grouping field 
1485:./stm32f10x_libraries/CMSIS/CM3/CoreSupport/core_cm3.h ****  *
1486:./stm32f10x_libraries/CMSIS/CM3/CoreSupport/core_cm3.h ****  * Get the priority grouping from NVIC Interrupt Controller.
1487:./stm32f10x_libraries/CMSIS/CM3/CoreSupport/core_cm3.h ****  * priority grouping is SCB->AIRCR [10:8] PRIGROUP field.
1488:./stm32f10x_libraries/CMSIS/CM3/CoreSupport/core_cm3.h ****  */
1489:./stm32f10x_libraries/CMSIS/CM3/CoreSupport/core_cm3.h **** static __INLINE uint32_t NVIC_GetPriorityGrouping(void)
1490:./stm32f10x_libraries/CMSIS/CM3/CoreSupport/core_cm3.h **** {
1491:./stm32f10x_libraries/CMSIS/CM3/CoreSupport/core_cm3.h ****   return ((SCB->AIRCR & SCB_AIRCR_PRIGROUP_Msk) >> SCB_AIRCR_PRIGROUP_Pos);   /* read priority grou
1492:./stm32f10x_libraries/CMSIS/CM3/CoreSupport/core_cm3.h **** }
1493:./stm32f10x_libraries/CMSIS/CM3/CoreSupport/core_cm3.h **** 
1494:./stm32f10x_libraries/CMSIS/CM3/CoreSupport/core_cm3.h **** /**
1495:./stm32f10x_libraries/CMSIS/CM3/CoreSupport/core_cm3.h ****  * @brief  Enable Interrupt in NVIC Interrupt Controller
1496:./stm32f10x_libraries/CMSIS/CM3/CoreSupport/core_cm3.h ****  *
1497:./stm32f10x_libraries/CMSIS/CM3/CoreSupport/core_cm3.h ****  * @param  IRQn   The positive number of the external interrupt to enable
1498:./stm32f10x_libraries/CMSIS/CM3/CoreSupport/core_cm3.h ****  *
1499:./stm32f10x_libraries/CMSIS/CM3/CoreSupport/core_cm3.h ****  * Enable a device specific interupt in the NVIC interrupt controller.
1500:./stm32f10x_libraries/CMSIS/CM3/CoreSupport/core_cm3.h ****  * The interrupt number cannot be a negative value.
1501:./stm32f10x_libraries/CMSIS/CM3/CoreSupport/core_cm3.h ****  */
1502:./stm32f10x_libraries/CMSIS/CM3/CoreSupport/core_cm3.h **** static __INLINE void NVIC_EnableIRQ(IRQn_Type IRQn)
 227              		.loc 2 1502 22 view .LVU45
 228              	.LBB8:
1503:./stm32f10x_libraries/CMSIS/CM3/CoreSupport/core_cm3.h **** {
1504:./stm32f10x_libraries/CMSIS/CM3/CoreSupport/core_cm3.h ****   NVIC->ISER[((uint32_t)(IRQn) >> 5)] = (1 << ((uint32_t)(IRQn) & 0x1F)); /* enable interrupt */
 229              		.loc 2 1504 3 view .LVU46
 230              	@ ./stm32f10x_libraries/CMSIS/CM3/CoreSupport/core_cm3.h:1504:   NVIC->ISER[((uint32_t)(IRQn) >> 5)
 231              		.loc 2 1504 39 is_stmt 0 view .LVU47
 232 0070 4FF48022 		mov	r2, #262144	@ tmp137,
 233 0074 094B     		ldr	r3, .L2+12	@ tmp136,
 234              	.LBE8:
 235              	.LBE7:
ARM GAS  C:\Users\user\AppData\Local\Temp\ccH9wMRW.s 			page 33


 236              	@ user/driver/adc/adc.c:71:     xSemaphoreGive(adc_man.sem_lock);
  70:user/driver/adc/adc.c ****     NVIC_SetPriority(ADC1_2_IRQn, 8);
  71:user/driver/adc/adc.c ****     xSemaphoreGive(adc_man.sem_lock);
 237              		.loc 1 71 5 view .LVU48
 238 0076 2146     		mov	r1, r4	@, tmp3
 239              	.LBB10:
 240              	.LBB9:
 241              	@ ./stm32f10x_libraries/CMSIS/CM3/CoreSupport/core_cm3.h:1504:   NVIC->ISER[((uint32_t)(IRQn) >> 5)
 242              		.loc 2 1504 39 view .LVU49
 243 0078 1A60     		str	r2, [r3]	@ tmp137, MEM[(struct NVIC_Type *)3758153984B].ISER[0]
 244              	.LVL7:
 245              		.loc 2 1504 39 view .LVU50
 246              	.LBE9:
 247              	.LBE10:
  70:user/driver/adc/adc.c ****     NVIC_SetPriority(ADC1_2_IRQn, 8);
 248              		.loc 1 70 5 is_stmt 1 view .LVU51
 249              	.LBB11:
 250              	.LBI11:
1505:./stm32f10x_libraries/CMSIS/CM3/CoreSupport/core_cm3.h **** }
1506:./stm32f10x_libraries/CMSIS/CM3/CoreSupport/core_cm3.h **** 
1507:./stm32f10x_libraries/CMSIS/CM3/CoreSupport/core_cm3.h **** /**
1508:./stm32f10x_libraries/CMSIS/CM3/CoreSupport/core_cm3.h ****  * @brief  Disable the interrupt line for external interrupt specified
1509:./stm32f10x_libraries/CMSIS/CM3/CoreSupport/core_cm3.h ****  * 
1510:./stm32f10x_libraries/CMSIS/CM3/CoreSupport/core_cm3.h ****  * @param  IRQn   The positive number of the external interrupt to disable
1511:./stm32f10x_libraries/CMSIS/CM3/CoreSupport/core_cm3.h ****  * 
1512:./stm32f10x_libraries/CMSIS/CM3/CoreSupport/core_cm3.h ****  * Disable a device specific interupt in the NVIC interrupt controller.
1513:./stm32f10x_libraries/CMSIS/CM3/CoreSupport/core_cm3.h ****  * The interrupt number cannot be a negative value.
1514:./stm32f10x_libraries/CMSIS/CM3/CoreSupport/core_cm3.h ****  */
1515:./stm32f10x_libraries/CMSIS/CM3/CoreSupport/core_cm3.h **** static __INLINE void NVIC_DisableIRQ(IRQn_Type IRQn)
1516:./stm32f10x_libraries/CMSIS/CM3/CoreSupport/core_cm3.h **** {
1517:./stm32f10x_libraries/CMSIS/CM3/CoreSupport/core_cm3.h ****   NVIC->ICER[((uint32_t)(IRQn) >> 5)] = (1 << ((uint32_t)(IRQn) & 0x1F)); /* disable interrupt */
1518:./stm32f10x_libraries/CMSIS/CM3/CoreSupport/core_cm3.h **** }
1519:./stm32f10x_libraries/CMSIS/CM3/CoreSupport/core_cm3.h **** 
1520:./stm32f10x_libraries/CMSIS/CM3/CoreSupport/core_cm3.h **** /**
1521:./stm32f10x_libraries/CMSIS/CM3/CoreSupport/core_cm3.h ****  * @brief  Read the interrupt pending bit for a device specific interrupt source
1522:./stm32f10x_libraries/CMSIS/CM3/CoreSupport/core_cm3.h ****  * 
1523:./stm32f10x_libraries/CMSIS/CM3/CoreSupport/core_cm3.h ****  * @param  IRQn    The number of the device specifc interrupt
1524:./stm32f10x_libraries/CMSIS/CM3/CoreSupport/core_cm3.h ****  * @return         1 = interrupt pending, 0 = interrupt not pending
1525:./stm32f10x_libraries/CMSIS/CM3/CoreSupport/core_cm3.h ****  *
1526:./stm32f10x_libraries/CMSIS/CM3/CoreSupport/core_cm3.h ****  * Read the pending register in NVIC and return 1 if its status is pending, 
1527:./stm32f10x_libraries/CMSIS/CM3/CoreSupport/core_cm3.h ****  * otherwise it returns 0
1528:./stm32f10x_libraries/CMSIS/CM3/CoreSupport/core_cm3.h ****  */
1529:./stm32f10x_libraries/CMSIS/CM3/CoreSupport/core_cm3.h **** static __INLINE uint32_t NVIC_GetPendingIRQ(IRQn_Type IRQn)
1530:./stm32f10x_libraries/CMSIS/CM3/CoreSupport/core_cm3.h **** {
1531:./stm32f10x_libraries/CMSIS/CM3/CoreSupport/core_cm3.h ****   return((uint32_t) ((NVIC->ISPR[(uint32_t)(IRQn) >> 5] & (1 << ((uint32_t)(IRQn) & 0x1F)))?1:0)); 
1532:./stm32f10x_libraries/CMSIS/CM3/CoreSupport/core_cm3.h **** }
1533:./stm32f10x_libraries/CMSIS/CM3/CoreSupport/core_cm3.h **** 
1534:./stm32f10x_libraries/CMSIS/CM3/CoreSupport/core_cm3.h **** /**
1535:./stm32f10x_libraries/CMSIS/CM3/CoreSupport/core_cm3.h ****  * @brief  Set the pending bit for an external interrupt
1536:./stm32f10x_libraries/CMSIS/CM3/CoreSupport/core_cm3.h ****  * 
1537:./stm32f10x_libraries/CMSIS/CM3/CoreSupport/core_cm3.h ****  * @param  IRQn    The number of the interrupt for set pending
1538:./stm32f10x_libraries/CMSIS/CM3/CoreSupport/core_cm3.h ****  *
1539:./stm32f10x_libraries/CMSIS/CM3/CoreSupport/core_cm3.h ****  * Set the pending bit for the specified interrupt.
1540:./stm32f10x_libraries/CMSIS/CM3/CoreSupport/core_cm3.h ****  * The interrupt number cannot be a negative value.
1541:./stm32f10x_libraries/CMSIS/CM3/CoreSupport/core_cm3.h ****  */
1542:./stm32f10x_libraries/CMSIS/CM3/CoreSupport/core_cm3.h **** static __INLINE void NVIC_SetPendingIRQ(IRQn_Type IRQn)
1543:./stm32f10x_libraries/CMSIS/CM3/CoreSupport/core_cm3.h **** {
ARM GAS  C:\Users\user\AppData\Local\Temp\ccH9wMRW.s 			page 34


1544:./stm32f10x_libraries/CMSIS/CM3/CoreSupport/core_cm3.h ****   NVIC->ISPR[((uint32_t)(IRQn) >> 5)] = (1 << ((uint32_t)(IRQn) & 0x1F)); /* set interrupt pending 
1545:./stm32f10x_libraries/CMSIS/CM3/CoreSupport/core_cm3.h **** }
1546:./stm32f10x_libraries/CMSIS/CM3/CoreSupport/core_cm3.h **** 
1547:./stm32f10x_libraries/CMSIS/CM3/CoreSupport/core_cm3.h **** /**
1548:./stm32f10x_libraries/CMSIS/CM3/CoreSupport/core_cm3.h ****  * @brief  Clear the pending bit for an external interrupt
1549:./stm32f10x_libraries/CMSIS/CM3/CoreSupport/core_cm3.h ****  *
1550:./stm32f10x_libraries/CMSIS/CM3/CoreSupport/core_cm3.h ****  * @param  IRQn    The number of the interrupt for clear pending
1551:./stm32f10x_libraries/CMSIS/CM3/CoreSupport/core_cm3.h ****  *
1552:./stm32f10x_libraries/CMSIS/CM3/CoreSupport/core_cm3.h ****  * Clear the pending bit for the specified interrupt. 
1553:./stm32f10x_libraries/CMSIS/CM3/CoreSupport/core_cm3.h ****  * The interrupt number cannot be a negative value.
1554:./stm32f10x_libraries/CMSIS/CM3/CoreSupport/core_cm3.h ****  */
1555:./stm32f10x_libraries/CMSIS/CM3/CoreSupport/core_cm3.h **** static __INLINE void NVIC_ClearPendingIRQ(IRQn_Type IRQn)
1556:./stm32f10x_libraries/CMSIS/CM3/CoreSupport/core_cm3.h **** {
1557:./stm32f10x_libraries/CMSIS/CM3/CoreSupport/core_cm3.h ****   NVIC->ICPR[((uint32_t)(IRQn) >> 5)] = (1 << ((uint32_t)(IRQn) & 0x1F)); /* Clear pending interrup
1558:./stm32f10x_libraries/CMSIS/CM3/CoreSupport/core_cm3.h **** }
1559:./stm32f10x_libraries/CMSIS/CM3/CoreSupport/core_cm3.h **** 
1560:./stm32f10x_libraries/CMSIS/CM3/CoreSupport/core_cm3.h **** /**
1561:./stm32f10x_libraries/CMSIS/CM3/CoreSupport/core_cm3.h ****  * @brief  Read the active bit for an external interrupt
1562:./stm32f10x_libraries/CMSIS/CM3/CoreSupport/core_cm3.h ****  *
1563:./stm32f10x_libraries/CMSIS/CM3/CoreSupport/core_cm3.h ****  * @param  IRQn    The number of the interrupt for read active bit
1564:./stm32f10x_libraries/CMSIS/CM3/CoreSupport/core_cm3.h ****  * @return         1 = interrupt active, 0 = interrupt not active
1565:./stm32f10x_libraries/CMSIS/CM3/CoreSupport/core_cm3.h ****  *
1566:./stm32f10x_libraries/CMSIS/CM3/CoreSupport/core_cm3.h ****  * Read the active register in NVIC and returns 1 if its status is active, 
1567:./stm32f10x_libraries/CMSIS/CM3/CoreSupport/core_cm3.h ****  * otherwise it returns 0.
1568:./stm32f10x_libraries/CMSIS/CM3/CoreSupport/core_cm3.h ****  */
1569:./stm32f10x_libraries/CMSIS/CM3/CoreSupport/core_cm3.h **** static __INLINE uint32_t NVIC_GetActive(IRQn_Type IRQn)
1570:./stm32f10x_libraries/CMSIS/CM3/CoreSupport/core_cm3.h **** {
1571:./stm32f10x_libraries/CMSIS/CM3/CoreSupport/core_cm3.h ****   return((uint32_t)((NVIC->IABR[(uint32_t)(IRQn) >> 5] & (1 << ((uint32_t)(IRQn) & 0x1F)))?1:0)); /
1572:./stm32f10x_libraries/CMSIS/CM3/CoreSupport/core_cm3.h **** }
1573:./stm32f10x_libraries/CMSIS/CM3/CoreSupport/core_cm3.h **** 
1574:./stm32f10x_libraries/CMSIS/CM3/CoreSupport/core_cm3.h **** /**
1575:./stm32f10x_libraries/CMSIS/CM3/CoreSupport/core_cm3.h ****  * @brief  Set the priority for an interrupt
1576:./stm32f10x_libraries/CMSIS/CM3/CoreSupport/core_cm3.h ****  *
1577:./stm32f10x_libraries/CMSIS/CM3/CoreSupport/core_cm3.h ****  * @param  IRQn      The number of the interrupt for set priority
1578:./stm32f10x_libraries/CMSIS/CM3/CoreSupport/core_cm3.h ****  * @param  priority  The priority to set
1579:./stm32f10x_libraries/CMSIS/CM3/CoreSupport/core_cm3.h ****  *
1580:./stm32f10x_libraries/CMSIS/CM3/CoreSupport/core_cm3.h ****  * Set the priority for the specified interrupt. The interrupt 
1581:./stm32f10x_libraries/CMSIS/CM3/CoreSupport/core_cm3.h ****  * number can be positive to specify an external (device specific) 
1582:./stm32f10x_libraries/CMSIS/CM3/CoreSupport/core_cm3.h ****  * interrupt, or negative to specify an internal (core) interrupt.
1583:./stm32f10x_libraries/CMSIS/CM3/CoreSupport/core_cm3.h ****  *
1584:./stm32f10x_libraries/CMSIS/CM3/CoreSupport/core_cm3.h ****  * Note: The priority cannot be set for every core interrupt.
1585:./stm32f10x_libraries/CMSIS/CM3/CoreSupport/core_cm3.h ****  */
1586:./stm32f10x_libraries/CMSIS/CM3/CoreSupport/core_cm3.h **** static __INLINE void NVIC_SetPriority(IRQn_Type IRQn, uint32_t priority)
 251              		.loc 2 1586 22 view .LVU52
 252              	.LBB12:
1587:./stm32f10x_libraries/CMSIS/CM3/CoreSupport/core_cm3.h **** {
1588:./stm32f10x_libraries/CMSIS/CM3/CoreSupport/core_cm3.h ****   if(IRQn < 0) {
 253              		.loc 2 1588 3 view .LVU53
1589:./stm32f10x_libraries/CMSIS/CM3/CoreSupport/core_cm3.h ****     SCB->SHP[((uint32_t)(IRQn) & 0xF)-4] = ((priority << (8 - __NVIC_PRIO_BITS)) & 0xff); } /* set 
1590:./stm32f10x_libraries/CMSIS/CM3/CoreSupport/core_cm3.h ****   else {
1591:./stm32f10x_libraries/CMSIS/CM3/CoreSupport/core_cm3.h ****     NVIC->IP[(uint32_t)(IRQn)] = ((priority << (8 - __NVIC_PRIO_BITS)) & 0xff);    }        /* set 
 254              		.loc 2 1591 5 view .LVU54
 255              	@ ./stm32f10x_libraries/CMSIS/CM3/CoreSupport/core_cm3.h:1591:     NVIC->IP[(uint32_t)(IRQn)] = ((p
 256              		.loc 2 1591 32 is_stmt 0 view .LVU55
 257 007a 8022     		movs	r2, #128	@ tmp139,
 258 007c 83F81223 		strb	r2, [r3, #786]	@ tmp139, MEM[(struct NVIC_Type *)3758153984B].IP[18]
 259              	.LVL8:
ARM GAS  C:\Users\user\AppData\Local\Temp\ccH9wMRW.s 			page 35


 260              		.loc 2 1591 32 view .LVU56
 261              	.LBE12:
 262              	.LBE11:
 263              		.loc 1 71 5 is_stmt 1 view .LVU57
 264 0080 6868     		ldr	r0, [r5, #4]	@, adc_man.sem_lock
 265 0082 2346     		mov	r3, r4	@, tmp117
 266 0084 2246     		mov	r2, r4	@, tmp3
 267 0086 FFF7FEFF 		bl	xQueueGenericSend		@
 268              	.LVL9:
 269              	@ user/driver/adc/adc.c:72: }
  72:user/driver/adc/adc.c **** }
 270              		.loc 1 72 1 is_stmt 0 view .LVU58
 271 008a 07B0     		add	sp, sp, #28	@,,
 272              	.LCFI2:
 273              		.cfi_def_cfa_offset 20
 274              		@ sp needed	@
 275 008c F0BD     		pop	{r4, r5, r6, r7, pc}	@
 276              	.L3:
 277 008e 00BF     		.align	2
 278              	.L2:
 279 0090 00000000 		.word	.LANCHOR0
 280 0094 00080140 		.word	1073809408
 281 0098 00240140 		.word	1073816576
 282 009c 00E100E0 		.word	-536813312
 283              		.cfi_endproc
 284              	.LFE34:
 285              		.size	AdcInit, .-AdcInit
 286              		.align	1
 287              		.global	AdcStop
 288              		.syntax unified
 289              		.thumb
 290              		.thumb_func
 291              		.fpu softvfp
 292              		.type	AdcStop, %function
 293              	AdcStop:
 294              	.LFB36:
  73:user/driver/adc/adc.c **** void AdcStart(AdcChannel ch)
  74:user/driver/adc/adc.c **** {
  75:user/driver/adc/adc.c ****     if (xSemaphoreTake(adc_man.sem_lock, 1000) == pdTRUE)
  76:user/driver/adc/adc.c ****     {
  77:user/driver/adc/adc.c ****         adc_man.current_ch = ch;
  78:user/driver/adc/adc.c ****         ADC_RegularChannelConfig(ADC1, AdcHchannel(adc_man.current_ch), 1, ADC_SampleTime_239Cycles
  79:user/driver/adc/adc.c ****         ADC_Cmd(ADC1, ENABLE);
  80:user/driver/adc/adc.c ****         adc_man.idx = 0;
  81:user/driver/adc/adc.c ****         while (xSemaphoreTake(adc_man.done_lock, 0) == pdTRUE)
  82:user/driver/adc/adc.c ****             ;
  83:user/driver/adc/adc.c ****         memset(&adc_man.data, 0, sizeof(ChannelBuffer));
  84:user/driver/adc/adc.c ****         ADC_SoftwareStartConvCmd(ADC1, ENABLE);
  85:user/driver/adc/adc.c ****         // wait for conversion finish;
  86:user/driver/adc/adc.c ****         if (xSemaphoreTake(adc_man.done_lock, 1000) == pdTRUE)
  87:user/driver/adc/adc.c ****         {
  88:user/driver/adc/adc.c ****             Channel *chn = ch;
  89:user/driver/adc/adc.c ****             chn->data = adc_man.data;
  90:user/driver/adc/adc.c ****             chn->data_available = true;
  91:user/driver/adc/adc.c ****             xSemaphoreGive(adc_man.sem_lock);
  92:user/driver/adc/adc.c ****         }
  93:user/driver/adc/adc.c ****     }
ARM GAS  C:\Users\user\AppData\Local\Temp\ccH9wMRW.s 			page 36


  94:user/driver/adc/adc.c **** }
  95:user/driver/adc/adc.c **** void AdcStop()
  96:user/driver/adc/adc.c **** {
 295              		.loc 1 96 1 is_stmt 1 view -0
 296              		.cfi_startproc
 297              		@ args = 0, pretend = 0, frame = 0
 298              		@ frame_needed = 0, uses_anonymous_args = 0
 299              		@ link register save eliminated.
  97:user/driver/adc/adc.c ****     ADC_SoftwareStartConvCmd(ADC1, DISABLE);
 300              		.loc 1 97 5 view .LVU60
 301 00a0 0021     		movs	r1, #0	@,
 302 00a2 0148     		ldr	r0, .L5	@,
 303 00a4 FFF7FEBF 		b	ADC_SoftwareStartConvCmd		@
 304              	.LVL10:
 305              	.L6:
 306              		.align	2
 307              	.L5:
 308 00a8 00240140 		.word	1073816576
 309              		.cfi_endproc
 310              	.LFE36:
 311              		.size	AdcStop, .-AdcStop
 312              		.align	1
 313              		.global	AdcChannelCreate
 314              		.syntax unified
 315              		.thumb
 316              		.thumb_func
 317              		.fpu softvfp
 318              		.type	AdcChannelCreate, %function
 319              	AdcChannelCreate:
 320              	.LVL11:
 321              	.LFB37:
  98:user/driver/adc/adc.c **** }
  99:user/driver/adc/adc.c **** AdcChannel AdcChannelCreate(AdcChannelId id)
 100:user/driver/adc/adc.c **** {
 322              		.loc 1 100 1 view -0
 323              		.cfi_startproc
 324              		@ args = 0, pretend = 0, frame = 8
 325              		@ frame_needed = 0, uses_anonymous_args = 0
 101:user/driver/adc/adc.c ****     Channel *ch = pvPortMalloc(sizeof(Channel));
 326              		.loc 1 101 5 view .LVU62
 327              	@ user/driver/adc/adc.c:100: {
 100:user/driver/adc/adc.c ****     Channel *ch = pvPortMalloc(sizeof(Channel));
 328              		.loc 1 100 1 is_stmt 0 view .LVU63
 329 00ac 37B5     		push	{r0, r1, r2, r4, r5, lr}	@
 330              	.LCFI3:
 331              		.cfi_def_cfa_offset 24
 332              		.cfi_offset 4, -12
 333              		.cfi_offset 5, -8
 334              		.cfi_offset 14, -4
 335              	@ user/driver/adc/adc.c:100: {
 100:user/driver/adc/adc.c ****     Channel *ch = pvPortMalloc(sizeof(Channel));
 336              		.loc 1 100 1 view .LVU64
 337 00ae 0446     		mov	r4, r0	@ id, tmp153
 338              	@ user/driver/adc/adc.c:101:     Channel *ch = pvPortMalloc(sizeof(Channel));
 339              		.loc 1 101 19 view .LVU65
 340 00b0 8620     		movs	r0, #134	@,
 341              	.LVL12:
ARM GAS  C:\Users\user\AppData\Local\Temp\ccH9wMRW.s 			page 37


 342              		.loc 1 101 19 view .LVU66
 343 00b2 FFF7FEFF 		bl	pvPortMalloc		@
 344              	.LVL13:
 345              	@ user/driver/adc/adc.c:106:     gpio.GPIO_Speed = GPIO_Speed_50MHz;
 102:user/driver/adc/adc.c ****     ch->id = id;
 103:user/driver/adc/adc.c ****     GPIO_TypeDef * port = NULL;
 104:user/driver/adc/adc.c ****     GPIO_InitTypeDef gpio;
 105:user/driver/adc/adc.c ****     gpio.GPIO_Mode = GPIO_Mode_AIN;
 106:user/driver/adc/adc.c ****     gpio.GPIO_Speed = GPIO_Speed_50MHz;
 346              		.loc 1 106 21 view .LVU67
 347 00b6 0323     		movs	r3, #3	@ tmp118,
 348              	@ user/driver/adc/adc.c:102:     ch->id = id;
 102:user/driver/adc/adc.c ****     ch->id = id;
 349              		.loc 1 102 12 view .LVU68
 350 00b8 0470     		strb	r4, [r0]	@ id, ch_5->id
 351              	@ user/driver/adc/adc.c:101:     Channel *ch = pvPortMalloc(sizeof(Channel));
 101:user/driver/adc/adc.c ****     ch->id = id;
 352              		.loc 1 101 19 view .LVU69
 353 00ba 0546     		mov	r5, r0	@ <retval>, tmp154
 354              	.LVL14:
 102:user/driver/adc/adc.c ****     ch->id = id;
 355              		.loc 1 102 5 is_stmt 1 view .LVU70
 103:user/driver/adc/adc.c ****     GPIO_InitTypeDef gpio;
 356              		.loc 1 103 5 view .LVU71
 104:user/driver/adc/adc.c ****     gpio.GPIO_Mode = GPIO_Mode_AIN;
 357              		.loc 1 104 5 view .LVU72
 105:user/driver/adc/adc.c ****     gpio.GPIO_Speed = GPIO_Speed_50MHz;
 358              		.loc 1 105 5 view .LVU73
 359              		.loc 1 106 5 view .LVU74
 360              	@ user/driver/adc/adc.c:106:     gpio.GPIO_Speed = GPIO_Speed_50MHz;
 361              		.loc 1 106 21 is_stmt 0 view .LVU75
 362 00bc ADF80630 		strh	r3, [sp, #6]	@ movhi	@ tmp118, MEM <unsigned short> [(void *)&gpio + 2B]
 107:user/driver/adc/adc.c ****     switch (id)
 363              		.loc 1 107 5 is_stmt 1 view .LVU76
 364 00c0 0F2C     		cmp	r4, #15	@ id,
 365 00c2 4FD8     		bhi	.L26		@
 366 00c4 DFE804F0 		tbb	[pc, r4]	@ id
 367              	.L10:
 368 00c8 08       		.byte	(.L25-.L10)/2
 369 00c9 15       		.byte	(.L24-.L10)/2
 370 00ca 1A       		.byte	(.L23-.L10)/2
 371 00cb 1F       		.byte	(.L22-.L10)/2
 372 00cc 21       		.byte	(.L21-.L10)/2
 373 00cd 23       		.byte	(.L20-.L10)/2
 374 00ce 25       		.byte	(.L19-.L10)/2
 375 00cf 27       		.byte	(.L18-.L10)/2
 376 00d0 29       		.byte	(.L17-.L10)/2
 377 00d1 31       		.byte	(.L16-.L10)/2
 378 00d2 36       		.byte	(.L15-.L10)/2
 379 00d3 3B       		.byte	(.L14-.L10)/2
 380 00d4 40       		.byte	(.L13-.L10)/2
 381 00d5 42       		.byte	(.L12-.L10)/2
 382 00d6 44       		.byte	(.L11-.L10)/2
 383 00d7 4C       		.byte	(.L9-.L10)/2
 384              		.p2align 1
 385              	.L25:
 108:user/driver/adc/adc.c ****     {
ARM GAS  C:\Users\user\AppData\Local\Temp\ccH9wMRW.s 			page 38


 109:user/driver/adc/adc.c ****     case ADC_CHANNEL0:
 110:user/driver/adc/adc.c ****         gpio.GPIO_Pin = GPIO_Pin_0;
 386              		.loc 1 110 9 view .LVU77
 387              	@ user/driver/adc/adc.c:110:         gpio.GPIO_Pin = GPIO_Pin_0;
 388              		.loc 1 110 23 is_stmt 0 view .LVU78
 389 00d8 0121     		movs	r1, #1	@ tmp120,
 390 00da ADF80410 		strh	r1, [sp, #4]	@ movhi	@ tmp120, gpio.GPIO_Pin
 111:user/driver/adc/adc.c ****         RCC_APB2PeriphClockCmd(RCC_APB2Periph_GPIOA, ENABLE);
 391              		.loc 1 111 9 is_stmt 1 view .LVU79
 392              	.L28:
 393              	@ user/driver/adc/adc.c:116:         RCC_APB2PeriphClockCmd(RCC_APB2Periph_GPIOA, ENABLE);
 112:user/driver/adc/adc.c ****         port = GPIOA;
 113:user/driver/adc/adc.c ****         break;
 114:user/driver/adc/adc.c ****     case ADC_CHANNEL1:
 115:user/driver/adc/adc.c ****         gpio.GPIO_Pin = GPIO_Pin_1;
 116:user/driver/adc/adc.c ****         RCC_APB2PeriphClockCmd(RCC_APB2Periph_GPIOA, ENABLE);
 394              		.loc 1 116 9 is_stmt 0 view .LVU80
 395 00de 0420     		movs	r0, #4	@,
 396              	.LVL15:
 397              	.L29:
 398              		.loc 1 116 9 view .LVU81
 399 00e0 FFF7FEFF 		bl	RCC_APB2PeriphClockCmd		@
 400              	.LVL16:
 117:user/driver/adc/adc.c ****         port = GPIOA;
 401              		.loc 1 117 9 is_stmt 1 view .LVU82
 118:user/driver/adc/adc.c ****         break;
 402              		.loc 1 118 9 view .LVU83
 403              	@ user/driver/adc/adc.c:117:         port = GPIOA;
 117:user/driver/adc/adc.c ****         port = GPIOA;
 404              		.loc 1 117 14 is_stmt 0 view .LVU84
 405 00e4 2048     		ldr	r0, .L34	@ port,
 406              	.LVL17:
 407              	.L8:
 119:user/driver/adc/adc.c ****     case ADC_CHANNEL2:
 120:user/driver/adc/adc.c ****         gpio.GPIO_Pin = GPIO_Pin_2;
 121:user/driver/adc/adc.c ****         RCC_APB2PeriphClockCmd(RCC_APB2Periph_GPIOA, ENABLE);
 122:user/driver/adc/adc.c ****         port = GPIOA;
 123:user/driver/adc/adc.c ****         break;
 124:user/driver/adc/adc.c ****     case ADC_CHANNEL3:
 125:user/driver/adc/adc.c ****         gpio.GPIO_Pin = GPIO_Pin_3;
 126:user/driver/adc/adc.c ****         RCC_APB2PeriphClockCmd(RCC_APB2Periph_GPIOA, ENABLE);
 127:user/driver/adc/adc.c ****         port = GPIOA;
 128:user/driver/adc/adc.c ****         break;
 129:user/driver/adc/adc.c ****     case ADC_CHANNEL4:
 130:user/driver/adc/adc.c ****         gpio.GPIO_Pin = GPIO_Pin_4;
 131:user/driver/adc/adc.c ****         RCC_APB2PeriphClockCmd(RCC_APB2Periph_GPIOA, ENABLE);
 132:user/driver/adc/adc.c ****         port = GPIOA;
 133:user/driver/adc/adc.c ****         break;
 134:user/driver/adc/adc.c ****     case ADC_CHANNEL5:
 135:user/driver/adc/adc.c ****         gpio.GPIO_Pin = GPIO_Pin_5;
 136:user/driver/adc/adc.c ****         RCC_APB2PeriphClockCmd(RCC_APB2Periph_GPIOA, ENABLE);
 137:user/driver/adc/adc.c ****         port = GPIOA;
 138:user/driver/adc/adc.c ****         break;
 139:user/driver/adc/adc.c ****     case ADC_CHANNEL6:
 140:user/driver/adc/adc.c ****         gpio.GPIO_Pin = GPIO_Pin_6;
 141:user/driver/adc/adc.c ****         RCC_APB2PeriphClockCmd(RCC_APB2Periph_GPIOA, ENABLE);
 142:user/driver/adc/adc.c ****         port = GPIOA;
ARM GAS  C:\Users\user\AppData\Local\Temp\ccH9wMRW.s 			page 39


 143:user/driver/adc/adc.c ****         break;
 144:user/driver/adc/adc.c ****     case ADC_CHANNEL7:
 145:user/driver/adc/adc.c ****         gpio.GPIO_Pin = GPIO_Pin_7;
 146:user/driver/adc/adc.c ****         RCC_APB2PeriphClockCmd(RCC_APB2Periph_GPIOA, ENABLE);
 147:user/driver/adc/adc.c ****         port = GPIOA;
 148:user/driver/adc/adc.c ****         break;
 149:user/driver/adc/adc.c ****     case ADC_CHANNEL8:
 150:user/driver/adc/adc.c ****         gpio.GPIO_Pin = GPIO_Pin_0;
 151:user/driver/adc/adc.c ****         RCC_APB2PeriphClockCmd(RCC_APB2Periph_GPIOB, ENABLE);
 152:user/driver/adc/adc.c ****         port = GPIOB;
 153:user/driver/adc/adc.c ****         break;
 154:user/driver/adc/adc.c ****     case ADC_CHANNEL9:
 155:user/driver/adc/adc.c ****         gpio.GPIO_Pin = GPIO_Pin_1;
 156:user/driver/adc/adc.c ****         RCC_APB2PeriphClockCmd(RCC_APB2Periph_GPIOB, ENABLE);
 157:user/driver/adc/adc.c ****         port = GPIOB;
 158:user/driver/adc/adc.c ****         break;
 159:user/driver/adc/adc.c ****     case ADC_CHANNEL10:
 160:user/driver/adc/adc.c ****         gpio.GPIO_Pin = GPIO_Pin_0;
 161:user/driver/adc/adc.c ****         RCC_APB2PeriphClockCmd(RCC_APB2Periph_GPIOC, ENABLE);
 162:user/driver/adc/adc.c ****         port = GPIOC;
 163:user/driver/adc/adc.c ****         break;
 164:user/driver/adc/adc.c ****     case ADC_CHANNEL11:
 165:user/driver/adc/adc.c ****         gpio.GPIO_Pin = GPIO_Pin_1;
 166:user/driver/adc/adc.c ****         RCC_APB2PeriphClockCmd(RCC_APB2Periph_GPIOC, ENABLE);
 167:user/driver/adc/adc.c ****         port = GPIOC;
 168:user/driver/adc/adc.c ****         break;
 169:user/driver/adc/adc.c ****     case ADC_CHANNEL12:
 170:user/driver/adc/adc.c ****         gpio.GPIO_Pin = GPIO_Pin_2;
 171:user/driver/adc/adc.c ****         RCC_APB2PeriphClockCmd(RCC_APB2Periph_GPIOC, ENABLE);
 172:user/driver/adc/adc.c ****         port = GPIOC;
 173:user/driver/adc/adc.c ****         break;
 174:user/driver/adc/adc.c ****     case ADC_CHANNEL13:
 175:user/driver/adc/adc.c ****         gpio.GPIO_Pin = GPIO_Pin_3;
 176:user/driver/adc/adc.c ****         RCC_APB2PeriphClockCmd(RCC_APB2Periph_GPIOC, ENABLE);
 177:user/driver/adc/adc.c ****         port = GPIOC;
 178:user/driver/adc/adc.c ****         break;
 179:user/driver/adc/adc.c ****     case ADC_CHANNEL14:
 180:user/driver/adc/adc.c ****         gpio.GPIO_Pin = GPIO_Pin_4;
 181:user/driver/adc/adc.c ****         RCC_APB2PeriphClockCmd(RCC_APB2Periph_GPIOC, ENABLE);
 182:user/driver/adc/adc.c ****         port = GPIOC;
 183:user/driver/adc/adc.c ****         break;
 184:user/driver/adc/adc.c ****     case ADC_CHANNEL15:
 185:user/driver/adc/adc.c ****         gpio.GPIO_Pin = GPIO_Pin_5;
 186:user/driver/adc/adc.c ****         RCC_APB2PeriphClockCmd(RCC_APB2Periph_GPIOC, ENABLE);
 187:user/driver/adc/adc.c ****         port = GPIOC;
 188:user/driver/adc/adc.c ****         break;
 189:user/driver/adc/adc.c ****     default:
 190:user/driver/adc/adc.c ****         break;
 191:user/driver/adc/adc.c ****     }
 192:user/driver/adc/adc.c ****     GPIO_Init(port, &gpio);
 408              		.loc 1 192 5 is_stmt 1 view .LVU85
 409 00e6 01A9     		add	r1, sp, #4	@,,
 410 00e8 FFF7FEFF 		bl	GPIO_Init		@
 411              	.LVL18:
 193:user/driver/adc/adc.c ****     return ch;
 412              		.loc 1 193 5 view .LVU86
 413              	@ user/driver/adc/adc.c:194: }
ARM GAS  C:\Users\user\AppData\Local\Temp\ccH9wMRW.s 			page 40


 194:user/driver/adc/adc.c **** }
 414              		.loc 1 194 1 is_stmt 0 view .LVU87
 415 00ec 2846     		mov	r0, r5	@, <retval>
 416 00ee 03B0     		add	sp, sp, #12	@,,
 417              	.LCFI4:
 418              		.cfi_remember_state
 419              		.cfi_def_cfa_offset 12
 420              		@ sp needed	@
 421 00f0 30BD     		pop	{r4, r5, pc}	@
 422              	.LVL19:
 423              	.L24:
 424              	.LCFI5:
 425              		.cfi_restore_state
 115:user/driver/adc/adc.c ****         RCC_APB2PeriphClockCmd(RCC_APB2Periph_GPIOA, ENABLE);
 426              		.loc 1 115 9 is_stmt 1 view .LVU88
 427              	@ user/driver/adc/adc.c:115:         gpio.GPIO_Pin = GPIO_Pin_1;
 115:user/driver/adc/adc.c ****         RCC_APB2PeriphClockCmd(RCC_APB2Periph_GPIOA, ENABLE);
 428              		.loc 1 115 23 is_stmt 0 view .LVU89
 429 00f2 0223     		movs	r3, #2	@ tmp122,
 430              	.L32:
 431              	@ user/driver/adc/adc.c:116:         RCC_APB2PeriphClockCmd(RCC_APB2Periph_GPIOA, ENABLE);
 116:user/driver/adc/adc.c ****         port = GPIOA;
 432              		.loc 1 116 9 view .LVU90
 433 00f4 0121     		movs	r1, #1	@,
 434              	@ user/driver/adc/adc.c:115:         gpio.GPIO_Pin = GPIO_Pin_1;
 115:user/driver/adc/adc.c ****         RCC_APB2PeriphClockCmd(RCC_APB2Periph_GPIOA, ENABLE);
 435              		.loc 1 115 23 view .LVU91
 436 00f6 ADF80430 		strh	r3, [sp, #4]	@ movhi	@ tmp122, gpio.GPIO_Pin
 116:user/driver/adc/adc.c ****         port = GPIOA;
 437              		.loc 1 116 9 is_stmt 1 view .LVU92
 438 00fa F0E7     		b	.L28		@
 439              	.L23:
 120:user/driver/adc/adc.c ****         RCC_APB2PeriphClockCmd(RCC_APB2Periph_GPIOA, ENABLE);
 440              		.loc 1 120 9 view .LVU93
 441              	@ user/driver/adc/adc.c:120:         gpio.GPIO_Pin = GPIO_Pin_2;
 120:user/driver/adc/adc.c ****         RCC_APB2PeriphClockCmd(RCC_APB2Periph_GPIOA, ENABLE);
 442              		.loc 1 120 23 is_stmt 0 view .LVU94
 443 00fc 0420     		movs	r0, #4	@ tmp124,
 444              	.LVL20:
 445              	@ user/driver/adc/adc.c:121:         RCC_APB2PeriphClockCmd(RCC_APB2Periph_GPIOA, ENABLE);
 121:user/driver/adc/adc.c ****         port = GPIOA;
 446              		.loc 1 121 9 view .LVU95
 447 00fe 0121     		movs	r1, #1	@,
 448              	@ user/driver/adc/adc.c:120:         gpio.GPIO_Pin = GPIO_Pin_2;
 120:user/driver/adc/adc.c ****         RCC_APB2PeriphClockCmd(RCC_APB2Periph_GPIOA, ENABLE);
 449              		.loc 1 120 23 view .LVU96
 450 0100 ADF80400 		strh	r0, [sp, #4]	@ movhi	@ tmp124, gpio.GPIO_Pin
 121:user/driver/adc/adc.c ****         port = GPIOA;
 451              		.loc 1 121 9 is_stmt 1 view .LVU97
 452 0104 ECE7     		b	.L29		@
 453              	.LVL21:
 454              	.L22:
 125:user/driver/adc/adc.c ****         RCC_APB2PeriphClockCmd(RCC_APB2Periph_GPIOA, ENABLE);
 455              		.loc 1 125 9 view .LVU98
 456              	@ user/driver/adc/adc.c:125:         gpio.GPIO_Pin = GPIO_Pin_3;
 125:user/driver/adc/adc.c ****         RCC_APB2PeriphClockCmd(RCC_APB2Periph_GPIOA, ENABLE);
 457              		.loc 1 125 23 is_stmt 0 view .LVU99
ARM GAS  C:\Users\user\AppData\Local\Temp\ccH9wMRW.s 			page 41


 458 0106 0823     		movs	r3, #8	@ tmp126,
 459 0108 F4E7     		b	.L32		@
 460              	.L21:
 130:user/driver/adc/adc.c ****         RCC_APB2PeriphClockCmd(RCC_APB2Periph_GPIOA, ENABLE);
 461              		.loc 1 130 9 is_stmt 1 view .LVU100
 462              	@ user/driver/adc/adc.c:130:         gpio.GPIO_Pin = GPIO_Pin_4;
 130:user/driver/adc/adc.c ****         RCC_APB2PeriphClockCmd(RCC_APB2Periph_GPIOA, ENABLE);
 463              		.loc 1 130 23 is_stmt 0 view .LVU101
 464 010a 1023     		movs	r3, #16	@ tmp128,
 465 010c F2E7     		b	.L32		@
 466              	.L20:
 135:user/driver/adc/adc.c ****         RCC_APB2PeriphClockCmd(RCC_APB2Periph_GPIOA, ENABLE);
 467              		.loc 1 135 9 is_stmt 1 view .LVU102
 468              	@ user/driver/adc/adc.c:135:         gpio.GPIO_Pin = GPIO_Pin_5;
 135:user/driver/adc/adc.c ****         RCC_APB2PeriphClockCmd(RCC_APB2Periph_GPIOA, ENABLE);
 469              		.loc 1 135 23 is_stmt 0 view .LVU103
 470 010e 2023     		movs	r3, #32	@ tmp130,
 471 0110 F0E7     		b	.L32		@
 472              	.L19:
 140:user/driver/adc/adc.c ****         RCC_APB2PeriphClockCmd(RCC_APB2Periph_GPIOA, ENABLE);
 473              		.loc 1 140 9 is_stmt 1 view .LVU104
 474              	@ user/driver/adc/adc.c:140:         gpio.GPIO_Pin = GPIO_Pin_6;
 140:user/driver/adc/adc.c ****         RCC_APB2PeriphClockCmd(RCC_APB2Periph_GPIOA, ENABLE);
 475              		.loc 1 140 23 is_stmt 0 view .LVU105
 476 0112 4023     		movs	r3, #64	@ tmp132,
 477 0114 EEE7     		b	.L32		@
 478              	.L18:
 145:user/driver/adc/adc.c ****         RCC_APB2PeriphClockCmd(RCC_APB2Periph_GPIOA, ENABLE);
 479              		.loc 1 145 9 is_stmt 1 view .LVU106
 480              	@ user/driver/adc/adc.c:145:         gpio.GPIO_Pin = GPIO_Pin_7;
 145:user/driver/adc/adc.c ****         RCC_APB2PeriphClockCmd(RCC_APB2Periph_GPIOA, ENABLE);
 481              		.loc 1 145 23 is_stmt 0 view .LVU107
 482 0116 8023     		movs	r3, #128	@ tmp134,
 483 0118 ECE7     		b	.L32		@
 484              	.L17:
 150:user/driver/adc/adc.c ****         RCC_APB2PeriphClockCmd(RCC_APB2Periph_GPIOB, ENABLE);
 485              		.loc 1 150 9 is_stmt 1 view .LVU108
 486              	@ user/driver/adc/adc.c:150:         gpio.GPIO_Pin = GPIO_Pin_0;
 150:user/driver/adc/adc.c ****         RCC_APB2PeriphClockCmd(RCC_APB2Periph_GPIOB, ENABLE);
 487              		.loc 1 150 23 is_stmt 0 view .LVU109
 488 011a 0121     		movs	r1, #1	@ tmp136,
 489 011c ADF80410 		strh	r1, [sp, #4]	@ movhi	@ tmp136, gpio.GPIO_Pin
 151:user/driver/adc/adc.c ****         port = GPIOB;
 490              		.loc 1 151 9 is_stmt 1 view .LVU110
 491              	.L33:
 492              	@ user/driver/adc/adc.c:156:         RCC_APB2PeriphClockCmd(RCC_APB2Periph_GPIOB, ENABLE);
 156:user/driver/adc/adc.c ****         port = GPIOB;
 493              		.loc 1 156 9 is_stmt 0 view .LVU111
 494 0120 0820     		movs	r0, #8	@,
 495              	.LVL22:
 156:user/driver/adc/adc.c ****         port = GPIOB;
 496              		.loc 1 156 9 view .LVU112
 497 0122 FFF7FEFF 		bl	RCC_APB2PeriphClockCmd		@
 498              	.LVL23:
 157:user/driver/adc/adc.c ****         break;
 499              		.loc 1 157 9 is_stmt 1 view .LVU113
 158:user/driver/adc/adc.c ****     case ADC_CHANNEL10:
ARM GAS  C:\Users\user\AppData\Local\Temp\ccH9wMRW.s 			page 42


 500              		.loc 1 158 9 view .LVU114
 501              	@ user/driver/adc/adc.c:157:         port = GPIOB;
 157:user/driver/adc/adc.c ****         break;
 502              		.loc 1 157 14 is_stmt 0 view .LVU115
 503 0126 1148     		ldr	r0, .L34+4	@ port,
 504              	@ user/driver/adc/adc.c:158:         break;
 158:user/driver/adc/adc.c ****     case ADC_CHANNEL10:
 505              		.loc 1 158 9 view .LVU116
 506 0128 DDE7     		b	.L8		@
 507              	.LVL24:
 508              	.L16:
 155:user/driver/adc/adc.c ****         RCC_APB2PeriphClockCmd(RCC_APB2Periph_GPIOB, ENABLE);
 509              		.loc 1 155 9 is_stmt 1 view .LVU117
 510              	@ user/driver/adc/adc.c:155:         gpio.GPIO_Pin = GPIO_Pin_1;
 155:user/driver/adc/adc.c ****         RCC_APB2PeriphClockCmd(RCC_APB2Periph_GPIOB, ENABLE);
 511              		.loc 1 155 23 is_stmt 0 view .LVU118
 512 012a 0223     		movs	r3, #2	@ tmp138,
 513              	@ user/driver/adc/adc.c:156:         RCC_APB2PeriphClockCmd(RCC_APB2Periph_GPIOB, ENABLE);
 156:user/driver/adc/adc.c ****         port = GPIOB;
 514              		.loc 1 156 9 view .LVU119
 515 012c 0121     		movs	r1, #1	@,
 516              	@ user/driver/adc/adc.c:155:         gpio.GPIO_Pin = GPIO_Pin_1;
 155:user/driver/adc/adc.c ****         RCC_APB2PeriphClockCmd(RCC_APB2Periph_GPIOB, ENABLE);
 517              		.loc 1 155 23 view .LVU120
 518 012e ADF80430 		strh	r3, [sp, #4]	@ movhi	@ tmp138, gpio.GPIO_Pin
 156:user/driver/adc/adc.c ****         port = GPIOB;
 519              		.loc 1 156 9 is_stmt 1 view .LVU121
 520 0132 F5E7     		b	.L33		@
 521              	.L15:
 160:user/driver/adc/adc.c ****         RCC_APB2PeriphClockCmd(RCC_APB2Periph_GPIOC, ENABLE);
 522              		.loc 1 160 9 view .LVU122
 523              	@ user/driver/adc/adc.c:160:         gpio.GPIO_Pin = GPIO_Pin_0;
 160:user/driver/adc/adc.c ****         RCC_APB2PeriphClockCmd(RCC_APB2Periph_GPIOC, ENABLE);
 524              		.loc 1 160 23 is_stmt 0 view .LVU123
 525 0134 0121     		movs	r1, #1	@ tmp140,
 526 0136 ADF80410 		strh	r1, [sp, #4]	@ movhi	@ tmp140, gpio.GPIO_Pin
 161:user/driver/adc/adc.c ****         port = GPIOC;
 527              		.loc 1 161 9 is_stmt 1 view .LVU124
 528              	.L31:
 529              	@ user/driver/adc/adc.c:186:         RCC_APB2PeriphClockCmd(RCC_APB2Periph_GPIOC, ENABLE);
 186:user/driver/adc/adc.c ****         port = GPIOC;
 530              		.loc 1 186 9 is_stmt 0 view .LVU125
 531 013a 1020     		movs	r0, #16	@,
 532              	.LVL25:
 186:user/driver/adc/adc.c ****         port = GPIOC;
 533              		.loc 1 186 9 view .LVU126
 534 013c 0CE0     		b	.L27		@
 535              	.LVL26:
 536              	.L14:
 165:user/driver/adc/adc.c ****         RCC_APB2PeriphClockCmd(RCC_APB2Periph_GPIOC, ENABLE);
 537              		.loc 1 165 9 is_stmt 1 view .LVU127
 538              	@ user/driver/adc/adc.c:165:         gpio.GPIO_Pin = GPIO_Pin_1;
 165:user/driver/adc/adc.c ****         RCC_APB2PeriphClockCmd(RCC_APB2Periph_GPIOC, ENABLE);
 539              		.loc 1 165 23 is_stmt 0 view .LVU128
 540 013e 0223     		movs	r3, #2	@ tmp142,
 541              	.L30:
 542              	@ user/driver/adc/adc.c:186:         RCC_APB2PeriphClockCmd(RCC_APB2Periph_GPIOC, ENABLE);
ARM GAS  C:\Users\user\AppData\Local\Temp\ccH9wMRW.s 			page 43


 186:user/driver/adc/adc.c ****         port = GPIOC;
 543              		.loc 1 186 9 view .LVU129
 544 0140 0121     		movs	r1, #1	@,
 545              	@ user/driver/adc/adc.c:185:         gpio.GPIO_Pin = GPIO_Pin_5;
 185:user/driver/adc/adc.c ****         RCC_APB2PeriphClockCmd(RCC_APB2Periph_GPIOC, ENABLE);
 546              		.loc 1 185 23 view .LVU130
 547 0142 ADF80430 		strh	r3, [sp, #4]	@ movhi	@ tmp150, gpio.GPIO_Pin
 186:user/driver/adc/adc.c ****         port = GPIOC;
 548              		.loc 1 186 9 is_stmt 1 view .LVU131
 549 0146 F8E7     		b	.L31		@
 550              	.L13:
 170:user/driver/adc/adc.c ****         RCC_APB2PeriphClockCmd(RCC_APB2Periph_GPIOC, ENABLE);
 551              		.loc 1 170 9 view .LVU132
 552              	@ user/driver/adc/adc.c:170:         gpio.GPIO_Pin = GPIO_Pin_2;
 170:user/driver/adc/adc.c ****         RCC_APB2PeriphClockCmd(RCC_APB2Periph_GPIOC, ENABLE);
 553              		.loc 1 170 23 is_stmt 0 view .LVU133
 554 0148 0423     		movs	r3, #4	@ tmp144,
 555 014a F9E7     		b	.L30		@
 556              	.L12:
 175:user/driver/adc/adc.c ****         RCC_APB2PeriphClockCmd(RCC_APB2Periph_GPIOC, ENABLE);
 557              		.loc 1 175 9 is_stmt 1 view .LVU134
 558              	@ user/driver/adc/adc.c:175:         gpio.GPIO_Pin = GPIO_Pin_3;
 175:user/driver/adc/adc.c ****         RCC_APB2PeriphClockCmd(RCC_APB2Periph_GPIOC, ENABLE);
 559              		.loc 1 175 23 is_stmt 0 view .LVU135
 560 014c 0823     		movs	r3, #8	@ tmp146,
 561 014e F7E7     		b	.L30		@
 562              	.L11:
 180:user/driver/adc/adc.c ****         RCC_APB2PeriphClockCmd(RCC_APB2Periph_GPIOC, ENABLE);
 563              		.loc 1 180 9 is_stmt 1 view .LVU136
 564              	@ user/driver/adc/adc.c:180:         gpio.GPIO_Pin = GPIO_Pin_4;
 180:user/driver/adc/adc.c ****         RCC_APB2PeriphClockCmd(RCC_APB2Periph_GPIOC, ENABLE);
 565              		.loc 1 180 23 is_stmt 0 view .LVU137
 566 0150 1020     		movs	r0, #16	@ tmp148,
 567              	.LVL27:
 568              	@ user/driver/adc/adc.c:181:         RCC_APB2PeriphClockCmd(RCC_APB2Periph_GPIOC, ENABLE);
 181:user/driver/adc/adc.c ****         port = GPIOC;
 569              		.loc 1 181 9 view .LVU138
 570 0152 0121     		movs	r1, #1	@,
 571              	@ user/driver/adc/adc.c:180:         gpio.GPIO_Pin = GPIO_Pin_4;
 180:user/driver/adc/adc.c ****         RCC_APB2PeriphClockCmd(RCC_APB2Periph_GPIOC, ENABLE);
 572              		.loc 1 180 23 view .LVU139
 573 0154 ADF80400 		strh	r0, [sp, #4]	@ movhi	@ tmp148, gpio.GPIO_Pin
 181:user/driver/adc/adc.c ****         port = GPIOC;
 574              		.loc 1 181 9 is_stmt 1 view .LVU140
 575              	.L27:
 576              	@ user/driver/adc/adc.c:186:         RCC_APB2PeriphClockCmd(RCC_APB2Periph_GPIOC, ENABLE);
 186:user/driver/adc/adc.c ****         port = GPIOC;
 577              		.loc 1 186 9 is_stmt 0 view .LVU141
 578 0158 FFF7FEFF 		bl	RCC_APB2PeriphClockCmd		@
 579              	.LVL28:
 187:user/driver/adc/adc.c ****         break;
 580              		.loc 1 187 9 is_stmt 1 view .LVU142
 188:user/driver/adc/adc.c ****     default:
 581              		.loc 1 188 9 view .LVU143
 582              	@ user/driver/adc/adc.c:187:         port = GPIOC;
 187:user/driver/adc/adc.c ****         break;
 583              		.loc 1 187 14 is_stmt 0 view .LVU144
ARM GAS  C:\Users\user\AppData\Local\Temp\ccH9wMRW.s 			page 44


 584 015c 0448     		ldr	r0, .L34+8	@ port,
 585              	@ user/driver/adc/adc.c:188:         break;
 188:user/driver/adc/adc.c ****     default:
 586              		.loc 1 188 9 view .LVU145
 587 015e C2E7     		b	.L8		@
 588              	.LVL29:
 589              	.L9:
 185:user/driver/adc/adc.c ****         RCC_APB2PeriphClockCmd(RCC_APB2Periph_GPIOC, ENABLE);
 590              		.loc 1 185 9 is_stmt 1 view .LVU146
 591              	@ user/driver/adc/adc.c:185:         gpio.GPIO_Pin = GPIO_Pin_5;
 185:user/driver/adc/adc.c ****         RCC_APB2PeriphClockCmd(RCC_APB2Periph_GPIOC, ENABLE);
 592              		.loc 1 185 23 is_stmt 0 view .LVU147
 593 0160 2023     		movs	r3, #32	@ tmp150,
 594 0162 EDE7     		b	.L30		@
 595              	.L26:
 596              	@ user/driver/adc/adc.c:107:     switch (id)
 107:user/driver/adc/adc.c ****     {
 597              		.loc 1 107 5 view .LVU148
 598 0164 0020     		movs	r0, #0	@ port,
 599              	.LVL30:
 107:user/driver/adc/adc.c ****     {
 600              		.loc 1 107 5 view .LVU149
 601 0166 BEE7     		b	.L8		@
 602              	.L35:
 603              		.align	2
 604              	.L34:
 605 0168 00080140 		.word	1073809408
 606 016c 000C0140 		.word	1073810432
 607 0170 00100140 		.word	1073811456
 608              		.cfi_endproc
 609              	.LFE37:
 610              		.size	AdcChannelCreate, .-AdcChannelCreate
 611              		.align	1
 612              		.global	AdcHchannel
 613              		.syntax unified
 614              		.thumb
 615              		.thumb_func
 616              		.fpu softvfp
 617              		.type	AdcHchannel, %function
 618              	AdcHchannel:
 619              	.LVL31:
 620              	.LFB39:
 195:user/driver/adc/adc.c **** 
 196:user/driver/adc/adc.c **** 
 197:user/driver/adc/adc.c **** AdcStatus AdcChannelRead(AdcChannel ch, ChannelBuffer *data)
 198:user/driver/adc/adc.c **** {
 199:user/driver/adc/adc.c ****     if (ch == NULL || data == NULL)
 200:user/driver/adc/adc.c ****         return ADC_STATUS_BAD_PTR;
 201:user/driver/adc/adc.c ****     Channel *chn = ch;
 202:user/driver/adc/adc.c ****     AdcStart(ch);
 203:user/driver/adc/adc.c ****     if (chn->data_available == true)
 204:user/driver/adc/adc.c ****     {
 205:user/driver/adc/adc.c ****         chn->data_available = false;
 206:user/driver/adc/adc.c ****         *data = chn->data;
 207:user/driver/adc/adc.c ****         return ADC_STATUS_SUCCESS;
 208:user/driver/adc/adc.c ****     }
 209:user/driver/adc/adc.c **** 
ARM GAS  C:\Users\user\AppData\Local\Temp\ccH9wMRW.s 			page 45


 210:user/driver/adc/adc.c ****     return ADC_STATUS_ERROR;
 211:user/driver/adc/adc.c **** }
 212:user/driver/adc/adc.c **** 
 213:user/driver/adc/adc.c **** uint16_t AdcHchannel(AdcChannel id)
 214:user/driver/adc/adc.c **** {
 621              		.loc 1 214 1 is_stmt 1 view -0
 622              		.cfi_startproc
 623              		@ args = 0, pretend = 0, frame = 0
 624              		@ frame_needed = 0, uses_anonymous_args = 0
 625              		@ link register save eliminated.
 215:user/driver/adc/adc.c ****     Channel *ch = (Channel *)id;
 626              		.loc 1 215 5 view .LVU151
 216:user/driver/adc/adc.c ****     switch (ch->id)
 627              		.loc 1 216 5 view .LVU152
 628              	@ user/driver/adc/adc.c:216:     switch (ch->id)
 629              		.loc 1 216 15 is_stmt 0 view .LVU153
 630 0174 0078     		ldrb	r0, [r0]	@ zero_extendqisi2	@ _1, MEM[(struct Channel *)id_4(D)].id
 631              	.LVL32:
 632              		.loc 1 216 15 view .LVU154
 633 0176 431E     		subs	r3, r0, #1	@ tmp120, _1,
 634 0178 102B     		cmp	r3, #16	@ tmp120,
 635 017a 94BF     		ite	ls
 636 017c 80B2     		uxthls	r0, r0	@ <retval>, _1
 637 017e 0020     		movhi	r0, #0	@ <retval>,
 638              	@ user/driver/adc/adc.c:276: }
 217:user/driver/adc/adc.c ****     {
 218:user/driver/adc/adc.c ****     case ADC_CHANNEL0:
 219:user/driver/adc/adc.c ****         return ADC_Channel_0;
 220:user/driver/adc/adc.c ****         break;
 221:user/driver/adc/adc.c ****     case ADC_CHANNEL1:
 222:user/driver/adc/adc.c ****         return ADC_Channel_1;
 223:user/driver/adc/adc.c ****         break;
 224:user/driver/adc/adc.c ****     case ADC_CHANNEL2:
 225:user/driver/adc/adc.c ****         return ADC_Channel_2;
 226:user/driver/adc/adc.c ****         break;
 227:user/driver/adc/adc.c ****     case ADC_CHANNEL3:
 228:user/driver/adc/adc.c ****         return ADC_Channel_3;
 229:user/driver/adc/adc.c ****         break;
 230:user/driver/adc/adc.c ****     case ADC_CHANNEL4:
 231:user/driver/adc/adc.c ****         return ADC_Channel_4;
 232:user/driver/adc/adc.c ****         break;
 233:user/driver/adc/adc.c ****     case ADC_CHANNEL5:
 234:user/driver/adc/adc.c ****         return ADC_Channel_5;
 235:user/driver/adc/adc.c ****         break;
 236:user/driver/adc/adc.c ****     case ADC_CHANNEL6:
 237:user/driver/adc/adc.c ****         return ADC_Channel_6;
 238:user/driver/adc/adc.c ****         break;
 239:user/driver/adc/adc.c ****     case ADC_CHANNEL7:
 240:user/driver/adc/adc.c ****         return ADC_Channel_7;
 241:user/driver/adc/adc.c ****         break;
 242:user/driver/adc/adc.c ****     case ADC_CHANNEL8:
 243:user/driver/adc/adc.c ****         return ADC_Channel_8;
 244:user/driver/adc/adc.c ****         break;
 245:user/driver/adc/adc.c ****     case ADC_CHANNEL9:
 246:user/driver/adc/adc.c ****         return ADC_Channel_9;
 247:user/driver/adc/adc.c ****         break;
 248:user/driver/adc/adc.c ****     case ADC_CHANNEL10:
ARM GAS  C:\Users\user\AppData\Local\Temp\ccH9wMRW.s 			page 46


 249:user/driver/adc/adc.c ****         return ADC_Channel_10;
 250:user/driver/adc/adc.c ****         break;
 251:user/driver/adc/adc.c ****     case ADC_CHANNEL11:
 252:user/driver/adc/adc.c ****         return ADC_Channel_11;
 253:user/driver/adc/adc.c ****         break;
 254:user/driver/adc/adc.c ****     case ADC_CHANNEL12:
 255:user/driver/adc/adc.c ****         return ADC_Channel_12;
 256:user/driver/adc/adc.c ****         break;
 257:user/driver/adc/adc.c ****     case ADC_CHANNEL13:
 258:user/driver/adc/adc.c ****         return ADC_Channel_13;
 259:user/driver/adc/adc.c ****         break;
 260:user/driver/adc/adc.c ****     case ADC_CHANNEL14:
 261:user/driver/adc/adc.c ****         return ADC_Channel_14;
 262:user/driver/adc/adc.c ****         break;
 263:user/driver/adc/adc.c ****     case ADC_CHANNEL15:
 264:user/driver/adc/adc.c ****         return ADC_Channel_15;
 265:user/driver/adc/adc.c ****         break;
 266:user/driver/adc/adc.c ****     case ADC_CHANNEL16:
 267:user/driver/adc/adc.c ****         return ADC_Channel_16;
 268:user/driver/adc/adc.c ****         break;
 269:user/driver/adc/adc.c ****     case ADC_CHANNEL17:
 270:user/driver/adc/adc.c ****         return ADC_Channel_17;
 271:user/driver/adc/adc.c ****         break;
 272:user/driver/adc/adc.c ****     default:
 273:user/driver/adc/adc.c ****         break;
 274:user/driver/adc/adc.c ****     }
 275:user/driver/adc/adc.c ****     return 0;
 276:user/driver/adc/adc.c **** }
 639              		.loc 1 276 1 view .LVU155
 640 0180 7047     		bx	lr	@
 641              		.cfi_endproc
 642              	.LFE39:
 643              		.size	AdcHchannel, .-AdcHchannel
 644              		.align	1
 645              		.global	AdcStart
 646              		.syntax unified
 647              		.thumb
 648              		.thumb_func
 649              		.fpu softvfp
 650              		.type	AdcStart, %function
 651              	AdcStart:
 652              	.LVL33:
 653              	.LFB35:
  74:user/driver/adc/adc.c ****     if (xSemaphoreTake(adc_man.sem_lock, 1000) == pdTRUE)
 654              		.loc 1 74 1 is_stmt 1 view -0
 655              		.cfi_startproc
 656              		@ args = 0, pretend = 0, frame = 0
 657              		@ frame_needed = 0, uses_anonymous_args = 0
  75:user/driver/adc/adc.c ****     {
 658              		.loc 1 75 5 view .LVU157
 659              	@ user/driver/adc/adc.c:75:     if (xSemaphoreTake(adc_man.sem_lock, 1000) == pdTRUE)
  75:user/driver/adc/adc.c ****     {
 660              		.loc 1 75 9 is_stmt 0 view .LVU158
 661 0182 0023     		movs	r3, #0	@,
 662              	@ user/driver/adc/adc.c:74: {
  74:user/driver/adc/adc.c ****     if (xSemaphoreTake(adc_man.sem_lock, 1000) == pdTRUE)
 663              		.loc 1 74 1 view .LVU159
ARM GAS  C:\Users\user\AppData\Local\Temp\ccH9wMRW.s 			page 47


 664 0184 70B5     		push	{r4, r5, r6, lr}	@
 665              	.LCFI6:
 666              		.cfi_def_cfa_offset 16
 667              		.cfi_offset 4, -16
 668              		.cfi_offset 5, -12
 669              		.cfi_offset 6, -8
 670              		.cfi_offset 14, -4
 671              	@ user/driver/adc/adc.c:75:     if (xSemaphoreTake(adc_man.sem_lock, 1000) == pdTRUE)
  75:user/driver/adc/adc.c ****     {
 672              		.loc 1 75 9 view .LVU160
 673 0186 234C     		ldr	r4, .L46	@ tmp123,
 674              	@ user/driver/adc/adc.c:74: {
  74:user/driver/adc/adc.c ****     if (xSemaphoreTake(adc_man.sem_lock, 1000) == pdTRUE)
 675              		.loc 1 74 1 view .LVU161
 676 0188 0546     		mov	r5, r0	@ ch, tmp150
 677              	@ user/driver/adc/adc.c:75:     if (xSemaphoreTake(adc_man.sem_lock, 1000) == pdTRUE)
  75:user/driver/adc/adc.c ****     {
 678              		.loc 1 75 9 view .LVU162
 679 018a 4FF47A72 		mov	r2, #1000	@,
 680 018e 1946     		mov	r1, r3	@,
 681 0190 6068     		ldr	r0, [r4, #4]	@, adc_man.sem_lock
 682              	.LVL34:
  75:user/driver/adc/adc.c ****     {
 683              		.loc 1 75 9 view .LVU163
 684 0192 FFF7FEFF 		bl	xQueueGenericReceive		@
 685              	.LVL35:
 686              	@ user/driver/adc/adc.c:75:     if (xSemaphoreTake(adc_man.sem_lock, 1000) == pdTRUE)
  75:user/driver/adc/adc.c ****     {
 687              		.loc 1 75 8 view .LVU164
 688 0196 0128     		cmp	r0, #1	@ _2,
 689              	@ user/driver/adc/adc.c:75:     if (xSemaphoreTake(adc_man.sem_lock, 1000) == pdTRUE)
  75:user/driver/adc/adc.c ****     {
 690              		.loc 1 75 9 view .LVU165
 691 0198 0646     		mov	r6, r0	@ _2, tmp151
 692              	@ user/driver/adc/adc.c:75:     if (xSemaphoreTake(adc_man.sem_lock, 1000) == pdTRUE)
  75:user/driver/adc/adc.c ****     {
 693              		.loc 1 75 8 view .LVU166
 694 019a 3AD1     		bne	.L39		@,
 695              	.LVL36:
 696              	.LBB16:
 697              	.LBI16:
  73:user/driver/adc/adc.c **** {
 698              		.loc 1 73 6 is_stmt 1 view .LVU167
 699              	.LBB17:
  77:user/driver/adc/adc.c ****         ADC_RegularChannelConfig(ADC1, AdcHchannel(adc_man.current_ch), 1, ADC_SampleTime_239Cycles
 700              		.loc 1 77 9 view .LVU168
 701              	@ user/driver/adc/adc.c:78:         ADC_RegularChannelConfig(ADC1, AdcHchannel(adc_man.current_ch),
  78:user/driver/adc/adc.c ****         ADC_Cmd(ADC1, ENABLE);
 702              		.loc 1 78 40 is_stmt 0 view .LVU169
 703 019c 2846     		mov	r0, r5	@, ch
 704              	@ user/driver/adc/adc.c:77:         adc_man.current_ch = ch;
  77:user/driver/adc/adc.c ****         ADC_RegularChannelConfig(ADC1, AdcHchannel(adc_man.current_ch), 1, ADC_SampleTime_239Cycles
 705              		.loc 1 77 28 view .LVU170
 706 019e 2560     		str	r5, [r4]	@ ch, adc_man.current_ch
  78:user/driver/adc/adc.c ****         ADC_Cmd(ADC1, ENABLE);
 707              		.loc 1 78 9 is_stmt 1 view .LVU171
 708              	@ user/driver/adc/adc.c:78:         ADC_RegularChannelConfig(ADC1, AdcHchannel(adc_man.current_ch),
ARM GAS  C:\Users\user\AppData\Local\Temp\ccH9wMRW.s 			page 48


  78:user/driver/adc/adc.c ****         ADC_Cmd(ADC1, ENABLE);
 709              		.loc 1 78 40 is_stmt 0 view .LVU172
 710 01a0 FFF7FEFF 		bl	AdcHchannel		@
 711              	.LVL37:
 712              	@ user/driver/adc/adc.c:78:         ADC_RegularChannelConfig(ADC1, AdcHchannel(adc_man.current_ch),
  78:user/driver/adc/adc.c ****         ADC_Cmd(ADC1, ENABLE);
 713              		.loc 1 78 9 view .LVU173
 714 01a4 3246     		mov	r2, r6	@, _2
 715 01a6 0723     		movs	r3, #7	@,
 716 01a8 C1B2     		uxtb	r1, r0	@, tmp152
 717 01aa 1B48     		ldr	r0, .L46+4	@,
 718 01ac FFF7FEFF 		bl	ADC_RegularChannelConfig		@
 719              	.LVL38:
  79:user/driver/adc/adc.c ****         adc_man.idx = 0;
 720              		.loc 1 79 9 is_stmt 1 view .LVU174
 721 01b0 3146     		mov	r1, r6	@, _2
 722 01b2 1948     		ldr	r0, .L46+4	@,
 723 01b4 FFF7FEFF 		bl	ADC_Cmd		@
 724              	.LVL39:
  80:user/driver/adc/adc.c ****         while (xSemaphoreTake(adc_man.done_lock, 0) == pdTRUE)
 725              		.loc 1 80 9 view .LVU175
 726              	@ user/driver/adc/adc.c:80:         adc_man.idx = 0;
  80:user/driver/adc/adc.c ****         while (xSemaphoreTake(adc_man.done_lock, 0) == pdTRUE)
 727              		.loc 1 80 21 is_stmt 0 view .LVU176
 728 01b8 0023     		movs	r3, #0	@ tmp131,
 729 01ba A4F88E30 		strh	r3, [r4, #142]	@ movhi	@ tmp131, adc_man.idx
  81:user/driver/adc/adc.c ****             ;
 730              		.loc 1 81 9 is_stmt 1 view .LVU177
 731              	.L42:
  82:user/driver/adc/adc.c ****         memset(&adc_man.data, 0, sizeof(ChannelBuffer));
 732              		.loc 1 82 13 view .LVU178
  81:user/driver/adc/adc.c ****             ;
 733              		.loc 1 81 15 view .LVU179
 734              	@ user/driver/adc/adc.c:81:         while (xSemaphoreTake(adc_man.done_lock, 0) == pdTRUE)
  81:user/driver/adc/adc.c ****             ;
 735              		.loc 1 81 16 is_stmt 0 view .LVU180
 736 01be 0023     		movs	r3, #0	@,
 737 01c0 A068     		ldr	r0, [r4, #8]	@, adc_man.done_lock
 738 01c2 1A46     		mov	r2, r3	@,
 739 01c4 1946     		mov	r1, r3	@,
 740 01c6 FFF7FEFF 		bl	xQueueGenericReceive		@
 741              	.LVL40:
 742              	@ user/driver/adc/adc.c:81:         while (xSemaphoreTake(adc_man.done_lock, 0) == pdTRUE)
  81:user/driver/adc/adc.c ****             ;
 743              		.loc 1 81 15 view .LVU181
 744 01ca 0128     		cmp	r0, #1	@ tmp153,
 745 01cc F7D0     		beq	.L42		@,
  83:user/driver/adc/adc.c ****         ADC_SoftwareStartConvCmd(ADC1, ENABLE);
 746              		.loc 1 83 9 is_stmt 1 view .LVU182
 747 01ce 8222     		movs	r2, #130	@,
 748 01d0 0021     		movs	r1, #0	@,
 749 01d2 1248     		ldr	r0, .L46+8	@,
 750 01d4 FFF7FEFF 		bl	memset		@
 751              	.LVL41:
  84:user/driver/adc/adc.c ****         // wait for conversion finish;
 752              		.loc 1 84 9 view .LVU183
 753 01d8 0121     		movs	r1, #1	@,
ARM GAS  C:\Users\user\AppData\Local\Temp\ccH9wMRW.s 			page 49


 754 01da 0F48     		ldr	r0, .L46+4	@,
 755 01dc FFF7FEFF 		bl	ADC_SoftwareStartConvCmd		@
 756              	.LVL42:
  86:user/driver/adc/adc.c ****         {
 757              		.loc 1 86 9 view .LVU184
 758              	@ user/driver/adc/adc.c:86:         if (xSemaphoreTake(adc_man.done_lock, 1000) == pdTRUE)
  86:user/driver/adc/adc.c ****         {
 759              		.loc 1 86 13 is_stmt 0 view .LVU185
 760 01e0 0023     		movs	r3, #0	@,
 761 01e2 4FF47A72 		mov	r2, #1000	@,
 762 01e6 1946     		mov	r1, r3	@,
 763 01e8 A068     		ldr	r0, [r4, #8]	@, adc_man.done_lock
 764 01ea FFF7FEFF 		bl	xQueueGenericReceive		@
 765              	.LVL43:
 766              	@ user/driver/adc/adc.c:86:         if (xSemaphoreTake(adc_man.done_lock, 1000) == pdTRUE)
  86:user/driver/adc/adc.c ****         {
 767              		.loc 1 86 12 view .LVU186
 768 01ee 0128     		cmp	r0, #1	@ _13,
 769              	@ user/driver/adc/adc.c:86:         if (xSemaphoreTake(adc_man.done_lock, 1000) == pdTRUE)
  86:user/driver/adc/adc.c ****         {
 770              		.loc 1 86 13 view .LVU187
 771 01f0 0646     		mov	r6, r0	@ _13, tmp154
 772              	@ user/driver/adc/adc.c:86:         if (xSemaphoreTake(adc_man.done_lock, 1000) == pdTRUE)
  86:user/driver/adc/adc.c ****         {
 773              		.loc 1 86 12 view .LVU188
 774 01f2 0ED1     		bne	.L39		@,
 775              	.LBB18:
  88:user/driver/adc/adc.c ****             chn->data = adc_man.data;
 776              		.loc 1 88 13 is_stmt 1 view .LVU189
 777              	.LVL44:
  89:user/driver/adc/adc.c ****             chn->data_available = true;
 778              		.loc 1 89 13 view .LVU190
 779              	@ user/driver/adc/adc.c:89:             chn->data = adc_man.data;
  89:user/driver/adc/adc.c ****             chn->data_available = true;
 780              		.loc 1 89 23 is_stmt 0 view .LVU191
 781 01f4 8222     		movs	r2, #130	@,
 782 01f6 0949     		ldr	r1, .L46+8	@,
 783 01f8 A81C     		adds	r0, r5, #2	@, ch,
 784 01fa FFF7FEFF 		bl	memcpy		@
 785              	.LVL45:
  90:user/driver/adc/adc.c ****             xSemaphoreGive(adc_man.sem_lock);
 786              		.loc 1 90 13 is_stmt 1 view .LVU192
 787              	@ user/driver/adc/adc.c:91:             xSemaphoreGive(adc_man.sem_lock);
  91:user/driver/adc/adc.c ****         }
 788              		.loc 1 91 13 is_stmt 0 view .LVU193
 789 01fe 0023     		movs	r3, #0	@,
 790 0200 6068     		ldr	r0, [r4, #4]	@, adc_man.sem_lock
 791              	@ user/driver/adc/adc.c:90:             chn->data_available = true;
  90:user/driver/adc/adc.c ****             xSemaphoreGive(adc_man.sem_lock);
 792              		.loc 1 90 33 view .LVU194
 793 0202 85F88460 		strb	r6, [r5, #132]	@ _13, MEM[(struct Channel *)ch_6(D)].data_available
  91:user/driver/adc/adc.c ****         }
 794              		.loc 1 91 13 is_stmt 1 view .LVU195
 795 0206 1A46     		mov	r2, r3	@,
 796              	.LBE18:
 797              	.LBE17:
 798              	.LBE16:
ARM GAS  C:\Users\user\AppData\Local\Temp\ccH9wMRW.s 			page 50


 799              	@ user/driver/adc/adc.c:94: }
  94:user/driver/adc/adc.c **** void AdcStop()
 800              		.loc 1 94 1 is_stmt 0 view .LVU196
 801 0208 BDE87040 		pop	{r4, r5, r6, lr}	@
 802              	.LCFI7:
 803              		.cfi_remember_state
 804              		.cfi_restore 14
 805              		.cfi_restore 6
 806              		.cfi_restore 5
 807              		.cfi_restore 4
 808              		.cfi_def_cfa_offset 0
 809              	.LVL46:
 810              	.LBB21:
 811              	.LBB20:
 812              	.LBB19:
 813              	@ user/driver/adc/adc.c:91:             xSemaphoreGive(adc_man.sem_lock);
  91:user/driver/adc/adc.c ****         }
 814              		.loc 1 91 13 view .LVU197
 815 020c 1946     		mov	r1, r3	@,
 816 020e FFF7FEBF 		b	xQueueGenericSend		@
 817              	.LVL47:
 818              	.L39:
 819              	.LCFI8:
 820              		.cfi_restore_state
  91:user/driver/adc/adc.c ****         }
 821              		.loc 1 91 13 view .LVU198
 822              	.LBE19:
 823              	.LBE20:
 824              	.LBE21:
 825              	@ user/driver/adc/adc.c:94: }
  94:user/driver/adc/adc.c **** void AdcStop()
 826              		.loc 1 94 1 view .LVU199
 827 0212 70BD     		pop	{r4, r5, r6, pc}	@
 828              	.LVL48:
 829              	.L47:
  94:user/driver/adc/adc.c **** void AdcStop()
 830              		.loc 1 94 1 view .LVU200
 831              		.align	2
 832              	.L46:
 833 0214 00000000 		.word	.LANCHOR0
 834 0218 00240140 		.word	1073816576
 835 021c 0C000000 		.word	.LANCHOR0+12
 836              		.cfi_endproc
 837              	.LFE35:
 838              		.size	AdcStart, .-AdcStart
 839              		.align	1
 840              		.global	AdcChannelRead
 841              		.syntax unified
 842              		.thumb
 843              		.thumb_func
 844              		.fpu softvfp
 845              		.type	AdcChannelRead, %function
 846              	AdcChannelRead:
 847              	.LVL49:
 848              	.LFB38:
 198:user/driver/adc/adc.c ****     if (ch == NULL || data == NULL)
 849              		.loc 1 198 1 is_stmt 1 view -0
ARM GAS  C:\Users\user\AppData\Local\Temp\ccH9wMRW.s 			page 51


 850              		.cfi_startproc
 851              		@ args = 0, pretend = 0, frame = 0
 852              		@ frame_needed = 0, uses_anonymous_args = 0
 199:user/driver/adc/adc.c ****         return ADC_STATUS_BAD_PTR;
 853              		.loc 1 199 5 view .LVU202
 854              	@ user/driver/adc/adc.c:198: {
 198:user/driver/adc/adc.c ****     if (ch == NULL || data == NULL)
 855              		.loc 1 198 1 is_stmt 0 view .LVU203
 856 0220 70B5     		push	{r4, r5, r6, lr}	@
 857              	.LCFI9:
 858              		.cfi_def_cfa_offset 16
 859              		.cfi_offset 4, -16
 860              		.cfi_offset 5, -12
 861              		.cfi_offset 6, -8
 862              		.cfi_offset 14, -4
 863              	@ user/driver/adc/adc.c:198: {
 198:user/driver/adc/adc.c ****     if (ch == NULL || data == NULL)
 864              		.loc 1 198 1 view .LVU204
 865 0222 0E46     		mov	r6, r1	@ data, tmp126
 866              	@ user/driver/adc/adc.c:199:     if (ch == NULL || data == NULL)
 199:user/driver/adc/adc.c ****         return ADC_STATUS_BAD_PTR;
 867              		.loc 1 199 8 view .LVU205
 868 0224 0546     		mov	r5, r0	@ ch, tmp125
 869 0226 78B1     		cbz	r0, .L51	@ ch,
 870              	@ user/driver/adc/adc.c:199:     if (ch == NULL || data == NULL)
 199:user/driver/adc/adc.c ****         return ADC_STATUS_BAD_PTR;
 871              		.loc 1 199 20 discriminator 1 view .LVU206
 872 0228 71B1     		cbz	r1, .L51	@ data,
 201:user/driver/adc/adc.c ****     AdcStart(ch);
 873              		.loc 1 201 5 is_stmt 1 view .LVU207
 874              	.LVL50:
 202:user/driver/adc/adc.c ****     if (chn->data_available == true)
 875              		.loc 1 202 5 view .LVU208
 876 022a FFF7FEFF 		bl	AdcStart		@
 877              	.LVL51:
 203:user/driver/adc/adc.c ****     {
 878              		.loc 1 203 5 view .LVU209
 879              	@ user/driver/adc/adc.c:203:     if (chn->data_available == true)
 203:user/driver/adc/adc.c ****     {
 880              		.loc 1 203 8 is_stmt 0 view .LVU210
 881 022e 95F88430 		ldrb	r3, [r5, #132]	@ zero_extendqisi2	@ MEM[(struct Channel *)ch_4(D)].data_available, MEM[(struc
 882 0232 5BB1     		cbz	r3, .L52	@ MEM[(struct Channel *)ch_4(D)].data_available,
 205:user/driver/adc/adc.c ****         *data = chn->data;
 883              		.loc 1 205 9 is_stmt 1 view .LVU211
 884              	@ user/driver/adc/adc.c:205:         chn->data_available = false;
 205:user/driver/adc/adc.c ****         *data = chn->data;
 885              		.loc 1 205 29 is_stmt 0 view .LVU212
 886 0234 0024     		movs	r4, #0	@ tmp118,
 887              	@ user/driver/adc/adc.c:206:         *data = chn->data;
 206:user/driver/adc/adc.c ****         return ADC_STATUS_SUCCESS;
 888              		.loc 1 206 15 view .LVU213
 889 0236 8222     		movs	r2, #130	@,
 890 0238 3046     		mov	r0, r6	@, data
 891              	@ user/driver/adc/adc.c:205:         chn->data_available = false;
 205:user/driver/adc/adc.c ****         *data = chn->data;
 892              		.loc 1 205 29 view .LVU214
 893 023a 85F88440 		strb	r4, [r5, #132]	@ tmp118, MEM[(struct Channel *)ch_4(D)].data_available
ARM GAS  C:\Users\user\AppData\Local\Temp\ccH9wMRW.s 			page 52


 206:user/driver/adc/adc.c ****         return ADC_STATUS_SUCCESS;
 894              		.loc 1 206 9 is_stmt 1 view .LVU215
 895              	@ user/driver/adc/adc.c:206:         *data = chn->data;
 206:user/driver/adc/adc.c ****         return ADC_STATUS_SUCCESS;
 896              		.loc 1 206 15 is_stmt 0 view .LVU216
 897 023e A91C     		adds	r1, r5, #2	@, ch,
 898 0240 FFF7FEFF 		bl	memcpy		@
 899              	.LVL52:
 207:user/driver/adc/adc.c ****     }
 900              		.loc 1 207 9 is_stmt 1 view .LVU217
 901              	@ user/driver/adc/adc.c:207:         return ADC_STATUS_SUCCESS;
 207:user/driver/adc/adc.c ****     }
 902              		.loc 1 207 16 is_stmt 0 view .LVU218
 903 0244 2046     		mov	r0, r4	@ <retval>, tmp118
 904              	.LVL53:
 905              	.L49:
 906              	@ user/driver/adc/adc.c:211: }
 211:user/driver/adc/adc.c **** 
 907              		.loc 1 211 1 view .LVU219
 908 0246 70BD     		pop	{r4, r5, r6, pc}	@
 909              	.LVL54:
 910              	.L51:
 911              	@ user/driver/adc/adc.c:200:         return ADC_STATUS_BAD_PTR;
 200:user/driver/adc/adc.c ****     Channel *chn = ch;
 912              		.loc 1 200 16 view .LVU220
 913 0248 0220     		movs	r0, #2	@ <retval>,
 914              	.LVL55:
 200:user/driver/adc/adc.c ****     Channel *chn = ch;
 915              		.loc 1 200 16 view .LVU221
 916 024a FCE7     		b	.L49		@
 917              	.LVL56:
 918              	.L52:
 919              	@ user/driver/adc/adc.c:210:     return ADC_STATUS_ERROR;
 210:user/driver/adc/adc.c **** }
 920              		.loc 1 210 12 view .LVU222
 921 024c 0120     		movs	r0, #1	@ <retval>,
 922 024e FAE7     		b	.L49		@
 923              		.cfi_endproc
 924              	.LFE38:
 925              		.size	AdcChannelRead, .-AdcChannelRead
 926              		.align	1
 927              		.global	ADC1_2_IRQHandler
 928              		.syntax unified
 929              		.thumb
 930              		.thumb_func
 931              		.fpu softvfp
 932              		.type	ADC1_2_IRQHandler, %function
 933              	ADC1_2_IRQHandler:
 934              	.LFB40:
 277:user/driver/adc/adc.c **** 
 278:user/driver/adc/adc.c **** void ADC1_2_IRQHandler()
 279:user/driver/adc/adc.c **** {
 935              		.loc 1 279 1 is_stmt 1 view -0
 936              		.cfi_startproc
 937              		@ args = 0, pretend = 0, frame = 8
 938              		@ frame_needed = 0, uses_anonymous_args = 0
 280:user/driver/adc/adc.c ****     BaseType_t high_ptask_token;
ARM GAS  C:\Users\user\AppData\Local\Temp\ccH9wMRW.s 			page 53


 939              		.loc 1 280 5 view .LVU224
 281:user/driver/adc/adc.c ****     if (ADC_GetITStatus(ADC1, ADC_IT_EOC))
 940              		.loc 1 281 5 view .LVU225
 941              	@ user/driver/adc/adc.c:279: {
 279:user/driver/adc/adc.c ****     BaseType_t high_ptask_token;
 942              		.loc 1 279 1 is_stmt 0 view .LVU226
 943 0250 13B5     		push	{r0, r1, r4, lr}	@
 944              	.LCFI10:
 945              		.cfi_def_cfa_offset 16
 946              		.cfi_offset 4, -8
 947              		.cfi_offset 14, -4
 948              	@ user/driver/adc/adc.c:281:     if (ADC_GetITStatus(ADC1, ADC_IT_EOC))
 949              		.loc 1 281 9 view .LVU227
 950 0252 4FF40871 		mov	r1, #544	@,
 951 0256 1B48     		ldr	r0, .L65	@,
 952 0258 FFF7FEFF 		bl	ADC_GetITStatus		@
 953              	.LVL57:
 954              	@ user/driver/adc/adc.c:281:     if (ADC_GetITStatus(ADC1, ADC_IT_EOC))
 955              		.loc 1 281 8 view .LVU228
 956 025c F8B1     		cbz	r0, .L55	@ tmp149,
 957              	.LBB22:
 282:user/driver/adc/adc.c ****     {
 283:user/driver/adc/adc.c ****         ADC_ClearITPendingBit(ADC1, ADC_IT_EOC);
 958              		.loc 1 283 9 is_stmt 1 view .LVU229
 959 025e 4FF40871 		mov	r1, #544	@,
 960 0262 1848     		ldr	r0, .L65	@,
 961 0264 FFF7FEFF 		bl	ADC_ClearITPendingBit		@
 962              	.LVL58:
 284:user/driver/adc/adc.c ****         uint16_t adc_data = ADC_GetConversionValue(ADC1);
 963              		.loc 1 284 9 view .LVU230
 964              	@ user/driver/adc/adc.c:284:         uint16_t adc_data = ADC_GetConversionValue(ADC1);
 965              		.loc 1 284 29 is_stmt 0 view .LVU231
 966 0268 1648     		ldr	r0, .L65	@,
 967 026a FFF7FEFF 		bl	ADC_GetConversionValue		@
 968              	.LVL59:
 285:user/driver/adc/adc.c ****         if (adc_man.current_ch != NULL)
 969              		.loc 1 285 9 is_stmt 1 view .LVU232
 970              	@ user/driver/adc/adc.c:285:         if (adc_man.current_ch != NULL)
 971              		.loc 1 285 20 is_stmt 0 view .LVU233
 972 026e 164B     		ldr	r3, .L65+4	@ tmp127,
 973 0270 1C68     		ldr	r4, [r3]	@ _2, adc_man.current_ch
 974              	@ user/driver/adc/adc.c:285:         if (adc_man.current_ch != NULL)
 975              		.loc 1 285 12 view .LVU234
 976 0272 A4B1     		cbz	r4, .L55	@ _2,
 977              	.LBB23:
 286:user/driver/adc/adc.c ****         {
 287:user/driver/adc/adc.c ****             Channel *cptr = adc_man.current_ch;
 978              		.loc 1 287 13 is_stmt 1 view .LVU235
 979              	.LVL60:
