ARM GAS  C:\Users\user\AppData\Local\Temp\cc7qV6fF.s 			page 1


   1              		.cpu cortex-m3
   2              		.eabi_attribute 20, 1	@ Tag_ABI_FP_denormal
   3              		.eabi_attribute 21, 1	@ Tag_ABI_FP_exceptions
   4              		.eabi_attribute 23, 3	@ Tag_ABI_FP_number_model
   5              		.eabi_attribute 24, 1	@ Tag_ABI_align8_needed
   6              		.eabi_attribute 25, 1	@ Tag_ABI_align8_preserved
   7              		.eabi_attribute 26, 1	@ Tag_ABI_enum_size
   8              		.eabi_attribute 30, 4	@ Tag_ABI_optimization_goals
   9              		.eabi_attribute 34, 1	@ Tag_CPU_unaligned_access
  10              		.eabi_attribute 18, 4	@ Tag_ABI_PCS_wchar_t
  11              		.file	"usart.c"
  12              	@ GNU C17 (GNU Arm Embedded Toolchain 10.3-2021.07) version 10.3.1 20210621 (release) (arm-none-eab
  13              	@	compiled by GNU C version 7.3-win32 20180312, GMP version 6.1.0, MPFR version 3.1.4, MPC version 
  14              	
  15              	@ GGC heuristics: --param ggc-min-expand=100 --param ggc-min-heapsize=131072
  16              	@ options passed:  -I . -I ./user -I ./user/driver -I ./user/driver/modem
  17              	@ -I ./user/driver/debug -I ./user/driver/gpio -I ./user/driver/usart
  18              	@ -I ./user/driver/gps -I ./user/driver/rtc -I ./user/driver/led
  19              	@ -I ./user/driver/mux -I ./user/driver/vibration -I ./user/driver/exti
  20              	@ -I ./user/driver/adc -I ./user/driver/18B20 -I ./user/driver/http
  21              	@ -I ./user/driver/w26 -I ./user/driver/i2c -I ./user/driver/system
  22              	@ -I ./user/driver/lock -I ./user/driver/memory -I ./user/driver/spi
  23              	@ -I ./user/driver/w25q -I ./user/driver/rms -I ./user/driver/sensor
  24              	@ -I ./stm32f10x_libraries/CMSIS/CM3/CoreSupport
  25              	@ -I ./stm32f10x_libraries/CMSIS/CM3/DeviceSupport/ST/STM32F10x
  26              	@ -I ./stm32f10x_libraries/STM32F10x_StdPeriph_Driver/inc
  27              	@ -I ./stm32f10x_libraries/STM32F10x_StdPeriph_Driver -I ./freertos/include
  28              	@ -I ./freertos/portable/GCC/ARM_CM3 -imultilib thumb/v7-m/nofp
  29              	@ -iprefix c:\program files (x86)\gnu arm embedded toolchain\10 2021.07\bin\../lib/gcc/arm-none-eab
  30              	@ -isysroot c:\program files (x86)\gnu arm embedded toolchain\10 2021.07\bin\../arm-none-eabi
  31              	@ -D__USES_INITFINI__ -D STM32F10X_CL -D USE_STDPERIPH_DRIVER
  32              	@ -D HSE_VALUE=8000000 -D RUN_FROM_FLASH=1 user/driver/usart/usart.c
  33              	@ -mcpu=cortex-m3 -mthumb -mfloat-abi=soft -mlibarch=armv7-m -march=armv7-m
  34              	@ -auxbase-strip user/driver/usart/usart.o -g -gdwarf-2 -Os -Wall
  35              	@ -fomit-frame-pointer -fverbose-asm
  36              	@ options enabled:  -faggressive-loop-optimizations -fallocation-dce
  37              	@ -fauto-inc-dec -fbranch-count-reg -fcaller-saves -fcode-hoisting
  38              	@ -fcombine-stack-adjustments -fcompare-elim -fcprop-registers
  39              	@ -fcrossjumping -fcse-follow-jumps -fdefer-pop
  40              	@ -fdelete-null-pointer-checks -fdevirtualize -fdevirtualize-speculatively
  41              	@ -fdwarf2-cfi-asm -fearly-inlining -feliminate-unused-debug-symbols
  42              	@ -feliminate-unused-debug-types -fexpensive-optimizations
  43              	@ -fforward-propagate -ffp-int-builtin-inexact -ffunction-cse -fgcse
  44              	@ -fgcse-lm -fgnu-unique -fguess-branch-probability -fhoist-adjacent-loads
  45              	@ -fident -fif-conversion -fif-conversion2 -findirect-inlining -finline
  46              	@ -finline-atomics -finline-functions -finline-functions-called-once
  47              	@ -finline-small-functions -fipa-bit-cp -fipa-cp -fipa-icf
  48              	@ -fipa-icf-functions -fipa-icf-variables -fipa-profile -fipa-pure-const
  49              	@ -fipa-ra -fipa-reference -fipa-reference-addressable -fipa-sra
  50              	@ -fipa-stack-alignment -fipa-vrp -fira-hoist-pressure
  51              	@ -fira-share-save-slots -fira-share-spill-slots
  52              	@ -fisolate-erroneous-paths-dereference -fivopts -fkeep-static-consts
  53              	@ -fleading-underscore -flifetime-dse -flra-remat -fmath-errno
  54              	@ -fmerge-constants -fmerge-debug-strings -fmove-loop-invariants
  55              	@ -fomit-frame-pointer -foptimize-sibling-calls -fpartial-inlining
  56              	@ -fpeephole -fpeephole2 -fplt -fprefetch-loop-arrays -freg-struct-return
  57              	@ -freorder-blocks -freorder-functions -frerun-cse-after-loop
ARM GAS  C:\Users\user\AppData\Local\Temp\cc7qV6fF.s 			page 2


  58              	@ -fsched-critical-path-heuristic -fsched-dep-count-heuristic
  59              	@ -fsched-group-heuristic -fsched-interblock -fsched-last-insn-heuristic
  60              	@ -fsched-pressure -fsched-rank-heuristic -fsched-spec
  61              	@ -fsched-spec-insn-heuristic -fsched-stalled-insns-dep -fschedule-insns2
  62              	@ -fsection-anchors -fsemantic-interposition -fshow-column
  63              	@ -fshrink-wrap-separate -fsigned-zeros -fsplit-ivs-in-unroller
  64              	@ -fsplit-wide-types -fssa-backprop -fssa-phiopt -fstdarg-opt
  65              	@ -fstore-merging -fstrict-aliasing -fstrict-volatile-bitfields
  66              	@ -fsync-libcalls -fthread-jumps -ftoplevel-reorder -ftrapping-math
  67              	@ -ftree-bit-ccp -ftree-builtin-call-dce -ftree-ccp -ftree-ch
  68              	@ -ftree-coalesce-vars -ftree-copy-prop -ftree-cselim -ftree-dce
  69              	@ -ftree-dominator-opts -ftree-dse -ftree-forwprop -ftree-fre
  70              	@ -ftree-loop-distribute-patterns -ftree-loop-if-convert -ftree-loop-im
  71              	@ -ftree-loop-ivcanon -ftree-loop-optimize -ftree-parallelize-loops=
  72              	@ -ftree-phiprop -ftree-pre -ftree-pta -ftree-reassoc -ftree-scev-cprop
  73              	@ -ftree-sink -ftree-slsr -ftree-sra -ftree-switch-conversion
  74              	@ -ftree-tail-merge -ftree-ter -ftree-vrp -funit-at-a-time -fvar-tracking
  75              	@ -fvar-tracking-assignments -fverbose-asm -fzero-initialized-in-bss
  76              	@ -masm-syntax-unified -mbe32 -mfix-cortex-m3-ldrd -mlittle-endian
  77              	@ -mpic-data-is-text-relative -msched-prolog -mthumb -munaligned-access
  78              	@ -mvectorize-with-neon-quad
  79              	
  80              		.text
  81              	.Ltext0:
  82              		.cfi_sections	.debug_frame
  83              		.align	1
  84              		.global	PinSourceDecode
  85              		.arch armv7-m
  86              		.syntax unified
  87              		.thumb
  88              		.thumb_func
  89              		.fpu softvfp
  90              		.type	PinSourceDecode, %function
  91              	PinSourceDecode:
  92              	.LVL0:
  93              	.LFB34:
  94              		.file 1 "user/driver/usart/usart.c"
   1:user/driver/usart/usart.c **** #include <stddef.h>
   2:user/driver/usart/usart.c **** #include <stdlib.h>
   3:user/driver/usart/usart.c **** #include "usart.h"
   4:user/driver/usart/usart.c **** #include "usart_config.h"
   5:user/driver/usart/usart.c **** #include "stm32f10x.h"
   6:user/driver/usart/usart.c **** #include "stm32f10x_usart.h"
   7:user/driver/usart/usart.c **** #include "stm32f10x_gpio.h"
   8:user/driver/usart/usart.c **** #include "stm32f10x_rcc.h"
   9:user/driver/usart/usart.c **** #include "debug.h"
  10:user/driver/usart/usart.c **** #include "FreeRTOS.h"
  11:user/driver/usart/usart.c **** #include "queue.h"
  12:user/driver/usart/usart.c **** 
  13:user/driver/usart/usart.c **** typedef struct
  14:user/driver/usart/usart.c **** {
  15:user/driver/usart/usart.c **** 	ComId port_id;
  16:user/driver/usart/usart.c **** 	uint32_t baud;
  17:user/driver/usart/usart.c **** 	xQueueHandle rx_fifo;
  18:user/driver/usart/usart.c **** 	uint32_t is_initialised;
  19:user/driver/usart/usart.c **** } UsartType;
  20:user/driver/usart/usart.c **** 
ARM GAS  C:\Users\user\AppData\Local\Temp\cc7qV6fF.s 			page 3


  21:user/driver/usart/usart.c **** static UsartType usart_handle_list[7];
  22:user/driver/usart/usart.c **** 
  23:user/driver/usart/usart.c **** uint16_t PinSourceDecode(uint16_t pin)
  24:user/driver/usart/usart.c **** {
  95              		.loc 1 24 1 view -0
  96              		.cfi_startproc
  97              		@ args = 0, pretend = 0, frame = 0
  98              		@ frame_needed = 0, uses_anonymous_args = 0
  99              		@ link register save eliminated.
  25:user/driver/usart/usart.c **** 	uint16_t pin_source = 0x10;
 100              		.loc 1 25 2 view .LVU1
  26:user/driver/usart/usart.c **** 	switch (pin)
 101              		.loc 1 26 2 view .LVU2
 102 0000 B0F5807F 		cmp	r0, #256	@ pin,
 103 0004 3AD0     		beq	.L11		@,
 104 0006 19D8     		bhi	.L3		@,
 105 0008 1028     		cmp	r0, #16	@ pin,
 106 000a 39D0     		beq	.L12		@,
 107 000c 0DD8     		bhi	.L4		@,
 108 000e 0138     		subs	r0, r0, #1	@ tmp120, pin,
 109              	.LVL1:
 110              		.loc 1 26 2 is_stmt 0 view .LVU3
 111 0010 83B2     		uxth	r3, r0	@ tmp123, tmp120
 112 0012 072B     		cmp	r3, #7	@ tmp123,
 113 0014 36D8     		bhi	.L13		@,
 114 0016 0728     		cmp	r0, #7	@ tmp120,
 115 0018 34D8     		bhi	.L13		@
 116 001a DFE800F0 		tbb	[pc, r0]	@ tmp120
 117              	.L7:
 118 001e 04       		.byte	(.L9-.L7)/2
 119 001f 35       		.byte	(.L14-.L7)/2
 120 0020 33       		.byte	(.L13-.L7)/2
 121 0021 2B       		.byte	(.L8-.L7)/2
 122 0022 33       		.byte	(.L13-.L7)/2
 123 0023 33       		.byte	(.L13-.L7)/2
 124 0024 33       		.byte	(.L13-.L7)/2
 125 0025 2D       		.byte	(.L6-.L7)/2
 126              		.p2align 1
 127              	.L9:
 128 0026 0020     		movs	r0, #0	@ <retval>,
 129 0028 7047     		bx	lr	@
 130              	.LVL2:
 131              	.L4:
 132              		.loc 1 26 2 view .LVU4
 133 002a 4028     		cmp	r0, #64	@ pin,
 134 002c 2ED0     		beq	.L15		@,
 135 002e 8028     		cmp	r0, #128	@ pin,
 136 0030 2ED0     		beq	.L16		@,
 137              	@ user/driver/usart/usart.c:44: 		pin_source = GPIO_PinSource5;
  27:user/driver/usart/usart.c **** 	{
  28:user/driver/usart/usart.c **** 	case GPIO_Pin_0:
  29:user/driver/usart/usart.c **** 		pin_source = GPIO_PinSource0;
  30:user/driver/usart/usart.c **** 		break;
  31:user/driver/usart/usart.c **** 	case GPIO_Pin_1:
  32:user/driver/usart/usart.c **** 		pin_source = GPIO_PinSource1;
  33:user/driver/usart/usart.c **** 		break;
  34:user/driver/usart/usart.c **** 	case GPIO_Pin_2:
ARM GAS  C:\Users\user\AppData\Local\Temp\cc7qV6fF.s 			page 4


  35:user/driver/usart/usart.c **** 		pin_source = GPIO_PinSource2;
  36:user/driver/usart/usart.c **** 		break;
  37:user/driver/usart/usart.c **** 	case GPIO_Pin_3:
  38:user/driver/usart/usart.c **** 		pin_source = GPIO_PinSource3;
  39:user/driver/usart/usart.c **** 		break;
  40:user/driver/usart/usart.c **** 	case GPIO_Pin_4:
  41:user/driver/usart/usart.c **** 		pin_source = GPIO_PinSource4;
  42:user/driver/usart/usart.c **** 		break;
  43:user/driver/usart/usart.c **** 	case GPIO_Pin_5:
  44:user/driver/usart/usart.c **** 		pin_source = GPIO_PinSource5;
 138              		.loc 1 44 14 view .LVU5
 139 0032 2028     		cmp	r0, #32	@ pin,
 140 0034 14BF     		ite	ne
 141 0036 1020     		movne	r0, #16	@ <retval>,
 142              	.LVL3:
 143              		.loc 1 44 14 view .LVU6
 144 0038 0520     		moveq	r0, #5	@ <retval>,
 145 003a 7047     		bx	lr	@
 146              	.LVL4:
 147              	.L3:
 148              	@ user/driver/usart/usart.c:26: 	switch (pin)
  26:user/driver/usart/usart.c **** 	switch (pin)
 149              		.loc 1 26 2 view .LVU7
 150 003c B0F5805F 		cmp	r0, #4096	@ pin,
 151 0040 28D0     		beq	.L18		@,
 152 0042 0BD8     		bhi	.L10		@,
 153 0044 B0F5806F 		cmp	r0, #1024	@ pin,
 154 0048 26D0     		beq	.L19		@,
 155 004a B0F5006F 		cmp	r0, #2048	@ pin,
 156 004e 25D0     		beq	.L20		@,
 157              	@ user/driver/usart/usart.c:56: 		pin_source = GPIO_PinSource9;
  45:user/driver/usart/usart.c **** 		break;
  46:user/driver/usart/usart.c **** 	case GPIO_Pin_6:
  47:user/driver/usart/usart.c **** 		pin_source = GPIO_PinSource6;
  48:user/driver/usart/usart.c **** 		break;
  49:user/driver/usart/usart.c **** 	case GPIO_Pin_7:
  50:user/driver/usart/usart.c **** 		pin_source = GPIO_PinSource7;
  51:user/driver/usart/usart.c **** 		break;
  52:user/driver/usart/usart.c **** 	case GPIO_Pin_8:
  53:user/driver/usart/usart.c **** 		pin_source = GPIO_PinSource8;
  54:user/driver/usart/usart.c **** 		break;
  55:user/driver/usart/usart.c **** 	case GPIO_Pin_9:
  56:user/driver/usart/usart.c **** 		pin_source = GPIO_PinSource9;
 158              		.loc 1 56 14 view .LVU8
 159 0050 B0F5007F 		cmp	r0, #512	@ pin,
 160 0054 14BF     		ite	ne
 161 0056 1020     		movne	r0, #16	@ <retval>,
 162              	.LVL5:
 163              		.loc 1 56 14 view .LVU9
 164 0058 0920     		moveq	r0, #9	@ <retval>,
 165 005a 7047     		bx	lr	@
 166              	.LVL6:
 167              	.L10:
 168              	@ user/driver/usart/usart.c:26: 	switch (pin)
  26:user/driver/usart/usart.c **** 	{
 169              		.loc 1 26 2 view .LVU10
 170 005c B0F5804F 		cmp	r0, #16384	@ pin,
ARM GAS  C:\Users\user\AppData\Local\Temp\cc7qV6fF.s 			page 5


 171 0060 1ED0     		beq	.L22		@,
 172 0062 B0F5004F 		cmp	r0, #32768	@ pin,
 173 0066 1DD0     		beq	.L23		@,
 174              	@ user/driver/usart/usart.c:68: 		pin_source = GPIO_PinSource13;
  57:user/driver/usart/usart.c **** 		break;
  58:user/driver/usart/usart.c **** 	case GPIO_Pin_10:
  59:user/driver/usart/usart.c **** 		pin_source = GPIO_PinSource10;
  60:user/driver/usart/usart.c **** 		break;
  61:user/driver/usart/usart.c **** 	case GPIO_Pin_11:
  62:user/driver/usart/usart.c **** 		pin_source = GPIO_PinSource11;
  63:user/driver/usart/usart.c **** 		break;
  64:user/driver/usart/usart.c **** 	case GPIO_Pin_12:
  65:user/driver/usart/usart.c **** 		pin_source = GPIO_PinSource12;
  66:user/driver/usart/usart.c **** 		break;
  67:user/driver/usart/usart.c **** 	case GPIO_Pin_13:
  68:user/driver/usart/usart.c **** 		pin_source = GPIO_PinSource13;
 175              		.loc 1 68 14 view .LVU11
 176 0068 B0F5005F 		cmp	r0, #8192	@ pin,
 177 006c 14BF     		ite	ne
 178 006e 1020     		movne	r0, #16	@ <retval>,
 179              	.LVL7:
 180              		.loc 1 68 14 view .LVU12
 181 0070 0D20     		moveq	r0, #13	@ <retval>,
 182 0072 7047     		bx	lr	@
 183              	.L8:
  35:user/driver/usart/usart.c **** 		break;
 184              		.loc 1 35 3 is_stmt 1 view .LVU13
 185              	.LVL8:
  36:user/driver/usart/usart.c **** 	case GPIO_Pin_3:
 186              		.loc 1 36 3 view .LVU14
 187              	@ user/driver/usart/usart.c:35: 		pin_source = GPIO_PinSource2;
  35:user/driver/usart/usart.c **** 		break;
 188              		.loc 1 35 14 is_stmt 0 view .LVU15
 189 0074 0220     		movs	r0, #2	@ <retval>,
 190              	@ user/driver/usart/usart.c:36: 		break;
  36:user/driver/usart/usart.c **** 	case GPIO_Pin_3:
 191              		.loc 1 36 3 view .LVU16
 192 0076 7047     		bx	lr	@
 193              	.LVL9:
 194              	.L6:
  38:user/driver/usart/usart.c **** 		break;
 195              		.loc 1 38 3 is_stmt 1 view .LVU17
  39:user/driver/usart/usart.c **** 	case GPIO_Pin_4:
 196              		.loc 1 39 3 view .LVU18
 197              	@ user/driver/usart/usart.c:38: 		pin_source = GPIO_PinSource3;
  38:user/driver/usart/usart.c **** 		break;
 198              		.loc 1 38 14 is_stmt 0 view .LVU19
 199 0078 0320     		movs	r0, #3	@ <retval>,
 200              	@ user/driver/usart/usart.c:39: 		break;
  39:user/driver/usart/usart.c **** 	case GPIO_Pin_4:
 201              		.loc 1 39 3 view .LVU20
 202 007a 7047     		bx	lr	@
 203              	.LVL10:
 204              	.L11:
 205              	@ user/driver/usart/usart.c:53: 		pin_source = GPIO_PinSource8;
  53:user/driver/usart/usart.c **** 		break;
 206              		.loc 1 53 14 view .LVU21
ARM GAS  C:\Users\user\AppData\Local\Temp\cc7qV6fF.s 			page 6


 207 007c 0820     		movs	r0, #8	@ <retval>,
 208              	.LVL11:
  53:user/driver/usart/usart.c **** 		break;
 209              		.loc 1 53 14 view .LVU22
 210 007e 7047     		bx	lr	@
 211              	.LVL12:
 212              	.L12:
 213              	@ user/driver/usart/usart.c:41: 		pin_source = GPIO_PinSource4;
  41:user/driver/usart/usart.c **** 		break;
 214              		.loc 1 41 14 view .LVU23
 215 0080 0420     		movs	r0, #4	@ <retval>,
 216              	.LVL13:
  41:user/driver/usart/usart.c **** 		break;
 217              		.loc 1 41 14 view .LVU24
 218 0082 7047     		bx	lr	@
 219              	.L13:
 220              	@ user/driver/usart/usart.c:25: 	uint16_t pin_source = 0x10;
  25:user/driver/usart/usart.c **** 	switch (pin)
 221              		.loc 1 25 11 view .LVU25
 222 0084 1020     		movs	r0, #16	@ <retval>,
 223 0086 7047     		bx	lr	@
 224              	.L14:
 225              	@ user/driver/usart/usart.c:32: 		pin_source = GPIO_PinSource1;
  32:user/driver/usart/usart.c **** 		break;
 226              		.loc 1 32 14 view .LVU26
 227 0088 0120     		movs	r0, #1	@ <retval>,
 228 008a 7047     		bx	lr	@
 229              	.LVL14:
 230              	.L15:
 231              	@ user/driver/usart/usart.c:47: 		pin_source = GPIO_PinSource6;
  47:user/driver/usart/usart.c **** 		break;
 232              		.loc 1 47 14 view .LVU27
 233 008c 0620     		movs	r0, #6	@ <retval>,
 234              	.LVL15:
  47:user/driver/usart/usart.c **** 		break;
 235              		.loc 1 47 14 view .LVU28
 236 008e 7047     		bx	lr	@
 237              	.LVL16:
 238              	.L16:
 239              	@ user/driver/usart/usart.c:50: 		pin_source = GPIO_PinSource7;
  50:user/driver/usart/usart.c **** 		break;
 240              		.loc 1 50 14 view .LVU29
 241 0090 0720     		movs	r0, #7	@ <retval>,
 242              	.LVL17:
  50:user/driver/usart/usart.c **** 		break;
 243              		.loc 1 50 14 view .LVU30
 244 0092 7047     		bx	lr	@
 245              	.LVL18:
 246              	.L18:
 247              	@ user/driver/usart/usart.c:65: 		pin_source = GPIO_PinSource12;
  65:user/driver/usart/usart.c **** 		break;
 248              		.loc 1 65 14 view .LVU31
 249 0094 0C20     		movs	r0, #12	@ <retval>,
 250              	.LVL19:
  65:user/driver/usart/usart.c **** 		break;
 251              		.loc 1 65 14 view .LVU32
 252 0096 7047     		bx	lr	@
ARM GAS  C:\Users\user\AppData\Local\Temp\cc7qV6fF.s 			page 7


 253              	.LVL20:
 254              	.L19:
 255              	@ user/driver/usart/usart.c:59: 		pin_source = GPIO_PinSource10;
  59:user/driver/usart/usart.c **** 		break;
 256              		.loc 1 59 14 view .LVU33
 257 0098 0A20     		movs	r0, #10	@ <retval>,
 258              	.LVL21:
  59:user/driver/usart/usart.c **** 		break;
 259              		.loc 1 59 14 view .LVU34
 260 009a 7047     		bx	lr	@
 261              	.LVL22:
 262              	.L20:
 263              	@ user/driver/usart/usart.c:62: 		pin_source = GPIO_PinSource11;
  62:user/driver/usart/usart.c **** 		break;
 264              		.loc 1 62 14 view .LVU35
 265 009c 0B20     		movs	r0, #11	@ <retval>,
 266              	.LVL23:
  62:user/driver/usart/usart.c **** 		break;
 267              		.loc 1 62 14 view .LVU36
 268 009e 7047     		bx	lr	@
 269              	.LVL24:
 270              	.L22:
 271              	@ user/driver/usart/usart.c:71: 		pin_source = GPIO_PinSource14;
  69:user/driver/usart/usart.c **** 		break;
  70:user/driver/usart/usart.c **** 	case GPIO_Pin_14:
  71:user/driver/usart/usart.c **** 		pin_source = GPIO_PinSource14;
 272              		.loc 1 71 14 view .LVU37
 273 00a0 0E20     		movs	r0, #14	@ <retval>,
 274              	.LVL25:
 275              		.loc 1 71 14 view .LVU38
 276 00a2 7047     		bx	lr	@
 277              	.LVL26:
 278              	.L23:
 279              	@ user/driver/usart/usart.c:74: 		pin_source = GPIO_PinSource15;
  72:user/driver/usart/usart.c **** 		break;
  73:user/driver/usart/usart.c **** 	case GPIO_Pin_15:
  74:user/driver/usart/usart.c **** 		pin_source = GPIO_PinSource15;
 280              		.loc 1 74 14 view .LVU39
 281 00a4 0F20     		movs	r0, #15	@ <retval>,
 282              	.LVL27:
  75:user/driver/usart/usart.c **** 		break;
  76:user/driver/usart/usart.c **** 	default:
  77:user/driver/usart/usart.c **** 		break;
  78:user/driver/usart/usart.c **** 	}
  79:user/driver/usart/usart.c **** 	return pin_source;
 283              		.loc 1 79 2 is_stmt 1 view .LVU40
 284              	@ user/driver/usart/usart.c:80: }
  80:user/driver/usart/usart.c **** }
 285              		.loc 1 80 1 is_stmt 0 view .LVU41
 286 00a6 7047     		bx	lr	@
 287              		.cfi_endproc
 288              	.LFE34:
 289              		.size	PinSourceDecode, .-PinSourceDecode
 290              		.align	1
 291              		.global	GetIRQnFromId
 292              		.syntax unified
 293              		.thumb
ARM GAS  C:\Users\user\AppData\Local\Temp\cc7qV6fF.s 			page 8


 294              		.thumb_func
 295              		.fpu softvfp
 296              		.type	GetIRQnFromId, %function
 297              	GetIRQnFromId:
 298              	.LVL28:
 299              	.LFB35:
  81:user/driver/usart/usart.c **** 
  82:user/driver/usart/usart.c **** IRQn_Type GetIRQnFromId(ComId id)
  83:user/driver/usart/usart.c **** {
 300              		.loc 1 83 1 is_stmt 1 view -0
 301              		.cfi_startproc
 302              		@ args = 0, pretend = 0, frame = 0
 303              		@ frame_needed = 0, uses_anonymous_args = 0
 304              		@ link register save eliminated.
  84:user/driver/usart/usart.c **** 	IRQn_Type irq_type = BusFault_IRQn;
 305              		.loc 1 84 2 view .LVU43
  85:user/driver/usart/usart.c **** 	switch (id)
 306              		.loc 1 85 2 view .LVU44
 307 00a8 0428     		cmp	r0, #4	@ id,
 308 00aa 9ABF     		itte	ls
 309 00ac 024B     		ldrls	r3, .L28	@ tmp117,
 310 00ae 1856     		ldrsbls	r0, [r3, r0]	@ <retval>, CSWTCH.11[id_4(D)]
 311              	.LVL29:
 312              	@ user/driver/usart/usart.c:83: {
  83:user/driver/usart/usart.c **** 	IRQn_Type irq_type = BusFault_IRQn;
 313              		.loc 1 83 1 is_stmt 0 view .LVU45
 314 00b0 6FF00A00 		mvnhi	r0, #10	@ <retval>,
 315              	.LVL30:
  86:user/driver/usart/usart.c **** 	{
  87:user/driver/usart/usart.c **** 	case COM1:
  88:user/driver/usart/usart.c **** 		irq_type = USART1_IRQn;
  89:user/driver/usart/usart.c **** 		break;
  90:user/driver/usart/usart.c **** 	case COM2:
  91:user/driver/usart/usart.c **** 		irq_type = USART2_IRQn;
  92:user/driver/usart/usart.c **** 		break;
  93:user/driver/usart/usart.c **** 	case COM3:
  94:user/driver/usart/usart.c **** 		irq_type = USART3_IRQn;
  95:user/driver/usart/usart.c **** 		break;
  96:user/driver/usart/usart.c **** 	case COM4:
  97:user/driver/usart/usart.c **** 		irq_type = UART4_IRQn;
  98:user/driver/usart/usart.c **** 		break;
  99:user/driver/usart/usart.c **** 	case COM5:
 100:user/driver/usart/usart.c **** 		irq_type = UART5_IRQn;
 101:user/driver/usart/usart.c **** 		break;
 102:user/driver/usart/usart.c **** 	default:
 103:user/driver/usart/usart.c **** 		break;
 104:user/driver/usart/usart.c **** 	}
 105:user/driver/usart/usart.c **** 	return irq_type;
 316              		.loc 1 105 2 is_stmt 1 view .LVU46
 317              	@ user/driver/usart/usart.c:106: }
 106:user/driver/usart/usart.c **** }
 318              		.loc 1 106 1 is_stmt 0 view .LVU47
 319 00b4 7047     		bx	lr	@
 320              	.L29:
 321 00b6 00BF     		.align	2
 322              	.L28:
 323 00b8 00000000 		.word	.LANCHOR0
ARM GAS  C:\Users\user\AppData\Local\Temp\cc7qV6fF.s 			page 9


 324              		.cfi_endproc
 325              	.LFE35:
 326              		.size	GetIRQnFromId, .-GetIRQnFromId
 327              		.align	1
 328              		.global	GetGpioClockMask
 329              		.syntax unified
 330              		.thumb
 331              		.thumb_func
 332              		.fpu softvfp
 333              		.type	GetGpioClockMask, %function
 334              	GetGpioClockMask:
 335              	.LVL31:
 336              	.LFB36:
 107:user/driver/usart/usart.c **** 
 108:user/driver/usart/usart.c **** uint32_t GetGpioClockMask(GPIO_TypeDef *gpio)
 109:user/driver/usart/usart.c **** {
 337              		.loc 1 109 1 is_stmt 1 view -0
 338              		.cfi_startproc
 339              		@ args = 0, pretend = 0, frame = 0
 340              		@ frame_needed = 0, uses_anonymous_args = 0
 341              		@ link register save eliminated.
 110:user/driver/usart/usart.c **** 	uint32_t gpio_clock_cmd_mask;
 342              		.loc 1 110 2 view .LVU49
 111:user/driver/usart/usart.c **** 	if (gpio == GPIOA)
 343              		.loc 1 111 2 view .LVU50
 344              	@ user/driver/usart/usart.c:111: 	if (gpio == GPIOA)
 345              		.loc 1 111 5 is_stmt 0 view .LVU51
 346 00bc 154B     		ldr	r3, .L39	@ tmp115,
 347 00be 9842     		cmp	r0, r3	@ gpio, tmp115
 348 00c0 1BD0     		beq	.L32		@,
 112:user/driver/usart/usart.c **** 		gpio_clock_cmd_mask = RCC_APB2Periph_GPIOA;
 113:user/driver/usart/usart.c **** 	else if (gpio == GPIOB)
 349              		.loc 1 113 7 is_stmt 1 view .LVU52
 350              	@ user/driver/usart/usart.c:113: 	else if (gpio == GPIOB)
 351              		.loc 1 113 10 is_stmt 0 view .LVU53
 352 00c2 03F58063 		add	r3, r3, #1024	@ tmp116, tmp116,
 353 00c6 9842     		cmp	r0, r3	@ gpio, tmp116
 354 00c8 19D0     		beq	.L33		@,
 114:user/driver/usart/usart.c **** 		gpio_clock_cmd_mask = RCC_APB2Periph_GPIOB;
 115:user/driver/usart/usart.c **** 	else if (gpio == GPIOC)
 355              		.loc 1 115 7 is_stmt 1 view .LVU54
 356              	@ user/driver/usart/usart.c:115: 	else if (gpio == GPIOC)
 357              		.loc 1 115 10 is_stmt 0 view .LVU55
 358 00ca 03F58063 		add	r3, r3, #1024	@ tmp117, tmp117,
 359 00ce 9842     		cmp	r0, r3	@ gpio, tmp117
 360 00d0 17D0     		beq	.L34		@,
 116:user/driver/usart/usart.c **** 		gpio_clock_cmd_mask = RCC_APB2Periph_GPIOC;
 117:user/driver/usart/usart.c **** 	else if (gpio == GPIOD)
 361              		.loc 1 117 7 is_stmt 1 view .LVU56
 362              	@ user/driver/usart/usart.c:117: 	else if (gpio == GPIOD)
 363              		.loc 1 117 10 is_stmt 0 view .LVU57
 364 00d2 03F58063 		add	r3, r3, #1024	@ tmp118, tmp118,
 365 00d6 9842     		cmp	r0, r3	@ gpio, tmp118
 366 00d8 15D0     		beq	.L35		@,
 118:user/driver/usart/usart.c **** 		gpio_clock_cmd_mask = RCC_APB2Periph_GPIOD;
 119:user/driver/usart/usart.c **** 	else if (gpio == GPIOE)
 367              		.loc 1 119 7 is_stmt 1 view .LVU58
ARM GAS  C:\Users\user\AppData\Local\Temp\cc7qV6fF.s 			page 10


 368              	@ user/driver/usart/usart.c:119: 	else if (gpio == GPIOE)
 369              		.loc 1 119 10 is_stmt 0 view .LVU59
 370 00da 03F58063 		add	r3, r3, #1024	@ tmp119, tmp119,
 371 00de 9842     		cmp	r0, r3	@ gpio, tmp119
 372 00e0 13D0     		beq	.L36		@,
 373              	.LVL32:
 374              	.LBB4:
 375              	.LBI4:
 108:user/driver/usart/usart.c **** {
 376              		.loc 1 108 10 is_stmt 1 view .LVU60
 377              	.LBB5:
 120:user/driver/usart/usart.c **** 		gpio_clock_cmd_mask = RCC_APB2Periph_GPIOE;
 121:user/driver/usart/usart.c **** 	else if (gpio == GPIOF)
 378              		.loc 1 121 7 view .LVU61
 379              	@ user/driver/usart/usart.c:121: 	else if (gpio == GPIOF)
 380              		.loc 1 121 10 is_stmt 0 view .LVU62
 381 00e2 03F58063 		add	r3, r3, #1024	@ tmp120, tmp120,
 382 00e6 9842     		cmp	r0, r3	@ gpio, tmp120
 383 00e8 11D0     		beq	.L37		@,
 122:user/driver/usart/usart.c **** 		gpio_clock_cmd_mask = RCC_APB2Periph_GPIOF;
 123:user/driver/usart/usart.c **** 	else if (gpio == GPIOG)
 384              		.loc 1 123 7 is_stmt 1 view .LVU63
 385              	@ user/driver/usart/usart.c:126: 		gpio_clock_cmd_mask = 0x00;
 124:user/driver/usart/usart.c **** 		gpio_clock_cmd_mask = RCC_APB2Periph_GPIOG;
 125:user/driver/usart/usart.c **** 	else
 126:user/driver/usart/usart.c **** 		gpio_clock_cmd_mask = 0x00;
 386              		.loc 1 126 23 is_stmt 0 view .LVU64
 387 00ea 03F58063 		add	r3, r3, #1024	@ tmp121, tmp121,
 388 00ee 9842     		cmp	r0, r3	@ gpio, tmp121
 389 00f0 0CBF     		ite	eq		@
 390 00f2 4FF48070 		moveq	r0, #256	@, <retval>,
 391 00f6 0020     		movne	r0, #0	@, <retval>,
 392              	.LVL33:
 393              		.loc 1 126 23 view .LVU65
 394 00f8 7047     		bx	lr	@
 395              	.LVL34:
 396              	.L32:
 397              		.loc 1 126 23 view .LVU66
 398              	.LBE5:
 399              	.LBE4:
 400              	@ user/driver/usart/usart.c:112: 		gpio_clock_cmd_mask = RCC_APB2Periph_GPIOA;
 112:user/driver/usart/usart.c **** 	else if (gpio == GPIOB)
 401              		.loc 1 112 23 view .LVU67
 402 00fa 0420     		movs	r0, #4	@ <retval>,
 403              	.LVL35:
 112:user/driver/usart/usart.c **** 	else if (gpio == GPIOB)
 404              		.loc 1 112 23 view .LVU68
 405 00fc 7047     		bx	lr	@
 406              	.LVL36:
 407              	.L33:
 408              	@ user/driver/usart/usart.c:114: 		gpio_clock_cmd_mask = RCC_APB2Periph_GPIOB;
 114:user/driver/usart/usart.c **** 	else if (gpio == GPIOC)
 409              		.loc 1 114 23 view .LVU69
 410 00fe 0820     		movs	r0, #8	@ <retval>,
 411              	.LVL37:
 114:user/driver/usart/usart.c **** 	else if (gpio == GPIOC)
 412              		.loc 1 114 23 view .LVU70
ARM GAS  C:\Users\user\AppData\Local\Temp\cc7qV6fF.s 			page 11


 413 0100 7047     		bx	lr	@
 414              	.LVL38:
 415              	.L34:
 416              	@ user/driver/usart/usart.c:116: 		gpio_clock_cmd_mask = RCC_APB2Periph_GPIOC;
 116:user/driver/usart/usart.c **** 	else if (gpio == GPIOD)
 417              		.loc 1 116 23 view .LVU71
 418 0102 1020     		movs	r0, #16	@ <retval>,
 419              	.LVL39:
 116:user/driver/usart/usart.c **** 	else if (gpio == GPIOD)
 420              		.loc 1 116 23 view .LVU72
 421 0104 7047     		bx	lr	@
 422              	.LVL40:
 423              	.L35:
 424              	@ user/driver/usart/usart.c:118: 		gpio_clock_cmd_mask = RCC_APB2Periph_GPIOD;
 118:user/driver/usart/usart.c **** 	else if (gpio == GPIOE)
 425              		.loc 1 118 23 view .LVU73
 426 0106 2020     		movs	r0, #32	@ <retval>,
 427              	.LVL41:
 118:user/driver/usart/usart.c **** 	else if (gpio == GPIOE)
 428              		.loc 1 118 23 view .LVU74
 429 0108 7047     		bx	lr	@
 430              	.LVL42:
 431              	.L36:
 432              	@ user/driver/usart/usart.c:120: 		gpio_clock_cmd_mask = RCC_APB2Periph_GPIOE;
 120:user/driver/usart/usart.c **** 	else if (gpio == GPIOF)
 433              		.loc 1 120 23 view .LVU75
 434 010a 4020     		movs	r0, #64	@ <retval>,
 435              	.LVL43:
 120:user/driver/usart/usart.c **** 	else if (gpio == GPIOF)
 436              		.loc 1 120 23 view .LVU76
 437 010c 7047     		bx	lr	@
 438              	.LVL44:
 439              	.L37:
 440              	.LBB7:
 441              	.LBB6:
 442              	@ user/driver/usart/usart.c:122: 		gpio_clock_cmd_mask = RCC_APB2Periph_GPIOF;
 122:user/driver/usart/usart.c **** 	else if (gpio == GPIOG)
 443              		.loc 1 122 23 view .LVU77
 444 010e 8020     		movs	r0, #128	@ <retval>,
 445              	.LVL45:
 122:user/driver/usart/usart.c **** 	else if (gpio == GPIOG)
 446              		.loc 1 122 23 view .LVU78
 447              	.LBE6:
 448              	.LBE7:
 449              	@ user/driver/usart/usart.c:129: }
 127:user/driver/usart/usart.c **** 
 128:user/driver/usart/usart.c **** 	return gpio_clock_cmd_mask;
 129:user/driver/usart/usart.c **** }
 450              		.loc 1 129 1 view .LVU79
 451 0110 7047     		bx	lr	@
 452              	.L40:
 453 0112 00BF     		.align	2
 454              	.L39:
 455 0114 00080140 		.word	1073809408
 456              		.cfi_endproc
 457              	.LFE36:
 458              		.size	GetGpioClockMask, .-GetGpioClockMask
ARM GAS  C:\Users\user\AppData\Local\Temp\cc7qV6fF.s 			page 12


 459              		.align	1
 460              		.global	ConfigUsartGpio
 461              		.syntax unified
 462              		.thumb
 463              		.thumb_func
 464              		.fpu softvfp
 465              		.type	ConfigUsartGpio, %function
 466              	ConfigUsartGpio:
 467              	.LVL46:
 468              	.LFB37:
 130:user/driver/usart/usart.c **** 
 131:user/driver/usart/usart.c **** uint32_t ConfigUsartGpio(ComId id)
 132:user/driver/usart/usart.c **** {
 469              		.loc 1 132 1 is_stmt 1 view -0
 470              		.cfi_startproc
 471              		@ args = 0, pretend = 0, frame = 8
 472              		@ frame_needed = 0, uses_anonymous_args = 0
 133:user/driver/usart/usart.c **** 	GPIO_InitTypeDef config_gpio;
 473              		.loc 1 133 2 view .LVU81
 134:user/driver/usart/usart.c **** 	GPIO_TypeDef *tx_port;
 474              		.loc 1 134 2 view .LVU82
 135:user/driver/usart/usart.c **** 	GPIO_TypeDef *rx_port;
 475              		.loc 1 135 2 view .LVU83
 136:user/driver/usart/usart.c **** 	uint16_t tx_pin;
 476              		.loc 1 136 2 view .LVU84
 137:user/driver/usart/usart.c **** 	uint16_t rx_pin;
 477              		.loc 1 137 2 view .LVU85
 138:user/driver/usart/usart.c **** 
 139:user/driver/usart/usart.c **** 	// Get pin and port name of current USART
 140:user/driver/usart/usart.c **** 	switch (id)
 478              		.loc 1 140 2 view .LVU86
 479 0118 0528     		cmp	r0, #5	@ id,
 480              	@ user/driver/usart/usart.c:132: {
 132:user/driver/usart/usart.c **** 	GPIO_InitTypeDef config_gpio;
 481              		.loc 1 132 1 is_stmt 0 view .LVU87
 482 011a 73B5     		push	{r0, r1, r4, r5, r6, lr}	@
 483              	.LCFI0:
 484              		.cfi_def_cfa_offset 24
 485              		.cfi_offset 4, -16
 486              		.cfi_offset 5, -12
 487              		.cfi_offset 6, -8
 488              		.cfi_offset 14, -4
 489 011c 2CD8     		bhi	.L43		@,
 490 011e 174B     		ldr	r3, .L44	@ tmp123,
 491              	@ user/driver/usart/usart.c:187: 	RCC_APB2PeriphClockCmd(GetGpioClockMask(tx_port), ENABLE);
 141:user/driver/usart/usart.c **** 	{
 142:user/driver/usart/usart.c **** 	case COM1:
 143:user/driver/usart/usart.c **** 		rx_port = USATR1_RX_PORT;
 144:user/driver/usart/usart.c **** 		tx_port = USATR1_TX_PORT;
 145:user/driver/usart/usart.c **** 		rx_pin = USART1_RX_PIN;
 146:user/driver/usart/usart.c **** 		tx_pin = USART1_TX_PIN;
 147:user/driver/usart/usart.c **** 		break;
 148:user/driver/usart/usart.c **** 	case COM2:
 149:user/driver/usart/usart.c **** 		rx_port = USATR2_RX_PORT;
 150:user/driver/usart/usart.c **** 		tx_port = USATR2_TX_PORT;
 151:user/driver/usart/usart.c **** 		rx_pin = USART2_RX_PIN;
 152:user/driver/usart/usart.c **** 		tx_pin = USART2_TX_PIN;
ARM GAS  C:\Users\user\AppData\Local\Temp\cc7qV6fF.s 			page 13


 153:user/driver/usart/usart.c **** 		break;
 154:user/driver/usart/usart.c **** 	case COM3:
 155:user/driver/usart/usart.c **** 		rx_port = USATR3_RX_PORT;
 156:user/driver/usart/usart.c **** 		tx_port = USATR3_TX_PORT;
 157:user/driver/usart/usart.c **** 		rx_pin = USART3_RX_PIN;
 158:user/driver/usart/usart.c **** 		tx_pin = USART3_TX_PIN;
 159:user/driver/usart/usart.c **** 		break;
 160:user/driver/usart/usart.c **** 	case COM4:
 161:user/driver/usart/usart.c **** 		rx_port = USATR4_RX_PORT;
 162:user/driver/usart/usart.c **** 		tx_port = USATR4_TX_PORT;
 163:user/driver/usart/usart.c **** 		rx_pin = USART4_RX_PIN;
 164:user/driver/usart/usart.c **** 		tx_pin = USART4_TX_PIN;
 165:user/driver/usart/usart.c **** 		break;
 166:user/driver/usart/usart.c **** 	case COM5:
 167:user/driver/usart/usart.c **** 		rx_port = USATR5_RX_PORT;
 168:user/driver/usart/usart.c **** 		tx_port = USATR5_TX_PORT;
 169:user/driver/usart/usart.c **** 		rx_pin = USART5_RX_PIN;
 170:user/driver/usart/usart.c **** 		tx_pin = USART5_TX_PIN;
 171:user/driver/usart/usart.c **** 		break;
 172:user/driver/usart/usart.c **** 	case COM6:
 173:user/driver/usart/usart.c **** 		rx_port = USATR6_RX_PORT;
 174:user/driver/usart/usart.c **** 		tx_port = USATR6_TX_PORT;
 175:user/driver/usart/usart.c **** 		rx_pin = USART6_RX_PIN;
 176:user/driver/usart/usart.c **** 		tx_pin = USART6_TX_PIN;
 177:user/driver/usart/usart.c **** 		break;
 178:user/driver/usart/usart.c **** 	default:
 179:user/driver/usart/usart.c **** 		return 0;
 180:user/driver/usart/usart.c **** 		break;
 181:user/driver/usart/usart.c **** 	}
 182:user/driver/usart/usart.c **** 	// Fill usart config struct member
 183:user/driver/usart/usart.c **** 	config_gpio.GPIO_Mode = GPIO_Mode_AF_PP;
 184:user/driver/usart/usart.c **** 	config_gpio.GPIO_Pin = tx_pin;
 185:user/driver/usart/usart.c **** 	config_gpio.GPIO_Speed = GPIO_Speed_50MHz;
 186:user/driver/usart/usart.c **** 	//enable gpio clock.
 187:user/driver/usart/usart.c **** 	RCC_APB2PeriphClockCmd(GetGpioClockMask(tx_port), ENABLE);
 492              		.loc 1 187 2 view .LVU88
 493 0120 0121     		movs	r1, #1	@,
 494 0122 03EB8002 		add	r2, r3, r0, lsl #2	@ tmp124, tmp123, id,
 495 0126 03EB4000 		add	r0, r3, r0, lsl #1	@ tmp130, tmp123, id,
 496              	.LVL47:
 497              	@ user/driver/usart/usart.c:184: 	config_gpio.GPIO_Pin = tx_pin;
 184:user/driver/usart/usart.c **** 	config_gpio.GPIO_Speed = GPIO_Speed_50MHz;
 498              		.loc 1 184 23 view .LVU89
 499 012a B0F84430 		ldrh	r3, [r0, #68]	@, CSWTCH.16[id_6(D)]
 500 012e 9568     		ldr	r5, [r2, #8]	@ tx_port, CSWTCH.14[id_6(D)]
 501 0130 ADF80430 		strh	r3, [sp, #4]	@ movhi	@ CSWTCH.16[id_6(D)], config_gpio.GPIO_Pin
 502              	@ user/driver/usart/usart.c:185: 	config_gpio.GPIO_Speed = GPIO_Speed_50MHz;
 185:user/driver/usart/usart.c **** 	//enable gpio clock.
 503              		.loc 1 185 25 view .LVU90
 504 0134 41F60303 		movw	r3, #6147	@ tmp137,
 505 0138 068F     		ldrh	r6, [r0, #56]	@ rx_pin, CSWTCH.17[id_6(D)]
 506              	@ user/driver/usart/usart.c:187: 	RCC_APB2PeriphClockCmd(GetGpioClockMask(tx_port), ENABLE);
 507              		.loc 1 187 2 view .LVU91
 508 013a 2846     		mov	r0, r5	@, tx_port
 509              	@ user/driver/usart/usart.c:185: 	config_gpio.GPIO_Speed = GPIO_Speed_50MHz;
 185:user/driver/usart/usart.c **** 	//enable gpio clock.
 510              		.loc 1 185 25 view .LVU92
ARM GAS  C:\Users\user\AppData\Local\Temp\cc7qV6fF.s 			page 14


 511 013c ADF80630 		strh	r3, [sp, #6]	@ movhi	@ tmp137, MEM <unsigned short> [(void *)&config_gpio + 2B]
 512              	@ user/driver/usart/usart.c:187: 	RCC_APB2PeriphClockCmd(GetGpioClockMask(tx_port), ENABLE);
 513              		.loc 1 187 2 view .LVU93
 514 0140 FFF7FEFF 		bl	GetGpioClockMask		@
 515              	.LVL48:
 516 0144 146A     		ldr	r4, [r2, #32]	@ rx_port, CSWTCH.15[id_6(D)]
 517              	.LVL49:
 180:user/driver/usart/usart.c **** 	}
 518              		.loc 1 180 3 is_stmt 1 view .LVU94
 183:user/driver/usart/usart.c **** 	config_gpio.GPIO_Pin = tx_pin;
 519              		.loc 1 183 2 view .LVU95
 184:user/driver/usart/usart.c **** 	config_gpio.GPIO_Speed = GPIO_Speed_50MHz;
 520              		.loc 1 184 2 view .LVU96
 185:user/driver/usart/usart.c **** 	//enable gpio clock.
 521              		.loc 1 185 2 view .LVU97
 522              		.loc 1 187 2 view .LVU98
 523 0146 FFF7FEFF 		bl	RCC_APB2PeriphClockCmd		@
 524              	.LVL50:
 188:user/driver/usart/usart.c **** 	//now called hardware initialise function
 189:user/driver/usart/usart.c **** 	GPIO_Init(tx_port, &config_gpio);
 525              		.loc 1 189 2 view .LVU99
 526 014a 2846     		mov	r0, r5	@, tx_port
 527 014c 01A9     		add	r1, sp, #4	@ tmp146,,
 528 014e FFF7FEFF 		bl	GPIO_Init		@
 529              	.LVL51:
 190:user/driver/usart/usart.c **** 
 191:user/driver/usart/usart.c **** 	// Fill usart config struct member
 192:user/driver/usart/usart.c **** 	config_gpio.GPIO_Mode = GPIO_Mode_IN_FLOATING;
 530              		.loc 1 192 2 view .LVU100
 193:user/driver/usart/usart.c **** 	config_gpio.GPIO_Pin = rx_pin;
 531              		.loc 1 193 2 view .LVU101
 532              	@ user/driver/usart/usart.c:194: 	config_gpio.GPIO_Speed = GPIO_Speed_50MHz;
 194:user/driver/usart/usart.c **** 	config_gpio.GPIO_Speed = GPIO_Speed_50MHz;
 533              		.loc 1 194 25 is_stmt 0 view .LVU102
 534 0152 40F20343 		movw	r3, #1027	@ tmp141,
 535              	@ user/driver/usart/usart.c:196: 	RCC_APB2PeriphClockCmd(GetGpioClockMask(rx_port), ENABLE);
 195:user/driver/usart/usart.c **** 	//enable gpio clock.
 196:user/driver/usart/usart.c **** 	RCC_APB2PeriphClockCmd(GetGpioClockMask(rx_port), ENABLE);
 536              		.loc 1 196 2 view .LVU103
 537 0156 2046     		mov	r0, r4	@, rx_port
 538              	@ user/driver/usart/usart.c:194: 	config_gpio.GPIO_Speed = GPIO_Speed_50MHz;
 194:user/driver/usart/usart.c **** 	config_gpio.GPIO_Speed = GPIO_Speed_50MHz;
 539              		.loc 1 194 25 view .LVU104
 540 0158 ADF80630 		strh	r3, [sp, #6]	@ movhi	@ tmp141, MEM <unsigned short> [(void *)&config_gpio + 2B]
 541              	@ user/driver/usart/usart.c:196: 	RCC_APB2PeriphClockCmd(GetGpioClockMask(rx_port), ENABLE);
 542              		.loc 1 196 2 view .LVU105
 543 015c 0121     		movs	r1, #1	@,
 544              	@ user/driver/usart/usart.c:193: 	config_gpio.GPIO_Pin = rx_pin;
 193:user/driver/usart/usart.c **** 	config_gpio.GPIO_Speed = GPIO_Speed_50MHz;
 545              		.loc 1 193 23 view .LVU106
 546 015e ADF80460 		strh	r6, [sp, #4]	@ movhi	@ rx_pin, config_gpio.GPIO_Pin
 194:user/driver/usart/usart.c **** 	config_gpio.GPIO_Speed = GPIO_Speed_50MHz;
 547              		.loc 1 194 2 is_stmt 1 view .LVU107
 548              		.loc 1 196 2 view .LVU108
 549 0162 FFF7FEFF 		bl	GetGpioClockMask		@
 550              	.LVL52:
 551 0166 FFF7FEFF 		bl	RCC_APB2PeriphClockCmd		@
ARM GAS  C:\Users\user\AppData\Local\Temp\cc7qV6fF.s 			page 15


 552              	.LVL53:
 197:user/driver/usart/usart.c **** 	//now called hardware initialise function
 198:user/driver/usart/usart.c **** 	GPIO_Init(rx_port, &config_gpio);
 553              		.loc 1 198 2 view .LVU109
 554 016a 2046     		mov	r0, r4	@, rx_port
 555 016c 01A9     		add	r1, sp, #4	@ tmp147,,
 556 016e FFF7FEFF 		bl	GPIO_Init		@
 557              	.LVL54:
 199:user/driver/usart/usart.c **** 	return 1;
 558              		.loc 1 199 2 view .LVU110
 559              	@ user/driver/usart/usart.c:199: 	return 1;
 560              		.loc 1 199 9 is_stmt 0 view .LVU111
 561 0172 0120     		movs	r0, #1	@ <retval>,
 562              	.LVL55:
 563              	.L41:
 564              	@ user/driver/usart/usart.c:200: }
 200:user/driver/usart/usart.c **** }
 565              		.loc 1 200 1 view .LVU112
 566 0174 02B0     		add	sp, sp, #8	@,,
 567              	.LCFI1:
 568              		.cfi_remember_state
 569              		.cfi_def_cfa_offset 16
 570              		@ sp needed	@
 571 0176 70BD     		pop	{r4, r5, r6, pc}	@
 572              	.LVL56:
 573              	.L43:
 574              	.LCFI2:
 575              		.cfi_restore_state
 576              	@ user/driver/usart/usart.c:179: 		return 0;
 179:user/driver/usart/usart.c **** 		break;
 577              		.loc 1 179 10 view .LVU113
 578 0178 0020     		movs	r0, #0	@ <retval>,
 579              	.LVL57:
 179:user/driver/usart/usart.c **** 		break;
 580              		.loc 1 179 10 view .LVU114
 581 017a FBE7     		b	.L41		@
 582              	.L45:
 583              		.align	2
 584              	.L44:
 585 017c 00000000 		.word	.LANCHOR0
 586              		.cfi_endproc
 587              	.LFE37:
 588              		.size	ConfigUsartGpio, .-ConfigUsartGpio
 589              		.align	1
 590              		.global	DecodeUsartId
 591              		.syntax unified
 592              		.thumb
 593              		.thumb_func
 594              		.fpu softvfp
 595              		.type	DecodeUsartId, %function
 596              	DecodeUsartId:
 597              	.LVL58:
 598              	.LFB38:
 201:user/driver/usart/usart.c **** 
 202:user/driver/usart/usart.c **** USART_TypeDef *DecodeUsartId(ComId id)
 203:user/driver/usart/usart.c **** {
 599              		.loc 1 203 1 is_stmt 1 view -0
ARM GAS  C:\Users\user\AppData\Local\Temp\cc7qV6fF.s 			page 16


 600              		.cfi_startproc
 601              		@ args = 0, pretend = 0, frame = 0
 602              		@ frame_needed = 0, uses_anonymous_args = 0
 603              		@ link register save eliminated.
 204:user/driver/usart/usart.c **** 	USART_TypeDef *com_handle = NULL;
 604              		.loc 1 204 2 view .LVU116
 205:user/driver/usart/usart.c **** 	switch (id)
 605              		.loc 1 205 2 view .LVU117
 606 0180 0428     		cmp	r0, #4	@ id,
 607 0182 9DBF     		ittte	ls
 608 0184 024B     		ldrls	r3, .L49	@ tmp117,
 609 0186 03EB8000 		addls	r0, r3, r0, lsl #2	@ tmp118, tmp117, id,
 610              	.LVL59:
 611              		.loc 1 205 2 is_stmt 0 view .LVU118
 612 018a 006D     		ldrls	r0, [r0, #80]	@ <retval>, CSWTCH.19[id_4(D)]
 613              	@ user/driver/usart/usart.c:203: {
 203:user/driver/usart/usart.c **** 	USART_TypeDef *com_handle = NULL;
 614              		.loc 1 203 1 view .LVU119
 615 018c 0020     		movhi	r0, #0	@ <retval>,
 206:user/driver/usart/usart.c **** 	{
 207:user/driver/usart/usart.c **** 	case COM1:
 208:user/driver/usart/usart.c **** 		com_handle = USART1;
 209:user/driver/usart/usart.c **** 		break;
 210:user/driver/usart/usart.c **** 	case COM2:
 211:user/driver/usart/usart.c **** 		com_handle = USART2;
 212:user/driver/usart/usart.c **** 		break;
 213:user/driver/usart/usart.c **** 	case COM3:
 214:user/driver/usart/usart.c **** 		com_handle = USART3;
 215:user/driver/usart/usart.c **** 		break;
 216:user/driver/usart/usart.c **** 	case COM4:
 217:user/driver/usart/usart.c **** 		com_handle = UART4;
 218:user/driver/usart/usart.c **** 		break;
 219:user/driver/usart/usart.c **** 	case COM5:
 220:user/driver/usart/usart.c **** 		com_handle = UART5;
 221:user/driver/usart/usart.c **** 		break;
 222:user/driver/usart/usart.c **** 	default:
 223:user/driver/usart/usart.c **** 		com_handle = NULL;
 224:user/driver/usart/usart.c **** 		break;
 225:user/driver/usart/usart.c **** 	}
 226:user/driver/usart/usart.c **** 	return com_handle;
 616              		.loc 1 226 2 is_stmt 1 view .LVU120
 617              	@ user/driver/usart/usart.c:227: }
 227:user/driver/usart/usart.c **** }
 618              		.loc 1 227 1 is_stmt 0 view .LVU121
 619 018e 7047     		bx	lr	@
 620              	.L50:
 621              		.align	2
 622              	.L49:
 623 0190 00000000 		.word	.LANCHOR0
 624              		.cfi_endproc
 625              	.LFE38:
 626              		.size	DecodeUsartId, .-DecodeUsartId
 627              		.align	1
 628              		.global	StartUsartClock
 629              		.syntax unified
 630              		.thumb
 631              		.thumb_func
ARM GAS  C:\Users\user\AppData\Local\Temp\cc7qV6fF.s 			page 17


 632              		.fpu softvfp
 633              		.type	StartUsartClock, %function
 634              	StartUsartClock:
 635              	.LVL60:
 636              	.LFB39:
 228:user/driver/usart/usart.c **** 
 229:user/driver/usart/usart.c **** void StartUsartClock(ComId id)
 230:user/driver/usart/usart.c **** {
 637              		.loc 1 230 1 is_stmt 1 view -0
 638              		.cfi_startproc
 639              		@ args = 0, pretend = 0, frame = 0
 640              		@ frame_needed = 0, uses_anonymous_args = 0
 641              		@ link register save eliminated.
 231:user/driver/usart/usart.c **** 	uint32_t usart_clock_cmd_mask = 0x00;
 642              		.loc 1 231 2 view .LVU123
 232:user/driver/usart/usart.c **** 
 233:user/driver/usart/usart.c **** 	switch (id)
 643              		.loc 1 233 2 view .LVU124
 644 0194 0428     		cmp	r0, #4	@ tmp114,
 645 0196 1AD8     		bhi	.L51		@
 646 0198 DFE800F0 		tbb	[pc, r0]	@ tmp114
 647              	.L54:
 648 019c 03       		.byte	(.L58-.L54)/2
 649 019d 08       		.byte	(.L57-.L54)/2
 650 019e 0D       		.byte	(.L56-.L54)/2
 651 019f 11       		.byte	(.L55-.L54)/2
 652 01a0 15       		.byte	(.L53-.L54)/2
 653 01a1 00       		.p2align 1
 654              	.L58:
 234:user/driver/usart/usart.c **** 	{
 235:user/driver/usart/usart.c **** 	case COM1:
 236:user/driver/usart/usart.c **** 		usart_clock_cmd_mask = RCC_APB2Periph_USART1;
 655              		.loc 1 236 3 view .LVU125
 656              	.LVL61:
 237:user/driver/usart/usart.c **** 		RCC_APB2PeriphClockCmd(usart_clock_cmd_mask, ENABLE);
 657              		.loc 1 237 3 view .LVU126
 658 01a2 0121     		movs	r1, #1	@,
 659 01a4 4FF48040 		mov	r0, #16384	@,
 660              	.LVL62:
 661              		.loc 1 237 3 is_stmt 0 view .LVU127
 662 01a8 FFF7FEBF 		b	RCC_APB2PeriphClockCmd		@
 663              	.LVL63:
 664              	.L57:
 238:user/driver/usart/usart.c **** 		break;
 239:user/driver/usart/usart.c **** 	case COM2:
 240:user/driver/usart/usart.c **** 		usart_clock_cmd_mask = RCC_APB1Periph_USART2;
 665              		.loc 1 240 3 is_stmt 1 view .LVU128
 241:user/driver/usart/usart.c **** 		RCC_APB1PeriphClockCmd(usart_clock_cmd_mask, ENABLE);
 666              		.loc 1 241 3 view .LVU129
 667 01ac 0121     		movs	r1, #1	@,
 668 01ae 4FF40030 		mov	r0, #131072	@,
 669              	.LVL64:
 670              	.L59:
 671              	@ user/driver/usart/usart.c:253: 		RCC_APB1PeriphClockCmd(usart_clock_cmd_mask, ENABLE);
 242:user/driver/usart/usart.c **** 		break;
 243:user/driver/usart/usart.c **** 	case COM3:
 244:user/driver/usart/usart.c **** 		usart_clock_cmd_mask = RCC_APB1Periph_USART3;
ARM GAS  C:\Users\user\AppData\Local\Temp\cc7qV6fF.s 			page 18


 245:user/driver/usart/usart.c **** 		RCC_APB1PeriphClockCmd(usart_clock_cmd_mask, ENABLE);
 246:user/driver/usart/usart.c **** 		break;
 247:user/driver/usart/usart.c **** 	case COM4:
 248:user/driver/usart/usart.c **** 		usart_clock_cmd_mask = RCC_APB1Periph_UART4;
 249:user/driver/usart/usart.c **** 		RCC_APB1PeriphClockCmd(usart_clock_cmd_mask, ENABLE);
 250:user/driver/usart/usart.c **** 		break;
 251:user/driver/usart/usart.c **** 	case COM5:
 252:user/driver/usart/usart.c **** 		usart_clock_cmd_mask = RCC_APB1Periph_UART5;
 253:user/driver/usart/usart.c **** 		RCC_APB1PeriphClockCmd(usart_clock_cmd_mask, ENABLE);
 672              		.loc 1 253 3 is_stmt 0 view .LVU130
 673 01b2 FFF7FEBF 		b	RCC_APB1PeriphClockCmd		@
 674              	.LVL65:
 675              	.L56:
 244:user/driver/usart/usart.c **** 		RCC_APB1PeriphClockCmd(usart_clock_cmd_mask, ENABLE);
 676              		.loc 1 244 3 is_stmt 1 view .LVU131
 245:user/driver/usart/usart.c **** 		break;
 677              		.loc 1 245 3 view .LVU132
 678 01b6 0121     		movs	r1, #1	@,
 679 01b8 4FF48020 		mov	r0, #262144	@,
 680              	.LVL66:
 245:user/driver/usart/usart.c **** 		break;
 681              		.loc 1 245 3 is_stmt 0 view .LVU133
 682 01bc F9E7     		b	.L59		@
 683              	.LVL67:
 684              	.L55:
 248:user/driver/usart/usart.c **** 		RCC_APB1PeriphClockCmd(usart_clock_cmd_mask, ENABLE);
 685              		.loc 1 248 3 is_stmt 1 view .LVU134
 249:user/driver/usart/usart.c **** 		break;
 686              		.loc 1 249 3 view .LVU135
 687 01be 0121     		movs	r1, #1	@,
 688 01c0 4FF40020 		mov	r0, #524288	@,
 689              	.LVL68:
 249:user/driver/usart/usart.c **** 		break;
 690              		.loc 1 249 3 is_stmt 0 view .LVU136
 691 01c4 F5E7     		b	.L59		@
 692              	.LVL69:
 693              	.L53:
 252:user/driver/usart/usart.c **** 		RCC_APB1PeriphClockCmd(usart_clock_cmd_mask, ENABLE);
 694              		.loc 1 252 3 is_stmt 1 view .LVU137
 695              		.loc 1 253 3 view .LVU138
 696 01c6 0121     		movs	r1, #1	@,
 697 01c8 4FF48010 		mov	r0, #1048576	@,
 698              	.LVL70:
 699              		.loc 1 253 3 is_stmt 0 view .LVU139
 700 01cc F1E7     		b	.L59		@
 701              	.LVL71:
 702              	.L51:
 703              	@ user/driver/usart/usart.c:258: }
 254:user/driver/usart/usart.c **** 		break;
 255:user/driver/usart/usart.c **** 	default:
 256:user/driver/usart/usart.c **** 		break;
 257:user/driver/usart/usart.c **** 	}
 258:user/driver/usart/usart.c **** }
 704              		.loc 1 258 1 view .LVU140
 705 01ce 7047     		bx	lr	@
 706              		.cfi_endproc
 707              	.LFE39:
ARM GAS  C:\Users\user\AppData\Local\Temp\cc7qV6fF.s 			page 19


 708              		.size	StartUsartClock, .-StartUsartClock
 709              		.align	1
 710              		.global	InitUsart
 711              		.syntax unified
 712              		.thumb
 713              		.thumb_func
 714              		.fpu softvfp
 715              		.type	InitUsart, %function
 716              	InitUsart:
 717              	.LVL72:
 718              	.LFB40:
 259:user/driver/usart/usart.c **** 
 260:user/driver/usart/usart.c **** UsartHandle InitUsart(ComId id, uint32_t baud, uint32_t tx_buffer_limit, uint32_t rx_buffer_limit)
 261:user/driver/usart/usart.c **** {
 719              		.loc 1 261 1 is_stmt 1 view -0
 720              		.cfi_startproc
 721              		@ args = 0, pretend = 0, frame = 16
 722              		@ frame_needed = 0, uses_anonymous_args = 0
 262:user/driver/usart/usart.c **** 
 263:user/driver/usart/usart.c **** 	if (ConfigUsartGpio(id) == 0)
 723              		.loc 1 263 2 view .LVU142
 724              	@ user/driver/usart/usart.c:261: {
 261:user/driver/usart/usart.c **** 
 725              		.loc 1 261 1 is_stmt 0 view .LVU143
 726 01d0 2DE9F043 		push	{r4, r5, r6, r7, r8, r9, lr}	@
 727              	.LCFI3:
 728              		.cfi_def_cfa_offset 28
 729              		.cfi_offset 4, -28
 730              		.cfi_offset 5, -24
 731              		.cfi_offset 6, -20
 732              		.cfi_offset 7, -16
 733              		.cfi_offset 8, -12
 734              		.cfi_offset 9, -8
 735              		.cfi_offset 14, -4
 736 01d4 85B0     		sub	sp, sp, #20	@,,
 737              	.LCFI4:
 738              		.cfi_def_cfa_offset 48
 739              	@ user/driver/usart/usart.c:261: {
 261:user/driver/usart/usart.c **** 
 740              		.loc 1 261 1 view .LVU144
 741 01d6 0546     		mov	r5, r0	@ id, tmp177
 742 01d8 0E46     		mov	r6, r1	@ baud, tmp178
 743 01da 1F46     		mov	r7, r3	@ rx_buffer_limit, tmp179
 744              	@ user/driver/usart/usart.c:263: 	if (ConfigUsartGpio(id) == 0)
 745              		.loc 1 263 6 view .LVU145
 746 01dc FFF7FEFF 		bl	ConfigUsartGpio		@
 747              	.LVL73:
 748              	@ user/driver/usart/usart.c:263: 	if (ConfigUsartGpio(id) == 0)
 749              		.loc 1 263 5 view .LVU146
 750 01e0 0446     		mov	r4, r0	@ _1, tmp180
 751 01e2 0028     		cmp	r0, #0	@ _1
 752 01e4 4BD0     		beq	.L60	@
 264:user/driver/usart/usart.c **** 		return NULL;
 265:user/driver/usart/usart.c **** 
 266:user/driver/usart/usart.c **** 	RCC_APB2PeriphClockCmd(RCC_APB2Periph_AFIO, ENABLE);
 753              		.loc 1 266 2 is_stmt 1 view .LVU147
 754 01e6 0121     		movs	r1, #1	@,
ARM GAS  C:\Users\user\AppData\Local\Temp\cc7qV6fF.s 			page 20


 755 01e8 0846     		mov	r0, r1	@,
 756 01ea FFF7FEFF 		bl	RCC_APB2PeriphClockCmd		@
 757              	.LVL74:
 267:user/driver/usart/usart.c **** 
 268:user/driver/usart/usart.c **** 	USART_InitTypeDef config_usart;
 758              		.loc 1 268 2 view .LVU148
 269:user/driver/usart/usart.c **** 	// fill usart configuration structure.
 270:user/driver/usart/usart.c **** 	config_usart.USART_BaudRate = baud;
 759              		.loc 1 270 2 view .LVU149
 760              	@ user/driver/usart/usart.c:273: 	config_usart.USART_Parity = USART_Parity_No;
 271:user/driver/usart/usart.c **** 	config_usart.USART_HardwareFlowControl = USART_HardwareFlowControl_None;
 272:user/driver/usart/usart.c **** 	config_usart.USART_Mode = USART_Mode_Rx | USART_Mode_Tx;
 273:user/driver/usart/usart.c **** 	config_usart.USART_Parity = USART_Parity_No;
 761              		.loc 1 273 28 is_stmt 0 view .LVU150
 762 01ee 0023     		movs	r3, #0	@ tmp135,
 763 01f0 4FF44022 		mov	r2, #786432	@ tmp136,
 764              	@ user/driver/usart/usart.c:277: 	StartUsartClock(id);
 274:user/driver/usart/usart.c **** 	config_usart.USART_StopBits = USART_StopBits_1;
 275:user/driver/usart/usart.c **** 	config_usart.USART_WordLength = USART_WordLength_8b;
 276:user/driver/usart/usart.c **** 	//Enable UART clock.
 277:user/driver/usart/usart.c **** 	StartUsartClock(id);
 765              		.loc 1 277 2 view .LVU151
 766 01f4 2846     		mov	r0, r5	@, id
 767              	@ user/driver/usart/usart.c:273: 	config_usart.USART_Parity = USART_Parity_No;
 273:user/driver/usart/usart.c **** 	config_usart.USART_StopBits = USART_StopBits_1;
 768              		.loc 1 273 28 view .LVU152
 769 01f6 CDE90132 		strd	r3, r2, [sp, #4]	@ tmp135, tmp136,,
 770              	@ user/driver/usart/usart.c:271: 	config_usart.USART_HardwareFlowControl = USART_HardwareFlowContro
 271:user/driver/usart/usart.c **** 	config_usart.USART_HardwareFlowControl = USART_HardwareFlowControl_None;
 771              		.loc 1 271 41 view .LVU153
 772 01fa ADF80C30 		strh	r3, [sp, #12]	@ movhi	@ tmp135, config_usart.USART_HardwareFlowControl
 773              	@ user/driver/usart/usart.c:270: 	config_usart.USART_BaudRate = baud;
 270:user/driver/usart/usart.c **** 	config_usart.USART_HardwareFlowControl = USART_HardwareFlowControl_None;
 774              		.loc 1 270 30 view .LVU154
 775 01fe 0096     		str	r6, [sp]	@ baud, config_usart.USART_BaudRate
 271:user/driver/usart/usart.c **** 	config_usart.USART_Mode = USART_Mode_Rx | USART_Mode_Tx;
 776              		.loc 1 271 2 is_stmt 1 view .LVU155
 272:user/driver/usart/usart.c **** 	config_usart.USART_Parity = USART_Parity_No;
 777              		.loc 1 272 2 view .LVU156
 273:user/driver/usart/usart.c **** 	config_usart.USART_StopBits = USART_StopBits_1;
 778              		.loc 1 273 2 view .LVU157
 274:user/driver/usart/usart.c **** 	config_usart.USART_WordLength = USART_WordLength_8b;
 779              		.loc 1 274 2 view .LVU158
 275:user/driver/usart/usart.c **** 	//Enable UART clock.
 780              		.loc 1 275 2 view .LVU159
 781              		.loc 1 277 2 view .LVU160
 782 0200 FFF7FEFF 		bl	StartUsartClock		@
 783              	.LVL75:
 278:user/driver/usart/usart.c **** 
 279:user/driver/usart/usart.c **** 	//Initialise UART using configuration structure.
 280:user/driver/usart/usart.c **** 
 281:user/driver/usart/usart.c **** 	USART_Init(DecodeUsartId(id), &config_usart);
 784              		.loc 1 281 2 view .LVU161
 785 0204 2846     		mov	r0, r5	@, id
 786 0206 FFF7FEFF 		bl	DecodeUsartId		@
 787              	.LVL76:
 788 020a 0446     		mov	r4, r0	@ _2, tmp181
ARM GAS  C:\Users\user\AppData\Local\Temp\cc7qV6fF.s 			page 21


 789 020c 6946     		mov	r1, sp	@,
 790 020e FFF7FEFF 		bl	USART_Init		@
 791              	.LVL77:
 282:user/driver/usart/usart.c **** 	//Enable UART receive interrupt service
 283:user/driver/usart/usart.c **** 	USART_ITConfig(DecodeUsartId(id), USART_IT_RXNE, ENABLE);
 792              		.loc 1 283 2 view .LVU162
 793 0212 2046     		mov	r0, r4	@, _2
 794 0214 0122     		movs	r2, #1	@,
 795 0216 40F22551 		movw	r1, #1317	@,
 796 021a FFF7FEFF 		bl	USART_ITConfig		@
 797              	.LVL78:
 284:user/driver/usart/usart.c **** 	// Enable the specific UART
 285:user/driver/usart/usart.c **** 	NVIC_EnableIRQ(GetIRQnFromId(id));
 798              		.loc 1 285 2 view .LVU163
 799 021e 2846     		mov	r0, r5	@, id
 800 0220 FFF7FEFF 		bl	GetIRQnFromId		@
 801              	.LVL79:
 802              	.LBB12:
 803              	.LBI12:
 804              		.file 2 "./stm32f10x_libraries/CMSIS/CM3/CoreSupport/core_cm3.h"
   1:./stm32f10x_libraries/CMSIS/CM3/CoreSupport/core_cm3.h **** /**************************************************************************//**
   2:./stm32f10x_libraries/CMSIS/CM3/CoreSupport/core_cm3.h ****  * @file     core_cm3.h
   3:./stm32f10x_libraries/CMSIS/CM3/CoreSupport/core_cm3.h ****  * @brief    CMSIS Cortex-M3 Core Peripheral Access Layer Header File
   4:./stm32f10x_libraries/CMSIS/CM3/CoreSupport/core_cm3.h ****  * @version  V1.30
   5:./stm32f10x_libraries/CMSIS/CM3/CoreSupport/core_cm3.h ****  * @date     30. October 2009
   6:./stm32f10x_libraries/CMSIS/CM3/CoreSupport/core_cm3.h ****  *
   7:./stm32f10x_libraries/CMSIS/CM3/CoreSupport/core_cm3.h ****  * @note
   8:./stm32f10x_libraries/CMSIS/CM3/CoreSupport/core_cm3.h ****  * Copyright (C) 2009 ARM Limited. All rights reserved.
   9:./stm32f10x_libraries/CMSIS/CM3/CoreSupport/core_cm3.h ****  *
  10:./stm32f10x_libraries/CMSIS/CM3/CoreSupport/core_cm3.h ****  * @par
  11:./stm32f10x_libraries/CMSIS/CM3/CoreSupport/core_cm3.h ****  * ARM Limited (ARM) is supplying this software for use with Cortex-M 
  12:./stm32f10x_libraries/CMSIS/CM3/CoreSupport/core_cm3.h ****  * processor based microcontrollers.  This file can be freely distributed 
  13:./stm32f10x_libraries/CMSIS/CM3/CoreSupport/core_cm3.h ****  * within development tools that are supporting such ARM based processors. 
  14:./stm32f10x_libraries/CMSIS/CM3/CoreSupport/core_cm3.h ****  *
  15:./stm32f10x_libraries/CMSIS/CM3/CoreSupport/core_cm3.h ****  * @par
  16:./stm32f10x_libraries/CMSIS/CM3/CoreSupport/core_cm3.h ****  * THIS SOFTWARE IS PROVIDED "AS IS".  NO WARRANTIES, WHETHER EXPRESS, IMPLIED
  17:./stm32f10x_libraries/CMSIS/CM3/CoreSupport/core_cm3.h ****  * OR STATUTORY, INCLUDING, BUT NOT LIMITED TO, IMPLIED WARRANTIES OF
  18:./stm32f10x_libraries/CMSIS/CM3/CoreSupport/core_cm3.h ****  * MERCHANTABILITY AND FITNESS FOR A PARTICULAR PURPOSE APPLY TO THIS SOFTWARE.
  19:./stm32f10x_libraries/CMSIS/CM3/CoreSupport/core_cm3.h ****  * ARM SHALL NOT, IN ANY CIRCUMSTANCES, BE LIABLE FOR SPECIAL, INCIDENTAL, OR
  20:./stm32f10x_libraries/CMSIS/CM3/CoreSupport/core_cm3.h ****  * CONSEQUENTIAL DAMAGES, FOR ANY REASON WHATSOEVER.
  21:./stm32f10x_libraries/CMSIS/CM3/CoreSupport/core_cm3.h ****  *
  22:./stm32f10x_libraries/CMSIS/CM3/CoreSupport/core_cm3.h ****  ******************************************************************************/
  23:./stm32f10x_libraries/CMSIS/CM3/CoreSupport/core_cm3.h **** 
  24:./stm32f10x_libraries/CMSIS/CM3/CoreSupport/core_cm3.h **** #ifndef __CM3_CORE_H__
  25:./stm32f10x_libraries/CMSIS/CM3/CoreSupport/core_cm3.h **** #define __CM3_CORE_H__
  26:./stm32f10x_libraries/CMSIS/CM3/CoreSupport/core_cm3.h **** 
  27:./stm32f10x_libraries/CMSIS/CM3/CoreSupport/core_cm3.h **** /** @addtogroup CMSIS_CM3_core_LintCinfiguration CMSIS CM3 Core Lint Configuration
  28:./stm32f10x_libraries/CMSIS/CM3/CoreSupport/core_cm3.h ****  *
  29:./stm32f10x_libraries/CMSIS/CM3/CoreSupport/core_cm3.h ****  * List of Lint messages which will be suppressed and not shown:
  30:./stm32f10x_libraries/CMSIS/CM3/CoreSupport/core_cm3.h ****  *   - Error 10: \n
  31:./stm32f10x_libraries/CMSIS/CM3/CoreSupport/core_cm3.h ****  *     register uint32_t __regBasePri         __asm("basepri"); \n
  32:./stm32f10x_libraries/CMSIS/CM3/CoreSupport/core_cm3.h ****  *     Error 10: Expecting ';'
  33:./stm32f10x_libraries/CMSIS/CM3/CoreSupport/core_cm3.h ****  * .
  34:./stm32f10x_libraries/CMSIS/CM3/CoreSupport/core_cm3.h ****  *   - Error 530: \n
  35:./stm32f10x_libraries/CMSIS/CM3/CoreSupport/core_cm3.h ****  *     return(__regBasePri); \n
  36:./stm32f10x_libraries/CMSIS/CM3/CoreSupport/core_cm3.h ****  *     Warning 530: Symbol '__regBasePri' (line 264) not initialized
  37:./stm32f10x_libraries/CMSIS/CM3/CoreSupport/core_cm3.h ****  * . 
ARM GAS  C:\Users\user\AppData\Local\Temp\cc7qV6fF.s 			page 22


  38:./stm32f10x_libraries/CMSIS/CM3/CoreSupport/core_cm3.h ****  *   - Error 550: \n
  39:./stm32f10x_libraries/CMSIS/CM3/CoreSupport/core_cm3.h ****  *     __regBasePri = (basePri & 0x1ff); \n
  40:./stm32f10x_libraries/CMSIS/CM3/CoreSupport/core_cm3.h ****  *     Warning 550: Symbol '__regBasePri' (line 271) not accessed
  41:./stm32f10x_libraries/CMSIS/CM3/CoreSupport/core_cm3.h ****  * .
  42:./stm32f10x_libraries/CMSIS/CM3/CoreSupport/core_cm3.h ****  *   - Error 754: \n
  43:./stm32f10x_libraries/CMSIS/CM3/CoreSupport/core_cm3.h ****  *     uint32_t RESERVED0[24]; \n
  44:./stm32f10x_libraries/CMSIS/CM3/CoreSupport/core_cm3.h ****  *     Info 754: local structure member '<some, not used in the HAL>' (line 109, file ./cm3_core.h)
  45:./stm32f10x_libraries/CMSIS/CM3/CoreSupport/core_cm3.h ****  * .
  46:./stm32f10x_libraries/CMSIS/CM3/CoreSupport/core_cm3.h ****  *   - Error 750: \n
  47:./stm32f10x_libraries/CMSIS/CM3/CoreSupport/core_cm3.h ****  *     #define __CM3_CORE_H__ \n
  48:./stm32f10x_libraries/CMSIS/CM3/CoreSupport/core_cm3.h ****  *     Info 750: local macro '__CM3_CORE_H__' (line 43, file./cm3_core.h) not referenced
  49:./stm32f10x_libraries/CMSIS/CM3/CoreSupport/core_cm3.h ****  * .
  50:./stm32f10x_libraries/CMSIS/CM3/CoreSupport/core_cm3.h ****  *   - Error 528: \n
  51:./stm32f10x_libraries/CMSIS/CM3/CoreSupport/core_cm3.h ****  *     static __INLINE void NVIC_DisableIRQ(uint32_t IRQn) \n
  52:./stm32f10x_libraries/CMSIS/CM3/CoreSupport/core_cm3.h ****  *     Warning 528: Symbol 'NVIC_DisableIRQ(unsigned int)' (line 419, file ./cm3_core.h) not refere
  53:./stm32f10x_libraries/CMSIS/CM3/CoreSupport/core_cm3.h ****  * .
  54:./stm32f10x_libraries/CMSIS/CM3/CoreSupport/core_cm3.h ****  *   - Error 751: \n
  55:./stm32f10x_libraries/CMSIS/CM3/CoreSupport/core_cm3.h ****  *     } InterruptType_Type; \n
  56:./stm32f10x_libraries/CMSIS/CM3/CoreSupport/core_cm3.h ****  *     Info 751: local typedef 'InterruptType_Type' (line 170, file ./cm3_core.h) not referenced
  57:./stm32f10x_libraries/CMSIS/CM3/CoreSupport/core_cm3.h ****  * .
  58:./stm32f10x_libraries/CMSIS/CM3/CoreSupport/core_cm3.h ****  * Note:  To re-enable a Message, insert a space before 'lint' *
  59:./stm32f10x_libraries/CMSIS/CM3/CoreSupport/core_cm3.h ****  *
  60:./stm32f10x_libraries/CMSIS/CM3/CoreSupport/core_cm3.h ****  */
  61:./stm32f10x_libraries/CMSIS/CM3/CoreSupport/core_cm3.h **** 
  62:./stm32f10x_libraries/CMSIS/CM3/CoreSupport/core_cm3.h **** /*lint -save */
  63:./stm32f10x_libraries/CMSIS/CM3/CoreSupport/core_cm3.h **** /*lint -e10  */
  64:./stm32f10x_libraries/CMSIS/CM3/CoreSupport/core_cm3.h **** /*lint -e530 */
  65:./stm32f10x_libraries/CMSIS/CM3/CoreSupport/core_cm3.h **** /*lint -e550 */
  66:./stm32f10x_libraries/CMSIS/CM3/CoreSupport/core_cm3.h **** /*lint -e754 */
  67:./stm32f10x_libraries/CMSIS/CM3/CoreSupport/core_cm3.h **** /*lint -e750 */
  68:./stm32f10x_libraries/CMSIS/CM3/CoreSupport/core_cm3.h **** /*lint -e528 */
  69:./stm32f10x_libraries/CMSIS/CM3/CoreSupport/core_cm3.h **** /*lint -e751 */
  70:./stm32f10x_libraries/CMSIS/CM3/CoreSupport/core_cm3.h **** 
  71:./stm32f10x_libraries/CMSIS/CM3/CoreSupport/core_cm3.h **** 
  72:./stm32f10x_libraries/CMSIS/CM3/CoreSupport/core_cm3.h **** /** @addtogroup CMSIS_CM3_core_definitions CM3 Core Definitions
  73:./stm32f10x_libraries/CMSIS/CM3/CoreSupport/core_cm3.h ****   This file defines all structures and symbols for CMSIS core:
  74:./stm32f10x_libraries/CMSIS/CM3/CoreSupport/core_cm3.h ****     - CMSIS version number
  75:./stm32f10x_libraries/CMSIS/CM3/CoreSupport/core_cm3.h ****     - Cortex-M core registers and bitfields
  76:./stm32f10x_libraries/CMSIS/CM3/CoreSupport/core_cm3.h ****     - Cortex-M core peripheral base address
  77:./stm32f10x_libraries/CMSIS/CM3/CoreSupport/core_cm3.h ****   @{
  78:./stm32f10x_libraries/CMSIS/CM3/CoreSupport/core_cm3.h ****  */
  79:./stm32f10x_libraries/CMSIS/CM3/CoreSupport/core_cm3.h **** 
  80:./stm32f10x_libraries/CMSIS/CM3/CoreSupport/core_cm3.h **** #ifdef __cplusplus
  81:./stm32f10x_libraries/CMSIS/CM3/CoreSupport/core_cm3.h ****  extern "C" {
  82:./stm32f10x_libraries/CMSIS/CM3/CoreSupport/core_cm3.h **** #endif 
  83:./stm32f10x_libraries/CMSIS/CM3/CoreSupport/core_cm3.h **** 
  84:./stm32f10x_libraries/CMSIS/CM3/CoreSupport/core_cm3.h **** #define __CM3_CMSIS_VERSION_MAIN  (0x01)                                                       /*!<
  85:./stm32f10x_libraries/CMSIS/CM3/CoreSupport/core_cm3.h **** #define __CM3_CMSIS_VERSION_SUB   (0x30)                                                       /*!<
  86:./stm32f10x_libraries/CMSIS/CM3/CoreSupport/core_cm3.h **** #define __CM3_CMSIS_VERSION       ((__CM3_CMSIS_VERSION_MAIN << 16) | __CM3_CMSIS_VERSION_SUB) /*!<
  87:./stm32f10x_libraries/CMSIS/CM3/CoreSupport/core_cm3.h **** 
  88:./stm32f10x_libraries/CMSIS/CM3/CoreSupport/core_cm3.h **** #define __CORTEX_M                (0x03)                                                       /*!<
  89:./stm32f10x_libraries/CMSIS/CM3/CoreSupport/core_cm3.h **** 
  90:./stm32f10x_libraries/CMSIS/CM3/CoreSupport/core_cm3.h **** #include <stdint.h>                           /* Include standard types */
  91:./stm32f10x_libraries/CMSIS/CM3/CoreSupport/core_cm3.h **** 
  92:./stm32f10x_libraries/CMSIS/CM3/CoreSupport/core_cm3.h **** #if defined (__ICCARM__)
  93:./stm32f10x_libraries/CMSIS/CM3/CoreSupport/core_cm3.h ****   #include <intrinsics.h>                     /* IAR Intrinsics   */
  94:./stm32f10x_libraries/CMSIS/CM3/CoreSupport/core_cm3.h **** #endif
ARM GAS  C:\Users\user\AppData\Local\Temp\cc7qV6fF.s 			page 23


  95:./stm32f10x_libraries/CMSIS/CM3/CoreSupport/core_cm3.h **** 
  96:./stm32f10x_libraries/CMSIS/CM3/CoreSupport/core_cm3.h **** 
  97:./stm32f10x_libraries/CMSIS/CM3/CoreSupport/core_cm3.h **** #ifndef __NVIC_PRIO_BITS
  98:./stm32f10x_libraries/CMSIS/CM3/CoreSupport/core_cm3.h ****   #define __NVIC_PRIO_BITS    4               /*!< standard definition for NVIC Priority Bits */
  99:./stm32f10x_libraries/CMSIS/CM3/CoreSupport/core_cm3.h **** #endif
 100:./stm32f10x_libraries/CMSIS/CM3/CoreSupport/core_cm3.h **** 
 101:./stm32f10x_libraries/CMSIS/CM3/CoreSupport/core_cm3.h **** 
 102:./stm32f10x_libraries/CMSIS/CM3/CoreSupport/core_cm3.h **** 
 103:./stm32f10x_libraries/CMSIS/CM3/CoreSupport/core_cm3.h **** 
 104:./stm32f10x_libraries/CMSIS/CM3/CoreSupport/core_cm3.h **** /**
 105:./stm32f10x_libraries/CMSIS/CM3/CoreSupport/core_cm3.h ****  * IO definitions
 106:./stm32f10x_libraries/CMSIS/CM3/CoreSupport/core_cm3.h ****  *
 107:./stm32f10x_libraries/CMSIS/CM3/CoreSupport/core_cm3.h ****  * define access restrictions to peripheral registers
 108:./stm32f10x_libraries/CMSIS/CM3/CoreSupport/core_cm3.h ****  */
 109:./stm32f10x_libraries/CMSIS/CM3/CoreSupport/core_cm3.h **** 
 110:./stm32f10x_libraries/CMSIS/CM3/CoreSupport/core_cm3.h **** #ifdef __cplusplus
 111:./stm32f10x_libraries/CMSIS/CM3/CoreSupport/core_cm3.h ****   #define     __I     volatile                /*!< defines 'read only' permissions      */
 112:./stm32f10x_libraries/CMSIS/CM3/CoreSupport/core_cm3.h **** #else
 113:./stm32f10x_libraries/CMSIS/CM3/CoreSupport/core_cm3.h ****   #define     __I     volatile const          /*!< defines 'read only' permissions      */
 114:./stm32f10x_libraries/CMSIS/CM3/CoreSupport/core_cm3.h **** #endif
 115:./stm32f10x_libraries/CMSIS/CM3/CoreSupport/core_cm3.h **** #define     __O     volatile                  /*!< defines 'write only' permissions     */
 116:./stm32f10x_libraries/CMSIS/CM3/CoreSupport/core_cm3.h **** #define     __IO    volatile                  /*!< defines 'read / write' permissions   */
 117:./stm32f10x_libraries/CMSIS/CM3/CoreSupport/core_cm3.h **** 
 118:./stm32f10x_libraries/CMSIS/CM3/CoreSupport/core_cm3.h **** 
 119:./stm32f10x_libraries/CMSIS/CM3/CoreSupport/core_cm3.h **** 
 120:./stm32f10x_libraries/CMSIS/CM3/CoreSupport/core_cm3.h **** /*******************************************************************************
 121:./stm32f10x_libraries/CMSIS/CM3/CoreSupport/core_cm3.h ****  *                 Register Abstraction
 122:./stm32f10x_libraries/CMSIS/CM3/CoreSupport/core_cm3.h ****  ******************************************************************************/
 123:./stm32f10x_libraries/CMSIS/CM3/CoreSupport/core_cm3.h **** /** @addtogroup CMSIS_CM3_core_register CMSIS CM3 Core Register
 124:./stm32f10x_libraries/CMSIS/CM3/CoreSupport/core_cm3.h ****  @{
 125:./stm32f10x_libraries/CMSIS/CM3/CoreSupport/core_cm3.h **** */
 126:./stm32f10x_libraries/CMSIS/CM3/CoreSupport/core_cm3.h **** 
 127:./stm32f10x_libraries/CMSIS/CM3/CoreSupport/core_cm3.h **** 
 128:./stm32f10x_libraries/CMSIS/CM3/CoreSupport/core_cm3.h **** /** @addtogroup CMSIS_CM3_NVIC CMSIS CM3 NVIC
 129:./stm32f10x_libraries/CMSIS/CM3/CoreSupport/core_cm3.h ****   memory mapped structure for Nested Vectored Interrupt Controller (NVIC)
 130:./stm32f10x_libraries/CMSIS/CM3/CoreSupport/core_cm3.h ****   @{
 131:./stm32f10x_libraries/CMSIS/CM3/CoreSupport/core_cm3.h ****  */
 132:./stm32f10x_libraries/CMSIS/CM3/CoreSupport/core_cm3.h **** typedef struct
 133:./stm32f10x_libraries/CMSIS/CM3/CoreSupport/core_cm3.h **** {
 134:./stm32f10x_libraries/CMSIS/CM3/CoreSupport/core_cm3.h ****   __IO uint32_t ISER[8];                      /*!< Offset: 0x000  Interrupt Set Enable Register    
 135:./stm32f10x_libraries/CMSIS/CM3/CoreSupport/core_cm3.h ****        uint32_t RESERVED0[24];                                   
 136:./stm32f10x_libraries/CMSIS/CM3/CoreSupport/core_cm3.h ****   __IO uint32_t ICER[8];                      /*!< Offset: 0x080  Interrupt Clear Enable Register  
 137:./stm32f10x_libraries/CMSIS/CM3/CoreSupport/core_cm3.h ****        uint32_t RSERVED1[24];                                    
 138:./stm32f10x_libraries/CMSIS/CM3/CoreSupport/core_cm3.h ****   __IO uint32_t ISPR[8];                      /*!< Offset: 0x100  Interrupt Set Pending Register   
 139:./stm32f10x_libraries/CMSIS/CM3/CoreSupport/core_cm3.h ****        uint32_t RESERVED2[24];                                   
 140:./stm32f10x_libraries/CMSIS/CM3/CoreSupport/core_cm3.h ****   __IO uint32_t ICPR[8];                      /*!< Offset: 0x180  Interrupt Clear Pending Register 
 141:./stm32f10x_libraries/CMSIS/CM3/CoreSupport/core_cm3.h ****        uint32_t RESERVED3[24];                                   
 142:./stm32f10x_libraries/CMSIS/CM3/CoreSupport/core_cm3.h ****   __IO uint32_t IABR[8];                      /*!< Offset: 0x200  Interrupt Active bit Register    
 143:./stm32f10x_libraries/CMSIS/CM3/CoreSupport/core_cm3.h ****        uint32_t RESERVED4[56];                                   
 144:./stm32f10x_libraries/CMSIS/CM3/CoreSupport/core_cm3.h ****   __IO uint8_t  IP[240];                      /*!< Offset: 0x300  Interrupt Priority Register (8Bit
 145:./stm32f10x_libraries/CMSIS/CM3/CoreSupport/core_cm3.h ****        uint32_t RESERVED5[644];                                  
 146:./stm32f10x_libraries/CMSIS/CM3/CoreSupport/core_cm3.h ****   __O  uint32_t STIR;                         /*!< Offset: 0xE00  Software Trigger Interrupt Regist
 147:./stm32f10x_libraries/CMSIS/CM3/CoreSupport/core_cm3.h **** }  NVIC_Type;                                               
 148:./stm32f10x_libraries/CMSIS/CM3/CoreSupport/core_cm3.h **** /*@}*/ /* end of group CMSIS_CM3_NVIC */
 149:./stm32f10x_libraries/CMSIS/CM3/CoreSupport/core_cm3.h **** 
 150:./stm32f10x_libraries/CMSIS/CM3/CoreSupport/core_cm3.h **** 
 151:./stm32f10x_libraries/CMSIS/CM3/CoreSupport/core_cm3.h **** /** @addtogroup CMSIS_CM3_SCB CMSIS CM3 SCB
ARM GAS  C:\Users\user\AppData\Local\Temp\cc7qV6fF.s 			page 24


 152:./stm32f10x_libraries/CMSIS/CM3/CoreSupport/core_cm3.h ****   memory mapped structure for System Control Block (SCB)
 153:./stm32f10x_libraries/CMSIS/CM3/CoreSupport/core_cm3.h ****   @{
 154:./stm32f10x_libraries/CMSIS/CM3/CoreSupport/core_cm3.h ****  */
 155:./stm32f10x_libraries/CMSIS/CM3/CoreSupport/core_cm3.h **** typedef struct
 156:./stm32f10x_libraries/CMSIS/CM3/CoreSupport/core_cm3.h **** {
 157:./stm32f10x_libraries/CMSIS/CM3/CoreSupport/core_cm3.h ****   __I  uint32_t CPUID;                        /*!< Offset: 0x00  CPU ID Base Register              
 158:./stm32f10x_libraries/CMSIS/CM3/CoreSupport/core_cm3.h ****   __IO uint32_t ICSR;                         /*!< Offset: 0x04  Interrupt Control State Register  
 159:./stm32f10x_libraries/CMSIS/CM3/CoreSupport/core_cm3.h ****   __IO uint32_t VTOR;                         /*!< Offset: 0x08  Vector Table Offset Register      
 160:./stm32f10x_libraries/CMSIS/CM3/CoreSupport/core_cm3.h ****   __IO uint32_t AIRCR;                        /*!< Offset: 0x0C  Application Interrupt / Reset Cont
 161:./stm32f10x_libraries/CMSIS/CM3/CoreSupport/core_cm3.h ****   __IO uint32_t SCR;                          /*!< Offset: 0x10  System Control Register           
 162:./stm32f10x_libraries/CMSIS/CM3/CoreSupport/core_cm3.h ****   __IO uint32_t CCR;                          /*!< Offset: 0x14  Configuration Control Register    
 163:./stm32f10x_libraries/CMSIS/CM3/CoreSupport/core_cm3.h ****   __IO uint8_t  SHP[12];                      /*!< Offset: 0x18  System Handlers Priority Registers
 164:./stm32f10x_libraries/CMSIS/CM3/CoreSupport/core_cm3.h ****   __IO uint32_t SHCSR;                        /*!< Offset: 0x24  System Handler Control and State R
 165:./stm32f10x_libraries/CMSIS/CM3/CoreSupport/core_cm3.h ****   __IO uint32_t CFSR;                         /*!< Offset: 0x28  Configurable Fault Status Register
 166:./stm32f10x_libraries/CMSIS/CM3/CoreSupport/core_cm3.h ****   __IO uint32_t HFSR;                         /*!< Offset: 0x2C  Hard Fault Status Register        
 167:./stm32f10x_libraries/CMSIS/CM3/CoreSupport/core_cm3.h ****   __IO uint32_t DFSR;                         /*!< Offset: 0x30  Debug Fault Status Register       
 168:./stm32f10x_libraries/CMSIS/CM3/CoreSupport/core_cm3.h ****   __IO uint32_t MMFAR;                        /*!< Offset: 0x34  Mem Manage Address Register       
 169:./stm32f10x_libraries/CMSIS/CM3/CoreSupport/core_cm3.h ****   __IO uint32_t BFAR;                         /*!< Offset: 0x38  Bus Fault Address Register        
 170:./stm32f10x_libraries/CMSIS/CM3/CoreSupport/core_cm3.h ****   __IO uint32_t AFSR;                         /*!< Offset: 0x3C  Auxiliary Fault Status Register   
 171:./stm32f10x_libraries/CMSIS/CM3/CoreSupport/core_cm3.h ****   __I  uint32_t PFR[2];                       /*!< Offset: 0x40  Processor Feature Register        
 172:./stm32f10x_libraries/CMSIS/CM3/CoreSupport/core_cm3.h ****   __I  uint32_t DFR;                          /*!< Offset: 0x48  Debug Feature Register            
 173:./stm32f10x_libraries/CMSIS/CM3/CoreSupport/core_cm3.h ****   __I  uint32_t ADR;                          /*!< Offset: 0x4C  Auxiliary Feature Register        
 174:./stm32f10x_libraries/CMSIS/CM3/CoreSupport/core_cm3.h ****   __I  uint32_t MMFR[4];                      /*!< Offset: 0x50  Memory Model Feature Register     
 175:./stm32f10x_libraries/CMSIS/CM3/CoreSupport/core_cm3.h ****   __I  uint32_t ISAR[5];                      /*!< Offset: 0x60  ISA Feature Register              
 176:./stm32f10x_libraries/CMSIS/CM3/CoreSupport/core_cm3.h **** } SCB_Type;                                                
 177:./stm32f10x_libraries/CMSIS/CM3/CoreSupport/core_cm3.h **** 
 178:./stm32f10x_libraries/CMSIS/CM3/CoreSupport/core_cm3.h **** /* SCB CPUID Register Definitions */
 179:./stm32f10x_libraries/CMSIS/CM3/CoreSupport/core_cm3.h **** #define SCB_CPUID_IMPLEMENTER_Pos          24                                             /*!< SCB 
 180:./stm32f10x_libraries/CMSIS/CM3/CoreSupport/core_cm3.h **** #define SCB_CPUID_IMPLEMENTER_Msk          (0xFFul << SCB_CPUID_IMPLEMENTER_Pos)          /*!< SCB 
 181:./stm32f10x_libraries/CMSIS/CM3/CoreSupport/core_cm3.h **** 
 182:./stm32f10x_libraries/CMSIS/CM3/CoreSupport/core_cm3.h **** #define SCB_CPUID_VARIANT_Pos              20                                             /*!< SCB 
 183:./stm32f10x_libraries/CMSIS/CM3/CoreSupport/core_cm3.h **** #define SCB_CPUID_VARIANT_Msk              (0xFul << SCB_CPUID_VARIANT_Pos)               /*!< SCB 
 184:./stm32f10x_libraries/CMSIS/CM3/CoreSupport/core_cm3.h **** 
 185:./stm32f10x_libraries/CMSIS/CM3/CoreSupport/core_cm3.h **** #define SCB_CPUID_PARTNO_Pos                4                                             /*!< SCB 
 186:./stm32f10x_libraries/CMSIS/CM3/CoreSupport/core_cm3.h **** #define SCB_CPUID_PARTNO_Msk               (0xFFFul << SCB_CPUID_PARTNO_Pos)              /*!< SCB 
 187:./stm32f10x_libraries/CMSIS/CM3/CoreSupport/core_cm3.h **** 
 188:./stm32f10x_libraries/CMSIS/CM3/CoreSupport/core_cm3.h **** #define SCB_CPUID_REVISION_Pos              0                                             /*!< SCB 
 189:./stm32f10x_libraries/CMSIS/CM3/CoreSupport/core_cm3.h **** #define SCB_CPUID_REVISION_Msk             (0xFul << SCB_CPUID_REVISION_Pos)              /*!< SCB 
 190:./stm32f10x_libraries/CMSIS/CM3/CoreSupport/core_cm3.h **** 
 191:./stm32f10x_libraries/CMSIS/CM3/CoreSupport/core_cm3.h **** /* SCB Interrupt Control State Register Definitions */
 192:./stm32f10x_libraries/CMSIS/CM3/CoreSupport/core_cm3.h **** #define SCB_ICSR_NMIPENDSET_Pos            31                                             /*!< SCB 
 193:./stm32f10x_libraries/CMSIS/CM3/CoreSupport/core_cm3.h **** #define SCB_ICSR_NMIPENDSET_Msk            (1ul << SCB_ICSR_NMIPENDSET_Pos)               /*!< SCB 
 194:./stm32f10x_libraries/CMSIS/CM3/CoreSupport/core_cm3.h **** 
 195:./stm32f10x_libraries/CMSIS/CM3/CoreSupport/core_cm3.h **** #define SCB_ICSR_PENDSVSET_Pos             28                                             /*!< SCB 
 196:./stm32f10x_libraries/CMSIS/CM3/CoreSupport/core_cm3.h **** #define SCB_ICSR_PENDSVSET_Msk             (1ul << SCB_ICSR_PENDSVSET_Pos)                /*!< SCB 
 197:./stm32f10x_libraries/CMSIS/CM3/CoreSupport/core_cm3.h **** 
 198:./stm32f10x_libraries/CMSIS/CM3/CoreSupport/core_cm3.h **** #define SCB_ICSR_PENDSVCLR_Pos             27                                             /*!< SCB 
 199:./stm32f10x_libraries/CMSIS/CM3/CoreSupport/core_cm3.h **** #define SCB_ICSR_PENDSVCLR_Msk             (1ul << SCB_ICSR_PENDSVCLR_Pos)                /*!< SCB 
 200:./stm32f10x_libraries/CMSIS/CM3/CoreSupport/core_cm3.h **** 
 201:./stm32f10x_libraries/CMSIS/CM3/CoreSupport/core_cm3.h **** #define SCB_ICSR_PENDSTSET_Pos             26                                             /*!< SCB 
 202:./stm32f10x_libraries/CMSIS/CM3/CoreSupport/core_cm3.h **** #define SCB_ICSR_PENDSTSET_Msk             (1ul << SCB_ICSR_PENDSTSET_Pos)                /*!< SCB 
 203:./stm32f10x_libraries/CMSIS/CM3/CoreSupport/core_cm3.h **** 
 204:./stm32f10x_libraries/CMSIS/CM3/CoreSupport/core_cm3.h **** #define SCB_ICSR_PENDSTCLR_Pos             25                                             /*!< SCB 
 205:./stm32f10x_libraries/CMSIS/CM3/CoreSupport/core_cm3.h **** #define SCB_ICSR_PENDSTCLR_Msk             (1ul << SCB_ICSR_PENDSTCLR_Pos)                /*!< SCB 
 206:./stm32f10x_libraries/CMSIS/CM3/CoreSupport/core_cm3.h **** 
 207:./stm32f10x_libraries/CMSIS/CM3/CoreSupport/core_cm3.h **** #define SCB_ICSR_ISRPREEMPT_Pos            23                                             /*!< SCB 
 208:./stm32f10x_libraries/CMSIS/CM3/CoreSupport/core_cm3.h **** #define SCB_ICSR_ISRPREEMPT_Msk            (1ul << SCB_ICSR_ISRPREEMPT_Pos)               /*!< SCB 
ARM GAS  C:\Users\user\AppData\Local\Temp\cc7qV6fF.s 			page 25


 209:./stm32f10x_libraries/CMSIS/CM3/CoreSupport/core_cm3.h **** 
 210:./stm32f10x_libraries/CMSIS/CM3/CoreSupport/core_cm3.h **** #define SCB_ICSR_ISRPENDING_Pos            22                                             /*!< SCB 
 211:./stm32f10x_libraries/CMSIS/CM3/CoreSupport/core_cm3.h **** #define SCB_ICSR_ISRPENDING_Msk            (1ul << SCB_ICSR_ISRPENDING_Pos)               /*!< SCB 
 212:./stm32f10x_libraries/CMSIS/CM3/CoreSupport/core_cm3.h **** 
 213:./stm32f10x_libraries/CMSIS/CM3/CoreSupport/core_cm3.h **** #define SCB_ICSR_VECTPENDING_Pos           12                                             /*!< SCB 
 214:./stm32f10x_libraries/CMSIS/CM3/CoreSupport/core_cm3.h **** #define SCB_ICSR_VECTPENDING_Msk           (0x1FFul << SCB_ICSR_VECTPENDING_Pos)          /*!< SCB 
 215:./stm32f10x_libraries/CMSIS/CM3/CoreSupport/core_cm3.h **** 
 216:./stm32f10x_libraries/CMSIS/CM3/CoreSupport/core_cm3.h **** #define SCB_ICSR_RETTOBASE_Pos             11                                             /*!< SCB 
 217:./stm32f10x_libraries/CMSIS/CM3/CoreSupport/core_cm3.h **** #define SCB_ICSR_RETTOBASE_Msk             (1ul << SCB_ICSR_RETTOBASE_Pos)                /*!< SCB 
 218:./stm32f10x_libraries/CMSIS/CM3/CoreSupport/core_cm3.h **** 
 219:./stm32f10x_libraries/CMSIS/CM3/CoreSupport/core_cm3.h **** #define SCB_ICSR_VECTACTIVE_Pos             0                                             /*!< SCB 
 220:./stm32f10x_libraries/CMSIS/CM3/CoreSupport/core_cm3.h **** #define SCB_ICSR_VECTACTIVE_Msk            (0x1FFul << SCB_ICSR_VECTACTIVE_Pos)           /*!< SCB 
 221:./stm32f10x_libraries/CMSIS/CM3/CoreSupport/core_cm3.h **** 
 222:./stm32f10x_libraries/CMSIS/CM3/CoreSupport/core_cm3.h **** /* SCB Interrupt Control State Register Definitions */
 223:./stm32f10x_libraries/CMSIS/CM3/CoreSupport/core_cm3.h **** #define SCB_VTOR_TBLBASE_Pos               29                                             /*!< SCB 
 224:./stm32f10x_libraries/CMSIS/CM3/CoreSupport/core_cm3.h **** #define SCB_VTOR_TBLBASE_Msk               (0x1FFul << SCB_VTOR_TBLBASE_Pos)              /*!< SCB 
 225:./stm32f10x_libraries/CMSIS/CM3/CoreSupport/core_cm3.h **** 
 226:./stm32f10x_libraries/CMSIS/CM3/CoreSupport/core_cm3.h **** #define SCB_VTOR_TBLOFF_Pos                 7                                             /*!< SCB 
 227:./stm32f10x_libraries/CMSIS/CM3/CoreSupport/core_cm3.h **** #define SCB_VTOR_TBLOFF_Msk                (0x3FFFFFul << SCB_VTOR_TBLOFF_Pos)            /*!< SCB 
 228:./stm32f10x_libraries/CMSIS/CM3/CoreSupport/core_cm3.h **** 
 229:./stm32f10x_libraries/CMSIS/CM3/CoreSupport/core_cm3.h **** /* SCB Application Interrupt and Reset Control Register Definitions */
 230:./stm32f10x_libraries/CMSIS/CM3/CoreSupport/core_cm3.h **** #define SCB_AIRCR_VECTKEY_Pos              16                                             /*!< SCB 
 231:./stm32f10x_libraries/CMSIS/CM3/CoreSupport/core_cm3.h **** #define SCB_AIRCR_VECTKEY_Msk              (0xFFFFul << SCB_AIRCR_VECTKEY_Pos)            /*!< SCB 
 232:./stm32f10x_libraries/CMSIS/CM3/CoreSupport/core_cm3.h **** 
 233:./stm32f10x_libraries/CMSIS/CM3/CoreSupport/core_cm3.h **** #define SCB_AIRCR_VECTKEYSTAT_Pos          16                                             /*!< SCB 
 234:./stm32f10x_libraries/CMSIS/CM3/CoreSupport/core_cm3.h **** #define SCB_AIRCR_VECTKEYSTAT_Msk          (0xFFFFul << SCB_AIRCR_VECTKEYSTAT_Pos)        /*!< SCB 
 235:./stm32f10x_libraries/CMSIS/CM3/CoreSupport/core_cm3.h **** 
 236:./stm32f10x_libraries/CMSIS/CM3/CoreSupport/core_cm3.h **** #define SCB_AIRCR_ENDIANESS_Pos            15                                             /*!< SCB 
 237:./stm32f10x_libraries/CMSIS/CM3/CoreSupport/core_cm3.h **** #define SCB_AIRCR_ENDIANESS_Msk            (1ul << SCB_AIRCR_ENDIANESS_Pos)               /*!< SCB 
 238:./stm32f10x_libraries/CMSIS/CM3/CoreSupport/core_cm3.h **** 
 239:./stm32f10x_libraries/CMSIS/CM3/CoreSupport/core_cm3.h **** #define SCB_AIRCR_PRIGROUP_Pos              8                                             /*!< SCB 
 240:./stm32f10x_libraries/CMSIS/CM3/CoreSupport/core_cm3.h **** #define SCB_AIRCR_PRIGROUP_Msk             (7ul << SCB_AIRCR_PRIGROUP_Pos)                /*!< SCB 
 241:./stm32f10x_libraries/CMSIS/CM3/CoreSupport/core_cm3.h **** 
 242:./stm32f10x_libraries/CMSIS/CM3/CoreSupport/core_cm3.h **** #define SCB_AIRCR_SYSRESETREQ_Pos           2                                             /*!< SCB 
 243:./stm32f10x_libraries/CMSIS/CM3/CoreSupport/core_cm3.h **** #define SCB_AIRCR_SYSRESETREQ_Msk          (1ul << SCB_AIRCR_SYSRESETREQ_Pos)             /*!< SCB 
 244:./stm32f10x_libraries/CMSIS/CM3/CoreSupport/core_cm3.h **** 
 245:./stm32f10x_libraries/CMSIS/CM3/CoreSupport/core_cm3.h **** #define SCB_AIRCR_VECTCLRACTIVE_Pos         1                                             /*!< SCB 
 246:./stm32f10x_libraries/CMSIS/CM3/CoreSupport/core_cm3.h **** #define SCB_AIRCR_VECTCLRACTIVE_Msk        (1ul << SCB_AIRCR_VECTCLRACTIVE_Pos)           /*!< SCB 
 247:./stm32f10x_libraries/CMSIS/CM3/CoreSupport/core_cm3.h **** 
 248:./stm32f10x_libraries/CMSIS/CM3/CoreSupport/core_cm3.h **** #define SCB_AIRCR_VECTRESET_Pos             0                                             /*!< SCB 
 249:./stm32f10x_libraries/CMSIS/CM3/CoreSupport/core_cm3.h **** #define SCB_AIRCR_VECTRESET_Msk            (1ul << SCB_AIRCR_VECTRESET_Pos)               /*!< SCB 
 250:./stm32f10x_libraries/CMSIS/CM3/CoreSupport/core_cm3.h **** 
 251:./stm32f10x_libraries/CMSIS/CM3/CoreSupport/core_cm3.h **** /* SCB System Control Register Definitions */
 252:./stm32f10x_libraries/CMSIS/CM3/CoreSupport/core_cm3.h **** #define SCB_SCR_SEVONPEND_Pos               4                                             /*!< SCB 
 253:./stm32f10x_libraries/CMSIS/CM3/CoreSupport/core_cm3.h **** #define SCB_SCR_SEVONPEND_Msk              (1ul << SCB_SCR_SEVONPEND_Pos)                 /*!< SCB 
 254:./stm32f10x_libraries/CMSIS/CM3/CoreSupport/core_cm3.h **** 
 255:./stm32f10x_libraries/CMSIS/CM3/CoreSupport/core_cm3.h **** #define SCB_SCR_SLEEPDEEP_Pos               2                                             /*!< SCB 
 256:./stm32f10x_libraries/CMSIS/CM3/CoreSupport/core_cm3.h **** #define SCB_SCR_SLEEPDEEP_Msk              (1ul << SCB_SCR_SLEEPDEEP_Pos)                 /*!< SCB 
 257:./stm32f10x_libraries/CMSIS/CM3/CoreSupport/core_cm3.h **** 
 258:./stm32f10x_libraries/CMSIS/CM3/CoreSupport/core_cm3.h **** #define SCB_SCR_SLEEPONEXIT_Pos             1                                             /*!< SCB 
 259:./stm32f10x_libraries/CMSIS/CM3/CoreSupport/core_cm3.h **** #define SCB_SCR_SLEEPONEXIT_Msk            (1ul << SCB_SCR_SLEEPONEXIT_Pos)               /*!< SCB 
 260:./stm32f10x_libraries/CMSIS/CM3/CoreSupport/core_cm3.h **** 
 261:./stm32f10x_libraries/CMSIS/CM3/CoreSupport/core_cm3.h **** /* SCB Configuration Control Register Definitions */
 262:./stm32f10x_libraries/CMSIS/CM3/CoreSupport/core_cm3.h **** #define SCB_CCR_STKALIGN_Pos                9                                             /*!< SCB 
 263:./stm32f10x_libraries/CMSIS/CM3/CoreSupport/core_cm3.h **** #define SCB_CCR_STKALIGN_Msk               (1ul << SCB_CCR_STKALIGN_Pos)                  /*!< SCB 
 264:./stm32f10x_libraries/CMSIS/CM3/CoreSupport/core_cm3.h **** 
 265:./stm32f10x_libraries/CMSIS/CM3/CoreSupport/core_cm3.h **** #define SCB_CCR_BFHFNMIGN_Pos               8                                             /*!< SCB 
ARM GAS  C:\Users\user\AppData\Local\Temp\cc7qV6fF.s 			page 26


 266:./stm32f10x_libraries/CMSIS/CM3/CoreSupport/core_cm3.h **** #define SCB_CCR_BFHFNMIGN_Msk              (1ul << SCB_CCR_BFHFNMIGN_Pos)                 /*!< SCB 
 267:./stm32f10x_libraries/CMSIS/CM3/CoreSupport/core_cm3.h **** 
 268:./stm32f10x_libraries/CMSIS/CM3/CoreSupport/core_cm3.h **** #define SCB_CCR_DIV_0_TRP_Pos               4                                             /*!< SCB 
 269:./stm32f10x_libraries/CMSIS/CM3/CoreSupport/core_cm3.h **** #define SCB_CCR_DIV_0_TRP_Msk              (1ul << SCB_CCR_DIV_0_TRP_Pos)                 /*!< SCB 
 270:./stm32f10x_libraries/CMSIS/CM3/CoreSupport/core_cm3.h **** 
 271:./stm32f10x_libraries/CMSIS/CM3/CoreSupport/core_cm3.h **** #define SCB_CCR_UNALIGN_TRP_Pos             3                                             /*!< SCB 
 272:./stm32f10x_libraries/CMSIS/CM3/CoreSupport/core_cm3.h **** #define SCB_CCR_UNALIGN_TRP_Msk            (1ul << SCB_CCR_UNALIGN_TRP_Pos)               /*!< SCB 
 273:./stm32f10x_libraries/CMSIS/CM3/CoreSupport/core_cm3.h **** 
 274:./stm32f10x_libraries/CMSIS/CM3/CoreSupport/core_cm3.h **** #define SCB_CCR_USERSETMPEND_Pos            1                                             /*!< SCB 
 275:./stm32f10x_libraries/CMSIS/CM3/CoreSupport/core_cm3.h **** #define SCB_CCR_USERSETMPEND_Msk           (1ul << SCB_CCR_USERSETMPEND_Pos)              /*!< SCB 
 276:./stm32f10x_libraries/CMSIS/CM3/CoreSupport/core_cm3.h **** 
 277:./stm32f10x_libraries/CMSIS/CM3/CoreSupport/core_cm3.h **** #define SCB_CCR_NONBASETHRDENA_Pos          0                                             /*!< SCB 
 278:./stm32f10x_libraries/CMSIS/CM3/CoreSupport/core_cm3.h **** #define SCB_CCR_NONBASETHRDENA_Msk         (1ul << SCB_CCR_NONBASETHRDENA_Pos)            /*!< SCB 
 279:./stm32f10x_libraries/CMSIS/CM3/CoreSupport/core_cm3.h **** 
 280:./stm32f10x_libraries/CMSIS/CM3/CoreSupport/core_cm3.h **** /* SCB System Handler Control and State Register Definitions */
 281:./stm32f10x_libraries/CMSIS/CM3/CoreSupport/core_cm3.h **** #define SCB_SHCSR_USGFAULTENA_Pos          18                                             /*!< SCB 
 282:./stm32f10x_libraries/CMSIS/CM3/CoreSupport/core_cm3.h **** #define SCB_SHCSR_USGFAULTENA_Msk          (1ul << SCB_SHCSR_USGFAULTENA_Pos)             /*!< SCB 
 283:./stm32f10x_libraries/CMSIS/CM3/CoreSupport/core_cm3.h **** 
 284:./stm32f10x_libraries/CMSIS/CM3/CoreSupport/core_cm3.h **** #define SCB_SHCSR_BUSFAULTENA_Pos          17                                             /*!< SCB 
 285:./stm32f10x_libraries/CMSIS/CM3/CoreSupport/core_cm3.h **** #define SCB_SHCSR_BUSFAULTENA_Msk          (1ul << SCB_SHCSR_BUSFAULTENA_Pos)             /*!< SCB 
 286:./stm32f10x_libraries/CMSIS/CM3/CoreSupport/core_cm3.h **** 
 287:./stm32f10x_libraries/CMSIS/CM3/CoreSupport/core_cm3.h **** #define SCB_SHCSR_MEMFAULTENA_Pos          16                                             /*!< SCB 
 288:./stm32f10x_libraries/CMSIS/CM3/CoreSupport/core_cm3.h **** #define SCB_SHCSR_MEMFAULTENA_Msk          (1ul << SCB_SHCSR_MEMFAULTENA_Pos)             /*!< SCB 
 289:./stm32f10x_libraries/CMSIS/CM3/CoreSupport/core_cm3.h **** 
 290:./stm32f10x_libraries/CMSIS/CM3/CoreSupport/core_cm3.h **** #define SCB_SHCSR_SVCALLPENDED_Pos         15                                             /*!< SCB 
 291:./stm32f10x_libraries/CMSIS/CM3/CoreSupport/core_cm3.h **** #define SCB_SHCSR_SVCALLPENDED_Msk         (1ul << SCB_SHCSR_SVCALLPENDED_Pos)            /*!< SCB 
 292:./stm32f10x_libraries/CMSIS/CM3/CoreSupport/core_cm3.h **** 
 293:./stm32f10x_libraries/CMSIS/CM3/CoreSupport/core_cm3.h **** #define SCB_SHCSR_BUSFAULTPENDED_Pos       14                                             /*!< SCB 
 294:./stm32f10x_libraries/CMSIS/CM3/CoreSupport/core_cm3.h **** #define SCB_SHCSR_BUSFAULTPENDED_Msk       (1ul << SCB_SHCSR_BUSFAULTPENDED_Pos)          /*!< SCB 
 295:./stm32f10x_libraries/CMSIS/CM3/CoreSupport/core_cm3.h **** 
 296:./stm32f10x_libraries/CMSIS/CM3/CoreSupport/core_cm3.h **** #define SCB_SHCSR_MEMFAULTPENDED_Pos       13                                             /*!< SCB 
 297:./stm32f10x_libraries/CMSIS/CM3/CoreSupport/core_cm3.h **** #define SCB_SHCSR_MEMFAULTPENDED_Msk       (1ul << SCB_SHCSR_MEMFAULTPENDED_Pos)          /*!< SCB 
 298:./stm32f10x_libraries/CMSIS/CM3/CoreSupport/core_cm3.h **** 
 299:./stm32f10x_libraries/CMSIS/CM3/CoreSupport/core_cm3.h **** #define SCB_SHCSR_USGFAULTPENDED_Pos       12                                             /*!< SCB 
 300:./stm32f10x_libraries/CMSIS/CM3/CoreSupport/core_cm3.h **** #define SCB_SHCSR_USGFAULTPENDED_Msk       (1ul << SCB_SHCSR_USGFAULTPENDED_Pos)          /*!< SCB 
 301:./stm32f10x_libraries/CMSIS/CM3/CoreSupport/core_cm3.h **** 
 302:./stm32f10x_libraries/CMSIS/CM3/CoreSupport/core_cm3.h **** #define SCB_SHCSR_SYSTICKACT_Pos           11                                             /*!< SCB 
 303:./stm32f10x_libraries/CMSIS/CM3/CoreSupport/core_cm3.h **** #define SCB_SHCSR_SYSTICKACT_Msk           (1ul << SCB_SHCSR_SYSTICKACT_Pos)              /*!< SCB 
 304:./stm32f10x_libraries/CMSIS/CM3/CoreSupport/core_cm3.h **** 
 305:./stm32f10x_libraries/CMSIS/CM3/CoreSupport/core_cm3.h **** #define SCB_SHCSR_PENDSVACT_Pos            10                                             /*!< SCB 
 306:./stm32f10x_libraries/CMSIS/CM3/CoreSupport/core_cm3.h **** #define SCB_SHCSR_PENDSVACT_Msk            (1ul << SCB_SHCSR_PENDSVACT_Pos)               /*!< SCB 
 307:./stm32f10x_libraries/CMSIS/CM3/CoreSupport/core_cm3.h **** 
 308:./stm32f10x_libraries/CMSIS/CM3/CoreSupport/core_cm3.h **** #define SCB_SHCSR_MONITORACT_Pos            8                                             /*!< SCB 
 309:./stm32f10x_libraries/CMSIS/CM3/CoreSupport/core_cm3.h **** #define SCB_SHCSR_MONITORACT_Msk           (1ul << SCB_SHCSR_MONITORACT_Pos)              /*!< SCB 
 310:./stm32f10x_libraries/CMSIS/CM3/CoreSupport/core_cm3.h **** 
 311:./stm32f10x_libraries/CMSIS/CM3/CoreSupport/core_cm3.h **** #define SCB_SHCSR_SVCALLACT_Pos             7                                             /*!< SCB 
 312:./stm32f10x_libraries/CMSIS/CM3/CoreSupport/core_cm3.h **** #define SCB_SHCSR_SVCALLACT_Msk            (1ul << SCB_SHCSR_SVCALLACT_Pos)               /*!< SCB 
 313:./stm32f10x_libraries/CMSIS/CM3/CoreSupport/core_cm3.h ****                                      
 314:./stm32f10x_libraries/CMSIS/CM3/CoreSupport/core_cm3.h **** #define SCB_SHCSR_USGFAULTACT_Pos           3                                             /*!< SCB 
 315:./stm32f10x_libraries/CMSIS/CM3/CoreSupport/core_cm3.h **** #define SCB_SHCSR_USGFAULTACT_Msk          (1ul << SCB_SHCSR_USGFAULTACT_Pos)             /*!< SCB 
 316:./stm32f10x_libraries/CMSIS/CM3/CoreSupport/core_cm3.h **** 
 317:./stm32f10x_libraries/CMSIS/CM3/CoreSupport/core_cm3.h **** #define SCB_SHCSR_BUSFAULTACT_Pos           1                                             /*!< SCB 
 318:./stm32f10x_libraries/CMSIS/CM3/CoreSupport/core_cm3.h **** #define SCB_SHCSR_BUSFAULTACT_Msk          (1ul << SCB_SHCSR_BUSFAULTACT_Pos)             /*!< SCB 
 319:./stm32f10x_libraries/CMSIS/CM3/CoreSupport/core_cm3.h **** 
 320:./stm32f10x_libraries/CMSIS/CM3/CoreSupport/core_cm3.h **** #define SCB_SHCSR_MEMFAULTACT_Pos           0                                             /*!< SCB 
 321:./stm32f10x_libraries/CMSIS/CM3/CoreSupport/core_cm3.h **** #define SCB_SHCSR_MEMFAULTACT_Msk          (1ul << SCB_SHCSR_MEMFAULTACT_Pos)             /*!< SCB 
 322:./stm32f10x_libraries/CMSIS/CM3/CoreSupport/core_cm3.h **** 
ARM GAS  C:\Users\user\AppData\Local\Temp\cc7qV6fF.s 			page 27


 323:./stm32f10x_libraries/CMSIS/CM3/CoreSupport/core_cm3.h **** /* SCB Configurable Fault Status Registers Definitions */
 324:./stm32f10x_libraries/CMSIS/CM3/CoreSupport/core_cm3.h **** #define SCB_CFSR_USGFAULTSR_Pos            16                                             /*!< SCB 
 325:./stm32f10x_libraries/CMSIS/CM3/CoreSupport/core_cm3.h **** #define SCB_CFSR_USGFAULTSR_Msk            (0xFFFFul << SCB_CFSR_USGFAULTSR_Pos)          /*!< SCB 
 326:./stm32f10x_libraries/CMSIS/CM3/CoreSupport/core_cm3.h **** 
 327:./stm32f10x_libraries/CMSIS/CM3/CoreSupport/core_cm3.h **** #define SCB_CFSR_BUSFAULTSR_Pos             8                                             /*!< SCB 
 328:./stm32f10x_libraries/CMSIS/CM3/CoreSupport/core_cm3.h **** #define SCB_CFSR_BUSFAULTSR_Msk            (0xFFul << SCB_CFSR_BUSFAULTSR_Pos)            /*!< SCB 
 329:./stm32f10x_libraries/CMSIS/CM3/CoreSupport/core_cm3.h **** 
 330:./stm32f10x_libraries/CMSIS/CM3/CoreSupport/core_cm3.h **** #define SCB_CFSR_MEMFAULTSR_Pos             0                                             /*!< SCB 
 331:./stm32f10x_libraries/CMSIS/CM3/CoreSupport/core_cm3.h **** #define SCB_CFSR_MEMFAULTSR_Msk            (0xFFul << SCB_CFSR_MEMFAULTSR_Pos)            /*!< SCB 
 332:./stm32f10x_libraries/CMSIS/CM3/CoreSupport/core_cm3.h **** 
 333:./stm32f10x_libraries/CMSIS/CM3/CoreSupport/core_cm3.h **** /* SCB Hard Fault Status Registers Definitions */
 334:./stm32f10x_libraries/CMSIS/CM3/CoreSupport/core_cm3.h **** #define SCB_HFSR_DEBUGEVT_Pos              31                                             /*!< SCB 
 335:./stm32f10x_libraries/CMSIS/CM3/CoreSupport/core_cm3.h **** #define SCB_HFSR_DEBUGEVT_Msk              (1ul << SCB_HFSR_DEBUGEVT_Pos)                 /*!< SCB 
 336:./stm32f10x_libraries/CMSIS/CM3/CoreSupport/core_cm3.h **** 
 337:./stm32f10x_libraries/CMSIS/CM3/CoreSupport/core_cm3.h **** #define SCB_HFSR_FORCED_Pos                30                                             /*!< SCB 
 338:./stm32f10x_libraries/CMSIS/CM3/CoreSupport/core_cm3.h **** #define SCB_HFSR_FORCED_Msk                (1ul << SCB_HFSR_FORCED_Pos)                   /*!< SCB 
 339:./stm32f10x_libraries/CMSIS/CM3/CoreSupport/core_cm3.h **** 
 340:./stm32f10x_libraries/CMSIS/CM3/CoreSupport/core_cm3.h **** #define SCB_HFSR_VECTTBL_Pos                1                                             /*!< SCB 
 341:./stm32f10x_libraries/CMSIS/CM3/CoreSupport/core_cm3.h **** #define SCB_HFSR_VECTTBL_Msk               (1ul << SCB_HFSR_VECTTBL_Pos)                  /*!< SCB 
 342:./stm32f10x_libraries/CMSIS/CM3/CoreSupport/core_cm3.h **** 
 343:./stm32f10x_libraries/CMSIS/CM3/CoreSupport/core_cm3.h **** /* SCB Debug Fault Status Register Definitions */
 344:./stm32f10x_libraries/CMSIS/CM3/CoreSupport/core_cm3.h **** #define SCB_DFSR_EXTERNAL_Pos               4                                             /*!< SCB 
 345:./stm32f10x_libraries/CMSIS/CM3/CoreSupport/core_cm3.h **** #define SCB_DFSR_EXTERNAL_Msk              (1ul << SCB_DFSR_EXTERNAL_Pos)                 /*!< SCB 
 346:./stm32f10x_libraries/CMSIS/CM3/CoreSupport/core_cm3.h **** 
 347:./stm32f10x_libraries/CMSIS/CM3/CoreSupport/core_cm3.h **** #define SCB_DFSR_VCATCH_Pos                 3                                             /*!< SCB 
 348:./stm32f10x_libraries/CMSIS/CM3/CoreSupport/core_cm3.h **** #define SCB_DFSR_VCATCH_Msk                (1ul << SCB_DFSR_VCATCH_Pos)                   /*!< SCB 
 349:./stm32f10x_libraries/CMSIS/CM3/CoreSupport/core_cm3.h **** 
 350:./stm32f10x_libraries/CMSIS/CM3/CoreSupport/core_cm3.h **** #define SCB_DFSR_DWTTRAP_Pos                2                                             /*!< SCB 
 351:./stm32f10x_libraries/CMSIS/CM3/CoreSupport/core_cm3.h **** #define SCB_DFSR_DWTTRAP_Msk               (1ul << SCB_DFSR_DWTTRAP_Pos)                  /*!< SCB 
 352:./stm32f10x_libraries/CMSIS/CM3/CoreSupport/core_cm3.h **** 
 353:./stm32f10x_libraries/CMSIS/CM3/CoreSupport/core_cm3.h **** #define SCB_DFSR_BKPT_Pos                   1                                             /*!< SCB 
 354:./stm32f10x_libraries/CMSIS/CM3/CoreSupport/core_cm3.h **** #define SCB_DFSR_BKPT_Msk                  (1ul << SCB_DFSR_BKPT_Pos)                     /*!< SCB 
 355:./stm32f10x_libraries/CMSIS/CM3/CoreSupport/core_cm3.h **** 
 356:./stm32f10x_libraries/CMSIS/CM3/CoreSupport/core_cm3.h **** #define SCB_DFSR_HALTED_Pos                 0                                             /*!< SCB 
 357:./stm32f10x_libraries/CMSIS/CM3/CoreSupport/core_cm3.h **** #define SCB_DFSR_HALTED_Msk                (1ul << SCB_DFSR_HALTED_Pos)                   /*!< SCB 
 358:./stm32f10x_libraries/CMSIS/CM3/CoreSupport/core_cm3.h **** /*@}*/ /* end of group CMSIS_CM3_SCB */
 359:./stm32f10x_libraries/CMSIS/CM3/CoreSupport/core_cm3.h **** 
 360:./stm32f10x_libraries/CMSIS/CM3/CoreSupport/core_cm3.h **** 
 361:./stm32f10x_libraries/CMSIS/CM3/CoreSupport/core_cm3.h **** /** @addtogroup CMSIS_CM3_SysTick CMSIS CM3 SysTick
 362:./stm32f10x_libraries/CMSIS/CM3/CoreSupport/core_cm3.h ****   memory mapped structure for SysTick
 363:./stm32f10x_libraries/CMSIS/CM3/CoreSupport/core_cm3.h ****   @{
 364:./stm32f10x_libraries/CMSIS/CM3/CoreSupport/core_cm3.h ****  */
 365:./stm32f10x_libraries/CMSIS/CM3/CoreSupport/core_cm3.h **** typedef struct
 366:./stm32f10x_libraries/CMSIS/CM3/CoreSupport/core_cm3.h **** {
 367:./stm32f10x_libraries/CMSIS/CM3/CoreSupport/core_cm3.h ****   __IO uint32_t CTRL;                         /*!< Offset: 0x00  SysTick Control and Status Registe
 368:./stm32f10x_libraries/CMSIS/CM3/CoreSupport/core_cm3.h ****   __IO uint32_t LOAD;                         /*!< Offset: 0x04  SysTick Reload Value Register     
 369:./stm32f10x_libraries/CMSIS/CM3/CoreSupport/core_cm3.h ****   __IO uint32_t VAL;                          /*!< Offset: 0x08  SysTick Current Value Register    
 370:./stm32f10x_libraries/CMSIS/CM3/CoreSupport/core_cm3.h ****   __I  uint32_t CALIB;                        /*!< Offset: 0x0C  SysTick Calibration Register      
 371:./stm32f10x_libraries/CMSIS/CM3/CoreSupport/core_cm3.h **** } SysTick_Type;
 372:./stm32f10x_libraries/CMSIS/CM3/CoreSupport/core_cm3.h **** 
 373:./stm32f10x_libraries/CMSIS/CM3/CoreSupport/core_cm3.h **** /* SysTick Control / Status Register Definitions */
 374:./stm32f10x_libraries/CMSIS/CM3/CoreSupport/core_cm3.h **** #define SysTick_CTRL_COUNTFLAG_Pos         16                                             /*!< SysT
 375:./stm32f10x_libraries/CMSIS/CM3/CoreSupport/core_cm3.h **** #define SysTick_CTRL_COUNTFLAG_Msk         (1ul << SysTick_CTRL_COUNTFLAG_Pos)            /*!< SysT
 376:./stm32f10x_libraries/CMSIS/CM3/CoreSupport/core_cm3.h **** 
 377:./stm32f10x_libraries/CMSIS/CM3/CoreSupport/core_cm3.h **** #define SysTick_CTRL_CLKSOURCE_Pos          2                                             /*!< SysT
 378:./stm32f10x_libraries/CMSIS/CM3/CoreSupport/core_cm3.h **** #define SysTick_CTRL_CLKSOURCE_Msk         (1ul << SysTick_CTRL_CLKSOURCE_Pos)            /*!< SysT
 379:./stm32f10x_libraries/CMSIS/CM3/CoreSupport/core_cm3.h **** 
ARM GAS  C:\Users\user\AppData\Local\Temp\cc7qV6fF.s 			page 28


 380:./stm32f10x_libraries/CMSIS/CM3/CoreSupport/core_cm3.h **** #define SysTick_CTRL_TICKINT_Pos            1                                             /*!< SysT
 381:./stm32f10x_libraries/CMSIS/CM3/CoreSupport/core_cm3.h **** #define SysTick_CTRL_TICKINT_Msk           (1ul << SysTick_CTRL_TICKINT_Pos)              /*!< SysT
 382:./stm32f10x_libraries/CMSIS/CM3/CoreSupport/core_cm3.h **** 
 383:./stm32f10x_libraries/CMSIS/CM3/CoreSupport/core_cm3.h **** #define SysTick_CTRL_ENABLE_Pos             0                                             /*!< SysT
 384:./stm32f10x_libraries/CMSIS/CM3/CoreSupport/core_cm3.h **** #define SysTick_CTRL_ENABLE_Msk            (1ul << SysTick_CTRL_ENABLE_Pos)               /*!< SysT
 385:./stm32f10x_libraries/CMSIS/CM3/CoreSupport/core_cm3.h **** 
 386:./stm32f10x_libraries/CMSIS/CM3/CoreSupport/core_cm3.h **** /* SysTick Reload Register Definitions */
 387:./stm32f10x_libraries/CMSIS/CM3/CoreSupport/core_cm3.h **** #define SysTick_LOAD_RELOAD_Pos             0                                             /*!< SysT
 388:./stm32f10x_libraries/CMSIS/CM3/CoreSupport/core_cm3.h **** #define SysTick_LOAD_RELOAD_Msk            (0xFFFFFFul << SysTick_LOAD_RELOAD_Pos)        /*!< SysT
 389:./stm32f10x_libraries/CMSIS/CM3/CoreSupport/core_cm3.h **** 
 390:./stm32f10x_libraries/CMSIS/CM3/CoreSupport/core_cm3.h **** /* SysTick Current Register Definitions */
 391:./stm32f10x_libraries/CMSIS/CM3/CoreSupport/core_cm3.h **** #define SysTick_VAL_CURRENT_Pos             0                                             /*!< SysT
 392:./stm32f10x_libraries/CMSIS/CM3/CoreSupport/core_cm3.h **** #define SysTick_VAL_CURRENT_Msk            (0xFFFFFFul << SysTick_VAL_CURRENT_Pos)        /*!< SysT
 393:./stm32f10x_libraries/CMSIS/CM3/CoreSupport/core_cm3.h **** 
 394:./stm32f10x_libraries/CMSIS/CM3/CoreSupport/core_cm3.h **** /* SysTick Calibration Register Definitions */
 395:./stm32f10x_libraries/CMSIS/CM3/CoreSupport/core_cm3.h **** #define SysTick_CALIB_NOREF_Pos            31                                             /*!< SysT
 396:./stm32f10x_libraries/CMSIS/CM3/CoreSupport/core_cm3.h **** #define SysTick_CALIB_NOREF_Msk            (1ul << SysTick_CALIB_NOREF_Pos)               /*!< SysT
 397:./stm32f10x_libraries/CMSIS/CM3/CoreSupport/core_cm3.h **** 
 398:./stm32f10x_libraries/CMSIS/CM3/CoreSupport/core_cm3.h **** #define SysTick_CALIB_SKEW_Pos             30                                             /*!< SysT
 399:./stm32f10x_libraries/CMSIS/CM3/CoreSupport/core_cm3.h **** #define SysTick_CALIB_SKEW_Msk             (1ul << SysTick_CALIB_SKEW_Pos)                /*!< SysT
 400:./stm32f10x_libraries/CMSIS/CM3/CoreSupport/core_cm3.h **** 
 401:./stm32f10x_libraries/CMSIS/CM3/CoreSupport/core_cm3.h **** #define SysTick_CALIB_TENMS_Pos             0                                             /*!< SysT
 402:./stm32f10x_libraries/CMSIS/CM3/CoreSupport/core_cm3.h **** #define SysTick_CALIB_TENMS_Msk            (0xFFFFFFul << SysTick_VAL_CURRENT_Pos)        /*!< SysT
 403:./stm32f10x_libraries/CMSIS/CM3/CoreSupport/core_cm3.h **** /*@}*/ /* end of group CMSIS_CM3_SysTick */
 404:./stm32f10x_libraries/CMSIS/CM3/CoreSupport/core_cm3.h **** 
 405:./stm32f10x_libraries/CMSIS/CM3/CoreSupport/core_cm3.h **** 
 406:./stm32f10x_libraries/CMSIS/CM3/CoreSupport/core_cm3.h **** /** @addtogroup CMSIS_CM3_ITM CMSIS CM3 ITM
 407:./stm32f10x_libraries/CMSIS/CM3/CoreSupport/core_cm3.h ****   memory mapped structure for Instrumentation Trace Macrocell (ITM)
 408:./stm32f10x_libraries/CMSIS/CM3/CoreSupport/core_cm3.h ****   @{
 409:./stm32f10x_libraries/CMSIS/CM3/CoreSupport/core_cm3.h ****  */
 410:./stm32f10x_libraries/CMSIS/CM3/CoreSupport/core_cm3.h **** typedef struct
 411:./stm32f10x_libraries/CMSIS/CM3/CoreSupport/core_cm3.h **** {
 412:./stm32f10x_libraries/CMSIS/CM3/CoreSupport/core_cm3.h ****   __O  union  
 413:./stm32f10x_libraries/CMSIS/CM3/CoreSupport/core_cm3.h ****   {
 414:./stm32f10x_libraries/CMSIS/CM3/CoreSupport/core_cm3.h ****     __O  uint8_t    u8;                       /*!< Offset:       ITM Stimulus Port 8-bit           
 415:./stm32f10x_libraries/CMSIS/CM3/CoreSupport/core_cm3.h ****     __O  uint16_t   u16;                      /*!< Offset:       ITM Stimulus Port 16-bit          
 416:./stm32f10x_libraries/CMSIS/CM3/CoreSupport/core_cm3.h ****     __O  uint32_t   u32;                      /*!< Offset:       ITM Stimulus Port 32-bit          
 417:./stm32f10x_libraries/CMSIS/CM3/CoreSupport/core_cm3.h ****   }  PORT [32];                               /*!< Offset: 0x00  ITM Stimulus Port Registers       
 418:./stm32f10x_libraries/CMSIS/CM3/CoreSupport/core_cm3.h ****        uint32_t RESERVED0[864];                                 
 419:./stm32f10x_libraries/CMSIS/CM3/CoreSupport/core_cm3.h ****   __IO uint32_t TER;                          /*!< Offset:       ITM Trace Enable Register         
 420:./stm32f10x_libraries/CMSIS/CM3/CoreSupport/core_cm3.h ****        uint32_t RESERVED1[15];                                  
 421:./stm32f10x_libraries/CMSIS/CM3/CoreSupport/core_cm3.h ****   __IO uint32_t TPR;                          /*!< Offset:       ITM Trace Privilege Register      
 422:./stm32f10x_libraries/CMSIS/CM3/CoreSupport/core_cm3.h ****        uint32_t RESERVED2[15];                                  
 423:./stm32f10x_libraries/CMSIS/CM3/CoreSupport/core_cm3.h ****   __IO uint32_t TCR;                          /*!< Offset:       ITM Trace Control Register        
 424:./stm32f10x_libraries/CMSIS/CM3/CoreSupport/core_cm3.h ****        uint32_t RESERVED3[29];                                  
 425:./stm32f10x_libraries/CMSIS/CM3/CoreSupport/core_cm3.h ****   __IO uint32_t IWR;                          /*!< Offset:       ITM Integration Write Register    
 426:./stm32f10x_libraries/CMSIS/CM3/CoreSupport/core_cm3.h ****   __IO uint32_t IRR;                          /*!< Offset:       ITM Integration Read Register     
 427:./stm32f10x_libraries/CMSIS/CM3/CoreSupport/core_cm3.h ****   __IO uint32_t IMCR;                         /*!< Offset:       ITM Integration Mode Control Regis
 428:./stm32f10x_libraries/CMSIS/CM3/CoreSupport/core_cm3.h ****        uint32_t RESERVED4[43];                                  
 429:./stm32f10x_libraries/CMSIS/CM3/CoreSupport/core_cm3.h ****   __IO uint32_t LAR;                          /*!< Offset:       ITM Lock Access Register          
 430:./stm32f10x_libraries/CMSIS/CM3/CoreSupport/core_cm3.h ****   __IO uint32_t LSR;                          /*!< Offset:       ITM Lock Status Register          
 431:./stm32f10x_libraries/CMSIS/CM3/CoreSupport/core_cm3.h ****        uint32_t RESERVED5[6];                                   
 432:./stm32f10x_libraries/CMSIS/CM3/CoreSupport/core_cm3.h ****   __I  uint32_t PID4;                         /*!< Offset:       ITM Peripheral Identification Regi
 433:./stm32f10x_libraries/CMSIS/CM3/CoreSupport/core_cm3.h ****   __I  uint32_t PID5;                         /*!< Offset:       ITM Peripheral Identification Regi
 434:./stm32f10x_libraries/CMSIS/CM3/CoreSupport/core_cm3.h ****   __I  uint32_t PID6;                         /*!< Offset:       ITM Peripheral Identification Regi
 435:./stm32f10x_libraries/CMSIS/CM3/CoreSupport/core_cm3.h ****   __I  uint32_t PID7;                         /*!< Offset:       ITM Peripheral Identification Regi
 436:./stm32f10x_libraries/CMSIS/CM3/CoreSupport/core_cm3.h ****   __I  uint32_t PID0;                         /*!< Offset:       ITM Peripheral Identification Regi
ARM GAS  C:\Users\user\AppData\Local\Temp\cc7qV6fF.s 			page 29


 437:./stm32f10x_libraries/CMSIS/CM3/CoreSupport/core_cm3.h ****   __I  uint32_t PID1;                         /*!< Offset:       ITM Peripheral Identification Regi
 438:./stm32f10x_libraries/CMSIS/CM3/CoreSupport/core_cm3.h ****   __I  uint32_t PID2;                         /*!< Offset:       ITM Peripheral Identification Regi
 439:./stm32f10x_libraries/CMSIS/CM3/CoreSupport/core_cm3.h ****   __I  uint32_t PID3;                         /*!< Offset:       ITM Peripheral Identification Regi
 440:./stm32f10x_libraries/CMSIS/CM3/CoreSupport/core_cm3.h ****   __I  uint32_t CID0;                         /*!< Offset:       ITM Component  Identification Regi
 441:./stm32f10x_libraries/CMSIS/CM3/CoreSupport/core_cm3.h ****   __I  uint32_t CID1;                         /*!< Offset:       ITM Component  Identification Regi
 442:./stm32f10x_libraries/CMSIS/CM3/CoreSupport/core_cm3.h ****   __I  uint32_t CID2;                         /*!< Offset:       ITM Component  Identification Regi
 443:./stm32f10x_libraries/CMSIS/CM3/CoreSupport/core_cm3.h ****   __I  uint32_t CID3;                         /*!< Offset:       ITM Component  Identification Regi
 444:./stm32f10x_libraries/CMSIS/CM3/CoreSupport/core_cm3.h **** } ITM_Type;                                                
 445:./stm32f10x_libraries/CMSIS/CM3/CoreSupport/core_cm3.h **** 
 446:./stm32f10x_libraries/CMSIS/CM3/CoreSupport/core_cm3.h **** /* ITM Trace Privilege Register Definitions */
 447:./stm32f10x_libraries/CMSIS/CM3/CoreSupport/core_cm3.h **** #define ITM_TPR_PRIVMASK_Pos                0                                             /*!< ITM 
 448:./stm32f10x_libraries/CMSIS/CM3/CoreSupport/core_cm3.h **** #define ITM_TPR_PRIVMASK_Msk               (0xFul << ITM_TPR_PRIVMASK_Pos)                /*!< ITM 
 449:./stm32f10x_libraries/CMSIS/CM3/CoreSupport/core_cm3.h **** 
 450:./stm32f10x_libraries/CMSIS/CM3/CoreSupport/core_cm3.h **** /* ITM Trace Control Register Definitions */
 451:./stm32f10x_libraries/CMSIS/CM3/CoreSupport/core_cm3.h **** #define ITM_TCR_BUSY_Pos                   23                                             /*!< ITM 
 452:./stm32f10x_libraries/CMSIS/CM3/CoreSupport/core_cm3.h **** #define ITM_TCR_BUSY_Msk                   (1ul << ITM_TCR_BUSY_Pos)                      /*!< ITM 
 453:./stm32f10x_libraries/CMSIS/CM3/CoreSupport/core_cm3.h **** 
 454:./stm32f10x_libraries/CMSIS/CM3/CoreSupport/core_cm3.h **** #define ITM_TCR_ATBID_Pos                  16                                             /*!< ITM 
 455:./stm32f10x_libraries/CMSIS/CM3/CoreSupport/core_cm3.h **** #define ITM_TCR_ATBID_Msk                  (0x7Ful << ITM_TCR_ATBID_Pos)                  /*!< ITM 
 456:./stm32f10x_libraries/CMSIS/CM3/CoreSupport/core_cm3.h **** 
 457:./stm32f10x_libraries/CMSIS/CM3/CoreSupport/core_cm3.h **** #define ITM_TCR_TSPrescale_Pos              8                                             /*!< ITM 
 458:./stm32f10x_libraries/CMSIS/CM3/CoreSupport/core_cm3.h **** #define ITM_TCR_TSPrescale_Msk             (3ul << ITM_TCR_TSPrescale_Pos)                /*!< ITM 
 459:./stm32f10x_libraries/CMSIS/CM3/CoreSupport/core_cm3.h **** 
 460:./stm32f10x_libraries/CMSIS/CM3/CoreSupport/core_cm3.h **** #define ITM_TCR_SWOENA_Pos                  4                                             /*!< ITM 
 461:./stm32f10x_libraries/CMSIS/CM3/CoreSupport/core_cm3.h **** #define ITM_TCR_SWOENA_Msk                 (1ul << ITM_TCR_SWOENA_Pos)                    /*!< ITM 
 462:./stm32f10x_libraries/CMSIS/CM3/CoreSupport/core_cm3.h **** 
 463:./stm32f10x_libraries/CMSIS/CM3/CoreSupport/core_cm3.h **** #define ITM_TCR_DWTENA_Pos                  3                                             /*!< ITM 
 464:./stm32f10x_libraries/CMSIS/CM3/CoreSupport/core_cm3.h **** #define ITM_TCR_DWTENA_Msk                 (1ul << ITM_TCR_DWTENA_Pos)                    /*!< ITM 
 465:./stm32f10x_libraries/CMSIS/CM3/CoreSupport/core_cm3.h **** 
 466:./stm32f10x_libraries/CMSIS/CM3/CoreSupport/core_cm3.h **** #define ITM_TCR_SYNCENA_Pos                 2                                             /*!< ITM 
 467:./stm32f10x_libraries/CMSIS/CM3/CoreSupport/core_cm3.h **** #define ITM_TCR_SYNCENA_Msk                (1ul << ITM_TCR_SYNCENA_Pos)                   /*!< ITM 
 468:./stm32f10x_libraries/CMSIS/CM3/CoreSupport/core_cm3.h **** 
 469:./stm32f10x_libraries/CMSIS/CM3/CoreSupport/core_cm3.h **** #define ITM_TCR_TSENA_Pos                   1                                             /*!< ITM 
 470:./stm32f10x_libraries/CMSIS/CM3/CoreSupport/core_cm3.h **** #define ITM_TCR_TSENA_Msk                  (1ul << ITM_TCR_TSENA_Pos)                     /*!< ITM 
 471:./stm32f10x_libraries/CMSIS/CM3/CoreSupport/core_cm3.h **** 
 472:./stm32f10x_libraries/CMSIS/CM3/CoreSupport/core_cm3.h **** #define ITM_TCR_ITMENA_Pos                  0                                             /*!< ITM 
 473:./stm32f10x_libraries/CMSIS/CM3/CoreSupport/core_cm3.h **** #define ITM_TCR_ITMENA_Msk                 (1ul << ITM_TCR_ITMENA_Pos)                    /*!< ITM 
 474:./stm32f10x_libraries/CMSIS/CM3/CoreSupport/core_cm3.h **** 
 475:./stm32f10x_libraries/CMSIS/CM3/CoreSupport/core_cm3.h **** /* ITM Integration Write Register Definitions */
 476:./stm32f10x_libraries/CMSIS/CM3/CoreSupport/core_cm3.h **** #define ITM_IWR_ATVALIDM_Pos                0                                             /*!< ITM 
 477:./stm32f10x_libraries/CMSIS/CM3/CoreSupport/core_cm3.h **** #define ITM_IWR_ATVALIDM_Msk               (1ul << ITM_IWR_ATVALIDM_Pos)                  /*!< ITM 
 478:./stm32f10x_libraries/CMSIS/CM3/CoreSupport/core_cm3.h **** 
 479:./stm32f10x_libraries/CMSIS/CM3/CoreSupport/core_cm3.h **** /* ITM Integration Read Register Definitions */
 480:./stm32f10x_libraries/CMSIS/CM3/CoreSupport/core_cm3.h **** #define ITM_IRR_ATREADYM_Pos                0                                             /*!< ITM 
 481:./stm32f10x_libraries/CMSIS/CM3/CoreSupport/core_cm3.h **** #define ITM_IRR_ATREADYM_Msk               (1ul << ITM_IRR_ATREADYM_Pos)                  /*!< ITM 
 482:./stm32f10x_libraries/CMSIS/CM3/CoreSupport/core_cm3.h **** 
 483:./stm32f10x_libraries/CMSIS/CM3/CoreSupport/core_cm3.h **** /* ITM Integration Mode Control Register Definitions */
 484:./stm32f10x_libraries/CMSIS/CM3/CoreSupport/core_cm3.h **** #define ITM_IMCR_INTEGRATION_Pos            0                                             /*!< ITM 
 485:./stm32f10x_libraries/CMSIS/CM3/CoreSupport/core_cm3.h **** #define ITM_IMCR_INTEGRATION_Msk           (1ul << ITM_IMCR_INTEGRATION_Pos)              /*!< ITM 
 486:./stm32f10x_libraries/CMSIS/CM3/CoreSupport/core_cm3.h **** 
 487:./stm32f10x_libraries/CMSIS/CM3/CoreSupport/core_cm3.h **** /* ITM Lock Status Register Definitions */
 488:./stm32f10x_libraries/CMSIS/CM3/CoreSupport/core_cm3.h **** #define ITM_LSR_ByteAcc_Pos                 2                                             /*!< ITM 
 489:./stm32f10x_libraries/CMSIS/CM3/CoreSupport/core_cm3.h **** #define ITM_LSR_ByteAcc_Msk                (1ul << ITM_LSR_ByteAcc_Pos)                   /*!< ITM 
 490:./stm32f10x_libraries/CMSIS/CM3/CoreSupport/core_cm3.h **** 
 491:./stm32f10x_libraries/CMSIS/CM3/CoreSupport/core_cm3.h **** #define ITM_LSR_Access_Pos                  1                                             /*!< ITM 
 492:./stm32f10x_libraries/CMSIS/CM3/CoreSupport/core_cm3.h **** #define ITM_LSR_Access_Msk                 (1ul << ITM_LSR_Access_Pos)                    /*!< ITM 
 493:./stm32f10x_libraries/CMSIS/CM3/CoreSupport/core_cm3.h **** 
ARM GAS  C:\Users\user\AppData\Local\Temp\cc7qV6fF.s 			page 30


 494:./stm32f10x_libraries/CMSIS/CM3/CoreSupport/core_cm3.h **** #define ITM_LSR_Present_Pos                 0                                             /*!< ITM 
 495:./stm32f10x_libraries/CMSIS/CM3/CoreSupport/core_cm3.h **** #define ITM_LSR_Present_Msk                (1ul << ITM_LSR_Present_Pos)                   /*!< ITM 
 496:./stm32f10x_libraries/CMSIS/CM3/CoreSupport/core_cm3.h **** /*@}*/ /* end of group CMSIS_CM3_ITM */
 497:./stm32f10x_libraries/CMSIS/CM3/CoreSupport/core_cm3.h **** 
 498:./stm32f10x_libraries/CMSIS/CM3/CoreSupport/core_cm3.h **** 
 499:./stm32f10x_libraries/CMSIS/CM3/CoreSupport/core_cm3.h **** /** @addtogroup CMSIS_CM3_InterruptType CMSIS CM3 Interrupt Type
 500:./stm32f10x_libraries/CMSIS/CM3/CoreSupport/core_cm3.h ****   memory mapped structure for Interrupt Type
 501:./stm32f10x_libraries/CMSIS/CM3/CoreSupport/core_cm3.h ****   @{
 502:./stm32f10x_libraries/CMSIS/CM3/CoreSupport/core_cm3.h ****  */
 503:./stm32f10x_libraries/CMSIS/CM3/CoreSupport/core_cm3.h **** typedef struct
 504:./stm32f10x_libraries/CMSIS/CM3/CoreSupport/core_cm3.h **** {
 505:./stm32f10x_libraries/CMSIS/CM3/CoreSupport/core_cm3.h ****        uint32_t RESERVED0;
 506:./stm32f10x_libraries/CMSIS/CM3/CoreSupport/core_cm3.h ****   __I  uint32_t ICTR;                         /*!< Offset: 0x04  Interrupt Control Type Register */
 507:./stm32f10x_libraries/CMSIS/CM3/CoreSupport/core_cm3.h **** #if ((defined __CM3_REV) && (__CM3_REV >= 0x200))
 508:./stm32f10x_libraries/CMSIS/CM3/CoreSupport/core_cm3.h ****   __IO uint32_t ACTLR;                        /*!< Offset: 0x08  Auxiliary Control Register      */
 509:./stm32f10x_libraries/CMSIS/CM3/CoreSupport/core_cm3.h **** #else
 510:./stm32f10x_libraries/CMSIS/CM3/CoreSupport/core_cm3.h ****        uint32_t RESERVED1;
 511:./stm32f10x_libraries/CMSIS/CM3/CoreSupport/core_cm3.h **** #endif
 512:./stm32f10x_libraries/CMSIS/CM3/CoreSupport/core_cm3.h **** } InterruptType_Type;
 513:./stm32f10x_libraries/CMSIS/CM3/CoreSupport/core_cm3.h **** 
 514:./stm32f10x_libraries/CMSIS/CM3/CoreSupport/core_cm3.h **** /* Interrupt Controller Type Register Definitions */
 515:./stm32f10x_libraries/CMSIS/CM3/CoreSupport/core_cm3.h **** #define InterruptType_ICTR_INTLINESNUM_Pos  0                                             /*!< Inte
 516:./stm32f10x_libraries/CMSIS/CM3/CoreSupport/core_cm3.h **** #define InterruptType_ICTR_INTLINESNUM_Msk (0x1Ful << InterruptType_ICTR_INTLINESNUM_Pos) /*!< Inte
 517:./stm32f10x_libraries/CMSIS/CM3/CoreSupport/core_cm3.h **** 
 518:./stm32f10x_libraries/CMSIS/CM3/CoreSupport/core_cm3.h **** /* Auxiliary Control Register Definitions */
 519:./stm32f10x_libraries/CMSIS/CM3/CoreSupport/core_cm3.h **** #define InterruptType_ACTLR_DISFOLD_Pos     2                                             /*!< Inte
 520:./stm32f10x_libraries/CMSIS/CM3/CoreSupport/core_cm3.h **** #define InterruptType_ACTLR_DISFOLD_Msk    (1ul << InterruptType_ACTLR_DISFOLD_Pos)       /*!< Inte
 521:./stm32f10x_libraries/CMSIS/CM3/CoreSupport/core_cm3.h **** 
 522:./stm32f10x_libraries/CMSIS/CM3/CoreSupport/core_cm3.h **** #define InterruptType_ACTLR_DISDEFWBUF_Pos  1                                             /*!< Inte
 523:./stm32f10x_libraries/CMSIS/CM3/CoreSupport/core_cm3.h **** #define InterruptType_ACTLR_DISDEFWBUF_Msk (1ul << InterruptType_ACTLR_DISDEFWBUF_Pos)    /*!< Inte
 524:./stm32f10x_libraries/CMSIS/CM3/CoreSupport/core_cm3.h **** 
 525:./stm32f10x_libraries/CMSIS/CM3/CoreSupport/core_cm3.h **** #define InterruptType_ACTLR_DISMCYCINT_Pos  0                                             /*!< Inte
 526:./stm32f10x_libraries/CMSIS/CM3/CoreSupport/core_cm3.h **** #define InterruptType_ACTLR_DISMCYCINT_Msk (1ul << InterruptType_ACTLR_DISMCYCINT_Pos)    /*!< Inte
 527:./stm32f10x_libraries/CMSIS/CM3/CoreSupport/core_cm3.h **** /*@}*/ /* end of group CMSIS_CM3_InterruptType */
 528:./stm32f10x_libraries/CMSIS/CM3/CoreSupport/core_cm3.h **** 
 529:./stm32f10x_libraries/CMSIS/CM3/CoreSupport/core_cm3.h **** 
 530:./stm32f10x_libraries/CMSIS/CM3/CoreSupport/core_cm3.h **** #if defined (__MPU_PRESENT) && (__MPU_PRESENT == 1)
 531:./stm32f10x_libraries/CMSIS/CM3/CoreSupport/core_cm3.h **** /** @addtogroup CMSIS_CM3_MPU CMSIS CM3 MPU
 532:./stm32f10x_libraries/CMSIS/CM3/CoreSupport/core_cm3.h ****   memory mapped structure for Memory Protection Unit (MPU)
 533:./stm32f10x_libraries/CMSIS/CM3/CoreSupport/core_cm3.h ****   @{
 534:./stm32f10x_libraries/CMSIS/CM3/CoreSupport/core_cm3.h ****  */
 535:./stm32f10x_libraries/CMSIS/CM3/CoreSupport/core_cm3.h **** typedef struct
 536:./stm32f10x_libraries/CMSIS/CM3/CoreSupport/core_cm3.h **** {
 537:./stm32f10x_libraries/CMSIS/CM3/CoreSupport/core_cm3.h ****   __I  uint32_t TYPE;                         /*!< Offset: 0x00  MPU Type Register                 
 538:./stm32f10x_libraries/CMSIS/CM3/CoreSupport/core_cm3.h ****   __IO uint32_t CTRL;                         /*!< Offset: 0x04  MPU Control Register              
 539:./stm32f10x_libraries/CMSIS/CM3/CoreSupport/core_cm3.h ****   __IO uint32_t RNR;                          /*!< Offset: 0x08  MPU Region RNRber Register        
 540:./stm32f10x_libraries/CMSIS/CM3/CoreSupport/core_cm3.h ****   __IO uint32_t RBAR;                         /*!< Offset: 0x0C  MPU Region Base Address Register  
 541:./stm32f10x_libraries/CMSIS/CM3/CoreSupport/core_cm3.h ****   __IO uint32_t RASR;                         /*!< Offset: 0x10  MPU Region Attribute and Size Regi
 542:./stm32f10x_libraries/CMSIS/CM3/CoreSupport/core_cm3.h ****   __IO uint32_t RBAR_A1;                      /*!< Offset: 0x14  MPU Alias 1 Region Base Address Re
 543:./stm32f10x_libraries/CMSIS/CM3/CoreSupport/core_cm3.h ****   __IO uint32_t RASR_A1;                      /*!< Offset: 0x18  MPU Alias 1 Region Attribute and S
 544:./stm32f10x_libraries/CMSIS/CM3/CoreSupport/core_cm3.h ****   __IO uint32_t RBAR_A2;                      /*!< Offset: 0x1C  MPU Alias 2 Region Base Address Re
 545:./stm32f10x_libraries/CMSIS/CM3/CoreSupport/core_cm3.h ****   __IO uint32_t RASR_A2;                      /*!< Offset: 0x20  MPU Alias 2 Region Attribute and S
 546:./stm32f10x_libraries/CMSIS/CM3/CoreSupport/core_cm3.h ****   __IO uint32_t RBAR_A3;                      /*!< Offset: 0x24  MPU Alias 3 Region Base Address Re
 547:./stm32f10x_libraries/CMSIS/CM3/CoreSupport/core_cm3.h ****   __IO uint32_t RASR_A3;                      /*!< Offset: 0x28  MPU Alias 3 Region Attribute and S
 548:./stm32f10x_libraries/CMSIS/CM3/CoreSupport/core_cm3.h **** } MPU_Type;                                                
 549:./stm32f10x_libraries/CMSIS/CM3/CoreSupport/core_cm3.h **** 
 550:./stm32f10x_libraries/CMSIS/CM3/CoreSupport/core_cm3.h **** /* MPU Type Register */
ARM GAS  C:\Users\user\AppData\Local\Temp\cc7qV6fF.s 			page 31


 551:./stm32f10x_libraries/CMSIS/CM3/CoreSupport/core_cm3.h **** #define MPU_TYPE_IREGION_Pos               16                                             /*!< MPU 
 552:./stm32f10x_libraries/CMSIS/CM3/CoreSupport/core_cm3.h **** #define MPU_TYPE_IREGION_Msk               (0xFFul << MPU_TYPE_IREGION_Pos)               /*!< MPU 
 553:./stm32f10x_libraries/CMSIS/CM3/CoreSupport/core_cm3.h **** 
 554:./stm32f10x_libraries/CMSIS/CM3/CoreSupport/core_cm3.h **** #define MPU_TYPE_DREGION_Pos                8                                             /*!< MPU 
 555:./stm32f10x_libraries/CMSIS/CM3/CoreSupport/core_cm3.h **** #define MPU_TYPE_DREGION_Msk               (0xFFul << MPU_TYPE_DREGION_Pos)               /*!< MPU 
 556:./stm32f10x_libraries/CMSIS/CM3/CoreSupport/core_cm3.h **** 
 557:./stm32f10x_libraries/CMSIS/CM3/CoreSupport/core_cm3.h **** #define MPU_TYPE_SEPARATE_Pos               0                                             /*!< MPU 
 558:./stm32f10x_libraries/CMSIS/CM3/CoreSupport/core_cm3.h **** #define MPU_TYPE_SEPARATE_Msk              (1ul << MPU_TYPE_SEPARATE_Pos)                 /*!< MPU 
 559:./stm32f10x_libraries/CMSIS/CM3/CoreSupport/core_cm3.h **** 
 560:./stm32f10x_libraries/CMSIS/CM3/CoreSupport/core_cm3.h **** /* MPU Control Register */
 561:./stm32f10x_libraries/CMSIS/CM3/CoreSupport/core_cm3.h **** #define MPU_CTRL_PRIVDEFENA_Pos             2                                             /*!< MPU 
 562:./stm32f10x_libraries/CMSIS/CM3/CoreSupport/core_cm3.h **** #define MPU_CTRL_PRIVDEFENA_Msk            (1ul << MPU_CTRL_PRIVDEFENA_Pos)               /*!< MPU 
 563:./stm32f10x_libraries/CMSIS/CM3/CoreSupport/core_cm3.h **** 
 564:./stm32f10x_libraries/CMSIS/CM3/CoreSupport/core_cm3.h **** #define MPU_CTRL_HFNMIENA_Pos               1                                             /*!< MPU 
 565:./stm32f10x_libraries/CMSIS/CM3/CoreSupport/core_cm3.h **** #define MPU_CTRL_HFNMIENA_Msk              (1ul << MPU_CTRL_HFNMIENA_Pos)                 /*!< MPU 
 566:./stm32f10x_libraries/CMSIS/CM3/CoreSupport/core_cm3.h **** 
 567:./stm32f10x_libraries/CMSIS/CM3/CoreSupport/core_cm3.h **** #define MPU_CTRL_ENABLE_Pos                 0                                             /*!< MPU 
 568:./stm32f10x_libraries/CMSIS/CM3/CoreSupport/core_cm3.h **** #define MPU_CTRL_ENABLE_Msk                (1ul << MPU_CTRL_ENABLE_Pos)                   /*!< MPU 
 569:./stm32f10x_libraries/CMSIS/CM3/CoreSupport/core_cm3.h **** 
 570:./stm32f10x_libraries/CMSIS/CM3/CoreSupport/core_cm3.h **** /* MPU Region Number Register */
 571:./stm32f10x_libraries/CMSIS/CM3/CoreSupport/core_cm3.h **** #define MPU_RNR_REGION_Pos                  0                                             /*!< MPU 
 572:./stm32f10x_libraries/CMSIS/CM3/CoreSupport/core_cm3.h **** #define MPU_RNR_REGION_Msk                 (0xFFul << MPU_RNR_REGION_Pos)                 /*!< MPU 
 573:./stm32f10x_libraries/CMSIS/CM3/CoreSupport/core_cm3.h **** 
 574:./stm32f10x_libraries/CMSIS/CM3/CoreSupport/core_cm3.h **** /* MPU Region Base Address Register */
 575:./stm32f10x_libraries/CMSIS/CM3/CoreSupport/core_cm3.h **** #define MPU_RBAR_ADDR_Pos                   5                                             /*!< MPU 
 576:./stm32f10x_libraries/CMSIS/CM3/CoreSupport/core_cm3.h **** #define MPU_RBAR_ADDR_Msk                  (0x7FFFFFFul << MPU_RBAR_ADDR_Pos)             /*!< MPU 
 577:./stm32f10x_libraries/CMSIS/CM3/CoreSupport/core_cm3.h **** 
 578:./stm32f10x_libraries/CMSIS/CM3/CoreSupport/core_cm3.h **** #define MPU_RBAR_VALID_Pos                  4                                             /*!< MPU 
 579:./stm32f10x_libraries/CMSIS/CM3/CoreSupport/core_cm3.h **** #define MPU_RBAR_VALID_Msk                 (1ul << MPU_RBAR_VALID_Pos)                    /*!< MPU 
 580:./stm32f10x_libraries/CMSIS/CM3/CoreSupport/core_cm3.h **** 
 581:./stm32f10x_libraries/CMSIS/CM3/CoreSupport/core_cm3.h **** #define MPU_RBAR_REGION_Pos                 0                                             /*!< MPU 
 582:./stm32f10x_libraries/CMSIS/CM3/CoreSupport/core_cm3.h **** #define MPU_RBAR_REGION_Msk                (0xFul << MPU_RBAR_REGION_Pos)                 /*!< MPU 
 583:./stm32f10x_libraries/CMSIS/CM3/CoreSupport/core_cm3.h **** 
 584:./stm32f10x_libraries/CMSIS/CM3/CoreSupport/core_cm3.h **** /* MPU Region Attribute and Size Register */
 585:./stm32f10x_libraries/CMSIS/CM3/CoreSupport/core_cm3.h **** #define MPU_RASR_XN_Pos                    28                                             /*!< MPU 
 586:./stm32f10x_libraries/CMSIS/CM3/CoreSupport/core_cm3.h **** #define MPU_RASR_XN_Msk                    (1ul << MPU_RASR_XN_Pos)                       /*!< MPU 
 587:./stm32f10x_libraries/CMSIS/CM3/CoreSupport/core_cm3.h **** 
 588:./stm32f10x_libraries/CMSIS/CM3/CoreSupport/core_cm3.h **** #define MPU_RASR_AP_Pos                    24                                             /*!< MPU 
 589:./stm32f10x_libraries/CMSIS/CM3/CoreSupport/core_cm3.h **** #define MPU_RASR_AP_Msk                    (7ul << MPU_RASR_AP_Pos)                       /*!< MPU 
 590:./stm32f10x_libraries/CMSIS/CM3/CoreSupport/core_cm3.h **** 
 591:./stm32f10x_libraries/CMSIS/CM3/CoreSupport/core_cm3.h **** #define MPU_RASR_TEX_Pos                   19                                             /*!< MPU 
 592:./stm32f10x_libraries/CMSIS/CM3/CoreSupport/core_cm3.h **** #define MPU_RASR_TEX_Msk                   (7ul << MPU_RASR_TEX_Pos)                      /*!< MPU 
 593:./stm32f10x_libraries/CMSIS/CM3/CoreSupport/core_cm3.h **** 
 594:./stm32f10x_libraries/CMSIS/CM3/CoreSupport/core_cm3.h **** #define MPU_RASR_S_Pos                     18                                             /*!< MPU 
 595:./stm32f10x_libraries/CMSIS/CM3/CoreSupport/core_cm3.h **** #define MPU_RASR_S_Msk                     (1ul << MPU_RASR_S_Pos)                        /*!< MPU 
 596:./stm32f10x_libraries/CMSIS/CM3/CoreSupport/core_cm3.h **** 
 597:./stm32f10x_libraries/CMSIS/CM3/CoreSupport/core_cm3.h **** #define MPU_RASR_C_Pos                     17                                             /*!< MPU 
 598:./stm32f10x_libraries/CMSIS/CM3/CoreSupport/core_cm3.h **** #define MPU_RASR_C_Msk                     (1ul << MPU_RASR_C_Pos)                        /*!< MPU 
 599:./stm32f10x_libraries/CMSIS/CM3/CoreSupport/core_cm3.h **** 
 600:./stm32f10x_libraries/CMSIS/CM3/CoreSupport/core_cm3.h **** #define MPU_RASR_B_Pos                     16                                             /*!< MPU 
 601:./stm32f10x_libraries/CMSIS/CM3/CoreSupport/core_cm3.h **** #define MPU_RASR_B_Msk                     (1ul << MPU_RASR_B_Pos)                        /*!< MPU 
 602:./stm32f10x_libraries/CMSIS/CM3/CoreSupport/core_cm3.h **** 
 603:./stm32f10x_libraries/CMSIS/CM3/CoreSupport/core_cm3.h **** #define MPU_RASR_SRD_Pos                    8                                             /*!< MPU 
 604:./stm32f10x_libraries/CMSIS/CM3/CoreSupport/core_cm3.h **** #define MPU_RASR_SRD_Msk                   (0xFFul << MPU_RASR_SRD_Pos)                   /*!< MPU 
 605:./stm32f10x_libraries/CMSIS/CM3/CoreSupport/core_cm3.h **** 
 606:./stm32f10x_libraries/CMSIS/CM3/CoreSupport/core_cm3.h **** #define MPU_RASR_SIZE_Pos                   1                                             /*!< MPU 
 607:./stm32f10x_libraries/CMSIS/CM3/CoreSupport/core_cm3.h **** #define MPU_RASR_SIZE_Msk                  (0x1Ful << MPU_RASR_SIZE_Pos)                  /*!< MPU 
ARM GAS  C:\Users\user\AppData\Local\Temp\cc7qV6fF.s 			page 32


 608:./stm32f10x_libraries/CMSIS/CM3/CoreSupport/core_cm3.h **** 
 609:./stm32f10x_libraries/CMSIS/CM3/CoreSupport/core_cm3.h **** #define MPU_RASR_ENA_Pos                     0                                            /*!< MPU 
 610:./stm32f10x_libraries/CMSIS/CM3/CoreSupport/core_cm3.h **** #define MPU_RASR_ENA_Msk                    (0x1Ful << MPU_RASR_ENA_Pos)                  /*!< MPU 
 611:./stm32f10x_libraries/CMSIS/CM3/CoreSupport/core_cm3.h **** 
 612:./stm32f10x_libraries/CMSIS/CM3/CoreSupport/core_cm3.h **** /*@}*/ /* end of group CMSIS_CM3_MPU */
 613:./stm32f10x_libraries/CMSIS/CM3/CoreSupport/core_cm3.h **** #endif
 614:./stm32f10x_libraries/CMSIS/CM3/CoreSupport/core_cm3.h **** 
 615:./stm32f10x_libraries/CMSIS/CM3/CoreSupport/core_cm3.h **** 
 616:./stm32f10x_libraries/CMSIS/CM3/CoreSupport/core_cm3.h **** /** @addtogroup CMSIS_CM3_CoreDebug CMSIS CM3 Core Debug
 617:./stm32f10x_libraries/CMSIS/CM3/CoreSupport/core_cm3.h ****   memory mapped structure for Core Debug Register
 618:./stm32f10x_libraries/CMSIS/CM3/CoreSupport/core_cm3.h ****   @{
 619:./stm32f10x_libraries/CMSIS/CM3/CoreSupport/core_cm3.h ****  */
 620:./stm32f10x_libraries/CMSIS/CM3/CoreSupport/core_cm3.h **** typedef struct
 621:./stm32f10x_libraries/CMSIS/CM3/CoreSupport/core_cm3.h **** {
 622:./stm32f10x_libraries/CMSIS/CM3/CoreSupport/core_cm3.h ****   __IO uint32_t DHCSR;                        /*!< Offset: 0x00  Debug Halting Control and Status R
 623:./stm32f10x_libraries/CMSIS/CM3/CoreSupport/core_cm3.h ****   __O  uint32_t DCRSR;                        /*!< Offset: 0x04  Debug Core Register Selector Regis
 624:./stm32f10x_libraries/CMSIS/CM3/CoreSupport/core_cm3.h ****   __IO uint32_t DCRDR;                        /*!< Offset: 0x08  Debug Core Register Data Register 
 625:./stm32f10x_libraries/CMSIS/CM3/CoreSupport/core_cm3.h ****   __IO uint32_t DEMCR;                        /*!< Offset: 0x0C  Debug Exception and Monitor Contro
 626:./stm32f10x_libraries/CMSIS/CM3/CoreSupport/core_cm3.h **** } CoreDebug_Type;
 627:./stm32f10x_libraries/CMSIS/CM3/CoreSupport/core_cm3.h **** 
 628:./stm32f10x_libraries/CMSIS/CM3/CoreSupport/core_cm3.h **** /* Debug Halting Control and Status Register */
 629:./stm32f10x_libraries/CMSIS/CM3/CoreSupport/core_cm3.h **** #define CoreDebug_DHCSR_DBGKEY_Pos         16                                             /*!< Core
 630:./stm32f10x_libraries/CMSIS/CM3/CoreSupport/core_cm3.h **** #define CoreDebug_DHCSR_DBGKEY_Msk         (0xFFFFul << CoreDebug_DHCSR_DBGKEY_Pos)       /*!< Core
 631:./stm32f10x_libraries/CMSIS/CM3/CoreSupport/core_cm3.h **** 
 632:./stm32f10x_libraries/CMSIS/CM3/CoreSupport/core_cm3.h **** #define CoreDebug_DHCSR_S_RESET_ST_Pos     25                                             /*!< Core
 633:./stm32f10x_libraries/CMSIS/CM3/CoreSupport/core_cm3.h **** #define CoreDebug_DHCSR_S_RESET_ST_Msk     (1ul << CoreDebug_DHCSR_S_RESET_ST_Pos)        /*!< Core
 634:./stm32f10x_libraries/CMSIS/CM3/CoreSupport/core_cm3.h **** 
 635:./stm32f10x_libraries/CMSIS/CM3/CoreSupport/core_cm3.h **** #define CoreDebug_DHCSR_S_RETIRE_ST_Pos    24                                             /*!< Core
 636:./stm32f10x_libraries/CMSIS/CM3/CoreSupport/core_cm3.h **** #define CoreDebug_DHCSR_S_RETIRE_ST_Msk    (1ul << CoreDebug_DHCSR_S_RETIRE_ST_Pos)       /*!< Core
 637:./stm32f10x_libraries/CMSIS/CM3/CoreSupport/core_cm3.h **** 
 638:./stm32f10x_libraries/CMSIS/CM3/CoreSupport/core_cm3.h **** #define CoreDebug_DHCSR_S_LOCKUP_Pos       19                                             /*!< Core
 639:./stm32f10x_libraries/CMSIS/CM3/CoreSupport/core_cm3.h **** #define CoreDebug_DHCSR_S_LOCKUP_Msk       (1ul << CoreDebug_DHCSR_S_LOCKUP_Pos)          /*!< Core
 640:./stm32f10x_libraries/CMSIS/CM3/CoreSupport/core_cm3.h **** 
 641:./stm32f10x_libraries/CMSIS/CM3/CoreSupport/core_cm3.h **** #define CoreDebug_DHCSR_S_SLEEP_Pos        18                                             /*!< Core
 642:./stm32f10x_libraries/CMSIS/CM3/CoreSupport/core_cm3.h **** #define CoreDebug_DHCSR_S_SLEEP_Msk        (1ul << CoreDebug_DHCSR_S_SLEEP_Pos)           /*!< Core
 643:./stm32f10x_libraries/CMSIS/CM3/CoreSupport/core_cm3.h **** 
 644:./stm32f10x_libraries/CMSIS/CM3/CoreSupport/core_cm3.h **** #define CoreDebug_DHCSR_S_HALT_Pos         17                                             /*!< Core
 645:./stm32f10x_libraries/CMSIS/CM3/CoreSupport/core_cm3.h **** #define CoreDebug_DHCSR_S_HALT_Msk         (1ul << CoreDebug_DHCSR_S_HALT_Pos)            /*!< Core
 646:./stm32f10x_libraries/CMSIS/CM3/CoreSupport/core_cm3.h **** 
 647:./stm32f10x_libraries/CMSIS/CM3/CoreSupport/core_cm3.h **** #define CoreDebug_DHCSR_S_REGRDY_Pos       16                                             /*!< Core
 648:./stm32f10x_libraries/CMSIS/CM3/CoreSupport/core_cm3.h **** #define CoreDebug_DHCSR_S_REGRDY_Msk       (1ul << CoreDebug_DHCSR_S_REGRDY_Pos)          /*!< Core
 649:./stm32f10x_libraries/CMSIS/CM3/CoreSupport/core_cm3.h **** 
 650:./stm32f10x_libraries/CMSIS/CM3/CoreSupport/core_cm3.h **** #define CoreDebug_DHCSR_C_SNAPSTALL_Pos     5                                             /*!< Core
 651:./stm32f10x_libraries/CMSIS/CM3/CoreSupport/core_cm3.h **** #define CoreDebug_DHCSR_C_SNAPSTALL_Msk    (1ul << CoreDebug_DHCSR_C_SNAPSTALL_Pos)       /*!< Core
 652:./stm32f10x_libraries/CMSIS/CM3/CoreSupport/core_cm3.h **** 
 653:./stm32f10x_libraries/CMSIS/CM3/CoreSupport/core_cm3.h **** #define CoreDebug_DHCSR_C_MASKINTS_Pos      3                                             /*!< Core
 654:./stm32f10x_libraries/CMSIS/CM3/CoreSupport/core_cm3.h **** #define CoreDebug_DHCSR_C_MASKINTS_Msk     (1ul << CoreDebug_DHCSR_C_MASKINTS_Pos)        /*!< Core
 655:./stm32f10x_libraries/CMSIS/CM3/CoreSupport/core_cm3.h **** 
 656:./stm32f10x_libraries/CMSIS/CM3/CoreSupport/core_cm3.h **** #define CoreDebug_DHCSR_C_STEP_Pos          2                                             /*!< Core
 657:./stm32f10x_libraries/CMSIS/CM3/CoreSupport/core_cm3.h **** #define CoreDebug_DHCSR_C_STEP_Msk         (1ul << CoreDebug_DHCSR_C_STEP_Pos)            /*!< Core
 658:./stm32f10x_libraries/CMSIS/CM3/CoreSupport/core_cm3.h **** 
 659:./stm32f10x_libraries/CMSIS/CM3/CoreSupport/core_cm3.h **** #define CoreDebug_DHCSR_C_HALT_Pos          1                                             /*!< Core
 660:./stm32f10x_libraries/CMSIS/CM3/CoreSupport/core_cm3.h **** #define CoreDebug_DHCSR_C_HALT_Msk         (1ul << CoreDebug_DHCSR_C_HALT_Pos)            /*!< Core
 661:./stm32f10x_libraries/CMSIS/CM3/CoreSupport/core_cm3.h **** 
 662:./stm32f10x_libraries/CMSIS/CM3/CoreSupport/core_cm3.h **** #define CoreDebug_DHCSR_C_DEBUGEN_Pos       0                                             /*!< Core
 663:./stm32f10x_libraries/CMSIS/CM3/CoreSupport/core_cm3.h **** #define CoreDebug_DHCSR_C_DEBUGEN_Msk      (1ul << CoreDebug_DHCSR_C_DEBUGEN_Pos)         /*!< Core
 664:./stm32f10x_libraries/CMSIS/CM3/CoreSupport/core_cm3.h **** 
ARM GAS  C:\Users\user\AppData\Local\Temp\cc7qV6fF.s 			page 33


 665:./stm32f10x_libraries/CMSIS/CM3/CoreSupport/core_cm3.h **** /* Debug Core Register Selector Register */
 666:./stm32f10x_libraries/CMSIS/CM3/CoreSupport/core_cm3.h **** #define CoreDebug_DCRSR_REGWnR_Pos         16                                             /*!< Core
 667:./stm32f10x_libraries/CMSIS/CM3/CoreSupport/core_cm3.h **** #define CoreDebug_DCRSR_REGWnR_Msk         (1ul << CoreDebug_DCRSR_REGWnR_Pos)            /*!< Core
 668:./stm32f10x_libraries/CMSIS/CM3/CoreSupport/core_cm3.h **** 
 669:./stm32f10x_libraries/CMSIS/CM3/CoreSupport/core_cm3.h **** #define CoreDebug_DCRSR_REGSEL_Pos          0                                             /*!< Core
 670:./stm32f10x_libraries/CMSIS/CM3/CoreSupport/core_cm3.h **** #define CoreDebug_DCRSR_REGSEL_Msk         (0x1Ful << CoreDebug_DCRSR_REGSEL_Pos)         /*!< Core
 671:./stm32f10x_libraries/CMSIS/CM3/CoreSupport/core_cm3.h **** 
 672:./stm32f10x_libraries/CMSIS/CM3/CoreSupport/core_cm3.h **** /* Debug Exception and Monitor Control Register */
 673:./stm32f10x_libraries/CMSIS/CM3/CoreSupport/core_cm3.h **** #define CoreDebug_DEMCR_TRCENA_Pos         24                                             /*!< Core
 674:./stm32f10x_libraries/CMSIS/CM3/CoreSupport/core_cm3.h **** #define CoreDebug_DEMCR_TRCENA_Msk         (1ul << CoreDebug_DEMCR_TRCENA_Pos)            /*!< Core
 675:./stm32f10x_libraries/CMSIS/CM3/CoreSupport/core_cm3.h **** 
 676:./stm32f10x_libraries/CMSIS/CM3/CoreSupport/core_cm3.h **** #define CoreDebug_DEMCR_MON_REQ_Pos        19                                             /*!< Core
 677:./stm32f10x_libraries/CMSIS/CM3/CoreSupport/core_cm3.h **** #define CoreDebug_DEMCR_MON_REQ_Msk        (1ul << CoreDebug_DEMCR_MON_REQ_Pos)           /*!< Core
 678:./stm32f10x_libraries/CMSIS/CM3/CoreSupport/core_cm3.h **** 
 679:./stm32f10x_libraries/CMSIS/CM3/CoreSupport/core_cm3.h **** #define CoreDebug_DEMCR_MON_STEP_Pos       18                                             /*!< Core
 680:./stm32f10x_libraries/CMSIS/CM3/CoreSupport/core_cm3.h **** #define CoreDebug_DEMCR_MON_STEP_Msk       (1ul << CoreDebug_DEMCR_MON_STEP_Pos)          /*!< Core
 681:./stm32f10x_libraries/CMSIS/CM3/CoreSupport/core_cm3.h **** 
 682:./stm32f10x_libraries/CMSIS/CM3/CoreSupport/core_cm3.h **** #define CoreDebug_DEMCR_MON_PEND_Pos       17                                             /*!< Core
 683:./stm32f10x_libraries/CMSIS/CM3/CoreSupport/core_cm3.h **** #define CoreDebug_DEMCR_MON_PEND_Msk       (1ul << CoreDebug_DEMCR_MON_PEND_Pos)          /*!< Core
 684:./stm32f10x_libraries/CMSIS/CM3/CoreSupport/core_cm3.h **** 
 685:./stm32f10x_libraries/CMSIS/CM3/CoreSupport/core_cm3.h **** #define CoreDebug_DEMCR_MON_EN_Pos         16                                             /*!< Core
 686:./stm32f10x_libraries/CMSIS/CM3/CoreSupport/core_cm3.h **** #define CoreDebug_DEMCR_MON_EN_Msk         (1ul << CoreDebug_DEMCR_MON_EN_Pos)            /*!< Core
 687:./stm32f10x_libraries/CMSIS/CM3/CoreSupport/core_cm3.h **** 
 688:./stm32f10x_libraries/CMSIS/CM3/CoreSupport/core_cm3.h **** #define CoreDebug_DEMCR_VC_HARDERR_Pos     10                                             /*!< Core
 689:./stm32f10x_libraries/CMSIS/CM3/CoreSupport/core_cm3.h **** #define CoreDebug_DEMCR_VC_HARDERR_Msk     (1ul << CoreDebug_DEMCR_VC_HARDERR_Pos)        /*!< Core
 690:./stm32f10x_libraries/CMSIS/CM3/CoreSupport/core_cm3.h **** 
 691:./stm32f10x_libraries/CMSIS/CM3/CoreSupport/core_cm3.h **** #define CoreDebug_DEMCR_VC_INTERR_Pos       9                                             /*!< Core
 692:./stm32f10x_libraries/CMSIS/CM3/CoreSupport/core_cm3.h **** #define CoreDebug_DEMCR_VC_INTERR_Msk      (1ul << CoreDebug_DEMCR_VC_INTERR_Pos)         /*!< Core
 693:./stm32f10x_libraries/CMSIS/CM3/CoreSupport/core_cm3.h **** 
 694:./stm32f10x_libraries/CMSIS/CM3/CoreSupport/core_cm3.h **** #define CoreDebug_DEMCR_VC_BUSERR_Pos       8                                             /*!< Core
 695:./stm32f10x_libraries/CMSIS/CM3/CoreSupport/core_cm3.h **** #define CoreDebug_DEMCR_VC_BUSERR_Msk      (1ul << CoreDebug_DEMCR_VC_BUSERR_Pos)         /*!< Core
 696:./stm32f10x_libraries/CMSIS/CM3/CoreSupport/core_cm3.h **** 
 697:./stm32f10x_libraries/CMSIS/CM3/CoreSupport/core_cm3.h **** #define CoreDebug_DEMCR_VC_STATERR_Pos      7                                             /*!< Core
 698:./stm32f10x_libraries/CMSIS/CM3/CoreSupport/core_cm3.h **** #define CoreDebug_DEMCR_VC_STATERR_Msk     (1ul << CoreDebug_DEMCR_VC_STATERR_Pos)        /*!< Core
 699:./stm32f10x_libraries/CMSIS/CM3/CoreSupport/core_cm3.h **** 
 700:./stm32f10x_libraries/CMSIS/CM3/CoreSupport/core_cm3.h **** #define CoreDebug_DEMCR_VC_CHKERR_Pos       6                                             /*!< Core
 701:./stm32f10x_libraries/CMSIS/CM3/CoreSupport/core_cm3.h **** #define CoreDebug_DEMCR_VC_CHKERR_Msk      (1ul << CoreDebug_DEMCR_VC_CHKERR_Pos)         /*!< Core
 702:./stm32f10x_libraries/CMSIS/CM3/CoreSupport/core_cm3.h **** 
 703:./stm32f10x_libraries/CMSIS/CM3/CoreSupport/core_cm3.h **** #define CoreDebug_DEMCR_VC_NOCPERR_Pos      5                                             /*!< Core
 704:./stm32f10x_libraries/CMSIS/CM3/CoreSupport/core_cm3.h **** #define CoreDebug_DEMCR_VC_NOCPERR_Msk     (1ul << CoreDebug_DEMCR_VC_NOCPERR_Pos)        /*!< Core
 705:./stm32f10x_libraries/CMSIS/CM3/CoreSupport/core_cm3.h **** 
 706:./stm32f10x_libraries/CMSIS/CM3/CoreSupport/core_cm3.h **** #define CoreDebug_DEMCR_VC_MMERR_Pos        4                                             /*!< Core
 707:./stm32f10x_libraries/CMSIS/CM3/CoreSupport/core_cm3.h **** #define CoreDebug_DEMCR_VC_MMERR_Msk       (1ul << CoreDebug_DEMCR_VC_MMERR_Pos)          /*!< Core
 708:./stm32f10x_libraries/CMSIS/CM3/CoreSupport/core_cm3.h **** 
 709:./stm32f10x_libraries/CMSIS/CM3/CoreSupport/core_cm3.h **** #define CoreDebug_DEMCR_VC_CORERESET_Pos    0                                             /*!< Core
 710:./stm32f10x_libraries/CMSIS/CM3/CoreSupport/core_cm3.h **** #define CoreDebug_DEMCR_VC_CORERESET_Msk   (1ul << CoreDebug_DEMCR_VC_CORERESET_Pos)      /*!< Core
 711:./stm32f10x_libraries/CMSIS/CM3/CoreSupport/core_cm3.h **** /*@}*/ /* end of group CMSIS_CM3_CoreDebug */
 712:./stm32f10x_libraries/CMSIS/CM3/CoreSupport/core_cm3.h **** 
 713:./stm32f10x_libraries/CMSIS/CM3/CoreSupport/core_cm3.h **** 
 714:./stm32f10x_libraries/CMSIS/CM3/CoreSupport/core_cm3.h **** /* Memory mapping of Cortex-M3 Hardware */
 715:./stm32f10x_libraries/CMSIS/CM3/CoreSupport/core_cm3.h **** #define SCS_BASE            (0xE000E000)                              /*!< System Control Space Bas
 716:./stm32f10x_libraries/CMSIS/CM3/CoreSupport/core_cm3.h **** #define ITM_BASE            (0xE0000000)                              /*!< ITM Base Address        
 717:./stm32f10x_libraries/CMSIS/CM3/CoreSupport/core_cm3.h **** #define CoreDebug_BASE      (0xE000EDF0)                              /*!< Core Debug Base Address 
 718:./stm32f10x_libraries/CMSIS/CM3/CoreSupport/core_cm3.h **** #define SysTick_BASE        (SCS_BASE +  0x0010)                      /*!< SysTick Base Address    
 719:./stm32f10x_libraries/CMSIS/CM3/CoreSupport/core_cm3.h **** #define NVIC_BASE           (SCS_BASE +  0x0100)                      /*!< NVIC Base Address       
 720:./stm32f10x_libraries/CMSIS/CM3/CoreSupport/core_cm3.h **** #define SCB_BASE            (SCS_BASE +  0x0D00)                      /*!< System Control Block Bas
 721:./stm32f10x_libraries/CMSIS/CM3/CoreSupport/core_cm3.h **** 
ARM GAS  C:\Users\user\AppData\Local\Temp\cc7qV6fF.s 			page 34


 722:./stm32f10x_libraries/CMSIS/CM3/CoreSupport/core_cm3.h **** #define InterruptType       ((InterruptType_Type *) SCS_BASE)         /*!< Interrupt Type Register 
 723:./stm32f10x_libraries/CMSIS/CM3/CoreSupport/core_cm3.h **** #define SCB                 ((SCB_Type *)           SCB_BASE)         /*!< SCB configuration struct
 724:./stm32f10x_libraries/CMSIS/CM3/CoreSupport/core_cm3.h **** #define SysTick             ((SysTick_Type *)       SysTick_BASE)     /*!< SysTick configuration st
 725:./stm32f10x_libraries/CMSIS/CM3/CoreSupport/core_cm3.h **** #define NVIC                ((NVIC_Type *)          NVIC_BASE)        /*!< NVIC configuration struc
 726:./stm32f10x_libraries/CMSIS/CM3/CoreSupport/core_cm3.h **** #define ITM                 ((ITM_Type *)           ITM_BASE)         /*!< ITM configuration struct
 727:./stm32f10x_libraries/CMSIS/CM3/CoreSupport/core_cm3.h **** #define CoreDebug           ((CoreDebug_Type *)     CoreDebug_BASE)   /*!< Core Debug configuration
 728:./stm32f10x_libraries/CMSIS/CM3/CoreSupport/core_cm3.h **** 
 729:./stm32f10x_libraries/CMSIS/CM3/CoreSupport/core_cm3.h **** #if defined (__MPU_PRESENT) && (__MPU_PRESENT == 1)
 730:./stm32f10x_libraries/CMSIS/CM3/CoreSupport/core_cm3.h ****   #define MPU_BASE          (SCS_BASE +  0x0D90)                      /*!< Memory Protection Unit  
 731:./stm32f10x_libraries/CMSIS/CM3/CoreSupport/core_cm3.h ****   #define MPU               ((MPU_Type*)            MPU_BASE)         /*!< Memory Protection Unit  
 732:./stm32f10x_libraries/CMSIS/CM3/CoreSupport/core_cm3.h **** #endif
 733:./stm32f10x_libraries/CMSIS/CM3/CoreSupport/core_cm3.h **** 
 734:./stm32f10x_libraries/CMSIS/CM3/CoreSupport/core_cm3.h **** /*@}*/ /* end of group CMSIS_CM3_core_register */
 735:./stm32f10x_libraries/CMSIS/CM3/CoreSupport/core_cm3.h **** 
 736:./stm32f10x_libraries/CMSIS/CM3/CoreSupport/core_cm3.h **** 
 737:./stm32f10x_libraries/CMSIS/CM3/CoreSupport/core_cm3.h **** /*******************************************************************************
 738:./stm32f10x_libraries/CMSIS/CM3/CoreSupport/core_cm3.h ****  *                Hardware Abstraction Layer
 739:./stm32f10x_libraries/CMSIS/CM3/CoreSupport/core_cm3.h ****  ******************************************************************************/
 740:./stm32f10x_libraries/CMSIS/CM3/CoreSupport/core_cm3.h **** 
 741:./stm32f10x_libraries/CMSIS/CM3/CoreSupport/core_cm3.h **** #if defined ( __CC_ARM   )
 742:./stm32f10x_libraries/CMSIS/CM3/CoreSupport/core_cm3.h ****   #define __ASM            __asm                                      /*!< asm keyword for ARM Comp
 743:./stm32f10x_libraries/CMSIS/CM3/CoreSupport/core_cm3.h ****   #define __INLINE         __inline                                   /*!< inline keyword for ARM C
 744:./stm32f10x_libraries/CMSIS/CM3/CoreSupport/core_cm3.h **** 
 745:./stm32f10x_libraries/CMSIS/CM3/CoreSupport/core_cm3.h **** #elif defined ( __ICCARM__ )
 746:./stm32f10x_libraries/CMSIS/CM3/CoreSupport/core_cm3.h ****   #define __ASM           __asm                                       /*!< asm keyword for IAR Comp
 747:./stm32f10x_libraries/CMSIS/CM3/CoreSupport/core_cm3.h ****   #define __INLINE        inline                                      /*!< inline keyword for IAR C
 748:./stm32f10x_libraries/CMSIS/CM3/CoreSupport/core_cm3.h **** 
 749:./stm32f10x_libraries/CMSIS/CM3/CoreSupport/core_cm3.h **** #elif defined   (  __GNUC__  )
 750:./stm32f10x_libraries/CMSIS/CM3/CoreSupport/core_cm3.h ****   #define __ASM            __asm                                      /*!< asm keyword for GNU Comp
 751:./stm32f10x_libraries/CMSIS/CM3/CoreSupport/core_cm3.h ****   #define __INLINE         inline                                     /*!< inline keyword for GNU C
 752:./stm32f10x_libraries/CMSIS/CM3/CoreSupport/core_cm3.h **** 
 753:./stm32f10x_libraries/CMSIS/CM3/CoreSupport/core_cm3.h **** #elif defined   (  __TASKING__  )
 754:./stm32f10x_libraries/CMSIS/CM3/CoreSupport/core_cm3.h ****   #define __ASM            __asm                                      /*!< asm keyword for TASKING 
 755:./stm32f10x_libraries/CMSIS/CM3/CoreSupport/core_cm3.h ****   #define __INLINE         inline                                     /*!< inline keyword for TASKI
 756:./stm32f10x_libraries/CMSIS/CM3/CoreSupport/core_cm3.h **** 
 757:./stm32f10x_libraries/CMSIS/CM3/CoreSupport/core_cm3.h **** #endif
 758:./stm32f10x_libraries/CMSIS/CM3/CoreSupport/core_cm3.h **** 
 759:./stm32f10x_libraries/CMSIS/CM3/CoreSupport/core_cm3.h **** 
 760:./stm32f10x_libraries/CMSIS/CM3/CoreSupport/core_cm3.h **** /* ###################  Compiler specific Intrinsics  ########################### */
 761:./stm32f10x_libraries/CMSIS/CM3/CoreSupport/core_cm3.h **** 
 762:./stm32f10x_libraries/CMSIS/CM3/CoreSupport/core_cm3.h **** #if defined ( __CC_ARM   ) /*------------------RealView Compiler -----------------*/
 763:./stm32f10x_libraries/CMSIS/CM3/CoreSupport/core_cm3.h **** /* ARM armcc specific functions */
 764:./stm32f10x_libraries/CMSIS/CM3/CoreSupport/core_cm3.h **** 
 765:./stm32f10x_libraries/CMSIS/CM3/CoreSupport/core_cm3.h **** #define __enable_fault_irq                __enable_fiq
 766:./stm32f10x_libraries/CMSIS/CM3/CoreSupport/core_cm3.h **** #define __disable_fault_irq               __disable_fiq
 767:./stm32f10x_libraries/CMSIS/CM3/CoreSupport/core_cm3.h **** 
 768:./stm32f10x_libraries/CMSIS/CM3/CoreSupport/core_cm3.h **** #define __NOP                             __nop
 769:./stm32f10x_libraries/CMSIS/CM3/CoreSupport/core_cm3.h **** #define __WFI                             __wfi
 770:./stm32f10x_libraries/CMSIS/CM3/CoreSupport/core_cm3.h **** #define __WFE                             __wfe
 771:./stm32f10x_libraries/CMSIS/CM3/CoreSupport/core_cm3.h **** #define __SEV                             __sev
 772:./stm32f10x_libraries/CMSIS/CM3/CoreSupport/core_cm3.h **** #define __ISB()                           __isb(0)
 773:./stm32f10x_libraries/CMSIS/CM3/CoreSupport/core_cm3.h **** #define __DSB()                           __dsb(0)
 774:./stm32f10x_libraries/CMSIS/CM3/CoreSupport/core_cm3.h **** #define __DMB()                           __dmb(0)
 775:./stm32f10x_libraries/CMSIS/CM3/CoreSupport/core_cm3.h **** #define __REV                             __rev
 776:./stm32f10x_libraries/CMSIS/CM3/CoreSupport/core_cm3.h **** #define __RBIT                            __rbit
 777:./stm32f10x_libraries/CMSIS/CM3/CoreSupport/core_cm3.h **** #define __LDREXB(ptr)                     ((unsigned char ) __ldrex(ptr))
 778:./stm32f10x_libraries/CMSIS/CM3/CoreSupport/core_cm3.h **** #define __LDREXH(ptr)                     ((unsigned short) __ldrex(ptr))
ARM GAS  C:\Users\user\AppData\Local\Temp\cc7qV6fF.s 			page 35


 779:./stm32f10x_libraries/CMSIS/CM3/CoreSupport/core_cm3.h **** #define __LDREXW(ptr)                     ((unsigned int  ) __ldrex(ptr))
 780:./stm32f10x_libraries/CMSIS/CM3/CoreSupport/core_cm3.h **** #define __STREXB(value, ptr)              __strex(value, ptr)
 781:./stm32f10x_libraries/CMSIS/CM3/CoreSupport/core_cm3.h **** #define __STREXH(value, ptr)              __strex(value, ptr)
 782:./stm32f10x_libraries/CMSIS/CM3/CoreSupport/core_cm3.h **** #define __STREXW(value, ptr)              __strex(value, ptr)
 783:./stm32f10x_libraries/CMSIS/CM3/CoreSupport/core_cm3.h **** 
 784:./stm32f10x_libraries/CMSIS/CM3/CoreSupport/core_cm3.h **** 
 785:./stm32f10x_libraries/CMSIS/CM3/CoreSupport/core_cm3.h **** /* intrinsic unsigned long long __ldrexd(volatile void *ptr) */
 786:./stm32f10x_libraries/CMSIS/CM3/CoreSupport/core_cm3.h **** /* intrinsic int __strexd(unsigned long long val, volatile void *ptr) */
 787:./stm32f10x_libraries/CMSIS/CM3/CoreSupport/core_cm3.h **** /* intrinsic void __enable_irq();     */
 788:./stm32f10x_libraries/CMSIS/CM3/CoreSupport/core_cm3.h **** /* intrinsic void __disable_irq();    */
 789:./stm32f10x_libraries/CMSIS/CM3/CoreSupport/core_cm3.h **** 
 790:./stm32f10x_libraries/CMSIS/CM3/CoreSupport/core_cm3.h **** 
 791:./stm32f10x_libraries/CMSIS/CM3/CoreSupport/core_cm3.h **** /**
 792:./stm32f10x_libraries/CMSIS/CM3/CoreSupport/core_cm3.h ****  * @brief  Return the Process Stack Pointer
 793:./stm32f10x_libraries/CMSIS/CM3/CoreSupport/core_cm3.h ****  *
 794:./stm32f10x_libraries/CMSIS/CM3/CoreSupport/core_cm3.h ****  * @return ProcessStackPointer
 795:./stm32f10x_libraries/CMSIS/CM3/CoreSupport/core_cm3.h ****  *
 796:./stm32f10x_libraries/CMSIS/CM3/CoreSupport/core_cm3.h ****  * Return the actual process stack pointer
 797:./stm32f10x_libraries/CMSIS/CM3/CoreSupport/core_cm3.h ****  */
 798:./stm32f10x_libraries/CMSIS/CM3/CoreSupport/core_cm3.h **** extern uint32_t __get_PSP(void);
 799:./stm32f10x_libraries/CMSIS/CM3/CoreSupport/core_cm3.h **** 
 800:./stm32f10x_libraries/CMSIS/CM3/CoreSupport/core_cm3.h **** /**
 801:./stm32f10x_libraries/CMSIS/CM3/CoreSupport/core_cm3.h ****  * @brief  Set the Process Stack Pointer
 802:./stm32f10x_libraries/CMSIS/CM3/CoreSupport/core_cm3.h ****  *
 803:./stm32f10x_libraries/CMSIS/CM3/CoreSupport/core_cm3.h ****  * @param  topOfProcStack  Process Stack Pointer
 804:./stm32f10x_libraries/CMSIS/CM3/CoreSupport/core_cm3.h ****  *
 805:./stm32f10x_libraries/CMSIS/CM3/CoreSupport/core_cm3.h ****  * Assign the value ProcessStackPointer to the MSP 
 806:./stm32f10x_libraries/CMSIS/CM3/CoreSupport/core_cm3.h ****  * (process stack pointer) Cortex processor register
 807:./stm32f10x_libraries/CMSIS/CM3/CoreSupport/core_cm3.h ****  */
 808:./stm32f10x_libraries/CMSIS/CM3/CoreSupport/core_cm3.h **** extern void __set_PSP(uint32_t topOfProcStack);
 809:./stm32f10x_libraries/CMSIS/CM3/CoreSupport/core_cm3.h **** 
 810:./stm32f10x_libraries/CMSIS/CM3/CoreSupport/core_cm3.h **** /**
 811:./stm32f10x_libraries/CMSIS/CM3/CoreSupport/core_cm3.h ****  * @brief  Return the Main Stack Pointer
 812:./stm32f10x_libraries/CMSIS/CM3/CoreSupport/core_cm3.h ****  *
 813:./stm32f10x_libraries/CMSIS/CM3/CoreSupport/core_cm3.h ****  * @return Main Stack Pointer
 814:./stm32f10x_libraries/CMSIS/CM3/CoreSupport/core_cm3.h ****  *
 815:./stm32f10x_libraries/CMSIS/CM3/CoreSupport/core_cm3.h ****  * Return the current value of the MSP (main stack pointer)
 816:./stm32f10x_libraries/CMSIS/CM3/CoreSupport/core_cm3.h ****  * Cortex processor register
 817:./stm32f10x_libraries/CMSIS/CM3/CoreSupport/core_cm3.h ****  */
 818:./stm32f10x_libraries/CMSIS/CM3/CoreSupport/core_cm3.h **** extern uint32_t __get_MSP(void);
 819:./stm32f10x_libraries/CMSIS/CM3/CoreSupport/core_cm3.h **** 
 820:./stm32f10x_libraries/CMSIS/CM3/CoreSupport/core_cm3.h **** /**
 821:./stm32f10x_libraries/CMSIS/CM3/CoreSupport/core_cm3.h ****  * @brief  Set the Main Stack Pointer
 822:./stm32f10x_libraries/CMSIS/CM3/CoreSupport/core_cm3.h ****  *
 823:./stm32f10x_libraries/CMSIS/CM3/CoreSupport/core_cm3.h ****  * @param  topOfMainStack  Main Stack Pointer
 824:./stm32f10x_libraries/CMSIS/CM3/CoreSupport/core_cm3.h ****  *
 825:./stm32f10x_libraries/CMSIS/CM3/CoreSupport/core_cm3.h ****  * Assign the value mainStackPointer to the MSP 
 826:./stm32f10x_libraries/CMSIS/CM3/CoreSupport/core_cm3.h ****  * (main stack pointer) Cortex processor register
 827:./stm32f10x_libraries/CMSIS/CM3/CoreSupport/core_cm3.h ****  */
 828:./stm32f10x_libraries/CMSIS/CM3/CoreSupport/core_cm3.h **** extern void __set_MSP(uint32_t topOfMainStack);
 829:./stm32f10x_libraries/CMSIS/CM3/CoreSupport/core_cm3.h **** 
 830:./stm32f10x_libraries/CMSIS/CM3/CoreSupport/core_cm3.h **** /**
 831:./stm32f10x_libraries/CMSIS/CM3/CoreSupport/core_cm3.h ****  * @brief  Reverse byte order in unsigned short value
 832:./stm32f10x_libraries/CMSIS/CM3/CoreSupport/core_cm3.h ****  *
 833:./stm32f10x_libraries/CMSIS/CM3/CoreSupport/core_cm3.h ****  * @param   value  value to reverse
 834:./stm32f10x_libraries/CMSIS/CM3/CoreSupport/core_cm3.h ****  * @return         reversed value
 835:./stm32f10x_libraries/CMSIS/CM3/CoreSupport/core_cm3.h ****  *
ARM GAS  C:\Users\user\AppData\Local\Temp\cc7qV6fF.s 			page 36


 836:./stm32f10x_libraries/CMSIS/CM3/CoreSupport/core_cm3.h ****  * Reverse byte order in unsigned short value
 837:./stm32f10x_libraries/CMSIS/CM3/CoreSupport/core_cm3.h ****  */
 838:./stm32f10x_libraries/CMSIS/CM3/CoreSupport/core_cm3.h **** extern uint32_t __REV16(uint16_t value);
 839:./stm32f10x_libraries/CMSIS/CM3/CoreSupport/core_cm3.h **** 
 840:./stm32f10x_libraries/CMSIS/CM3/CoreSupport/core_cm3.h **** /**
 841:./stm32f10x_libraries/CMSIS/CM3/CoreSupport/core_cm3.h ****  * @brief  Reverse byte order in signed short value with sign extension to integer
 842:./stm32f10x_libraries/CMSIS/CM3/CoreSupport/core_cm3.h ****  *
 843:./stm32f10x_libraries/CMSIS/CM3/CoreSupport/core_cm3.h ****  * @param   value  value to reverse
 844:./stm32f10x_libraries/CMSIS/CM3/CoreSupport/core_cm3.h ****  * @return         reversed value
 845:./stm32f10x_libraries/CMSIS/CM3/CoreSupport/core_cm3.h ****  *
 846:./stm32f10x_libraries/CMSIS/CM3/CoreSupport/core_cm3.h ****  * Reverse byte order in signed short value with sign extension to integer
 847:./stm32f10x_libraries/CMSIS/CM3/CoreSupport/core_cm3.h ****  */
 848:./stm32f10x_libraries/CMSIS/CM3/CoreSupport/core_cm3.h **** extern int32_t __REVSH(int16_t value);
 849:./stm32f10x_libraries/CMSIS/CM3/CoreSupport/core_cm3.h **** 
 850:./stm32f10x_libraries/CMSIS/CM3/CoreSupport/core_cm3.h **** 
 851:./stm32f10x_libraries/CMSIS/CM3/CoreSupport/core_cm3.h **** #if (__ARMCC_VERSION < 400000)
 852:./stm32f10x_libraries/CMSIS/CM3/CoreSupport/core_cm3.h **** 
 853:./stm32f10x_libraries/CMSIS/CM3/CoreSupport/core_cm3.h **** /**
 854:./stm32f10x_libraries/CMSIS/CM3/CoreSupport/core_cm3.h ****  * @brief  Remove the exclusive lock created by ldrex
 855:./stm32f10x_libraries/CMSIS/CM3/CoreSupport/core_cm3.h ****  *
 856:./stm32f10x_libraries/CMSIS/CM3/CoreSupport/core_cm3.h ****  * Removes the exclusive lock which is created by ldrex.
 857:./stm32f10x_libraries/CMSIS/CM3/CoreSupport/core_cm3.h ****  */
 858:./stm32f10x_libraries/CMSIS/CM3/CoreSupport/core_cm3.h **** extern void __CLREX(void);
 859:./stm32f10x_libraries/CMSIS/CM3/CoreSupport/core_cm3.h **** 
 860:./stm32f10x_libraries/CMSIS/CM3/CoreSupport/core_cm3.h **** /**
 861:./stm32f10x_libraries/CMSIS/CM3/CoreSupport/core_cm3.h ****  * @brief  Return the Base Priority value
 862:./stm32f10x_libraries/CMSIS/CM3/CoreSupport/core_cm3.h ****  *
 863:./stm32f10x_libraries/CMSIS/CM3/CoreSupport/core_cm3.h ****  * @return BasePriority
 864:./stm32f10x_libraries/CMSIS/CM3/CoreSupport/core_cm3.h ****  *
 865:./stm32f10x_libraries/CMSIS/CM3/CoreSupport/core_cm3.h ****  * Return the content of the base priority register
 866:./stm32f10x_libraries/CMSIS/CM3/CoreSupport/core_cm3.h ****  */
 867:./stm32f10x_libraries/CMSIS/CM3/CoreSupport/core_cm3.h **** extern uint32_t __get_BASEPRI(void);
 868:./stm32f10x_libraries/CMSIS/CM3/CoreSupport/core_cm3.h **** 
 869:./stm32f10x_libraries/CMSIS/CM3/CoreSupport/core_cm3.h **** /**
 870:./stm32f10x_libraries/CMSIS/CM3/CoreSupport/core_cm3.h ****  * @brief  Set the Base Priority value
 871:./stm32f10x_libraries/CMSIS/CM3/CoreSupport/core_cm3.h ****  *
 872:./stm32f10x_libraries/CMSIS/CM3/CoreSupport/core_cm3.h ****  * @param  basePri  BasePriority
 873:./stm32f10x_libraries/CMSIS/CM3/CoreSupport/core_cm3.h ****  *
 874:./stm32f10x_libraries/CMSIS/CM3/CoreSupport/core_cm3.h ****  * Set the base priority register
 875:./stm32f10x_libraries/CMSIS/CM3/CoreSupport/core_cm3.h ****  */
 876:./stm32f10x_libraries/CMSIS/CM3/CoreSupport/core_cm3.h **** extern void __set_BASEPRI(uint32_t basePri);
 877:./stm32f10x_libraries/CMSIS/CM3/CoreSupport/core_cm3.h **** 
 878:./stm32f10x_libraries/CMSIS/CM3/CoreSupport/core_cm3.h **** /**
 879:./stm32f10x_libraries/CMSIS/CM3/CoreSupport/core_cm3.h ****  * @brief  Return the Priority Mask value
 880:./stm32f10x_libraries/CMSIS/CM3/CoreSupport/core_cm3.h ****  *
 881:./stm32f10x_libraries/CMSIS/CM3/CoreSupport/core_cm3.h ****  * @return PriMask
 882:./stm32f10x_libraries/CMSIS/CM3/CoreSupport/core_cm3.h ****  *
 883:./stm32f10x_libraries/CMSIS/CM3/CoreSupport/core_cm3.h ****  * Return state of the priority mask bit from the priority mask register
 884:./stm32f10x_libraries/CMSIS/CM3/CoreSupport/core_cm3.h ****  */
 885:./stm32f10x_libraries/CMSIS/CM3/CoreSupport/core_cm3.h **** extern uint32_t __get_PRIMASK(void);
 886:./stm32f10x_libraries/CMSIS/CM3/CoreSupport/core_cm3.h **** 
 887:./stm32f10x_libraries/CMSIS/CM3/CoreSupport/core_cm3.h **** /**
 888:./stm32f10x_libraries/CMSIS/CM3/CoreSupport/core_cm3.h ****  * @brief  Set the Priority Mask value
 889:./stm32f10x_libraries/CMSIS/CM3/CoreSupport/core_cm3.h ****  *
 890:./stm32f10x_libraries/CMSIS/CM3/CoreSupport/core_cm3.h ****  * @param   priMask  PriMask
 891:./stm32f10x_libraries/CMSIS/CM3/CoreSupport/core_cm3.h ****  *
 892:./stm32f10x_libraries/CMSIS/CM3/CoreSupport/core_cm3.h ****  * Set the priority mask bit in the priority mask register
ARM GAS  C:\Users\user\AppData\Local\Temp\cc7qV6fF.s 			page 37


 893:./stm32f10x_libraries/CMSIS/CM3/CoreSupport/core_cm3.h ****  */
 894:./stm32f10x_libraries/CMSIS/CM3/CoreSupport/core_cm3.h **** extern void __set_PRIMASK(uint32_t priMask);
 895:./stm32f10x_libraries/CMSIS/CM3/CoreSupport/core_cm3.h **** 
 896:./stm32f10x_libraries/CMSIS/CM3/CoreSupport/core_cm3.h **** /**
 897:./stm32f10x_libraries/CMSIS/CM3/CoreSupport/core_cm3.h ****  * @brief  Return the Fault Mask value
 898:./stm32f10x_libraries/CMSIS/CM3/CoreSupport/core_cm3.h ****  *
 899:./stm32f10x_libraries/CMSIS/CM3/CoreSupport/core_cm3.h ****  * @return FaultMask
 900:./stm32f10x_libraries/CMSIS/CM3/CoreSupport/core_cm3.h ****  *
 901:./stm32f10x_libraries/CMSIS/CM3/CoreSupport/core_cm3.h ****  * Return the content of the fault mask register
 902:./stm32f10x_libraries/CMSIS/CM3/CoreSupport/core_cm3.h ****  */
 903:./stm32f10x_libraries/CMSIS/CM3/CoreSupport/core_cm3.h **** extern uint32_t __get_FAULTMASK(void);
 904:./stm32f10x_libraries/CMSIS/CM3/CoreSupport/core_cm3.h **** 
 905:./stm32f10x_libraries/CMSIS/CM3/CoreSupport/core_cm3.h **** /**
 906:./stm32f10x_libraries/CMSIS/CM3/CoreSupport/core_cm3.h ****  * @brief  Set the Fault Mask value
 907:./stm32f10x_libraries/CMSIS/CM3/CoreSupport/core_cm3.h ****  *
 908:./stm32f10x_libraries/CMSIS/CM3/CoreSupport/core_cm3.h ****  * @param  faultMask faultMask value
 909:./stm32f10x_libraries/CMSIS/CM3/CoreSupport/core_cm3.h ****  *
 910:./stm32f10x_libraries/CMSIS/CM3/CoreSupport/core_cm3.h ****  * Set the fault mask register
 911:./stm32f10x_libraries/CMSIS/CM3/CoreSupport/core_cm3.h ****  */
 912:./stm32f10x_libraries/CMSIS/CM3/CoreSupport/core_cm3.h **** extern void __set_FAULTMASK(uint32_t faultMask);
 913:./stm32f10x_libraries/CMSIS/CM3/CoreSupport/core_cm3.h **** 
 914:./stm32f10x_libraries/CMSIS/CM3/CoreSupport/core_cm3.h **** /**
 915:./stm32f10x_libraries/CMSIS/CM3/CoreSupport/core_cm3.h ****  * @brief  Return the Control Register value
 916:./stm32f10x_libraries/CMSIS/CM3/CoreSupport/core_cm3.h ****  * 
 917:./stm32f10x_libraries/CMSIS/CM3/CoreSupport/core_cm3.h ****  * @return Control value
 918:./stm32f10x_libraries/CMSIS/CM3/CoreSupport/core_cm3.h ****  *
 919:./stm32f10x_libraries/CMSIS/CM3/CoreSupport/core_cm3.h ****  * Return the content of the control register
 920:./stm32f10x_libraries/CMSIS/CM3/CoreSupport/core_cm3.h ****  */
 921:./stm32f10x_libraries/CMSIS/CM3/CoreSupport/core_cm3.h **** extern uint32_t __get_CONTROL(void);
 922:./stm32f10x_libraries/CMSIS/CM3/CoreSupport/core_cm3.h **** 
 923:./stm32f10x_libraries/CMSIS/CM3/CoreSupport/core_cm3.h **** /**
 924:./stm32f10x_libraries/CMSIS/CM3/CoreSupport/core_cm3.h ****  * @brief  Set the Control Register value
 925:./stm32f10x_libraries/CMSIS/CM3/CoreSupport/core_cm3.h ****  *
 926:./stm32f10x_libraries/CMSIS/CM3/CoreSupport/core_cm3.h ****  * @param  control  Control value
 927:./stm32f10x_libraries/CMSIS/CM3/CoreSupport/core_cm3.h ****  *
 928:./stm32f10x_libraries/CMSIS/CM3/CoreSupport/core_cm3.h ****  * Set the control register
 929:./stm32f10x_libraries/CMSIS/CM3/CoreSupport/core_cm3.h ****  */
 930:./stm32f10x_libraries/CMSIS/CM3/CoreSupport/core_cm3.h **** extern void __set_CONTROL(uint32_t control);
 931:./stm32f10x_libraries/CMSIS/CM3/CoreSupport/core_cm3.h **** 
 932:./stm32f10x_libraries/CMSIS/CM3/CoreSupport/core_cm3.h **** #else  /* (__ARMCC_VERSION >= 400000)  */
 933:./stm32f10x_libraries/CMSIS/CM3/CoreSupport/core_cm3.h **** 
 934:./stm32f10x_libraries/CMSIS/CM3/CoreSupport/core_cm3.h **** /**
 935:./stm32f10x_libraries/CMSIS/CM3/CoreSupport/core_cm3.h ****  * @brief  Remove the exclusive lock created by ldrex
 936:./stm32f10x_libraries/CMSIS/CM3/CoreSupport/core_cm3.h ****  *
 937:./stm32f10x_libraries/CMSIS/CM3/CoreSupport/core_cm3.h ****  * Removes the exclusive lock which is created by ldrex.
 938:./stm32f10x_libraries/CMSIS/CM3/CoreSupport/core_cm3.h ****  */
 939:./stm32f10x_libraries/CMSIS/CM3/CoreSupport/core_cm3.h **** #define __CLREX                           __clrex
 940:./stm32f10x_libraries/CMSIS/CM3/CoreSupport/core_cm3.h **** 
 941:./stm32f10x_libraries/CMSIS/CM3/CoreSupport/core_cm3.h **** /**
 942:./stm32f10x_libraries/CMSIS/CM3/CoreSupport/core_cm3.h ****  * @brief  Return the Base Priority value
 943:./stm32f10x_libraries/CMSIS/CM3/CoreSupport/core_cm3.h ****  *
 944:./stm32f10x_libraries/CMSIS/CM3/CoreSupport/core_cm3.h ****  * @return BasePriority
 945:./stm32f10x_libraries/CMSIS/CM3/CoreSupport/core_cm3.h ****  *
 946:./stm32f10x_libraries/CMSIS/CM3/CoreSupport/core_cm3.h ****  * Return the content of the base priority register
 947:./stm32f10x_libraries/CMSIS/CM3/CoreSupport/core_cm3.h ****  */
 948:./stm32f10x_libraries/CMSIS/CM3/CoreSupport/core_cm3.h **** static __INLINE uint32_t  __get_BASEPRI(void)
 949:./stm32f10x_libraries/CMSIS/CM3/CoreSupport/core_cm3.h **** {
ARM GAS  C:\Users\user\AppData\Local\Temp\cc7qV6fF.s 			page 38


 950:./stm32f10x_libraries/CMSIS/CM3/CoreSupport/core_cm3.h ****   register uint32_t __regBasePri         __ASM("basepri");
 951:./stm32f10x_libraries/CMSIS/CM3/CoreSupport/core_cm3.h ****   return(__regBasePri);
 952:./stm32f10x_libraries/CMSIS/CM3/CoreSupport/core_cm3.h **** }
 953:./stm32f10x_libraries/CMSIS/CM3/CoreSupport/core_cm3.h **** 
 954:./stm32f10x_libraries/CMSIS/CM3/CoreSupport/core_cm3.h **** /**
 955:./stm32f10x_libraries/CMSIS/CM3/CoreSupport/core_cm3.h ****  * @brief  Set the Base Priority value
 956:./stm32f10x_libraries/CMSIS/CM3/CoreSupport/core_cm3.h ****  *
 957:./stm32f10x_libraries/CMSIS/CM3/CoreSupport/core_cm3.h ****  * @param  basePri  BasePriority
 958:./stm32f10x_libraries/CMSIS/CM3/CoreSupport/core_cm3.h ****  *
 959:./stm32f10x_libraries/CMSIS/CM3/CoreSupport/core_cm3.h ****  * Set the base priority register
 960:./stm32f10x_libraries/CMSIS/CM3/CoreSupport/core_cm3.h ****  */
 961:./stm32f10x_libraries/CMSIS/CM3/CoreSupport/core_cm3.h **** static __INLINE void __set_BASEPRI(uint32_t basePri)
 962:./stm32f10x_libraries/CMSIS/CM3/CoreSupport/core_cm3.h **** {
 963:./stm32f10x_libraries/CMSIS/CM3/CoreSupport/core_cm3.h ****   register uint32_t __regBasePri         __ASM("basepri");
 964:./stm32f10x_libraries/CMSIS/CM3/CoreSupport/core_cm3.h ****   __regBasePri = (basePri & 0xff);
 965:./stm32f10x_libraries/CMSIS/CM3/CoreSupport/core_cm3.h **** }
 966:./stm32f10x_libraries/CMSIS/CM3/CoreSupport/core_cm3.h **** 
 967:./stm32f10x_libraries/CMSIS/CM3/CoreSupport/core_cm3.h **** /**
 968:./stm32f10x_libraries/CMSIS/CM3/CoreSupport/core_cm3.h ****  * @brief  Return the Priority Mask value
 969:./stm32f10x_libraries/CMSIS/CM3/CoreSupport/core_cm3.h ****  *
 970:./stm32f10x_libraries/CMSIS/CM3/CoreSupport/core_cm3.h ****  * @return PriMask
 971:./stm32f10x_libraries/CMSIS/CM3/CoreSupport/core_cm3.h ****  *
 972:./stm32f10x_libraries/CMSIS/CM3/CoreSupport/core_cm3.h ****  * Return state of the priority mask bit from the priority mask register
 973:./stm32f10x_libraries/CMSIS/CM3/CoreSupport/core_cm3.h ****  */
 974:./stm32f10x_libraries/CMSIS/CM3/CoreSupport/core_cm3.h **** static __INLINE uint32_t __get_PRIMASK(void)
 975:./stm32f10x_libraries/CMSIS/CM3/CoreSupport/core_cm3.h **** {
 976:./stm32f10x_libraries/CMSIS/CM3/CoreSupport/core_cm3.h ****   register uint32_t __regPriMask         __ASM("primask");
 977:./stm32f10x_libraries/CMSIS/CM3/CoreSupport/core_cm3.h ****   return(__regPriMask);
 978:./stm32f10x_libraries/CMSIS/CM3/CoreSupport/core_cm3.h **** }
 979:./stm32f10x_libraries/CMSIS/CM3/CoreSupport/core_cm3.h **** 
 980:./stm32f10x_libraries/CMSIS/CM3/CoreSupport/core_cm3.h **** /**
 981:./stm32f10x_libraries/CMSIS/CM3/CoreSupport/core_cm3.h ****  * @brief  Set the Priority Mask value
 982:./stm32f10x_libraries/CMSIS/CM3/CoreSupport/core_cm3.h ****  *
 983:./stm32f10x_libraries/CMSIS/CM3/CoreSupport/core_cm3.h ****  * @param  priMask  PriMask
 984:./stm32f10x_libraries/CMSIS/CM3/CoreSupport/core_cm3.h ****  *
 985:./stm32f10x_libraries/CMSIS/CM3/CoreSupport/core_cm3.h ****  * Set the priority mask bit in the priority mask register
 986:./stm32f10x_libraries/CMSIS/CM3/CoreSupport/core_cm3.h ****  */
 987:./stm32f10x_libraries/CMSIS/CM3/CoreSupport/core_cm3.h **** static __INLINE void __set_PRIMASK(uint32_t priMask)
 988:./stm32f10x_libraries/CMSIS/CM3/CoreSupport/core_cm3.h **** {
 989:./stm32f10x_libraries/CMSIS/CM3/CoreSupport/core_cm3.h ****   register uint32_t __regPriMask         __ASM("primask");
 990:./stm32f10x_libraries/CMSIS/CM3/CoreSupport/core_cm3.h ****   __regPriMask = (priMask);
 991:./stm32f10x_libraries/CMSIS/CM3/CoreSupport/core_cm3.h **** }
 992:./stm32f10x_libraries/CMSIS/CM3/CoreSupport/core_cm3.h **** 
 993:./stm32f10x_libraries/CMSIS/CM3/CoreSupport/core_cm3.h **** /**
 994:./stm32f10x_libraries/CMSIS/CM3/CoreSupport/core_cm3.h ****  * @brief  Return the Fault Mask value
 995:./stm32f10x_libraries/CMSIS/CM3/CoreSupport/core_cm3.h ****  *
 996:./stm32f10x_libraries/CMSIS/CM3/CoreSupport/core_cm3.h ****  * @return FaultMask
 997:./stm32f10x_libraries/CMSIS/CM3/CoreSupport/core_cm3.h ****  *
 998:./stm32f10x_libraries/CMSIS/CM3/CoreSupport/core_cm3.h ****  * Return the content of the fault mask register
 999:./stm32f10x_libraries/CMSIS/CM3/CoreSupport/core_cm3.h ****  */
1000:./stm32f10x_libraries/CMSIS/CM3/CoreSupport/core_cm3.h **** static __INLINE uint32_t __get_FAULTMASK(void)
1001:./stm32f10x_libraries/CMSIS/CM3/CoreSupport/core_cm3.h **** {
1002:./stm32f10x_libraries/CMSIS/CM3/CoreSupport/core_cm3.h ****   register uint32_t __regFaultMask       __ASM("faultmask");
1003:./stm32f10x_libraries/CMSIS/CM3/CoreSupport/core_cm3.h ****   return(__regFaultMask);
1004:./stm32f10x_libraries/CMSIS/CM3/CoreSupport/core_cm3.h **** }
1005:./stm32f10x_libraries/CMSIS/CM3/CoreSupport/core_cm3.h **** 
1006:./stm32f10x_libraries/CMSIS/CM3/CoreSupport/core_cm3.h **** /**
ARM GAS  C:\Users\user\AppData\Local\Temp\cc7qV6fF.s 			page 39


1007:./stm32f10x_libraries/CMSIS/CM3/CoreSupport/core_cm3.h ****  * @brief  Set the Fault Mask value
1008:./stm32f10x_libraries/CMSIS/CM3/CoreSupport/core_cm3.h ****  *
1009:./stm32f10x_libraries/CMSIS/CM3/CoreSupport/core_cm3.h ****  * @param  faultMask  faultMask value
1010:./stm32f10x_libraries/CMSIS/CM3/CoreSupport/core_cm3.h ****  *
1011:./stm32f10x_libraries/CMSIS/CM3/CoreSupport/core_cm3.h ****  * Set the fault mask register
1012:./stm32f10x_libraries/CMSIS/CM3/CoreSupport/core_cm3.h ****  */
1013:./stm32f10x_libraries/CMSIS/CM3/CoreSupport/core_cm3.h **** static __INLINE void __set_FAULTMASK(uint32_t faultMask)
1014:./stm32f10x_libraries/CMSIS/CM3/CoreSupport/core_cm3.h **** {
1015:./stm32f10x_libraries/CMSIS/CM3/CoreSupport/core_cm3.h ****   register uint32_t __regFaultMask       __ASM("faultmask");
1016:./stm32f10x_libraries/CMSIS/CM3/CoreSupport/core_cm3.h ****   __regFaultMask = (faultMask & 1);
1017:./stm32f10x_libraries/CMSIS/CM3/CoreSupport/core_cm3.h **** }
1018:./stm32f10x_libraries/CMSIS/CM3/CoreSupport/core_cm3.h **** 
1019:./stm32f10x_libraries/CMSIS/CM3/CoreSupport/core_cm3.h **** /**
1020:./stm32f10x_libraries/CMSIS/CM3/CoreSupport/core_cm3.h ****  * @brief  Return the Control Register value
1021:./stm32f10x_libraries/CMSIS/CM3/CoreSupport/core_cm3.h ****  * 
1022:./stm32f10x_libraries/CMSIS/CM3/CoreSupport/core_cm3.h ****  * @return Control value
1023:./stm32f10x_libraries/CMSIS/CM3/CoreSupport/core_cm3.h ****  *
1024:./stm32f10x_libraries/CMSIS/CM3/CoreSupport/core_cm3.h ****  * Return the content of the control register
1025:./stm32f10x_libraries/CMSIS/CM3/CoreSupport/core_cm3.h ****  */
1026:./stm32f10x_libraries/CMSIS/CM3/CoreSupport/core_cm3.h **** static __INLINE uint32_t __get_CONTROL(void)
1027:./stm32f10x_libraries/CMSIS/CM3/CoreSupport/core_cm3.h **** {
1028:./stm32f10x_libraries/CMSIS/CM3/CoreSupport/core_cm3.h ****   register uint32_t __regControl         __ASM("control");
1029:./stm32f10x_libraries/CMSIS/CM3/CoreSupport/core_cm3.h ****   return(__regControl);
1030:./stm32f10x_libraries/CMSIS/CM3/CoreSupport/core_cm3.h **** }
1031:./stm32f10x_libraries/CMSIS/CM3/CoreSupport/core_cm3.h **** 
1032:./stm32f10x_libraries/CMSIS/CM3/CoreSupport/core_cm3.h **** /**
1033:./stm32f10x_libraries/CMSIS/CM3/CoreSupport/core_cm3.h ****  * @brief  Set the Control Register value
1034:./stm32f10x_libraries/CMSIS/CM3/CoreSupport/core_cm3.h ****  *
1035:./stm32f10x_libraries/CMSIS/CM3/CoreSupport/core_cm3.h ****  * @param  control  Control value
1036:./stm32f10x_libraries/CMSIS/CM3/CoreSupport/core_cm3.h ****  *
1037:./stm32f10x_libraries/CMSIS/CM3/CoreSupport/core_cm3.h ****  * Set the control register
1038:./stm32f10x_libraries/CMSIS/CM3/CoreSupport/core_cm3.h ****  */
1039:./stm32f10x_libraries/CMSIS/CM3/CoreSupport/core_cm3.h **** static __INLINE void __set_CONTROL(uint32_t control)
1040:./stm32f10x_libraries/CMSIS/CM3/CoreSupport/core_cm3.h **** {
1041:./stm32f10x_libraries/CMSIS/CM3/CoreSupport/core_cm3.h ****   register uint32_t __regControl         __ASM("control");
1042:./stm32f10x_libraries/CMSIS/CM3/CoreSupport/core_cm3.h ****   __regControl = control;
1043:./stm32f10x_libraries/CMSIS/CM3/CoreSupport/core_cm3.h **** }
1044:./stm32f10x_libraries/CMSIS/CM3/CoreSupport/core_cm3.h **** 
1045:./stm32f10x_libraries/CMSIS/CM3/CoreSupport/core_cm3.h **** #endif /* __ARMCC_VERSION  */ 
1046:./stm32f10x_libraries/CMSIS/CM3/CoreSupport/core_cm3.h **** 
1047:./stm32f10x_libraries/CMSIS/CM3/CoreSupport/core_cm3.h **** 
1048:./stm32f10x_libraries/CMSIS/CM3/CoreSupport/core_cm3.h **** 
1049:./stm32f10x_libraries/CMSIS/CM3/CoreSupport/core_cm3.h **** #elif (defined (__ICCARM__)) /*------------------ ICC Compiler -------------------*/
1050:./stm32f10x_libraries/CMSIS/CM3/CoreSupport/core_cm3.h **** /* IAR iccarm specific functions */
1051:./stm32f10x_libraries/CMSIS/CM3/CoreSupport/core_cm3.h **** 
1052:./stm32f10x_libraries/CMSIS/CM3/CoreSupport/core_cm3.h **** #define __enable_irq                              __enable_interrupt        /*!< global Interrupt e
1053:./stm32f10x_libraries/CMSIS/CM3/CoreSupport/core_cm3.h **** #define __disable_irq                             __disable_interrupt       /*!< global Interrupt d
1054:./stm32f10x_libraries/CMSIS/CM3/CoreSupport/core_cm3.h **** 
1055:./stm32f10x_libraries/CMSIS/CM3/CoreSupport/core_cm3.h **** static __INLINE void __enable_fault_irq()         { __ASM ("cpsie f"); }
1056:./stm32f10x_libraries/CMSIS/CM3/CoreSupport/core_cm3.h **** static __INLINE void __disable_fault_irq()        { __ASM ("cpsid f"); }
1057:./stm32f10x_libraries/CMSIS/CM3/CoreSupport/core_cm3.h **** 
1058:./stm32f10x_libraries/CMSIS/CM3/CoreSupport/core_cm3.h **** #define __NOP                                     __no_operation            /*!< no operation intri
1059:./stm32f10x_libraries/CMSIS/CM3/CoreSupport/core_cm3.h **** static __INLINE  void __WFI()                     { __ASM ("wfi"); }
1060:./stm32f10x_libraries/CMSIS/CM3/CoreSupport/core_cm3.h **** static __INLINE  void __WFE()                     { __ASM ("wfe"); }
1061:./stm32f10x_libraries/CMSIS/CM3/CoreSupport/core_cm3.h **** static __INLINE  void __SEV()                     { __ASM ("sev"); }
1062:./stm32f10x_libraries/CMSIS/CM3/CoreSupport/core_cm3.h **** static __INLINE  void __CLREX()                   { __ASM ("clrex"); }
1063:./stm32f10x_libraries/CMSIS/CM3/CoreSupport/core_cm3.h **** 
ARM GAS  C:\Users\user\AppData\Local\Temp\cc7qV6fF.s 			page 40


1064:./stm32f10x_libraries/CMSIS/CM3/CoreSupport/core_cm3.h **** /* intrinsic void __ISB(void)                                     */
1065:./stm32f10x_libraries/CMSIS/CM3/CoreSupport/core_cm3.h **** /* intrinsic void __DSB(void)                                     */
1066:./stm32f10x_libraries/CMSIS/CM3/CoreSupport/core_cm3.h **** /* intrinsic void __DMB(void)                                     */
1067:./stm32f10x_libraries/CMSIS/CM3/CoreSupport/core_cm3.h **** /* intrinsic void __set_PRIMASK();                                */
1068:./stm32f10x_libraries/CMSIS/CM3/CoreSupport/core_cm3.h **** /* intrinsic void __get_PRIMASK();                                */
1069:./stm32f10x_libraries/CMSIS/CM3/CoreSupport/core_cm3.h **** /* intrinsic void __set_FAULTMASK();                              */
1070:./stm32f10x_libraries/CMSIS/CM3/CoreSupport/core_cm3.h **** /* intrinsic void __get_FAULTMASK();                              */
1071:./stm32f10x_libraries/CMSIS/CM3/CoreSupport/core_cm3.h **** /* intrinsic uint32_t __REV(uint32_t value);                      */
1072:./stm32f10x_libraries/CMSIS/CM3/CoreSupport/core_cm3.h **** /* intrinsic uint32_t __REVSH(uint32_t value);                    */
1073:./stm32f10x_libraries/CMSIS/CM3/CoreSupport/core_cm3.h **** /* intrinsic unsigned long __STREX(unsigned long, unsigned long); */
1074:./stm32f10x_libraries/CMSIS/CM3/CoreSupport/core_cm3.h **** /* intrinsic unsigned long __LDREX(unsigned long *);              */
1075:./stm32f10x_libraries/CMSIS/CM3/CoreSupport/core_cm3.h **** 
1076:./stm32f10x_libraries/CMSIS/CM3/CoreSupport/core_cm3.h **** 
1077:./stm32f10x_libraries/CMSIS/CM3/CoreSupport/core_cm3.h **** /**
1078:./stm32f10x_libraries/CMSIS/CM3/CoreSupport/core_cm3.h ****  * @brief  Return the Process Stack Pointer
1079:./stm32f10x_libraries/CMSIS/CM3/CoreSupport/core_cm3.h ****  *
1080:./stm32f10x_libraries/CMSIS/CM3/CoreSupport/core_cm3.h ****  * @return ProcessStackPointer
1081:./stm32f10x_libraries/CMSIS/CM3/CoreSupport/core_cm3.h ****  *
1082:./stm32f10x_libraries/CMSIS/CM3/CoreSupport/core_cm3.h ****  * Return the actual process stack pointer
1083:./stm32f10x_libraries/CMSIS/CM3/CoreSupport/core_cm3.h ****  */
1084:./stm32f10x_libraries/CMSIS/CM3/CoreSupport/core_cm3.h **** extern uint32_t __get_PSP(void);
1085:./stm32f10x_libraries/CMSIS/CM3/CoreSupport/core_cm3.h **** 
1086:./stm32f10x_libraries/CMSIS/CM3/CoreSupport/core_cm3.h **** /**
1087:./stm32f10x_libraries/CMSIS/CM3/CoreSupport/core_cm3.h ****  * @brief  Set the Process Stack Pointer
1088:./stm32f10x_libraries/CMSIS/CM3/CoreSupport/core_cm3.h ****  *
1089:./stm32f10x_libraries/CMSIS/CM3/CoreSupport/core_cm3.h ****  * @param  topOfProcStack  Process Stack Pointer
1090:./stm32f10x_libraries/CMSIS/CM3/CoreSupport/core_cm3.h ****  *
1091:./stm32f10x_libraries/CMSIS/CM3/CoreSupport/core_cm3.h ****  * Assign the value ProcessStackPointer to the MSP 
1092:./stm32f10x_libraries/CMSIS/CM3/CoreSupport/core_cm3.h ****  * (process stack pointer) Cortex processor register
1093:./stm32f10x_libraries/CMSIS/CM3/CoreSupport/core_cm3.h ****  */
1094:./stm32f10x_libraries/CMSIS/CM3/CoreSupport/core_cm3.h **** extern void __set_PSP(uint32_t topOfProcStack);
1095:./stm32f10x_libraries/CMSIS/CM3/CoreSupport/core_cm3.h **** 
1096:./stm32f10x_libraries/CMSIS/CM3/CoreSupport/core_cm3.h **** /**
1097:./stm32f10x_libraries/CMSIS/CM3/CoreSupport/core_cm3.h ****  * @brief  Return the Main Stack Pointer
1098:./stm32f10x_libraries/CMSIS/CM3/CoreSupport/core_cm3.h ****  *
1099:./stm32f10x_libraries/CMSIS/CM3/CoreSupport/core_cm3.h ****  * @return Main Stack Pointer
1100:./stm32f10x_libraries/CMSIS/CM3/CoreSupport/core_cm3.h ****  *
1101:./stm32f10x_libraries/CMSIS/CM3/CoreSupport/core_cm3.h ****  * Return the current value of the MSP (main stack pointer)
1102:./stm32f10x_libraries/CMSIS/CM3/CoreSupport/core_cm3.h ****  * Cortex processor register
1103:./stm32f10x_libraries/CMSIS/CM3/CoreSupport/core_cm3.h ****  */
1104:./stm32f10x_libraries/CMSIS/CM3/CoreSupport/core_cm3.h **** extern uint32_t __get_MSP(void);
1105:./stm32f10x_libraries/CMSIS/CM3/CoreSupport/core_cm3.h **** 
1106:./stm32f10x_libraries/CMSIS/CM3/CoreSupport/core_cm3.h **** /**
1107:./stm32f10x_libraries/CMSIS/CM3/CoreSupport/core_cm3.h ****  * @brief  Set the Main Stack Pointer
1108:./stm32f10x_libraries/CMSIS/CM3/CoreSupport/core_cm3.h ****  *
1109:./stm32f10x_libraries/CMSIS/CM3/CoreSupport/core_cm3.h ****  * @param  topOfMainStack  Main Stack Pointer
1110:./stm32f10x_libraries/CMSIS/CM3/CoreSupport/core_cm3.h ****  *
1111:./stm32f10x_libraries/CMSIS/CM3/CoreSupport/core_cm3.h ****  * Assign the value mainStackPointer to the MSP 
1112:./stm32f10x_libraries/CMSIS/CM3/CoreSupport/core_cm3.h ****  * (main stack pointer) Cortex processor register
1113:./stm32f10x_libraries/CMSIS/CM3/CoreSupport/core_cm3.h ****  */
1114:./stm32f10x_libraries/CMSIS/CM3/CoreSupport/core_cm3.h **** extern void __set_MSP(uint32_t topOfMainStack);
1115:./stm32f10x_libraries/CMSIS/CM3/CoreSupport/core_cm3.h **** 
1116:./stm32f10x_libraries/CMSIS/CM3/CoreSupport/core_cm3.h **** /**
1117:./stm32f10x_libraries/CMSIS/CM3/CoreSupport/core_cm3.h ****  * @brief  Reverse byte order in unsigned short value
1118:./stm32f10x_libraries/CMSIS/CM3/CoreSupport/core_cm3.h ****  *
1119:./stm32f10x_libraries/CMSIS/CM3/CoreSupport/core_cm3.h ****  * @param  value  value to reverse
1120:./stm32f10x_libraries/CMSIS/CM3/CoreSupport/core_cm3.h ****  * @return        reversed value
ARM GAS  C:\Users\user\AppData\Local\Temp\cc7qV6fF.s 			page 41


1121:./stm32f10x_libraries/CMSIS/CM3/CoreSupport/core_cm3.h ****  *
1122:./stm32f10x_libraries/CMSIS/CM3/CoreSupport/core_cm3.h ****  * Reverse byte order in unsigned short value
1123:./stm32f10x_libraries/CMSIS/CM3/CoreSupport/core_cm3.h ****  */
1124:./stm32f10x_libraries/CMSIS/CM3/CoreSupport/core_cm3.h **** extern uint32_t __REV16(uint16_t value);
1125:./stm32f10x_libraries/CMSIS/CM3/CoreSupport/core_cm3.h **** 
1126:./stm32f10x_libraries/CMSIS/CM3/CoreSupport/core_cm3.h **** /**
1127:./stm32f10x_libraries/CMSIS/CM3/CoreSupport/core_cm3.h ****  * @brief  Reverse bit order of value
1128:./stm32f10x_libraries/CMSIS/CM3/CoreSupport/core_cm3.h ****  *
1129:./stm32f10x_libraries/CMSIS/CM3/CoreSupport/core_cm3.h ****  * @param  value  value to reverse
1130:./stm32f10x_libraries/CMSIS/CM3/CoreSupport/core_cm3.h ****  * @return        reversed value
1131:./stm32f10x_libraries/CMSIS/CM3/CoreSupport/core_cm3.h ****  *
1132:./stm32f10x_libraries/CMSIS/CM3/CoreSupport/core_cm3.h ****  * Reverse bit order of value
1133:./stm32f10x_libraries/CMSIS/CM3/CoreSupport/core_cm3.h ****  */
1134:./stm32f10x_libraries/CMSIS/CM3/CoreSupport/core_cm3.h **** extern uint32_t __RBIT(uint32_t value);
1135:./stm32f10x_libraries/CMSIS/CM3/CoreSupport/core_cm3.h **** 
1136:./stm32f10x_libraries/CMSIS/CM3/CoreSupport/core_cm3.h **** /**
1137:./stm32f10x_libraries/CMSIS/CM3/CoreSupport/core_cm3.h ****  * @brief  LDR Exclusive (8 bit)
1138:./stm32f10x_libraries/CMSIS/CM3/CoreSupport/core_cm3.h ****  *
1139:./stm32f10x_libraries/CMSIS/CM3/CoreSupport/core_cm3.h ****  * @param  *addr  address pointer
1140:./stm32f10x_libraries/CMSIS/CM3/CoreSupport/core_cm3.h ****  * @return        value of (*address)
1141:./stm32f10x_libraries/CMSIS/CM3/CoreSupport/core_cm3.h ****  *
1142:./stm32f10x_libraries/CMSIS/CM3/CoreSupport/core_cm3.h ****  * Exclusive LDR command for 8 bit values)
1143:./stm32f10x_libraries/CMSIS/CM3/CoreSupport/core_cm3.h ****  */
1144:./stm32f10x_libraries/CMSIS/CM3/CoreSupport/core_cm3.h **** extern uint8_t __LDREXB(uint8_t *addr);
1145:./stm32f10x_libraries/CMSIS/CM3/CoreSupport/core_cm3.h **** 
1146:./stm32f10x_libraries/CMSIS/CM3/CoreSupport/core_cm3.h **** /**
1147:./stm32f10x_libraries/CMSIS/CM3/CoreSupport/core_cm3.h ****  * @brief  LDR Exclusive (16 bit)
1148:./stm32f10x_libraries/CMSIS/CM3/CoreSupport/core_cm3.h ****  *
1149:./stm32f10x_libraries/CMSIS/CM3/CoreSupport/core_cm3.h ****  * @param  *addr  address pointer
1150:./stm32f10x_libraries/CMSIS/CM3/CoreSupport/core_cm3.h ****  * @return        value of (*address)
1151:./stm32f10x_libraries/CMSIS/CM3/CoreSupport/core_cm3.h ****  *
1152:./stm32f10x_libraries/CMSIS/CM3/CoreSupport/core_cm3.h ****  * Exclusive LDR command for 16 bit values
1153:./stm32f10x_libraries/CMSIS/CM3/CoreSupport/core_cm3.h ****  */
1154:./stm32f10x_libraries/CMSIS/CM3/CoreSupport/core_cm3.h **** extern uint16_t __LDREXH(uint16_t *addr);
1155:./stm32f10x_libraries/CMSIS/CM3/CoreSupport/core_cm3.h **** 
1156:./stm32f10x_libraries/CMSIS/CM3/CoreSupport/core_cm3.h **** /**
1157:./stm32f10x_libraries/CMSIS/CM3/CoreSupport/core_cm3.h ****  * @brief  LDR Exclusive (32 bit)
1158:./stm32f10x_libraries/CMSIS/CM3/CoreSupport/core_cm3.h ****  *
1159:./stm32f10x_libraries/CMSIS/CM3/CoreSupport/core_cm3.h ****  * @param  *addr  address pointer
1160:./stm32f10x_libraries/CMSIS/CM3/CoreSupport/core_cm3.h ****  * @return        value of (*address)
1161:./stm32f10x_libraries/CMSIS/CM3/CoreSupport/core_cm3.h ****  *
1162:./stm32f10x_libraries/CMSIS/CM3/CoreSupport/core_cm3.h ****  * Exclusive LDR command for 32 bit values
1163:./stm32f10x_libraries/CMSIS/CM3/CoreSupport/core_cm3.h ****  */
1164:./stm32f10x_libraries/CMSIS/CM3/CoreSupport/core_cm3.h **** extern uint32_t __LDREXW(uint32_t *addr);
1165:./stm32f10x_libraries/CMSIS/CM3/CoreSupport/core_cm3.h **** 
1166:./stm32f10x_libraries/CMSIS/CM3/CoreSupport/core_cm3.h **** /**
1167:./stm32f10x_libraries/CMSIS/CM3/CoreSupport/core_cm3.h ****  * @brief  STR Exclusive (8 bit)
1168:./stm32f10x_libraries/CMSIS/CM3/CoreSupport/core_cm3.h ****  *
1169:./stm32f10x_libraries/CMSIS/CM3/CoreSupport/core_cm3.h ****  * @param  value  value to store
1170:./stm32f10x_libraries/CMSIS/CM3/CoreSupport/core_cm3.h ****  * @param  *addr  address pointer
1171:./stm32f10x_libraries/CMSIS/CM3/CoreSupport/core_cm3.h ****  * @return        successful / failed
1172:./stm32f10x_libraries/CMSIS/CM3/CoreSupport/core_cm3.h ****  *
1173:./stm32f10x_libraries/CMSIS/CM3/CoreSupport/core_cm3.h ****  * Exclusive STR command for 8 bit values
1174:./stm32f10x_libraries/CMSIS/CM3/CoreSupport/core_cm3.h ****  */
1175:./stm32f10x_libraries/CMSIS/CM3/CoreSupport/core_cm3.h **** extern uint32_t __STREXB(uint8_t value, uint8_t *addr);
1176:./stm32f10x_libraries/CMSIS/CM3/CoreSupport/core_cm3.h **** 
1177:./stm32f10x_libraries/CMSIS/CM3/CoreSupport/core_cm3.h **** /**
ARM GAS  C:\Users\user\AppData\Local\Temp\cc7qV6fF.s 			page 42


1178:./stm32f10x_libraries/CMSIS/CM3/CoreSupport/core_cm3.h ****  * @brief  STR Exclusive (16 bit)
1179:./stm32f10x_libraries/CMSIS/CM3/CoreSupport/core_cm3.h ****  *
1180:./stm32f10x_libraries/CMSIS/CM3/CoreSupport/core_cm3.h ****  * @param  value  value to store
1181:./stm32f10x_libraries/CMSIS/CM3/CoreSupport/core_cm3.h ****  * @param  *addr  address pointer
1182:./stm32f10x_libraries/CMSIS/CM3/CoreSupport/core_cm3.h ****  * @return        successful / failed
1183:./stm32f10x_libraries/CMSIS/CM3/CoreSupport/core_cm3.h ****  *
1184:./stm32f10x_libraries/CMSIS/CM3/CoreSupport/core_cm3.h ****  * Exclusive STR command for 16 bit values
1185:./stm32f10x_libraries/CMSIS/CM3/CoreSupport/core_cm3.h ****  */
1186:./stm32f10x_libraries/CMSIS/CM3/CoreSupport/core_cm3.h **** extern uint32_t __STREXH(uint16_t value, uint16_t *addr);
1187:./stm32f10x_libraries/CMSIS/CM3/CoreSupport/core_cm3.h **** 
1188:./stm32f10x_libraries/CMSIS/CM3/CoreSupport/core_cm3.h **** /**
1189:./stm32f10x_libraries/CMSIS/CM3/CoreSupport/core_cm3.h ****  * @brief  STR Exclusive (32 bit)
1190:./stm32f10x_libraries/CMSIS/CM3/CoreSupport/core_cm3.h ****  *
1191:./stm32f10x_libraries/CMSIS/CM3/CoreSupport/core_cm3.h ****  * @param  value  value to store
1192:./stm32f10x_libraries/CMSIS/CM3/CoreSupport/core_cm3.h ****  * @param  *addr  address pointer
1193:./stm32f10x_libraries/CMSIS/CM3/CoreSupport/core_cm3.h ****  * @return        successful / failed
1194:./stm32f10x_libraries/CMSIS/CM3/CoreSupport/core_cm3.h ****  *
1195:./stm32f10x_libraries/CMSIS/CM3/CoreSupport/core_cm3.h ****  * Exclusive STR command for 32 bit values
1196:./stm32f10x_libraries/CMSIS/CM3/CoreSupport/core_cm3.h ****  */
1197:./stm32f10x_libraries/CMSIS/CM3/CoreSupport/core_cm3.h **** extern uint32_t __STREXW(uint32_t value, uint32_t *addr);
1198:./stm32f10x_libraries/CMSIS/CM3/CoreSupport/core_cm3.h **** 
1199:./stm32f10x_libraries/CMSIS/CM3/CoreSupport/core_cm3.h **** 
1200:./stm32f10x_libraries/CMSIS/CM3/CoreSupport/core_cm3.h **** 
1201:./stm32f10x_libraries/CMSIS/CM3/CoreSupport/core_cm3.h **** #elif (defined (__GNUC__)) /*------------------ GNU Compiler ---------------------*/
1202:./stm32f10x_libraries/CMSIS/CM3/CoreSupport/core_cm3.h **** /* GNU gcc specific functions */
1203:./stm32f10x_libraries/CMSIS/CM3/CoreSupport/core_cm3.h **** 
1204:./stm32f10x_libraries/CMSIS/CM3/CoreSupport/core_cm3.h **** static __INLINE void __enable_irq()               { __ASM volatile ("cpsie i"); }
1205:./stm32f10x_libraries/CMSIS/CM3/CoreSupport/core_cm3.h **** static __INLINE void __disable_irq()              { __ASM volatile ("cpsid i"); }
1206:./stm32f10x_libraries/CMSIS/CM3/CoreSupport/core_cm3.h **** 
1207:./stm32f10x_libraries/CMSIS/CM3/CoreSupport/core_cm3.h **** static __INLINE void __enable_fault_irq()         { __ASM volatile ("cpsie f"); }
1208:./stm32f10x_libraries/CMSIS/CM3/CoreSupport/core_cm3.h **** static __INLINE void __disable_fault_irq()        { __ASM volatile ("cpsid f"); }
1209:./stm32f10x_libraries/CMSIS/CM3/CoreSupport/core_cm3.h **** 
1210:./stm32f10x_libraries/CMSIS/CM3/CoreSupport/core_cm3.h **** static __INLINE void __NOP()                      { __ASM volatile ("nop"); }
1211:./stm32f10x_libraries/CMSIS/CM3/CoreSupport/core_cm3.h **** static __INLINE void __WFI()                      { __ASM volatile ("wfi"); }
1212:./stm32f10x_libraries/CMSIS/CM3/CoreSupport/core_cm3.h **** static __INLINE void __WFE()                      { __ASM volatile ("wfe"); }
1213:./stm32f10x_libraries/CMSIS/CM3/CoreSupport/core_cm3.h **** static __INLINE void __SEV()                      { __ASM volatile ("sev"); }
1214:./stm32f10x_libraries/CMSIS/CM3/CoreSupport/core_cm3.h **** static __INLINE void __ISB()                      { __ASM volatile ("isb"); }
1215:./stm32f10x_libraries/CMSIS/CM3/CoreSupport/core_cm3.h **** static __INLINE void __DSB()                      { __ASM volatile ("dsb"); }
1216:./stm32f10x_libraries/CMSIS/CM3/CoreSupport/core_cm3.h **** static __INLINE void __DMB()                      { __ASM volatile ("dmb"); }
1217:./stm32f10x_libraries/CMSIS/CM3/CoreSupport/core_cm3.h **** static __INLINE void __CLREX()                    { __ASM volatile ("clrex"); }
1218:./stm32f10x_libraries/CMSIS/CM3/CoreSupport/core_cm3.h **** 
1219:./stm32f10x_libraries/CMSIS/CM3/CoreSupport/core_cm3.h **** 
1220:./stm32f10x_libraries/CMSIS/CM3/CoreSupport/core_cm3.h **** /**
1221:./stm32f10x_libraries/CMSIS/CM3/CoreSupport/core_cm3.h ****  * @brief  Return the Process Stack Pointer
1222:./stm32f10x_libraries/CMSIS/CM3/CoreSupport/core_cm3.h ****  *
1223:./stm32f10x_libraries/CMSIS/CM3/CoreSupport/core_cm3.h ****  * @return ProcessStackPointer
1224:./stm32f10x_libraries/CMSIS/CM3/CoreSupport/core_cm3.h ****  *
1225:./stm32f10x_libraries/CMSIS/CM3/CoreSupport/core_cm3.h ****  * Return the actual process stack pointer
1226:./stm32f10x_libraries/CMSIS/CM3/CoreSupport/core_cm3.h ****  */
1227:./stm32f10x_libraries/CMSIS/CM3/CoreSupport/core_cm3.h **** extern uint32_t __get_PSP(void);
1228:./stm32f10x_libraries/CMSIS/CM3/CoreSupport/core_cm3.h **** 
1229:./stm32f10x_libraries/CMSIS/CM3/CoreSupport/core_cm3.h **** /**
1230:./stm32f10x_libraries/CMSIS/CM3/CoreSupport/core_cm3.h ****  * @brief  Set the Process Stack Pointer
1231:./stm32f10x_libraries/CMSIS/CM3/CoreSupport/core_cm3.h ****  *
1232:./stm32f10x_libraries/CMSIS/CM3/CoreSupport/core_cm3.h ****  * @param  topOfProcStack  Process Stack Pointer
1233:./stm32f10x_libraries/CMSIS/CM3/CoreSupport/core_cm3.h ****  *
1234:./stm32f10x_libraries/CMSIS/CM3/CoreSupport/core_cm3.h ****  * Assign the value ProcessStackPointer to the MSP 
ARM GAS  C:\Users\user\AppData\Local\Temp\cc7qV6fF.s 			page 43


1235:./stm32f10x_libraries/CMSIS/CM3/CoreSupport/core_cm3.h ****  * (process stack pointer) Cortex processor register
1236:./stm32f10x_libraries/CMSIS/CM3/CoreSupport/core_cm3.h ****  */
1237:./stm32f10x_libraries/CMSIS/CM3/CoreSupport/core_cm3.h **** extern void __set_PSP(uint32_t topOfProcStack);
1238:./stm32f10x_libraries/CMSIS/CM3/CoreSupport/core_cm3.h **** 
1239:./stm32f10x_libraries/CMSIS/CM3/CoreSupport/core_cm3.h **** /**
1240:./stm32f10x_libraries/CMSIS/CM3/CoreSupport/core_cm3.h ****  * @brief  Return the Main Stack Pointer
1241:./stm32f10x_libraries/CMSIS/CM3/CoreSupport/core_cm3.h ****  *
1242:./stm32f10x_libraries/CMSIS/CM3/CoreSupport/core_cm3.h ****  * @return Main Stack Pointer
1243:./stm32f10x_libraries/CMSIS/CM3/CoreSupport/core_cm3.h ****  *
1244:./stm32f10x_libraries/CMSIS/CM3/CoreSupport/core_cm3.h ****  * Return the current value of the MSP (main stack pointer)
1245:./stm32f10x_libraries/CMSIS/CM3/CoreSupport/core_cm3.h ****  * Cortex processor register
1246:./stm32f10x_libraries/CMSIS/CM3/CoreSupport/core_cm3.h ****  */
1247:./stm32f10x_libraries/CMSIS/CM3/CoreSupport/core_cm3.h **** extern uint32_t __get_MSP(void);
1248:./stm32f10x_libraries/CMSIS/CM3/CoreSupport/core_cm3.h **** 
1249:./stm32f10x_libraries/CMSIS/CM3/CoreSupport/core_cm3.h **** /**
1250:./stm32f10x_libraries/CMSIS/CM3/CoreSupport/core_cm3.h ****  * @brief  Set the Main Stack Pointer
1251:./stm32f10x_libraries/CMSIS/CM3/CoreSupport/core_cm3.h ****  *
1252:./stm32f10x_libraries/CMSIS/CM3/CoreSupport/core_cm3.h ****  * @param  topOfMainStack  Main Stack Pointer
1253:./stm32f10x_libraries/CMSIS/CM3/CoreSupport/core_cm3.h ****  *
1254:./stm32f10x_libraries/CMSIS/CM3/CoreSupport/core_cm3.h ****  * Assign the value mainStackPointer to the MSP 
1255:./stm32f10x_libraries/CMSIS/CM3/CoreSupport/core_cm3.h ****  * (main stack pointer) Cortex processor register
1256:./stm32f10x_libraries/CMSIS/CM3/CoreSupport/core_cm3.h ****  */
1257:./stm32f10x_libraries/CMSIS/CM3/CoreSupport/core_cm3.h **** extern void __set_MSP(uint32_t topOfMainStack);
1258:./stm32f10x_libraries/CMSIS/CM3/CoreSupport/core_cm3.h **** 
1259:./stm32f10x_libraries/CMSIS/CM3/CoreSupport/core_cm3.h **** /**
1260:./stm32f10x_libraries/CMSIS/CM3/CoreSupport/core_cm3.h ****  * @brief  Return the Base Priority value
1261:./stm32f10x_libraries/CMSIS/CM3/CoreSupport/core_cm3.h ****  *
1262:./stm32f10x_libraries/CMSIS/CM3/CoreSupport/core_cm3.h ****  * @return BasePriority
1263:./stm32f10x_libraries/CMSIS/CM3/CoreSupport/core_cm3.h ****  *
1264:./stm32f10x_libraries/CMSIS/CM3/CoreSupport/core_cm3.h ****  * Return the content of the base priority register
1265:./stm32f10x_libraries/CMSIS/CM3/CoreSupport/core_cm3.h ****  */
1266:./stm32f10x_libraries/CMSIS/CM3/CoreSupport/core_cm3.h **** extern uint32_t __get_BASEPRI(void);
1267:./stm32f10x_libraries/CMSIS/CM3/CoreSupport/core_cm3.h **** 
1268:./stm32f10x_libraries/CMSIS/CM3/CoreSupport/core_cm3.h **** /**
1269:./stm32f10x_libraries/CMSIS/CM3/CoreSupport/core_cm3.h ****  * @brief  Set the Base Priority value
1270:./stm32f10x_libraries/CMSIS/CM3/CoreSupport/core_cm3.h ****  *
1271:./stm32f10x_libraries/CMSIS/CM3/CoreSupport/core_cm3.h ****  * @param  basePri  BasePriority
1272:./stm32f10x_libraries/CMSIS/CM3/CoreSupport/core_cm3.h ****  *
1273:./stm32f10x_libraries/CMSIS/CM3/CoreSupport/core_cm3.h ****  * Set the base priority register
1274:./stm32f10x_libraries/CMSIS/CM3/CoreSupport/core_cm3.h ****  */
1275:./stm32f10x_libraries/CMSIS/CM3/CoreSupport/core_cm3.h **** extern void __set_BASEPRI(uint32_t basePri);
1276:./stm32f10x_libraries/CMSIS/CM3/CoreSupport/core_cm3.h **** 
1277:./stm32f10x_libraries/CMSIS/CM3/CoreSupport/core_cm3.h **** /**
1278:./stm32f10x_libraries/CMSIS/CM3/CoreSupport/core_cm3.h ****  * @brief  Return the Priority Mask value
1279:./stm32f10x_libraries/CMSIS/CM3/CoreSupport/core_cm3.h ****  *
1280:./stm32f10x_libraries/CMSIS/CM3/CoreSupport/core_cm3.h ****  * @return PriMask
1281:./stm32f10x_libraries/CMSIS/CM3/CoreSupport/core_cm3.h ****  *
1282:./stm32f10x_libraries/CMSIS/CM3/CoreSupport/core_cm3.h ****  * Return state of the priority mask bit from the priority mask register
1283:./stm32f10x_libraries/CMSIS/CM3/CoreSupport/core_cm3.h ****  */
1284:./stm32f10x_libraries/CMSIS/CM3/CoreSupport/core_cm3.h **** extern uint32_t  __get_PRIMASK(void);
1285:./stm32f10x_libraries/CMSIS/CM3/CoreSupport/core_cm3.h **** 
1286:./stm32f10x_libraries/CMSIS/CM3/CoreSupport/core_cm3.h **** /**
1287:./stm32f10x_libraries/CMSIS/CM3/CoreSupport/core_cm3.h ****  * @brief  Set the Priority Mask value
1288:./stm32f10x_libraries/CMSIS/CM3/CoreSupport/core_cm3.h ****  *
1289:./stm32f10x_libraries/CMSIS/CM3/CoreSupport/core_cm3.h ****  * @param  priMask  PriMask
1290:./stm32f10x_libraries/CMSIS/CM3/CoreSupport/core_cm3.h ****  *
1291:./stm32f10x_libraries/CMSIS/CM3/CoreSupport/core_cm3.h ****  * Set the priority mask bit in the priority mask register
ARM GAS  C:\Users\user\AppData\Local\Temp\cc7qV6fF.s 			page 44


1292:./stm32f10x_libraries/CMSIS/CM3/CoreSupport/core_cm3.h ****  */
1293:./stm32f10x_libraries/CMSIS/CM3/CoreSupport/core_cm3.h **** extern void __set_PRIMASK(uint32_t priMask);
1294:./stm32f10x_libraries/CMSIS/CM3/CoreSupport/core_cm3.h **** 
1295:./stm32f10x_libraries/CMSIS/CM3/CoreSupport/core_cm3.h **** /**
1296:./stm32f10x_libraries/CMSIS/CM3/CoreSupport/core_cm3.h ****  * @brief  Return the Fault Mask value
1297:./stm32f10x_libraries/CMSIS/CM3/CoreSupport/core_cm3.h ****  *
1298:./stm32f10x_libraries/CMSIS/CM3/CoreSupport/core_cm3.h ****  * @return FaultMask
1299:./stm32f10x_libraries/CMSIS/CM3/CoreSupport/core_cm3.h ****  *
1300:./stm32f10x_libraries/CMSIS/CM3/CoreSupport/core_cm3.h ****  * Return the content of the fault mask register
1301:./stm32f10x_libraries/CMSIS/CM3/CoreSupport/core_cm3.h ****  */
1302:./stm32f10x_libraries/CMSIS/CM3/CoreSupport/core_cm3.h **** extern uint32_t __get_FAULTMASK(void);
1303:./stm32f10x_libraries/CMSIS/CM3/CoreSupport/core_cm3.h **** 
1304:./stm32f10x_libraries/CMSIS/CM3/CoreSupport/core_cm3.h **** /**
1305:./stm32f10x_libraries/CMSIS/CM3/CoreSupport/core_cm3.h ****  * @brief  Set the Fault Mask value
1306:./stm32f10x_libraries/CMSIS/CM3/CoreSupport/core_cm3.h ****  *
1307:./stm32f10x_libraries/CMSIS/CM3/CoreSupport/core_cm3.h ****  * @param  faultMask  faultMask value
1308:./stm32f10x_libraries/CMSIS/CM3/CoreSupport/core_cm3.h ****  *
1309:./stm32f10x_libraries/CMSIS/CM3/CoreSupport/core_cm3.h ****  * Set the fault mask register
1310:./stm32f10x_libraries/CMSIS/CM3/CoreSupport/core_cm3.h ****  */
1311:./stm32f10x_libraries/CMSIS/CM3/CoreSupport/core_cm3.h **** extern void __set_FAULTMASK(uint32_t faultMask);
1312:./stm32f10x_libraries/CMSIS/CM3/CoreSupport/core_cm3.h **** 
1313:./stm32f10x_libraries/CMSIS/CM3/CoreSupport/core_cm3.h **** /**
1314:./stm32f10x_libraries/CMSIS/CM3/CoreSupport/core_cm3.h ****  * @brief  Return the Control Register value
1315:./stm32f10x_libraries/CMSIS/CM3/CoreSupport/core_cm3.h **** * 
1316:./stm32f10x_libraries/CMSIS/CM3/CoreSupport/core_cm3.h **** *  @return Control value
1317:./stm32f10x_libraries/CMSIS/CM3/CoreSupport/core_cm3.h ****  *
1318:./stm32f10x_libraries/CMSIS/CM3/CoreSupport/core_cm3.h ****  * Return the content of the control register
1319:./stm32f10x_libraries/CMSIS/CM3/CoreSupport/core_cm3.h ****  */
1320:./stm32f10x_libraries/CMSIS/CM3/CoreSupport/core_cm3.h **** extern uint32_t __get_CONTROL(void);
1321:./stm32f10x_libraries/CMSIS/CM3/CoreSupport/core_cm3.h **** 
1322:./stm32f10x_libraries/CMSIS/CM3/CoreSupport/core_cm3.h **** /**
1323:./stm32f10x_libraries/CMSIS/CM3/CoreSupport/core_cm3.h ****  * @brief  Set the Control Register value
1324:./stm32f10x_libraries/CMSIS/CM3/CoreSupport/core_cm3.h ****  *
1325:./stm32f10x_libraries/CMSIS/CM3/CoreSupport/core_cm3.h ****  * @param  control  Control value
1326:./stm32f10x_libraries/CMSIS/CM3/CoreSupport/core_cm3.h ****  *
1327:./stm32f10x_libraries/CMSIS/CM3/CoreSupport/core_cm3.h ****  * Set the control register
1328:./stm32f10x_libraries/CMSIS/CM3/CoreSupport/core_cm3.h ****  */
1329:./stm32f10x_libraries/CMSIS/CM3/CoreSupport/core_cm3.h **** extern void __set_CONTROL(uint32_t control);
1330:./stm32f10x_libraries/CMSIS/CM3/CoreSupport/core_cm3.h **** 
1331:./stm32f10x_libraries/CMSIS/CM3/CoreSupport/core_cm3.h **** /**
1332:./stm32f10x_libraries/CMSIS/CM3/CoreSupport/core_cm3.h ****  * @brief  Reverse byte order in integer value
1333:./stm32f10x_libraries/CMSIS/CM3/CoreSupport/core_cm3.h ****  *
1334:./stm32f10x_libraries/CMSIS/CM3/CoreSupport/core_cm3.h ****  * @param  value  value to reverse
1335:./stm32f10x_libraries/CMSIS/CM3/CoreSupport/core_cm3.h ****  * @return        reversed value
1336:./stm32f10x_libraries/CMSIS/CM3/CoreSupport/core_cm3.h ****  *
1337:./stm32f10x_libraries/CMSIS/CM3/CoreSupport/core_cm3.h ****  * Reverse byte order in integer value
1338:./stm32f10x_libraries/CMSIS/CM3/CoreSupport/core_cm3.h ****  */
1339:./stm32f10x_libraries/CMSIS/CM3/CoreSupport/core_cm3.h **** extern uint32_t __REV(uint32_t value);
1340:./stm32f10x_libraries/CMSIS/CM3/CoreSupport/core_cm3.h **** 
1341:./stm32f10x_libraries/CMSIS/CM3/CoreSupport/core_cm3.h **** /**
1342:./stm32f10x_libraries/CMSIS/CM3/CoreSupport/core_cm3.h ****  * @brief  Reverse byte order in unsigned short value
1343:./stm32f10x_libraries/CMSIS/CM3/CoreSupport/core_cm3.h ****  *
1344:./stm32f10x_libraries/CMSIS/CM3/CoreSupport/core_cm3.h ****  * @param  value  value to reverse
1345:./stm32f10x_libraries/CMSIS/CM3/CoreSupport/core_cm3.h ****  * @return        reversed value
1346:./stm32f10x_libraries/CMSIS/CM3/CoreSupport/core_cm3.h ****  *
1347:./stm32f10x_libraries/CMSIS/CM3/CoreSupport/core_cm3.h ****  * Reverse byte order in unsigned short value
1348:./stm32f10x_libraries/CMSIS/CM3/CoreSupport/core_cm3.h ****  */
ARM GAS  C:\Users\user\AppData\Local\Temp\cc7qV6fF.s 			page 45


1349:./stm32f10x_libraries/CMSIS/CM3/CoreSupport/core_cm3.h **** extern uint32_t __REV16(uint16_t value);
1350:./stm32f10x_libraries/CMSIS/CM3/CoreSupport/core_cm3.h **** 
1351:./stm32f10x_libraries/CMSIS/CM3/CoreSupport/core_cm3.h **** /**
1352:./stm32f10x_libraries/CMSIS/CM3/CoreSupport/core_cm3.h ****  * @brief  Reverse byte order in signed short value with sign extension to integer
1353:./stm32f10x_libraries/CMSIS/CM3/CoreSupport/core_cm3.h ****  *
1354:./stm32f10x_libraries/CMSIS/CM3/CoreSupport/core_cm3.h ****  * @param  value  value to reverse
1355:./stm32f10x_libraries/CMSIS/CM3/CoreSupport/core_cm3.h ****  * @return        reversed value
1356:./stm32f10x_libraries/CMSIS/CM3/CoreSupport/core_cm3.h ****  *
1357:./stm32f10x_libraries/CMSIS/CM3/CoreSupport/core_cm3.h ****  * Reverse byte order in signed short value with sign extension to integer
1358:./stm32f10x_libraries/CMSIS/CM3/CoreSupport/core_cm3.h ****  */
1359:./stm32f10x_libraries/CMSIS/CM3/CoreSupport/core_cm3.h **** extern int32_t __REVSH(int16_t value);
1360:./stm32f10x_libraries/CMSIS/CM3/CoreSupport/core_cm3.h **** 
1361:./stm32f10x_libraries/CMSIS/CM3/CoreSupport/core_cm3.h **** /**
1362:./stm32f10x_libraries/CMSIS/CM3/CoreSupport/core_cm3.h ****  * @brief  Reverse bit order of value
1363:./stm32f10x_libraries/CMSIS/CM3/CoreSupport/core_cm3.h ****  *
1364:./stm32f10x_libraries/CMSIS/CM3/CoreSupport/core_cm3.h ****  * @param  value  value to reverse
1365:./stm32f10x_libraries/CMSIS/CM3/CoreSupport/core_cm3.h ****  * @return        reversed value
1366:./stm32f10x_libraries/CMSIS/CM3/CoreSupport/core_cm3.h ****  *
1367:./stm32f10x_libraries/CMSIS/CM3/CoreSupport/core_cm3.h ****  * Reverse bit order of value
1368:./stm32f10x_libraries/CMSIS/CM3/CoreSupport/core_cm3.h ****  */
1369:./stm32f10x_libraries/CMSIS/CM3/CoreSupport/core_cm3.h **** extern uint32_t __RBIT(uint32_t value);
1370:./stm32f10x_libraries/CMSIS/CM3/CoreSupport/core_cm3.h **** 
1371:./stm32f10x_libraries/CMSIS/CM3/CoreSupport/core_cm3.h **** /**
1372:./stm32f10x_libraries/CMSIS/CM3/CoreSupport/core_cm3.h ****  * @brief  LDR Exclusive (8 bit)
1373:./stm32f10x_libraries/CMSIS/CM3/CoreSupport/core_cm3.h ****  *
1374:./stm32f10x_libraries/CMSIS/CM3/CoreSupport/core_cm3.h ****  * @param  *addr  address pointer
1375:./stm32f10x_libraries/CMSIS/CM3/CoreSupport/core_cm3.h ****  * @return        value of (*address)
1376:./stm32f10x_libraries/CMSIS/CM3/CoreSupport/core_cm3.h ****  *
1377:./stm32f10x_libraries/CMSIS/CM3/CoreSupport/core_cm3.h ****  * Exclusive LDR command for 8 bit value
1378:./stm32f10x_libraries/CMSIS/CM3/CoreSupport/core_cm3.h ****  */
1379:./stm32f10x_libraries/CMSIS/CM3/CoreSupport/core_cm3.h **** extern uint8_t __LDREXB(uint8_t *addr);
1380:./stm32f10x_libraries/CMSIS/CM3/CoreSupport/core_cm3.h **** 
1381:./stm32f10x_libraries/CMSIS/CM3/CoreSupport/core_cm3.h **** /**
1382:./stm32f10x_libraries/CMSIS/CM3/CoreSupport/core_cm3.h ****  * @brief  LDR Exclusive (16 bit)
1383:./stm32f10x_libraries/CMSIS/CM3/CoreSupport/core_cm3.h ****  *
1384:./stm32f10x_libraries/CMSIS/CM3/CoreSupport/core_cm3.h ****  * @param  *addr  address pointer
1385:./stm32f10x_libraries/CMSIS/CM3/CoreSupport/core_cm3.h ****  * @return        value of (*address)
1386:./stm32f10x_libraries/CMSIS/CM3/CoreSupport/core_cm3.h ****  *
1387:./stm32f10x_libraries/CMSIS/CM3/CoreSupport/core_cm3.h ****  * Exclusive LDR command for 16 bit values
1388:./stm32f10x_libraries/CMSIS/CM3/CoreSupport/core_cm3.h ****  */
1389:./stm32f10x_libraries/CMSIS/CM3/CoreSupport/core_cm3.h **** extern uint16_t __LDREXH(uint16_t *addr);
1390:./stm32f10x_libraries/CMSIS/CM3/CoreSupport/core_cm3.h **** 
1391:./stm32f10x_libraries/CMSIS/CM3/CoreSupport/core_cm3.h **** /**
1392:./stm32f10x_libraries/CMSIS/CM3/CoreSupport/core_cm3.h ****  * @brief  LDR Exclusive (32 bit)
1393:./stm32f10x_libraries/CMSIS/CM3/CoreSupport/core_cm3.h ****  *
1394:./stm32f10x_libraries/CMSIS/CM3/CoreSupport/core_cm3.h ****  * @param  *addr  address pointer
1395:./stm32f10x_libraries/CMSIS/CM3/CoreSupport/core_cm3.h ****  * @return        value of (*address)
1396:./stm32f10x_libraries/CMSIS/CM3/CoreSupport/core_cm3.h ****  *
1397:./stm32f10x_libraries/CMSIS/CM3/CoreSupport/core_cm3.h ****  * Exclusive LDR command for 32 bit values
1398:./stm32f10x_libraries/CMSIS/CM3/CoreSupport/core_cm3.h ****  */
1399:./stm32f10x_libraries/CMSIS/CM3/CoreSupport/core_cm3.h **** extern uint32_t __LDREXW(uint32_t *addr);
1400:./stm32f10x_libraries/CMSIS/CM3/CoreSupport/core_cm3.h **** 
1401:./stm32f10x_libraries/CMSIS/CM3/CoreSupport/core_cm3.h **** /**
1402:./stm32f10x_libraries/CMSIS/CM3/CoreSupport/core_cm3.h ****  * @brief  STR Exclusive (8 bit)
1403:./stm32f10x_libraries/CMSIS/CM3/CoreSupport/core_cm3.h ****  *
1404:./stm32f10x_libraries/CMSIS/CM3/CoreSupport/core_cm3.h ****  * @param  value  value to store
1405:./stm32f10x_libraries/CMSIS/CM3/CoreSupport/core_cm3.h ****  * @param  *addr  address pointer
ARM GAS  C:\Users\user\AppData\Local\Temp\cc7qV6fF.s 			page 46


1406:./stm32f10x_libraries/CMSIS/CM3/CoreSupport/core_cm3.h ****  * @return        successful / failed
1407:./stm32f10x_libraries/CMSIS/CM3/CoreSupport/core_cm3.h ****  *
1408:./stm32f10x_libraries/CMSIS/CM3/CoreSupport/core_cm3.h ****  * Exclusive STR command for 8 bit values
1409:./stm32f10x_libraries/CMSIS/CM3/CoreSupport/core_cm3.h ****  */
1410:./stm32f10x_libraries/CMSIS/CM3/CoreSupport/core_cm3.h **** extern uint32_t __STREXB(uint8_t value, uint8_t *addr);
1411:./stm32f10x_libraries/CMSIS/CM3/CoreSupport/core_cm3.h **** 
1412:./stm32f10x_libraries/CMSIS/CM3/CoreSupport/core_cm3.h **** /**
1413:./stm32f10x_libraries/CMSIS/CM3/CoreSupport/core_cm3.h ****  * @brief  STR Exclusive (16 bit)
1414:./stm32f10x_libraries/CMSIS/CM3/CoreSupport/core_cm3.h ****  *
1415:./stm32f10x_libraries/CMSIS/CM3/CoreSupport/core_cm3.h ****  * @param  value  value to store
1416:./stm32f10x_libraries/CMSIS/CM3/CoreSupport/core_cm3.h ****  * @param  *addr  address pointer
1417:./stm32f10x_libraries/CMSIS/CM3/CoreSupport/core_cm3.h ****  * @return        successful / failed
1418:./stm32f10x_libraries/CMSIS/CM3/CoreSupport/core_cm3.h ****  *
1419:./stm32f10x_libraries/CMSIS/CM3/CoreSupport/core_cm3.h ****  * Exclusive STR command for 16 bit values
1420:./stm32f10x_libraries/CMSIS/CM3/CoreSupport/core_cm3.h ****  */
1421:./stm32f10x_libraries/CMSIS/CM3/CoreSupport/core_cm3.h **** extern uint32_t __STREXH(uint16_t value, uint16_t *addr);
1422:./stm32f10x_libraries/CMSIS/CM3/CoreSupport/core_cm3.h **** 
1423:./stm32f10x_libraries/CMSIS/CM3/CoreSupport/core_cm3.h **** /**
1424:./stm32f10x_libraries/CMSIS/CM3/CoreSupport/core_cm3.h ****  * @brief  STR Exclusive (32 bit)
1425:./stm32f10x_libraries/CMSIS/CM3/CoreSupport/core_cm3.h ****  *
1426:./stm32f10x_libraries/CMSIS/CM3/CoreSupport/core_cm3.h ****  * @param  value  value to store
1427:./stm32f10x_libraries/CMSIS/CM3/CoreSupport/core_cm3.h ****  * @param  *addr  address pointer
1428:./stm32f10x_libraries/CMSIS/CM3/CoreSupport/core_cm3.h ****  * @return        successful / failed
1429:./stm32f10x_libraries/CMSIS/CM3/CoreSupport/core_cm3.h ****  *
1430:./stm32f10x_libraries/CMSIS/CM3/CoreSupport/core_cm3.h ****  * Exclusive STR command for 32 bit values
1431:./stm32f10x_libraries/CMSIS/CM3/CoreSupport/core_cm3.h ****  */
1432:./stm32f10x_libraries/CMSIS/CM3/CoreSupport/core_cm3.h **** extern uint32_t __STREXW(uint32_t value, uint32_t *addr);
1433:./stm32f10x_libraries/CMSIS/CM3/CoreSupport/core_cm3.h **** 
1434:./stm32f10x_libraries/CMSIS/CM3/CoreSupport/core_cm3.h **** 
1435:./stm32f10x_libraries/CMSIS/CM3/CoreSupport/core_cm3.h **** #elif (defined (__TASKING__)) /*------------------ TASKING Compiler ---------------------*/
1436:./stm32f10x_libraries/CMSIS/CM3/CoreSupport/core_cm3.h **** /* TASKING carm specific functions */
1437:./stm32f10x_libraries/CMSIS/CM3/CoreSupport/core_cm3.h **** 
1438:./stm32f10x_libraries/CMSIS/CM3/CoreSupport/core_cm3.h **** /*
1439:./stm32f10x_libraries/CMSIS/CM3/CoreSupport/core_cm3.h ****  * The CMSIS functions have been implemented as intrinsics in the compiler.
1440:./stm32f10x_libraries/CMSIS/CM3/CoreSupport/core_cm3.h ****  * Please use "carm -?i" to get an up to date list of all instrinsics,
1441:./stm32f10x_libraries/CMSIS/CM3/CoreSupport/core_cm3.h ****  * Including the CMSIS ones.
1442:./stm32f10x_libraries/CMSIS/CM3/CoreSupport/core_cm3.h ****  */
1443:./stm32f10x_libraries/CMSIS/CM3/CoreSupport/core_cm3.h **** 
1444:./stm32f10x_libraries/CMSIS/CM3/CoreSupport/core_cm3.h **** #endif
1445:./stm32f10x_libraries/CMSIS/CM3/CoreSupport/core_cm3.h **** 
1446:./stm32f10x_libraries/CMSIS/CM3/CoreSupport/core_cm3.h **** 
1447:./stm32f10x_libraries/CMSIS/CM3/CoreSupport/core_cm3.h **** /** @addtogroup CMSIS_CM3_Core_FunctionInterface CMSIS CM3 Core Function Interface
1448:./stm32f10x_libraries/CMSIS/CM3/CoreSupport/core_cm3.h ****   Core  Function Interface containing:
1449:./stm32f10x_libraries/CMSIS/CM3/CoreSupport/core_cm3.h ****   - Core NVIC Functions
1450:./stm32f10x_libraries/CMSIS/CM3/CoreSupport/core_cm3.h ****   - Core SysTick Functions
1451:./stm32f10x_libraries/CMSIS/CM3/CoreSupport/core_cm3.h ****   - Core Reset Functions
1452:./stm32f10x_libraries/CMSIS/CM3/CoreSupport/core_cm3.h **** */
1453:./stm32f10x_libraries/CMSIS/CM3/CoreSupport/core_cm3.h **** /*@{*/
1454:./stm32f10x_libraries/CMSIS/CM3/CoreSupport/core_cm3.h **** 
1455:./stm32f10x_libraries/CMSIS/CM3/CoreSupport/core_cm3.h **** /* ##########################   NVIC functions  #################################### */
1456:./stm32f10x_libraries/CMSIS/CM3/CoreSupport/core_cm3.h **** 
1457:./stm32f10x_libraries/CMSIS/CM3/CoreSupport/core_cm3.h **** /**
1458:./stm32f10x_libraries/CMSIS/CM3/CoreSupport/core_cm3.h ****  * @brief  Set the Priority Grouping in NVIC Interrupt Controller
1459:./stm32f10x_libraries/CMSIS/CM3/CoreSupport/core_cm3.h ****  *
1460:./stm32f10x_libraries/CMSIS/CM3/CoreSupport/core_cm3.h ****  * @param  PriorityGroup is priority grouping field
1461:./stm32f10x_libraries/CMSIS/CM3/CoreSupport/core_cm3.h ****  *
1462:./stm32f10x_libraries/CMSIS/CM3/CoreSupport/core_cm3.h ****  * Set the priority grouping field using the required unlock sequence.
ARM GAS  C:\Users\user\AppData\Local\Temp\cc7qV6fF.s 			page 47


1463:./stm32f10x_libraries/CMSIS/CM3/CoreSupport/core_cm3.h ****  * The parameter priority_grouping is assigned to the field 
1464:./stm32f10x_libraries/CMSIS/CM3/CoreSupport/core_cm3.h ****  * SCB->AIRCR [10:8] PRIGROUP field. Only values from 0..7 are used.
1465:./stm32f10x_libraries/CMSIS/CM3/CoreSupport/core_cm3.h ****  * In case of a conflict between priority grouping and available
1466:./stm32f10x_libraries/CMSIS/CM3/CoreSupport/core_cm3.h ****  * priority bits (__NVIC_PRIO_BITS) the smallest possible priority group is set.
1467:./stm32f10x_libraries/CMSIS/CM3/CoreSupport/core_cm3.h ****  */
1468:./stm32f10x_libraries/CMSIS/CM3/CoreSupport/core_cm3.h **** static __INLINE void NVIC_SetPriorityGrouping(uint32_t PriorityGroup)
1469:./stm32f10x_libraries/CMSIS/CM3/CoreSupport/core_cm3.h **** {
1470:./stm32f10x_libraries/CMSIS/CM3/CoreSupport/core_cm3.h ****   uint32_t reg_value;
1471:./stm32f10x_libraries/CMSIS/CM3/CoreSupport/core_cm3.h ****   uint32_t PriorityGroupTmp = (PriorityGroup & 0x07);                         /* only values 0..7 a
1472:./stm32f10x_libraries/CMSIS/CM3/CoreSupport/core_cm3.h ****   
1473:./stm32f10x_libraries/CMSIS/CM3/CoreSupport/core_cm3.h ****   reg_value  =  SCB->AIRCR;                                                   /* read old register 
1474:./stm32f10x_libraries/CMSIS/CM3/CoreSupport/core_cm3.h ****   reg_value &= ~(SCB_AIRCR_VECTKEY_Msk | SCB_AIRCR_PRIGROUP_Msk);             /* clear bits to chan
1475:./stm32f10x_libraries/CMSIS/CM3/CoreSupport/core_cm3.h ****   reg_value  =  (reg_value                       |
1476:./stm32f10x_libraries/CMSIS/CM3/CoreSupport/core_cm3.h ****                 (0x5FA << SCB_AIRCR_VECTKEY_Pos) | 
1477:./stm32f10x_libraries/CMSIS/CM3/CoreSupport/core_cm3.h ****                 (PriorityGroupTmp << 8));                                     /* Insert write key a
1478:./stm32f10x_libraries/CMSIS/CM3/CoreSupport/core_cm3.h ****   SCB->AIRCR =  reg_value;
1479:./stm32f10x_libraries/CMSIS/CM3/CoreSupport/core_cm3.h **** }
1480:./stm32f10x_libraries/CMSIS/CM3/CoreSupport/core_cm3.h **** 
1481:./stm32f10x_libraries/CMSIS/CM3/CoreSupport/core_cm3.h **** /**
1482:./stm32f10x_libraries/CMSIS/CM3/CoreSupport/core_cm3.h ****  * @brief  Get the Priority Grouping from NVIC Interrupt Controller
1483:./stm32f10x_libraries/CMSIS/CM3/CoreSupport/core_cm3.h ****  *
1484:./stm32f10x_libraries/CMSIS/CM3/CoreSupport/core_cm3.h ****  * @return priority grouping field 
1485:./stm32f10x_libraries/CMSIS/CM3/CoreSupport/core_cm3.h ****  *
1486:./stm32f10x_libraries/CMSIS/CM3/CoreSupport/core_cm3.h ****  * Get the priority grouping from NVIC Interrupt Controller.
1487:./stm32f10x_libraries/CMSIS/CM3/CoreSupport/core_cm3.h ****  * priority grouping is SCB->AIRCR [10:8] PRIGROUP field.
1488:./stm32f10x_libraries/CMSIS/CM3/CoreSupport/core_cm3.h ****  */
1489:./stm32f10x_libraries/CMSIS/CM3/CoreSupport/core_cm3.h **** static __INLINE uint32_t NVIC_GetPriorityGrouping(void)
1490:./stm32f10x_libraries/CMSIS/CM3/CoreSupport/core_cm3.h **** {
1491:./stm32f10x_libraries/CMSIS/CM3/CoreSupport/core_cm3.h ****   return ((SCB->AIRCR & SCB_AIRCR_PRIGROUP_Msk) >> SCB_AIRCR_PRIGROUP_Pos);   /* read priority grou
1492:./stm32f10x_libraries/CMSIS/CM3/CoreSupport/core_cm3.h **** }
1493:./stm32f10x_libraries/CMSIS/CM3/CoreSupport/core_cm3.h **** 
1494:./stm32f10x_libraries/CMSIS/CM3/CoreSupport/core_cm3.h **** /**
1495:./stm32f10x_libraries/CMSIS/CM3/CoreSupport/core_cm3.h ****  * @brief  Enable Interrupt in NVIC Interrupt Controller
1496:./stm32f10x_libraries/CMSIS/CM3/CoreSupport/core_cm3.h ****  *
1497:./stm32f10x_libraries/CMSIS/CM3/CoreSupport/core_cm3.h ****  * @param  IRQn   The positive number of the external interrupt to enable
1498:./stm32f10x_libraries/CMSIS/CM3/CoreSupport/core_cm3.h ****  *
1499:./stm32f10x_libraries/CMSIS/CM3/CoreSupport/core_cm3.h ****  * Enable a device specific interupt in the NVIC interrupt controller.
1500:./stm32f10x_libraries/CMSIS/CM3/CoreSupport/core_cm3.h ****  * The interrupt number cannot be a negative value.
1501:./stm32f10x_libraries/CMSIS/CM3/CoreSupport/core_cm3.h ****  */
1502:./stm32f10x_libraries/CMSIS/CM3/CoreSupport/core_cm3.h **** static __INLINE void NVIC_EnableIRQ(IRQn_Type IRQn)
 805              		.loc 2 1502 22 view .LVU164
 806              	.LBB13:
1503:./stm32f10x_libraries/CMSIS/CM3/CoreSupport/core_cm3.h **** {
1504:./stm32f10x_libraries/CMSIS/CM3/CoreSupport/core_cm3.h ****   NVIC->ISER[((uint32_t)(IRQn) >> 5)] = (1 << ((uint32_t)(IRQn) & 0x1F)); /* enable interrupt */
 807              		.loc 2 1504 3 view .LVU165
 808              	@ ./stm32f10x_libraries/CMSIS/CM3/CoreSupport/core_cm3.h:1504:   NVIC->ISER[((uint32_t)(IRQn) >> 5)
 809              		.loc 2 1504 44 is_stmt 0 view .LVU166
 810 0224 0121     		movs	r1, #1	@ tmp143,
 811              	@ ./stm32f10x_libraries/CMSIS/CM3/CoreSupport/core_cm3.h:1504:   NVIC->ISER[((uint32_t)(IRQn) >> 5)
 812              		.loc 2 1504 65 view .LVU167
 813 0226 00F01F03 		and	r3, r0, #31	@ tmp142, tmp140,
 814              	@ ./stm32f10x_libraries/CMSIS/CM3/CoreSupport/core_cm3.h:1504:   NVIC->ISER[((uint32_t)(IRQn) >> 5)
 815              		.loc 2 1504 44 view .LVU168
 816 022a 9940     		lsls	r1, r1, r3	@ _48, tmp143, tmp142
 817              	@ ./stm32f10x_libraries/CMSIS/CM3/CoreSupport/core_cm3.h:1504:   NVIC->ISER[((uint32_t)(IRQn) >> 5)
 818              		.loc 2 1504 39 view .LVU169
 819 022c 164B     		ldr	r3, .L65	@ tmp144,
ARM GAS  C:\Users\user\AppData\Local\Temp\cc7qV6fF.s 			page 48


 820              	.LBE13:
 821              	.LBE12:
 822              	.LBB15:
 823              	.LBB16:
 824              	@ ./stm32f10x_libraries/CMSIS/CM3/CoreSupport/core_cm3.h:1588:   if(IRQn < 0) {
1505:./stm32f10x_libraries/CMSIS/CM3/CoreSupport/core_cm3.h **** }
1506:./stm32f10x_libraries/CMSIS/CM3/CoreSupport/core_cm3.h **** 
1507:./stm32f10x_libraries/CMSIS/CM3/CoreSupport/core_cm3.h **** /**
1508:./stm32f10x_libraries/CMSIS/CM3/CoreSupport/core_cm3.h ****  * @brief  Disable the interrupt line for external interrupt specified
1509:./stm32f10x_libraries/CMSIS/CM3/CoreSupport/core_cm3.h ****  * 
1510:./stm32f10x_libraries/CMSIS/CM3/CoreSupport/core_cm3.h ****  * @param  IRQn   The positive number of the external interrupt to disable
1511:./stm32f10x_libraries/CMSIS/CM3/CoreSupport/core_cm3.h ****  * 
1512:./stm32f10x_libraries/CMSIS/CM3/CoreSupport/core_cm3.h ****  * Disable a device specific interupt in the NVIC interrupt controller.
1513:./stm32f10x_libraries/CMSIS/CM3/CoreSupport/core_cm3.h ****  * The interrupt number cannot be a negative value.
1514:./stm32f10x_libraries/CMSIS/CM3/CoreSupport/core_cm3.h ****  */
1515:./stm32f10x_libraries/CMSIS/CM3/CoreSupport/core_cm3.h **** static __INLINE void NVIC_DisableIRQ(IRQn_Type IRQn)
1516:./stm32f10x_libraries/CMSIS/CM3/CoreSupport/core_cm3.h **** {
1517:./stm32f10x_libraries/CMSIS/CM3/CoreSupport/core_cm3.h ****   NVIC->ICER[((uint32_t)(IRQn) >> 5)] = (1 << ((uint32_t)(IRQn) & 0x1F)); /* disable interrupt */
1518:./stm32f10x_libraries/CMSIS/CM3/CoreSupport/core_cm3.h **** }
1519:./stm32f10x_libraries/CMSIS/CM3/CoreSupport/core_cm3.h **** 
1520:./stm32f10x_libraries/CMSIS/CM3/CoreSupport/core_cm3.h **** /**
1521:./stm32f10x_libraries/CMSIS/CM3/CoreSupport/core_cm3.h ****  * @brief  Read the interrupt pending bit for a device specific interrupt source
1522:./stm32f10x_libraries/CMSIS/CM3/CoreSupport/core_cm3.h ****  * 
1523:./stm32f10x_libraries/CMSIS/CM3/CoreSupport/core_cm3.h ****  * @param  IRQn    The number of the device specifc interrupt
1524:./stm32f10x_libraries/CMSIS/CM3/CoreSupport/core_cm3.h ****  * @return         1 = interrupt pending, 0 = interrupt not pending
1525:./stm32f10x_libraries/CMSIS/CM3/CoreSupport/core_cm3.h ****  *
1526:./stm32f10x_libraries/CMSIS/CM3/CoreSupport/core_cm3.h ****  * Read the pending register in NVIC and return 1 if its status is pending, 
1527:./stm32f10x_libraries/CMSIS/CM3/CoreSupport/core_cm3.h ****  * otherwise it returns 0
1528:./stm32f10x_libraries/CMSIS/CM3/CoreSupport/core_cm3.h ****  */
1529:./stm32f10x_libraries/CMSIS/CM3/CoreSupport/core_cm3.h **** static __INLINE uint32_t NVIC_GetPendingIRQ(IRQn_Type IRQn)
1530:./stm32f10x_libraries/CMSIS/CM3/CoreSupport/core_cm3.h **** {
1531:./stm32f10x_libraries/CMSIS/CM3/CoreSupport/core_cm3.h ****   return((uint32_t) ((NVIC->ISPR[(uint32_t)(IRQn) >> 5] & (1 << ((uint32_t)(IRQn) & 0x1F)))?1:0)); 
1532:./stm32f10x_libraries/CMSIS/CM3/CoreSupport/core_cm3.h **** }
1533:./stm32f10x_libraries/CMSIS/CM3/CoreSupport/core_cm3.h **** 
1534:./stm32f10x_libraries/CMSIS/CM3/CoreSupport/core_cm3.h **** /**
1535:./stm32f10x_libraries/CMSIS/CM3/CoreSupport/core_cm3.h ****  * @brief  Set the pending bit for an external interrupt
1536:./stm32f10x_libraries/CMSIS/CM3/CoreSupport/core_cm3.h ****  * 
1537:./stm32f10x_libraries/CMSIS/CM3/CoreSupport/core_cm3.h ****  * @param  IRQn    The number of the interrupt for set pending
1538:./stm32f10x_libraries/CMSIS/CM3/CoreSupport/core_cm3.h ****  *
1539:./stm32f10x_libraries/CMSIS/CM3/CoreSupport/core_cm3.h ****  * Set the pending bit for the specified interrupt.
1540:./stm32f10x_libraries/CMSIS/CM3/CoreSupport/core_cm3.h ****  * The interrupt number cannot be a negative value.
1541:./stm32f10x_libraries/CMSIS/CM3/CoreSupport/core_cm3.h ****  */
1542:./stm32f10x_libraries/CMSIS/CM3/CoreSupport/core_cm3.h **** static __INLINE void NVIC_SetPendingIRQ(IRQn_Type IRQn)
1543:./stm32f10x_libraries/CMSIS/CM3/CoreSupport/core_cm3.h **** {
1544:./stm32f10x_libraries/CMSIS/CM3/CoreSupport/core_cm3.h ****   NVIC->ISPR[((uint32_t)(IRQn) >> 5)] = (1 << ((uint32_t)(IRQn) & 0x1F)); /* set interrupt pending 
1545:./stm32f10x_libraries/CMSIS/CM3/CoreSupport/core_cm3.h **** }
1546:./stm32f10x_libraries/CMSIS/CM3/CoreSupport/core_cm3.h **** 
1547:./stm32f10x_libraries/CMSIS/CM3/CoreSupport/core_cm3.h **** /**
1548:./stm32f10x_libraries/CMSIS/CM3/CoreSupport/core_cm3.h ****  * @brief  Clear the pending bit for an external interrupt
1549:./stm32f10x_libraries/CMSIS/CM3/CoreSupport/core_cm3.h ****  *
1550:./stm32f10x_libraries/CMSIS/CM3/CoreSupport/core_cm3.h ****  * @param  IRQn    The number of the interrupt for clear pending
1551:./stm32f10x_libraries/CMSIS/CM3/CoreSupport/core_cm3.h ****  *
1552:./stm32f10x_libraries/CMSIS/CM3/CoreSupport/core_cm3.h ****  * Clear the pending bit for the specified interrupt. 
1553:./stm32f10x_libraries/CMSIS/CM3/CoreSupport/core_cm3.h ****  * The interrupt number cannot be a negative value.
1554:./stm32f10x_libraries/CMSIS/CM3/CoreSupport/core_cm3.h ****  */
1555:./stm32f10x_libraries/CMSIS/CM3/CoreSupport/core_cm3.h **** static __INLINE void NVIC_ClearPendingIRQ(IRQn_Type IRQn)
1556:./stm32f10x_libraries/CMSIS/CM3/CoreSupport/core_cm3.h **** {
ARM GAS  C:\Users\user\AppData\Local\Temp\cc7qV6fF.s 			page 49


1557:./stm32f10x_libraries/CMSIS/CM3/CoreSupport/core_cm3.h ****   NVIC->ICPR[((uint32_t)(IRQn) >> 5)] = (1 << ((uint32_t)(IRQn) & 0x1F)); /* Clear pending interrup
1558:./stm32f10x_libraries/CMSIS/CM3/CoreSupport/core_cm3.h **** }
1559:./stm32f10x_libraries/CMSIS/CM3/CoreSupport/core_cm3.h **** 
1560:./stm32f10x_libraries/CMSIS/CM3/CoreSupport/core_cm3.h **** /**
1561:./stm32f10x_libraries/CMSIS/CM3/CoreSupport/core_cm3.h ****  * @brief  Read the active bit for an external interrupt
1562:./stm32f10x_libraries/CMSIS/CM3/CoreSupport/core_cm3.h ****  *
1563:./stm32f10x_libraries/CMSIS/CM3/CoreSupport/core_cm3.h ****  * @param  IRQn    The number of the interrupt for read active bit
1564:./stm32f10x_libraries/CMSIS/CM3/CoreSupport/core_cm3.h ****  * @return         1 = interrupt active, 0 = interrupt not active
1565:./stm32f10x_libraries/CMSIS/CM3/CoreSupport/core_cm3.h ****  *
1566:./stm32f10x_libraries/CMSIS/CM3/CoreSupport/core_cm3.h ****  * Read the active register in NVIC and returns 1 if its status is active, 
1567:./stm32f10x_libraries/CMSIS/CM3/CoreSupport/core_cm3.h ****  * otherwise it returns 0.
1568:./stm32f10x_libraries/CMSIS/CM3/CoreSupport/core_cm3.h ****  */
1569:./stm32f10x_libraries/CMSIS/CM3/CoreSupport/core_cm3.h **** static __INLINE uint32_t NVIC_GetActive(IRQn_Type IRQn)
1570:./stm32f10x_libraries/CMSIS/CM3/CoreSupport/core_cm3.h **** {
1571:./stm32f10x_libraries/CMSIS/CM3/CoreSupport/core_cm3.h ****   return((uint32_t)((NVIC->IABR[(uint32_t)(IRQn) >> 5] & (1 << ((uint32_t)(IRQn) & 0x1F)))?1:0)); /
1572:./stm32f10x_libraries/CMSIS/CM3/CoreSupport/core_cm3.h **** }
1573:./stm32f10x_libraries/CMSIS/CM3/CoreSupport/core_cm3.h **** 
1574:./stm32f10x_libraries/CMSIS/CM3/CoreSupport/core_cm3.h **** /**
1575:./stm32f10x_libraries/CMSIS/CM3/CoreSupport/core_cm3.h ****  * @brief  Set the priority for an interrupt
1576:./stm32f10x_libraries/CMSIS/CM3/CoreSupport/core_cm3.h ****  *
1577:./stm32f10x_libraries/CMSIS/CM3/CoreSupport/core_cm3.h ****  * @param  IRQn      The number of the interrupt for set priority
1578:./stm32f10x_libraries/CMSIS/CM3/CoreSupport/core_cm3.h ****  * @param  priority  The priority to set
1579:./stm32f10x_libraries/CMSIS/CM3/CoreSupport/core_cm3.h ****  *
1580:./stm32f10x_libraries/CMSIS/CM3/CoreSupport/core_cm3.h ****  * Set the priority for the specified interrupt. The interrupt 
1581:./stm32f10x_libraries/CMSIS/CM3/CoreSupport/core_cm3.h ****  * number can be positive to specify an external (device specific) 
1582:./stm32f10x_libraries/CMSIS/CM3/CoreSupport/core_cm3.h ****  * interrupt, or negative to specify an internal (core) interrupt.
1583:./stm32f10x_libraries/CMSIS/CM3/CoreSupport/core_cm3.h ****  *
1584:./stm32f10x_libraries/CMSIS/CM3/CoreSupport/core_cm3.h ****  * Note: The priority cannot be set for every core interrupt.
1585:./stm32f10x_libraries/CMSIS/CM3/CoreSupport/core_cm3.h ****  */
1586:./stm32f10x_libraries/CMSIS/CM3/CoreSupport/core_cm3.h **** static __INLINE void NVIC_SetPriority(IRQn_Type IRQn, uint32_t priority)
1587:./stm32f10x_libraries/CMSIS/CM3/CoreSupport/core_cm3.h **** {
1588:./stm32f10x_libraries/CMSIS/CM3/CoreSupport/core_cm3.h ****   if(IRQn < 0) {
 825              		.loc 2 1588 5 view .LVU170
 826 022e 0028     		cmp	r0, #0	@ tmp140,
 827              	.LBE16:
 828              	.LBE15:
 829              	.LBB18:
 830              	.LBB14:
 831              	@ ./stm32f10x_libraries/CMSIS/CM3/CoreSupport/core_cm3.h:1504:   NVIC->ISER[((uint32_t)(IRQn) >> 5)
1504:./stm32f10x_libraries/CMSIS/CM3/CoreSupport/core_cm3.h **** }
 832              		.loc 2 1504 65 view .LVU171
 833 0230 C2B2     		uxtb	r2, r0	@ IRQn.0_42, tmp140
 834              	@ ./stm32f10x_libraries/CMSIS/CM3/CoreSupport/core_cm3.h:1504:   NVIC->ISER[((uint32_t)(IRQn) >> 5)
1504:./stm32f10x_libraries/CMSIS/CM3/CoreSupport/core_cm3.h **** }
 835              		.loc 2 1504 32 view .LVU172
 836 0232 4FEA501C 		lsr	ip, r0, #5	@ _47, tmp140,
 837              	@ ./stm32f10x_libraries/CMSIS/CM3/CoreSupport/core_cm3.h:1504:   NVIC->ISER[((uint32_t)(IRQn) >> 5)
1504:./stm32f10x_libraries/CMSIS/CM3/CoreSupport/core_cm3.h **** }
 838              		.loc 2 1504 39 view .LVU173
 839 0236 43F82C10 		str	r1, [r3, ip, lsl #2]	@ _48, MEM[(struct NVIC_Type *)3758153984B].ISER[_47]
 840              	.LVL80:
1504:./stm32f10x_libraries/CMSIS/CM3/CoreSupport/core_cm3.h **** }
 841              		.loc 2 1504 39 view .LVU174
 842              	.LBE14:
 843              	.LBE18:
 286:user/driver/usart/usart.c **** 	NVIC_SetPriority(GetIRQnFromId(id), INTERRUPT_PRIORITY_USART);
 844              		.loc 1 286 2 is_stmt 1 view .LVU175
ARM GAS  C:\Users\user\AppData\Local\Temp\cc7qV6fF.s 			page 50


 845              	.LBB19:
 846              	.LBI15:
1586:./stm32f10x_libraries/CMSIS/CM3/CoreSupport/core_cm3.h **** {
 847              		.loc 2 1586 22 view .LVU176
 848              	.LBB17:
 849              		.loc 2 1588 3 view .LVU177
1589:./stm32f10x_libraries/CMSIS/CM3/CoreSupport/core_cm3.h ****     SCB->SHP[((uint32_t)(IRQn) & 0xF)-4] = ((priority << (8 - __NVIC_PRIO_BITS)) & 0xff); } /* set 
 850              		.loc 2 1589 5 view .LVU178
 851              	@ ./stm32f10x_libraries/CMSIS/CM3/CoreSupport/core_cm3.h:1589:     SCB->SHP[((uint32_t)(IRQn) & 0xF
 852              		.loc 2 1589 32 is_stmt 0 view .LVU179
 853 023a BDBF     		ittte	lt
 854 023c 02F00F02 		andlt	r2, r2, #15	@ tmp148, IRQn.0_42,
 855              	@ ./stm32f10x_libraries/CMSIS/CM3/CoreSupport/core_cm3.h:1589:     SCB->SHP[((uint32_t)(IRQn) & 0xF
 856              		.loc 2 1589 42 view .LVU180
 857 0240 03F6FC33 		addwlt	r3, r3, #3068	@ tmp150, tmp150,
 858 0244 9B18     		addlt	r3, r3, r2	@ tmp150, tmp148
 859              	@ ./stm32f10x_libraries/CMSIS/CM3/CoreSupport/core_cm3.h:1591:     NVIC->IP[(uint32_t)(IRQn)] = ((p
1590:./stm32f10x_libraries/CMSIS/CM3/CoreSupport/core_cm3.h ****   else {
1591:./stm32f10x_libraries/CMSIS/CM3/CoreSupport/core_cm3.h ****     NVIC->IP[(uint32_t)(IRQn)] = ((priority << (8 - __NVIC_PRIO_BITS)) & 0xff);    }        /* set 
 860              		.loc 2 1591 32 view .LVU181
 861 0246 C018     		addge	r0, r0, r3	@ tmp154, tmp144
 862              	.LVL81:
 863              	@ ./stm32f10x_libraries/CMSIS/CM3/CoreSupport/core_cm3.h:1589:     SCB->SHP[((uint32_t)(IRQn) & 0xF
1589:./stm32f10x_libraries/CMSIS/CM3/CoreSupport/core_cm3.h ****     SCB->SHP[((uint32_t)(IRQn) & 0xF)-4] = ((priority << (8 - __NVIC_PRIO_BITS)) & 0xff); } /* set 
 864              		.loc 2 1589 42 view .LVU182
 865 0248 B5BF     		itete	lt
 866 024a 6022     		movlt	r2, #96	@ tmp151,
 867              	@ ./stm32f10x_libraries/CMSIS/CM3/CoreSupport/core_cm3.h:1591:     NVIC->IP[(uint32_t)(IRQn)] = ((p
 868              		.loc 2 1591 32 view .LVU183
 869 024c 6023     		movge	r3, #96	@ tmp155,
 870              	@ ./stm32f10x_libraries/CMSIS/CM3/CoreSupport/core_cm3.h:1589:     SCB->SHP[((uint32_t)(IRQn) & 0xF
1589:./stm32f10x_libraries/CMSIS/CM3/CoreSupport/core_cm3.h ****     SCB->SHP[((uint32_t)(IRQn) & 0xF)-4] = ((priority << (8 - __NVIC_PRIO_BITS)) & 0xff); } /* set 
 871              		.loc 2 1589 42 view .LVU184
 872 024e 1A76     		strblt	r2, [r3, #24]	@ tmp151, MEM[(struct SCB_Type *)3758157056B].SHP[_37]
 873              		.loc 2 1591 5 is_stmt 1 view .LVU185
 874              	@ ./stm32f10x_libraries/CMSIS/CM3/CoreSupport/core_cm3.h:1591:     NVIC->IP[(uint32_t)(IRQn)] = ((p
 875              		.loc 2 1591 32 is_stmt 0 view .LVU186
 876 0250 80F80033 		strbge	r3, [r0, #768]	@ tmp155, MEM[(struct NVIC_Type *)3758153984B].IP[_46]
 877              	.LVL82:
 878              		.loc 2 1591 32 view .LVU187
 879              	.LBE17:
 880              	.LBE19:
 287:user/driver/usart/usart.c **** 	USART_Cmd(DecodeUsartId(id), ENABLE);
 881              		.loc 1 287 2 is_stmt 1 view .LVU188
 882 0254 0121     		movs	r1, #1	@,
 883 0256 2046     		mov	r0, r4	@, _2
 884 0258 FFF7FEFF 		bl	USART_Cmd		@
 885              	.LVL83:
 288:user/driver/usart/usart.c **** 
 289:user/driver/usart/usart.c **** 	// Hardware UART initialisation finished.
 290:user/driver/usart/usart.c **** 	// Now FIFO initialisation done here.
 291:user/driver/usart/usart.c **** 	UsartType *usart = &usart_handle_list[id];
 886              		.loc 1 291 2 view .LVU189
 887              	@ user/driver/usart/usart.c:295: 		usart->rx_fifo = xQueueCreate(rx_buffer_limit, sizeof(uint8_t));
 292:user/driver/usart/usart.c **** 
 293:user/driver/usart/usart.c **** 	if (usart != NULL)
 294:user/driver/usart/usart.c **** 	{
ARM GAS  C:\Users\user\AppData\Local\Temp\cc7qV6fF.s 			page 51


 295:user/driver/usart/usart.c **** 		usart->rx_fifo = xQueueCreate(rx_buffer_limit, sizeof(uint8_t));
 888              		.loc 1 295 20 is_stmt 0 view .LVU190
 889 025c 0022     		movs	r2, #0	@,
 890 025e 0121     		movs	r1, #1	@,
 891 0260 3846     		mov	r0, r7	@, rx_buffer_limit
 892 0262 FFF7FEFF 		bl	xQueueGenericCreate		@
 893              	.LVL84:
 894              	@ user/driver/usart/usart.c:300: 		usart->is_initialised = 1;
 296:user/driver/usart/usart.c **** 		usart->baud = baud;
 297:user/driver/usart/usart.c **** 		usart->port_id = id;
 298:user/driver/usart/usart.c **** 		// Initialise receiver buffer.
 299:user/driver/usart/usart.c **** 
 300:user/driver/usart/usart.c **** 		usart->is_initialised = 1;
 895              		.loc 1 300 25 view .LVU191
 896 0266 0123     		movs	r3, #1	@ tmp175,
 897              	@ user/driver/usart/usart.c:291: 	UsartType *usart = &usart_handle_list[id];
 291:user/driver/usart/usart.c **** 
 898              		.loc 1 291 13 view .LVU192
 899 0268 DFF82080 		ldr	r8, .L65+4	@ tmp157,
 900 026c 4FEA0519 		lsl	r9, r5, #4	@ tmp158, id,
 901 0270 08EB0514 		add	r4, r8, r5, lsl #4	@ <retval>, tmp157, id,
 902              	.LVL85:
 293:user/driver/usart/usart.c **** 	{
 903              		.loc 1 293 2 is_stmt 1 view .LVU193
 295:user/driver/usart/usart.c **** 		usart->baud = baud;
 904              		.loc 1 295 3 view .LVU194
 905              	@ user/driver/usart/usart.c:296: 		usart->baud = baud;
 296:user/driver/usart/usart.c **** 		usart->port_id = id;
 906              		.loc 1 296 15 is_stmt 0 view .LVU195
 907 0274 C4E90160 		strd	r6, r0, [r4, #4]	@ baud, tmp183, <retval>,
 297:user/driver/usart/usart.c **** 		// Initialise receiver buffer.
 908              		.loc 1 297 3 is_stmt 1 view .LVU196
 909              	@ user/driver/usart/usart.c:297: 		usart->port_id = id;
 297:user/driver/usart/usart.c **** 		// Initialise receiver buffer.
 910              		.loc 1 297 18 is_stmt 0 view .LVU197
 911 0278 08F80950 		strb	r5, [r8, r9]	@ id, MEM <struct UsartType[7]> [(struct UsartType *)&usart_handle_list][_4].por
 912              		.loc 1 300 3 is_stmt 1 view .LVU198
 913              	@ user/driver/usart/usart.c:300: 		usart->is_initialised = 1;
 914              		.loc 1 300 25 is_stmt 0 view .LVU199
 915 027c E360     		str	r3, [r4, #12]	@ tmp175, MEM <struct UsartType[7]> [(struct UsartType *)&usart_handle_list][_4]
 301:user/driver/usart/usart.c **** 	}
 302:user/driver/usart/usart.c **** 	else
 303:user/driver/usart/usart.c **** 	{
 304:user/driver/usart/usart.c **** 		return NULL;
 305:user/driver/usart/usart.c **** 	}
 306:user/driver/usart/usart.c **** 	return usart;
 916              		.loc 1 306 2 is_stmt 1 view .LVU200
 917              	.LVL86:
 918              	.L60:
 919              	@ user/driver/usart/usart.c:307: }
 307:user/driver/usart/usart.c **** }
 920              		.loc 1 307 1 is_stmt 0 view .LVU201
 921 027e 2046     		mov	r0, r4	@, <retval>
 922 0280 05B0     		add	sp, sp, #20	@,,
 923              	.LCFI5:
 924              		.cfi_def_cfa_offset 28
 925              		@ sp needed	@
ARM GAS  C:\Users\user\AppData\Local\Temp\cc7qV6fF.s 			page 52


 926 0282 BDE8F083 		pop	{r4, r5, r6, r7, r8, r9, pc}	@
 927              	.LVL87:
 928              	.L66:
 929              		.loc 1 307 1 view .LVU202
 930 0286 00BF     		.align	2
 931              	.L65:
 932 0288 00E100E0 		.word	-536813312
 933 028c 00000000 		.word	.LANCHOR1
 934              		.cfi_endproc
 935              	.LFE40:
 936              		.size	InitUsart, .-InitUsart
 937              		.align	1
 938              		.global	UsartSendByte
 939              		.syntax unified
 940              		.thumb
 941              		.thumb_func
 942              		.fpu softvfp
 943              		.type	UsartSendByte, %function
 944              	UsartSendByte:
 945              	.LVL88:
 946              	.LFB41:
 308:user/driver/usart/usart.c **** 
 309:user/driver/usart/usart.c **** void UsartSendByte(UsartHandle handle, uint8_t data)
 310:user/driver/usart/usart.c **** {
 947              		.loc 1 310 1 is_stmt 1 view -0
 948              		.cfi_startproc
 949              		@ args = 0, pretend = 0, frame = 0
 950              		@ frame_needed = 0, uses_anonymous_args = 0
 311:user/driver/usart/usart.c **** 	assert_param(handle);
 951              		.loc 1 311 2 view .LVU204
 312:user/driver/usart/usart.c **** 	UsartType *usart = (UsartType *)handle;
 952              		.loc 1 312 2 view .LVU205
 313:user/driver/usart/usart.c **** 	// Load transmit buffer with the value.
 314:user/driver/usart/usart.c **** 	//while(PushByte(usart->tx_buffer, data) != FIFOOK);
 315:user/driver/usart/usart.c **** 	//xQueueSend(usart->tx_buffer,&data, 100);
 316:user/driver/usart/usart.c **** 	USART_SendData(DecodeUsartId(usart->port_id), data);
 953              		.loc 1 316 2 view .LVU206
 954              	@ user/driver/usart/usart.c:310: {
 310:user/driver/usart/usart.c **** 	assert_param(handle);
 955              		.loc 1 310 1 is_stmt 0 view .LVU207
 956 0290 10B5     		push	{r4, lr}	@
 957              	.LCFI6:
 958              		.cfi_def_cfa_offset 8
 959              		.cfi_offset 4, -8
 960              		.cfi_offset 14, -4
 961              	@ user/driver/usart/usart.c:310: {
 310:user/driver/usart/usart.c **** 	assert_param(handle);
 962              		.loc 1 310 1 view .LVU208
 963 0292 0446     		mov	r4, r0	@ handle, tmp126
 964              	@ user/driver/usart/usart.c:316: 	USART_SendData(DecodeUsartId(usart->port_id), data);
 965              		.loc 1 316 2 view .LVU209
 966 0294 0078     		ldrb	r0, [r0]	@ zero_extendqisi2	@, MEM[(struct UsartType *)handle_8(D)].port_id
 967              	.LVL89:
 968              		.loc 1 316 2 view .LVU210
 969 0296 FFF7FEFF 		bl	DecodeUsartId		@
 970              	.LVL90:
 971 029a FFF7FEFF 		bl	USART_SendData		@
ARM GAS  C:\Users\user\AppData\Local\Temp\cc7qV6fF.s 			page 53


 972              	.LVL91:
 317:user/driver/usart/usart.c **** 	while (USART_GetFlagStatus(DecodeUsartId(usart->port_id), USART_FLAG_TXE) == 0)
 973              		.loc 1 317 2 is_stmt 1 view .LVU211
 974              	.L68:
 318:user/driver/usart/usart.c **** 		;
 975              		.loc 1 318 3 discriminator 1 view .LVU212
 317:user/driver/usart/usart.c **** 	while (USART_GetFlagStatus(DecodeUsartId(usart->port_id), USART_FLAG_TXE) == 0)
 976              		.loc 1 317 8 discriminator 1 view .LVU213
 977              	@ user/driver/usart/usart.c:317: 	while (USART_GetFlagStatus(DecodeUsartId(usart->port_id), USART_F
 317:user/driver/usart/usart.c **** 	while (USART_GetFlagStatus(DecodeUsartId(usart->port_id), USART_FLAG_TXE) == 0)
 978              		.loc 1 317 9 is_stmt 0 discriminator 1 view .LVU214
 979 029e 2078     		ldrb	r0, [r4]	@ zero_extendqisi2	@, MEM[(struct UsartType *)handle_8(D)].port_id
 980 02a0 FFF7FEFF 		bl	DecodeUsartId		@
 981              	.LVL92:
 982 02a4 8021     		movs	r1, #128	@,
 983 02a6 FFF7FEFF 		bl	USART_GetFlagStatus		@
 984              	.LVL93:
 985              	@ user/driver/usart/usart.c:317: 	while (USART_GetFlagStatus(DecodeUsartId(usart->port_id), USART_F
 317:user/driver/usart/usart.c **** 	while (USART_GetFlagStatus(DecodeUsartId(usart->port_id), USART_FLAG_TXE) == 0)
 986              		.loc 1 317 8 discriminator 1 view .LVU215
 987 02aa 0028     		cmp	r0, #0	@ tmp128
 988 02ac F7D0     		beq	.L68	@
 989              	@ user/driver/usart/usart.c:321: }
 319:user/driver/usart/usart.c **** 	//Enable Transmit Register Empty interrupt service so FIFO data transmission will began
 320:user/driver/usart/usart.c **** 	//USART_ITConfig(DecodeUsartId(usart->port_id), USART_IT_TXE, ENABLE);
 321:user/driver/usart/usart.c **** }
 990              		.loc 1 321 1 view .LVU216
 991 02ae 10BD     		pop	{r4, pc}	@
 992              		.loc 1 321 1 view .LVU217
 993              		.cfi_endproc
 994              	.LFE41:
 995              		.size	UsartSendByte, .-UsartSendByte
 996              		.align	1
 997              		.global	UsartSendString
 998              		.syntax unified
 999              		.thumb
 1000              		.thumb_func
 1001              		.fpu softvfp
 1002              		.type	UsartSendString, %function
 1003              	UsartSendString:
 1004              	.LVL94:
 1005              	.LFB42:
 322:user/driver/usart/usart.c **** 
 323:user/driver/usart/usart.c **** void UsartSendString(UsartHandle handle, const char *string, uint32_t len)
 324:user/driver/usart/usart.c **** {
 1006              		.loc 1 324 1 is_stmt 1 view -0
 1007              		.cfi_startproc
 1008              		@ args = 0, pretend = 0, frame = 0
 1009              		@ frame_needed = 0, uses_anonymous_args = 0
 1010              		.loc 1 324 1 is_stmt 0 view .LVU219
 1011 02b0 70B5     		push	{r4, r5, r6, lr}	@
 1012              	.LCFI7:
 1013              		.cfi_def_cfa_offset 16
 1014              		.cfi_offset 4, -16
 1015              		.cfi_offset 5, -12
 1016              		.cfi_offset 6, -8
 1017              		.cfi_offset 14, -4
ARM GAS  C:\Users\user\AppData\Local\Temp\cc7qV6fF.s 			page 54


 1018              	@ user/driver/usart/usart.c:324: {
 1019              		.loc 1 324 1 view .LVU220
 1020 02b2 0646     		mov	r6, r0	@ handle, tmp120
 325:user/driver/usart/usart.c **** 	assert_param(handle);
 1021              		.loc 1 325 2 is_stmt 1 view .LVU221
 326:user/driver/usart/usart.c **** 	assert_param(string);
 1022              		.loc 1 326 2 view .LVU222
 327:user/driver/usart/usart.c **** 
 328:user/driver/usart/usart.c **** 	for (int i = 0; i < len; i++)
 1023              		.loc 1 328 2 view .LVU223
 1024              	.LBB20:
 1025              		.loc 1 328 7 view .LVU224
 1026              	.LVL95:
 1027              		.loc 1 328 7 is_stmt 0 view .LVU225
 1028 02b4 0C46     		mov	r4, r1	@ ivtmp.63, tmp121
 1029 02b6 8D18     		adds	r5, r1, r2	@ _16, ivtmp.63, tmp122
 1030              	.LVL96:
 1031              	.L72:
 1032              		.loc 1 328 18 is_stmt 1 discriminator 1 view .LVU226
 1033              	@ user/driver/usart/usart.c:328: 	for (int i = 0; i < len; i++)
 1034              		.loc 1 328 2 is_stmt 0 discriminator 1 view .LVU227
 1035 02b8 AC42     		cmp	r4, r5	@ ivtmp.63, _16
 1036 02ba 00D1     		bne	.L73		@,
 1037              	.LBE20:
 1038              	@ user/driver/usart/usart.c:332: }
 329:user/driver/usart/usart.c **** 	{
 330:user/driver/usart/usart.c **** 		UsartSendByte(handle, string[i]);
 331:user/driver/usart/usart.c **** 	}
 332:user/driver/usart/usart.c **** }
 1039              		.loc 1 332 1 view .LVU228
 1040 02bc 70BD     		pop	{r4, r5, r6, pc}	@
 1041              	.LVL97:
 1042              	.L73:
 1043              	.LBB21:
 330:user/driver/usart/usart.c **** 	}
 1044              		.loc 1 330 3 is_stmt 1 discriminator 3 view .LVU229
 1045 02be 3046     		mov	r0, r6	@, handle
 1046 02c0 14F8011B 		ldrb	r1, [r4], #1	@ zero_extendqisi2	@, MEM[base: _17, offset: 0B]
 1047              	.LVL98:
 330:user/driver/usart/usart.c **** 	}
 1048              		.loc 1 330 3 is_stmt 0 discriminator 3 view .LVU230
 1049 02c4 FFF7FEFF 		bl	UsartSendByte		@
 1050              	.LVL99:
 328:user/driver/usart/usart.c **** 	{
 1051              		.loc 1 328 27 is_stmt 1 discriminator 3 view .LVU231
 328:user/driver/usart/usart.c **** 	{
 1052              		.loc 1 328 27 is_stmt 0 discriminator 3 view .LVU232
 1053 02c8 F6E7     		b	.L72		@
 1054              	.LBE21:
 1055              		.cfi_endproc
 1056              	.LFE42:
 1057              		.size	UsartSendString, .-UsartSendString
 1058              		.align	1
 1059              		.global	UsartReceiveByte
 1060              		.syntax unified
 1061              		.thumb
 1062              		.thumb_func
ARM GAS  C:\Users\user\AppData\Local\Temp\cc7qV6fF.s 			page 55


 1063              		.fpu softvfp
 1064              		.type	UsartReceiveByte, %function
 1065              	UsartReceiveByte:
 1066              	.LVL100:
 1067              	.LFB43:
 333:user/driver/usart/usart.c **** 
 334:user/driver/usart/usart.c **** uint32_t UsartReceiveByte(UsartHandle handle, uint8_t *data)
 335:user/driver/usart/usart.c **** {
 1068              		.loc 1 335 1 is_stmt 1 view -0
 1069              		.cfi_startproc
 1070              		@ args = 0, pretend = 0, frame = 0
 1071              		@ frame_needed = 0, uses_anonymous_args = 0
 336:user/driver/usart/usart.c **** 
 337:user/driver/usart/usart.c **** 	assert_param(handle);
 1072              		.loc 1 337 2 view .LVU234
 338:user/driver/usart/usart.c **** 	assert_param(data);
 1073              		.loc 1 338 2 view .LVU235
 339:user/driver/usart/usart.c **** 	UsartType *usart = (UsartType *)handle;
 1074              		.loc 1 339 2 view .LVU236
 340:user/driver/usart/usart.c **** 	if (xQueueReceive(usart->rx_fifo, data, 10000) == pdFALSE)
 1075              		.loc 1 340 2 view .LVU237
 1076              	@ user/driver/usart/usart.c:335: {
 335:user/driver/usart/usart.c **** 
 1077              		.loc 1 335 1 is_stmt 0 view .LVU238
 1078 02ca 08B5     		push	{r3, lr}	@
 1079              	.LCFI8:
 1080              		.cfi_def_cfa_offset 8
 1081              		.cfi_offset 3, -8
 1082              		.cfi_offset 14, -4
 1083              	@ user/driver/usart/usart.c:340: 	if (xQueueReceive(usart->rx_fifo, data, 10000) == pdFALSE)
 1084              		.loc 1 340 6 view .LVU239
 1085 02cc 42F21072 		movw	r2, #10000	@,
 1086 02d0 0023     		movs	r3, #0	@,
 1087 02d2 8068     		ldr	r0, [r0, #8]	@, MEM[(struct UsartType *)handle_4(D)].rx_fifo
 1088              	.LVL101:
 1089              		.loc 1 340 6 view .LVU240
 1090 02d4 FFF7FEFF 		bl	xQueueGenericReceive		@
 1091              	.LVL102:
 1092              	@ user/driver/usart/usart.c:343: }
 341:user/driver/usart/usart.c **** 		return 0;
 342:user/driver/usart/usart.c **** 	return 1;
 343:user/driver/usart/usart.c **** }
 1093              		.loc 1 343 1 view .LVU241
 1094 02d8 0038     		subs	r0, r0, #0	@, tmp123,
 1095 02da 18BF     		it	ne
 1096 02dc 0120     		movne	r0, #1	@,
 1097 02de 08BD     		pop	{r3, pc}	@
 1098              		.cfi_endproc
 1099              	.LFE43:
 1100              		.size	UsartReceiveByte, .-UsartReceiveByte
 1101              		.align	1
 1102              		.global	ResetUsartBuffer
 1103              		.syntax unified
 1104              		.thumb
 1105              		.thumb_func
 1106              		.fpu softvfp
 1107              		.type	ResetUsartBuffer, %function
ARM GAS  C:\Users\user\AppData\Local\Temp\cc7qV6fF.s 			page 56


 1108              	ResetUsartBuffer:
 1109              	.LVL103:
 1110              	.LFB44:
 344:user/driver/usart/usart.c **** 
 345:user/driver/usart/usart.c **** void ResetUsartBuffer(UsartHandle handle)
 346:user/driver/usart/usart.c **** {
 1111              		.loc 1 346 1 is_stmt 1 view -0
 1112              		.cfi_startproc
 1113              		@ args = 0, pretend = 0, frame = 0
 1114              		@ frame_needed = 0, uses_anonymous_args = 0
 1115              		@ link register save eliminated.
 347:user/driver/usart/usart.c **** 	assert_param(handle);
 1116              		.loc 1 347 2 view .LVU243
 1117              	@ user/driver/usart/usart.c:352: }
 348:user/driver/usart/usart.c **** 
 349:user/driver/usart/usart.c **** 	//UsartType * usart = (UsartType *) handle;
 350:user/driver/usart/usart.c **** 	//ResetByteFifo(usart->rx_buffer);
 351:user/driver/usart/usart.c **** 	//ResetByteFifo(usart->tx_buffer);
 352:user/driver/usart/usart.c **** }
 1118              		.loc 1 352 1 is_stmt 0 view .LVU244
 1119 02e0 7047     		bx	lr	@
 1120              		.cfi_endproc
 1121              	.LFE44:
 1122              		.size	ResetUsartBuffer, .-ResetUsartBuffer
 1123              		.align	1
 1124              		.global	IsInitialised
 1125              		.syntax unified
 1126              		.thumb
 1127              		.thumb_func
 1128              		.fpu softvfp
 1129              		.type	IsInitialised, %function
 1130              	IsInitialised:
 1131              	.LVL104:
 1132              	.LFB45:
 353:user/driver/usart/usart.c **** uint32_t IsInitialised(UsartHandle handle)
 354:user/driver/usart/usart.c **** {
 1133              		.loc 1 354 1 is_stmt 1 view -0
 1134              		.cfi_startproc
 1135              		@ args = 0, pretend = 0, frame = 0
 1136              		@ frame_needed = 0, uses_anonymous_args = 0
 1137              		@ link register save eliminated.
 355:user/driver/usart/usart.c **** 	assert_param(handle);
 1138              		.loc 1 355 2 view .LVU246
 356:user/driver/usart/usart.c **** 
 357:user/driver/usart/usart.c **** 	UsartType *usart = (UsartType *)handle;
 1139              		.loc 1 357 2 view .LVU247
 358:user/driver/usart/usart.c **** 
 359:user/driver/usart/usart.c **** 	return usart->is_initialised;
 1140              		.loc 1 359 2 view .LVU248
 1141              	@ user/driver/usart/usart.c:360: }
 360:user/driver/usart/usart.c **** }
 1142              		.loc 1 360 1 is_stmt 0 view .LVU249
 1143 02e2 C068     		ldr	r0, [r0, #12]	@, MEM[(struct UsartType *)handle_1(D)].is_initialised
 1144              	.LVL105:
 1145              		.loc 1 360 1 view .LVU250
 1146 02e4 7047     		bx	lr	@
 1147              		.cfi_endproc
ARM GAS  C:\Users\user\AppData\Local\Temp\cc7qV6fF.s 			page 57


 1148              	.LFE45:
 1149              		.size	IsInitialised, .-IsInitialised
 1150              		.align	1
 1151              		.global	USART1_IRQHandler
 1152              		.syntax unified
 1153              		.thumb
 1154              		.thumb_func
 1155              		.fpu softvfp
 1156              		.type	USART1_IRQHandler, %function
 1157              	USART1_IRQHandler:
 1158              	.LFB46:
 361:user/driver/usart/usart.c **** 
 362:user/driver/usart/usart.c **** ///Interrupt Handler for all serial port.
 363:user/driver/usart/usart.c **** 
 364:user/driver/usart/usart.c **** void USART1_IRQHandler(void)
 365:user/driver/usart/usart.c **** {
 1159              		.loc 1 365 1 is_stmt 1 view -0
 1160              		.cfi_startproc
 1161              		@ args = 0, pretend = 0, frame = 8
 1162              		@ frame_needed = 0, uses_anonymous_args = 0
 366:user/driver/usart/usart.c **** 	BaseType_t xHigherPriorityTaskWoken = pdFALSE;
 1163              		.loc 1 366 2 view .LVU252
 1164              	@ user/driver/usart/usart.c:365: {
 365:user/driver/usart/usart.c **** 	BaseType_t xHigherPriorityTaskWoken = pdFALSE;
 1165              		.loc 1 365 1 is_stmt 0 view .LVU253
 1166 02e6 13B5     		push	{r0, r1, r4, lr}	@
 1167              	.LCFI9:
 1168              		.cfi_def_cfa_offset 16
 1169              		.cfi_offset 4, -8
 1170              		.cfi_offset 14, -4
 1171              	@ user/driver/usart/usart.c:366: 	BaseType_t xHigherPriorityTaskWoken = pdFALSE;
 1172              		.loc 1 366 13 view .LVU254
 1173 02e8 0024     		movs	r4, #0	@ tmp118,
 1174              	@ user/driver/usart/usart.c:369: 	if (USART_GetITStatus(USART1, USART_IT_RXNE) == 1)
 367:user/driver/usart/usart.c **** 	UsartType *usart = &usart_handle_list[COM1];
 368:user/driver/usart/usart.c **** 
 369:user/driver/usart/usart.c **** 	if (USART_GetITStatus(USART1, USART_IT_RXNE) == 1)
 1175              		.loc 1 369 6 view .LVU255
 1176 02ea 40F22551 		movw	r1, #1317	@,
 1177 02ee 1348     		ldr	r0, .L83	@,
 1178              	@ user/driver/usart/usart.c:366: 	BaseType_t xHigherPriorityTaskWoken = pdFALSE;
 366:user/driver/usart/usart.c **** 	UsartType *usart = &usart_handle_list[COM1];
 1179              		.loc 1 366 13 view .LVU256
 1180 02f0 0194     		str	r4, [sp, #4]	@ tmp118, xHigherPriorityTaskWoken
 367:user/driver/usart/usart.c **** 	UsartType *usart = &usart_handle_list[COM1];
 1181              		.loc 1 367 2 is_stmt 1 view .LVU257
 1182              	.LVL106:
 1183              		.loc 1 369 2 view .LVU258
 1184              	@ user/driver/usart/usart.c:369: 	if (USART_GetITStatus(USART1, USART_IT_RXNE) == 1)
 1185              		.loc 1 369 6 is_stmt 0 view .LVU259
 1186 02f2 FFF7FEFF 		bl	USART_GetITStatus		@
 1187              	.LVL107:
 1188              	@ user/driver/usart/usart.c:369: 	if (USART_GetITStatus(USART1, USART_IT_RXNE) == 1)
 1189              		.loc 1 369 5 view .LVU260
 1190 02f6 0128     		cmp	r0, #1	@ tmp131,
 1191 02f8 11D1     		bne	.L78		@,
 1192              	.LBB22:
ARM GAS  C:\Users\user\AppData\Local\Temp\cc7qV6fF.s 			page 58


 370:user/driver/usart/usart.c **** 	{
 371:user/driver/usart/usart.c **** 		USART_ClearITPendingBit(USART1, USART_IT_RXNE);
 1193              		.loc 1 371 3 is_stmt 1 view .LVU261
 1194 02fa 40F22551 		movw	r1, #1317	@,
 1195 02fe 0F48     		ldr	r0, .L83	@,
 1196 0300 FFF7FEFF 		bl	USART_ClearITPendingBit		@
 1197              	.LVL108:
 372:user/driver/usart/usart.c **** 		uint8_t data = (uint8_t)USART_ReceiveData(USART1);
 1198              		.loc 1 372 3 view .LVU262
 1199              	@ user/driver/usart/usart.c:372: 		uint8_t data = (uint8_t)USART_ReceiveData(USART1);
 1200              		.loc 1 372 27 is_stmt 0 view .LVU263
 1201 0304 0D48     		ldr	r0, .L83	@,
 1202 0306 FFF7FEFF 		bl	USART_ReceiveData		@
 1203              	.LVL109:
 1204              	@ user/driver/usart/usart.c:372: 		uint8_t data = (uint8_t)USART_ReceiveData(USART1);
 1205              		.loc 1 372 18 view .LVU264
 1206 030a 8DF80300 		strb	r0, [sp, #3]	@ tmp132, data
 373:user/driver/usart/usart.c **** 		xQueueSendFromISR(usart->rx_fifo, &data, &xHigherPriorityTaskWoken);
 1207              		.loc 1 373 3 is_stmt 1 view .LVU265
 1208 030e 0C48     		ldr	r0, .L83+4	@ tmp127,
 1209 0310 2346     		mov	r3, r4	@, tmp118
 1210 0312 8068     		ldr	r0, [r0, #8]	@, MEM[(struct UsartType *)&usart_handle_list].rx_fifo
 1211 0314 01AA     		add	r2, sp, #4	@,,
 1212 0316 0DF10301 		add	r1, sp, #3	@,,
 1213 031a FFF7FEFF 		bl	xQueueGenericSendFromISR		@
 1214              	.LVL110:
 1215              	.L78:
 1216              	.LBE22:
 374:user/driver/usart/usart.c **** 	}
 375:user/driver/usart/usart.c **** 	portYIELD_FROM_ISR(xHigherPriorityTaskWoken);
 1217              		.loc 1 375 2 view .LVU266
 1218 031e 019B     		ldr	r3, [sp, #4]	@ xHigherPriorityTaskWoken, xHigherPriorityTaskWoken
 1219 0320 4BB1     		cbz	r3, .L77	@ xHigherPriorityTaskWoken,
 1220              		.loc 1 375 2 discriminator 1 view .LVU267
 1221 0322 4FF0E023 		mov	r3, #-536813568	@ tmp129,
 1222 0326 4FF08052 		mov	r2, #268435456	@ tmp130,
 1223 032a C3F8042D 		str	r2, [r3, #3332]	@ tmp130, MEM[(volatile uint32_t *)3758157060B]
 1224              		.loc 1 375 2 discriminator 1 view .LVU268
 1225              		.syntax unified
 1226              	@ 375 "user/driver/usart/usart.c" 1
 1227 032e BFF34F8F 		dsb
 1228              	@ 0 "" 2
 1229              		.loc 1 375 2 discriminator 1 view .LVU269
 1230              	@ 375 "user/driver/usart/usart.c" 1
 1231 0332 BFF36F8F 		isb
 1232              	@ 0 "" 2
 1233              		.loc 1 375 46 discriminator 1 view .LVU270
 1234              		.thumb
 1235              		.syntax unified
 1236              	.L77:
 1237              	@ user/driver/usart/usart.c:376: }
 376:user/driver/usart/usart.c **** }
 1238              		.loc 1 376 1 is_stmt 0 view .LVU271
 1239 0336 02B0     		add	sp, sp, #8	@,,
 1240              	.LCFI10:
 1241              		.cfi_def_cfa_offset 8
 1242              		@ sp needed	@
ARM GAS  C:\Users\user\AppData\Local\Temp\cc7qV6fF.s 			page 59


 1243 0338 10BD     		pop	{r4, pc}	@
 1244              	.L84:
 1245 033a 00BF     		.align	2
 1246              	.L83:
 1247 033c 00380140 		.word	1073821696
 1248 0340 00000000 		.word	.LANCHOR1
 1249              		.cfi_endproc
 1250              	.LFE46:
 1251              		.size	USART1_IRQHandler, .-USART1_IRQHandler
 1252              		.align	1
 1253              		.global	USART2_IRQHandler
 1254              		.syntax unified
 1255              		.thumb
 1256              		.thumb_func
 1257              		.fpu softvfp
 1258              		.type	USART2_IRQHandler, %function
 1259              	USART2_IRQHandler:
 1260              	.LFB47:
 377:user/driver/usart/usart.c **** 
 378:user/driver/usart/usart.c **** void USART2_IRQHandler(void)
 379:user/driver/usart/usart.c **** {
 1261              		.loc 1 379 1 is_stmt 1 view -0
 1262              		.cfi_startproc
 1263              		@ args = 0, pretend = 0, frame = 8
 1264              		@ frame_needed = 0, uses_anonymous_args = 0
 380:user/driver/usart/usart.c **** 		BaseType_t xHigherPriorityTaskWoken = pdFALSE;
 1265              		.loc 1 380 3 view .LVU273
 1266              	@ user/driver/usart/usart.c:379: {
 379:user/driver/usart/usart.c **** 		BaseType_t xHigherPriorityTaskWoken = pdFALSE;
 1267              		.loc 1 379 1 is_stmt 0 view .LVU274
 1268 0344 13B5     		push	{r0, r1, r4, lr}	@
 1269              	.LCFI11:
 1270              		.cfi_def_cfa_offset 16
 1271              		.cfi_offset 4, -8
 1272              		.cfi_offset 14, -4
 1273              	@ user/driver/usart/usart.c:380: 		BaseType_t xHigherPriorityTaskWoken = pdFALSE;
 1274              		.loc 1 380 14 view .LVU275
 1275 0346 0024     		movs	r4, #0	@ tmp118,
 1276              	@ user/driver/usart/usart.c:383: 		if (USART_GetITStatus(USART2, USART_IT_RXNE) == 1) {
 381:user/driver/usart/usart.c **** 		UsartType * usart = &usart_handle_list[COM2];
 382:user/driver/usart/usart.c **** 		
 383:user/driver/usart/usart.c **** 		if (USART_GetITStatus(USART2, USART_IT_RXNE) == 1) {
 1277              		.loc 1 383 7 view .LVU276
 1278 0348 40F22551 		movw	r1, #1317	@,
 1279 034c 1248     		ldr	r0, .L91	@,
 1280              	@ user/driver/usart/usart.c:380: 		BaseType_t xHigherPriorityTaskWoken = pdFALSE;
 380:user/driver/usart/usart.c **** 		UsartType * usart = &usart_handle_list[COM2];
 1281              		.loc 1 380 14 view .LVU277
 1282 034e 0194     		str	r4, [sp, #4]	@ tmp118, xHigherPriorityTaskWoken
 381:user/driver/usart/usart.c **** 		UsartType * usart = &usart_handle_list[COM2];
 1283              		.loc 1 381 3 is_stmt 1 view .LVU278
 1284              	.LVL111:
 1285              		.loc 1 383 3 view .LVU279
 1286              	@ user/driver/usart/usart.c:383: 		if (USART_GetITStatus(USART2, USART_IT_RXNE) == 1) {
 1287              		.loc 1 383 7 is_stmt 0 view .LVU280
 1288 0350 FFF7FEFF 		bl	USART_GetITStatus		@
 1289              	.LVL112:
ARM GAS  C:\Users\user\AppData\Local\Temp\cc7qV6fF.s 			page 60


 1290              	@ user/driver/usart/usart.c:383: 		if (USART_GetITStatus(USART2, USART_IT_RXNE) == 1) {
 1291              		.loc 1 383 6 view .LVU281
 1292 0354 0128     		cmp	r0, #1	@ tmp131,
 1293 0356 11D1     		bne	.L86		@,
 1294              	.LBB23:
 384:user/driver/usart/usart.c **** 			USART_ClearITPendingBit(USART2, USART_IT_RXNE);
 1295              		.loc 1 384 4 is_stmt 1 view .LVU282
 1296 0358 40F22551 		movw	r1, #1317	@,
 1297 035c 0E48     		ldr	r0, .L91	@,
 1298 035e FFF7FEFF 		bl	USART_ClearITPendingBit		@
 1299              	.LVL113:
 385:user/driver/usart/usart.c **** 			uint8_t data = USART_ReceiveData(USART2);
 1300              		.loc 1 385 4 view .LVU283
 1301              	@ user/driver/usart/usart.c:385: 			uint8_t data = USART_ReceiveData(USART2);
 1302              		.loc 1 385 19 is_stmt 0 view .LVU284
 1303 0362 0D48     		ldr	r0, .L91	@,
 1304 0364 FFF7FEFF 		bl	USART_ReceiveData		@
 1305              	.LVL114:
 1306              	@ user/driver/usart/usart.c:385: 			uint8_t data = USART_ReceiveData(USART2);
 1307              		.loc 1 385 12 view .LVU285
 1308 0368 8DF80300 		strb	r0, [sp, #3]	@ tmp132, data
 386:user/driver/usart/usart.c **** 			xQueueSendFromISR(usart->rx_fifo, &data, &xHigherPriorityTaskWoken);
 1309              		.loc 1 386 4 is_stmt 1 view .LVU286
 1310 036c 0B48     		ldr	r0, .L91+4	@ tmp127,
 1311 036e 2346     		mov	r3, r4	@, tmp118
 1312 0370 8069     		ldr	r0, [r0, #24]	@, MEM[(struct UsartType *)&usart_handle_list + 16B].rx_fifo
 1313 0372 01AA     		add	r2, sp, #4	@,,
 1314 0374 0DF10301 		add	r1, sp, #3	@,,
 1315 0378 FFF7FEFF 		bl	xQueueGenericSendFromISR		@
 1316              	.LVL115:
 1317              	.L86:
 1318              	.LBE23:
 387:user/driver/usart/usart.c **** 		}
 388:user/driver/usart/usart.c **** 		portYIELD_FROM_ISR (xHigherPriorityTaskWoken);
 1319              		.loc 1 388 3 view .LVU287
 1320 037c 019B     		ldr	r3, [sp, #4]	@ xHigherPriorityTaskWoken, xHigherPriorityTaskWoken
 1321 037e 4BB1     		cbz	r3, .L85	@ xHigherPriorityTaskWoken,
 1322              		.loc 1 388 3 discriminator 1 view .LVU288
 1323 0380 4FF0E023 		mov	r3, #-536813568	@ tmp129,
 1324 0384 4FF08052 		mov	r2, #268435456	@ tmp130,
 1325 0388 C3F8042D 		str	r2, [r3, #3332]	@ tmp130, MEM[(volatile uint32_t *)3758157060B]
 1326              		.loc 1 388 3 discriminator 1 view .LVU289
 1327              		.syntax unified
 1328              	@ 388 "user/driver/usart/usart.c" 1
 1329 038c BFF34F8F 		dsb
 1330              	@ 0 "" 2
 1331              		.loc 1 388 3 discriminator 1 view .LVU290
 1332              	@ 388 "user/driver/usart/usart.c" 1
 1333 0390 BFF36F8F 		isb
 1334              	@ 0 "" 2
 1335              		.loc 1 388 48 discriminator 1 view .LVU291
 1336              		.thumb
 1337              		.syntax unified
 1338              	.L85:
 1339              	@ user/driver/usart/usart.c:390: }
 389:user/driver/usart/usart.c **** 
 390:user/driver/usart/usart.c **** }
ARM GAS  C:\Users\user\AppData\Local\Temp\cc7qV6fF.s 			page 61


 1340              		.loc 1 390 1 is_stmt 0 view .LVU292
 1341 0394 02B0     		add	sp, sp, #8	@,,
 1342              	.LCFI12:
 1343              		.cfi_def_cfa_offset 8
 1344              		@ sp needed	@
 1345 0396 10BD     		pop	{r4, pc}	@
 1346              	.L92:
 1347              		.align	2
 1348              	.L91:
 1349 0398 00440040 		.word	1073759232
 1350 039c 00000000 		.word	.LANCHOR1
 1351              		.cfi_endproc
 1352              	.LFE47:
 1353              		.size	USART2_IRQHandler, .-USART2_IRQHandler
 1354              		.align	1
 1355              		.global	UART4_IRQHandler
 1356              		.syntax unified
 1357              		.thumb
 1358              		.thumb_func
 1359              		.fpu softvfp
 1360              		.type	UART4_IRQHandler, %function
 1361              	UART4_IRQHandler:
 1362              	.LFB48:
 391:user/driver/usart/usart.c **** 
 392:user/driver/usart/usart.c **** // void USART3_IRQHandler(void)
 393:user/driver/usart/usart.c **** // {
 394:user/driver/usart/usart.c **** // 		BaseType_t xHigherPriorityTaskWoken = pdFALSE;
 395:user/driver/usart/usart.c **** // 		UsartType * usart = &usart_handle_list[COM3];
 396:user/driver/usart/usart.c **** 		
 397:user/driver/usart/usart.c **** // 		if (USART_GetITStatus(USART3, USART_IT_RXNE) == 1) {
 398:user/driver/usart/usart.c **** // 			USART_ClearITPendingBit(USART3, USART_IT_RXNE);
 399:user/driver/usart/usart.c **** // 			uint8_t data = USART_ReceiveData(USART3);
 400:user/driver/usart/usart.c **** // 			xQueueSendFromISR(usart->rx_fifo, &data, &xHigherPriorityTaskWoken);
 401:user/driver/usart/usart.c **** // 		}
 402:user/driver/usart/usart.c **** // 		portYIELD_FROM_ISR (xHigherPriorityTaskWoken);
 403:user/driver/usart/usart.c **** 		
 404:user/driver/usart/usart.c **** // }
 405:user/driver/usart/usart.c **** 
 406:user/driver/usart/usart.c **** void UART4_IRQHandler(void)
 407:user/driver/usart/usart.c **** {
 1363              		.loc 1 407 1 is_stmt 1 view -0
 1364              		.cfi_startproc
 1365              		@ args = 0, pretend = 0, frame = 8
 1366              		@ frame_needed = 0, uses_anonymous_args = 0
 408:user/driver/usart/usart.c **** 	BaseType_t xHigherPriorityTaskWoken = pdFALSE;
 1367              		.loc 1 408 2 view .LVU294
 1368              	@ user/driver/usart/usart.c:407: {
 407:user/driver/usart/usart.c **** 	BaseType_t xHigherPriorityTaskWoken = pdFALSE;
 1369              		.loc 1 407 1 is_stmt 0 view .LVU295
 1370 03a0 13B5     		push	{r0, r1, r4, lr}	@
 1371              	.LCFI13:
 1372              		.cfi_def_cfa_offset 16
 1373              		.cfi_offset 4, -8
 1374              		.cfi_offset 14, -4
 1375              	@ user/driver/usart/usart.c:408: 	BaseType_t xHigherPriorityTaskWoken = pdFALSE;
 1376              		.loc 1 408 13 view .LVU296
 1377 03a2 0024     		movs	r4, #0	@ tmp118,
ARM GAS  C:\Users\user\AppData\Local\Temp\cc7qV6fF.s 			page 62


 1378              	@ user/driver/usart/usart.c:411: 	if (USART_GetITStatus(UART4, USART_IT_RXNE) == 1)
 409:user/driver/usart/usart.c **** 	UsartType *usart = &usart_handle_list[COM4];
 410:user/driver/usart/usart.c **** 	
 411:user/driver/usart/usart.c **** 	if (USART_GetITStatus(UART4, USART_IT_RXNE) == 1)
 1379              		.loc 1 411 6 view .LVU297
 1380 03a4 40F22551 		movw	r1, #1317	@,
 1381 03a8 1248     		ldr	r0, .L99	@,
 1382              	@ user/driver/usart/usart.c:408: 	BaseType_t xHigherPriorityTaskWoken = pdFALSE;
 408:user/driver/usart/usart.c **** 	UsartType *usart = &usart_handle_list[COM4];
 1383              		.loc 1 408 13 view .LVU298
 1384 03aa 0194     		str	r4, [sp, #4]	@ tmp118, xHigherPriorityTaskWoken
 409:user/driver/usart/usart.c **** 	UsartType *usart = &usart_handle_list[COM4];
 1385              		.loc 1 409 2 is_stmt 1 view .LVU299
 1386              	.LVL116:
 1387              		.loc 1 411 2 view .LVU300
 1388              	@ user/driver/usart/usart.c:411: 	if (USART_GetITStatus(UART4, USART_IT_RXNE) == 1)
 1389              		.loc 1 411 6 is_stmt 0 view .LVU301
 1390 03ac FFF7FEFF 		bl	USART_GetITStatus		@
 1391              	.LVL117:
 1392              	@ user/driver/usart/usart.c:411: 	if (USART_GetITStatus(UART4, USART_IT_RXNE) == 1)
 1393              		.loc 1 411 5 view .LVU302
 1394 03b0 0128     		cmp	r0, #1	@ tmp131,
 1395 03b2 11D1     		bne	.L94		@,
 1396              	.LBB24:
 412:user/driver/usart/usart.c **** 	{
 413:user/driver/usart/usart.c **** 		USART_ClearITPendingBit(UART4, USART_IT_RXNE);
 1397              		.loc 1 413 3 is_stmt 1 view .LVU303
 1398 03b4 40F22551 		movw	r1, #1317	@,
 1399 03b8 0E48     		ldr	r0, .L99	@,
 1400 03ba FFF7FEFF 		bl	USART_ClearITPendingBit		@
 1401              	.LVL118:
 414:user/driver/usart/usart.c **** 		uint8_t data = USART_ReceiveData(UART4);
 1402              		.loc 1 414 3 view .LVU304
 1403              	@ user/driver/usart/usart.c:414: 		uint8_t data = USART_ReceiveData(UART4);
 1404              		.loc 1 414 18 is_stmt 0 view .LVU305
 1405 03be 0D48     		ldr	r0, .L99	@,
 1406 03c0 FFF7FEFF 		bl	USART_ReceiveData		@
 1407              	.LVL119:
 1408              	@ user/driver/usart/usart.c:414: 		uint8_t data = USART_ReceiveData(UART4);
 1409              		.loc 1 414 11 view .LVU306
 1410 03c4 8DF80300 		strb	r0, [sp, #3]	@ tmp132, data
 415:user/driver/usart/usart.c **** 		xQueueSendFromISR(usart->rx_fifo, &data, &xHigherPriorityTaskWoken);
 1411              		.loc 1 415 3 is_stmt 1 view .LVU307
 1412 03c8 0B48     		ldr	r0, .L99+4	@ tmp127,
 1413 03ca 2346     		mov	r3, r4	@, tmp118
 1414 03cc 806B     		ldr	r0, [r0, #56]	@, MEM[(struct UsartType *)&usart_handle_list + 48B].rx_fifo
 1415 03ce 01AA     		add	r2, sp, #4	@,,
 1416 03d0 0DF10301 		add	r1, sp, #3	@,,
 1417 03d4 FFF7FEFF 		bl	xQueueGenericSendFromISR		@
 1418              	.LVL120:
 1419              	.L94:
 1420              	.LBE24:
 416:user/driver/usart/usart.c **** 	}
 417:user/driver/usart/usart.c **** 	portYIELD_FROM_ISR (xHigherPriorityTaskWoken);
 1421              		.loc 1 417 2 view .LVU308
 1422 03d8 019B     		ldr	r3, [sp, #4]	@ xHigherPriorityTaskWoken, xHigherPriorityTaskWoken
 1423 03da 4BB1     		cbz	r3, .L93	@ xHigherPriorityTaskWoken,
ARM GAS  C:\Users\user\AppData\Local\Temp\cc7qV6fF.s 			page 63


 1424              		.loc 1 417 2 discriminator 1 view .LVU309
 1425 03dc 4FF0E023 		mov	r3, #-536813568	@ tmp129,
 1426 03e0 4FF08052 		mov	r2, #268435456	@ tmp130,
 1427 03e4 C3F8042D 		str	r2, [r3, #3332]	@ tmp130, MEM[(volatile uint32_t *)3758157060B]
 1428              		.loc 1 417 2 discriminator 1 view .LVU310
 1429              		.syntax unified
 1430              	@ 417 "user/driver/usart/usart.c" 1
 1431 03e8 BFF34F8F 		dsb
 1432              	@ 0 "" 2
 1433              		.loc 1 417 2 discriminator 1 view .LVU311
 1434              	@ 417 "user/driver/usart/usart.c" 1
 1435 03ec BFF36F8F 		isb
 1436              	@ 0 "" 2
 1437              		.loc 1 417 47 discriminator 1 view .LVU312
 1438              		.thumb
 1439              		.syntax unified
 1440              	.L93:
 1441              	@ user/driver/usart/usart.c:418: }
 418:user/driver/usart/usart.c **** }
 1442              		.loc 1 418 1 is_stmt 0 view .LVU313
 1443 03f0 02B0     		add	sp, sp, #8	@,,
 1444              	.LCFI14:
 1445              		.cfi_def_cfa_offset 8
 1446              		@ sp needed	@
 1447 03f2 10BD     		pop	{r4, pc}	@
 1448              	.L100:
 1449              		.align	2
 1450              	.L99:
 1451 03f4 004C0040 		.word	1073761280
 1452 03f8 00000000 		.word	.LANCHOR1
 1453              		.cfi_endproc
 1454              	.LFE48:
 1455              		.size	UART4_IRQHandler, .-UART4_IRQHandler
 1456              		.section	.rodata
 1457              		.align	2
 1458              		.set	.LANCHOR0,. + 0
 1459              		.type	CSWTCH.11, %object
 1460              		.size	CSWTCH.11, 5
 1461              	CSWTCH.11:
 1462 0000 25       		.byte	37
 1463 0001 26       		.byte	38
 1464 0002 27       		.byte	39
 1465 0003 34       		.byte	52
 1466 0004 35       		.byte	53
 1467 0005 000000   		.space	3
 1468              		.type	CSWTCH.14, %object
 1469              		.size	CSWTCH.14, 24
 1470              	CSWTCH.14:
 1471 0008 00080140 		.word	1073809408
 1472 000c 00080140 		.word	1073809408
 1473 0010 000C0140 		.word	1073810432
 1474 0014 00100140 		.word	1073811456
 1475 0018 00100140 		.word	1073811456
 1476 001c 00100140 		.word	1073811456
 1477              		.type	CSWTCH.15, %object
 1478              		.size	CSWTCH.15, 24
 1479              	CSWTCH.15:
ARM GAS  C:\Users\user\AppData\Local\Temp\cc7qV6fF.s 			page 64


 1480 0020 00080140 		.word	1073809408
 1481 0024 00080140 		.word	1073809408
 1482 0028 000C0140 		.word	1073810432
 1483 002c 00100140 		.word	1073811456
 1484 0030 00140140 		.word	1073812480
 1485 0034 00100140 		.word	1073811456
 1486              		.type	CSWTCH.17, %object
 1487              		.size	CSWTCH.17, 12
 1488              	CSWTCH.17:
 1489 0038 0004     		.short	1024
 1490 003a 0800     		.short	8
 1491 003c 0008     		.short	2048
 1492 003e 0008     		.short	2048
 1493 0040 0400     		.short	4
 1494 0042 8000     		.short	128
 1495              		.type	CSWTCH.16, %object
 1496              		.size	CSWTCH.16, 12
 1497              	CSWTCH.16:
 1498 0044 0002     		.short	512
 1499 0046 0400     		.short	4
 1500 0048 0004     		.short	1024
 1501 004a 0004     		.short	1024
 1502 004c 0010     		.short	4096
 1503 004e 4000     		.short	64
 1504              		.type	CSWTCH.19, %object
 1505              		.size	CSWTCH.19, 20
 1506              	CSWTCH.19:
 1507 0050 00380140 		.word	1073821696
 1508 0054 00440040 		.word	1073759232
 1509 0058 00480040 		.word	1073760256
 1510 005c 004C0040 		.word	1073761280
 1511 0060 00500040 		.word	1073762304
 1512              		.bss
 1513              		.align	2
 1514              		.set	.LANCHOR1,. + 0
 1515              		.type	usart_handle_list, %object
 1516              		.size	usart_handle_list, 112
 1517              	usart_handle_list:
 1518 0000 00000000 		.space	112
 1518      00000000 
 1518      00000000 
 1518      00000000 
 1518      00000000 
 1519              		.text
 1520              	.Letext0:
 1521              		.file 3 "c:\\program files (x86)\\gnu arm embedded toolchain\\10 2021.07\\arm-none-eabi\\include\\
 1522              		.file 4 "c:\\program files (x86)\\gnu arm embedded toolchain\\10 2021.07\\arm-none-eabi\\include\\
 1523              		.file 5 "user/driver/usart/usart.h"
 1524              		.file 6 "./stm32f10x_libraries/CMSIS/CM3/DeviceSupport/ST/STM32F10x/stm32f10x.h"
 1525              		.file 7 "./stm32f10x_libraries/STM32F10x_StdPeriph_Driver/inc/stm32f10x_gpio.h"
 1526              		.file 8 "./stm32f10x_libraries/STM32F10x_StdPeriph_Driver/inc/stm32f10x_usart.h"
 1527              		.file 9 "./freertos/portable/GCC/ARM_CM3/portmacro.h"
 1528              		.file 10 "./freertos/include/queue.h"
 1529              		.file 11 "./stm32f10x_libraries/STM32F10x_StdPeriph_Driver/inc/stm32f10x_rcc.h"
 1530              		.section	.debug_info,"",%progbits
 1531              	.Ldebug_info0:
 1532 0000 19130000 		.4byte	0x1319
ARM GAS  C:\Users\user\AppData\Local\Temp\cc7qV6fF.s 			page 65


 1533 0004 0200     		.2byte	0x2
 1534 0006 00000000 		.4byte	.Ldebug_abbrev0
 1535 000a 04       		.byte	0x4
 1536 000b 01       		.uleb128 0x1
 1537 000c B0000000 		.4byte	.LASF214
 1538 0010 0C       		.byte	0xc
 1539 0011 C9060000 		.4byte	.LASF215
 1540 0015 0F040000 		.4byte	.LASF216
 1541 0019 00000000 		.4byte	.Ltext0
 1542 001d FC030000 		.4byte	.Letext0
 1543 0021 00000000 		.4byte	.Ldebug_line0
 1544 0025 02       		.uleb128 0x2
 1545 0026 04       		.byte	0x4
 1546 0027 05       		.byte	0x5
 1547 0028 696E7400 		.ascii	"int\000"
 1548 002c 03       		.uleb128 0x3
 1549 002d 04       		.byte	0x4
 1550 002e 07       		.byte	0x7
 1551 002f E7030000 		.4byte	.LASF0
 1552 0033 03       		.uleb128 0x3
 1553 0034 08       		.byte	0x8
 1554 0035 05       		.byte	0x5
 1555 0036 E6010000 		.4byte	.LASF1
 1556 003a 03       		.uleb128 0x3
 1557 003b 08       		.byte	0x8
 1558 003c 04       		.byte	0x4
 1559 003d AF080000 		.4byte	.LASF2
 1560 0041 03       		.uleb128 0x3
 1561 0042 01       		.byte	0x1
 1562 0043 06       		.byte	0x6
 1563 0044 F4010000 		.4byte	.LASF3
 1564 0048 04       		.uleb128 0x4
 1565 0049 8C000000 		.4byte	.LASF6
 1566 004d 03       		.byte	0x3
 1567 004e 2B       		.byte	0x2b
 1568 004f 18       		.byte	0x18
 1569 0050 54000000 		.4byte	0x54
 1570 0054 03       		.uleb128 0x3
 1571 0055 01       		.byte	0x1
 1572 0056 08       		.byte	0x8
 1573 0057 A5070000 		.4byte	.LASF4
 1574 005b 03       		.uleb128 0x3
 1575 005c 02       		.byte	0x2
 1576 005d 05       		.byte	0x5
 1577 005e 2E050000 		.4byte	.LASF5
 1578 0062 04       		.uleb128 0x4
 1579 0063 02090000 		.4byte	.LASF7
 1580 0067 03       		.byte	0x3
 1581 0068 39       		.byte	0x39
 1582 0069 19       		.byte	0x19
 1583 006a 6E000000 		.4byte	0x6e
 1584 006e 03       		.uleb128 0x3
 1585 006f 02       		.byte	0x2
 1586 0070 07       		.byte	0x7
 1587 0071 19080000 		.4byte	.LASF8
 1588 0075 03       		.uleb128 0x3
 1589 0076 04       		.byte	0x4
ARM GAS  C:\Users\user\AppData\Local\Temp\cc7qV6fF.s 			page 66


 1590 0077 05       		.byte	0x5
 1591 0078 91020000 		.4byte	.LASF9
 1592 007c 04       		.uleb128 0x4
 1593 007d 6D030000 		.4byte	.LASF10
 1594 0081 03       		.byte	0x3
 1595 0082 4F       		.byte	0x4f
 1596 0083 19       		.byte	0x19
 1597 0084 88000000 		.4byte	0x88
 1598 0088 03       		.uleb128 0x3
 1599 0089 04       		.byte	0x4
 1600 008a 07       		.byte	0x7
 1601 008b 26040000 		.4byte	.LASF11
 1602 008f 03       		.uleb128 0x3
 1603 0090 08       		.byte	0x8
 1604 0091 07       		.byte	0x7
 1605 0092 58010000 		.4byte	.LASF12
 1606 0096 05       		.uleb128 0x5
 1607 0097 04       		.byte	0x4
 1608 0098 03       		.uleb128 0x3
 1609 0099 01       		.byte	0x1
 1610 009a 08       		.byte	0x8
 1611 009b BB080000 		.4byte	.LASF13
 1612 009f 06       		.uleb128 0x6
 1613 00a0 98000000 		.4byte	0x98
 1614 00a4 07       		.uleb128 0x7
 1615 00a5 04       		.byte	0x4
 1616 00a6 9F000000 		.4byte	0x9f
 1617 00aa 04       		.uleb128 0x4
 1618 00ab 240A0000 		.4byte	.LASF14
 1619 00af 04       		.byte	0x4
 1620 00b0 18       		.byte	0x18
 1621 00b1 13       		.byte	0x13
 1622 00b2 48000000 		.4byte	0x48
 1623 00b6 08       		.uleb128 0x8
 1624 00b7 AA000000 		.4byte	0xaa
 1625 00bb 04       		.uleb128 0x4
 1626 00bc E6020000 		.4byte	.LASF15
 1627 00c0 04       		.byte	0x4
 1628 00c1 24       		.byte	0x24
 1629 00c2 14       		.byte	0x14
 1630 00c3 62000000 		.4byte	0x62
 1631 00c7 08       		.uleb128 0x8
 1632 00c8 BB000000 		.4byte	0xbb
 1633 00cc 04       		.uleb128 0x4
 1634 00cd 7A080000 		.4byte	.LASF16
 1635 00d1 04       		.byte	0x4
 1636 00d2 30       		.byte	0x30
 1637 00d3 14       		.byte	0x14
 1638 00d4 7C000000 		.4byte	0x7c
 1639 00d8 08       		.uleb128 0x8
 1640 00d9 CC000000 		.4byte	0xcc
 1641 00dd 06       		.uleb128 0x6
 1642 00de D8000000 		.4byte	0xd8
 1643 00e2 04       		.uleb128 0x4
 1644 00e3 26070000 		.4byte	.LASF17
 1645 00e7 05       		.byte	0x5
 1646 00e8 0B       		.byte	0xb
ARM GAS  C:\Users\user\AppData\Local\Temp\cc7qV6fF.s 			page 67


 1647 00e9 10       		.byte	0x10
 1648 00ea 96000000 		.4byte	0x96
 1649 00ee 09       		.uleb128 0x9
 1650 00ef 07       		.byte	0x7
 1651 00f0 01       		.byte	0x1
 1652 00f1 54000000 		.4byte	0x54
 1653 00f5 05       		.byte	0x5
 1654 00f6 0E       		.byte	0xe
 1655 00f7 01       		.byte	0x1
 1656 00f8 21010000 		.4byte	0x121
 1657 00fc 0A       		.uleb128 0xa
 1658 00fd 61000000 		.4byte	.LASF18
 1659 0101 00       		.byte	0
 1660 0102 0A       		.uleb128 0xa
 1661 0103 66000000 		.4byte	.LASF19
 1662 0107 01       		.byte	0x1
 1663 0108 0A       		.uleb128 0xa
 1664 0109 6B000000 		.4byte	.LASF20
 1665 010d 02       		.byte	0x2
 1666 010e 0A       		.uleb128 0xa
 1667 010f 70000000 		.4byte	.LASF21
 1668 0113 03       		.byte	0x3
 1669 0114 0A       		.uleb128 0xa
 1670 0115 75000000 		.4byte	.LASF22
 1671 0119 04       		.byte	0x4
 1672 011a 0A       		.uleb128 0xa
 1673 011b 7A000000 		.4byte	.LASF23
 1674 011f 05       		.byte	0x5
 1675 0120 00       		.byte	0
 1676 0121 04       		.uleb128 0x4
 1677 0122 06050000 		.4byte	.LASF24
 1678 0126 05       		.byte	0x5
 1679 0127 15       		.byte	0x15
 1680 0128 02       		.byte	0x2
 1681 0129 EE000000 		.4byte	0xee
 1682 012d 0B       		.uleb128 0xb
 1683 012e 82050000 		.4byte	.LASF196
 1684 0132 05       		.byte	0x5
 1685 0133 01       		.byte	0x1
 1686 0134 41000000 		.4byte	0x41
 1687 0138 06       		.byte	0x6
 1688 0139 A7       		.byte	0xa7
 1689 013a 0E       		.byte	0xe
 1690 013b DE020000 		.4byte	0x2de
 1691 013f 0C       		.uleb128 0xc
 1692 0140 5C090000 		.4byte	.LASF25
 1693 0144 72       		.sleb128 -14
 1694 0145 0C       		.uleb128 0xc
 1695 0146 F9030000 		.4byte	.LASF26
 1696 014a 74       		.sleb128 -12
 1697 014b 0C       		.uleb128 0xc
 1698 014c 10030000 		.4byte	.LASF27
 1699 0150 75       		.sleb128 -11
 1700 0151 0C       		.uleb128 0xc
 1701 0152 9F080000 		.4byte	.LASF28
 1702 0156 76       		.sleb128 -10
 1703 0157 0C       		.uleb128 0xc
ARM GAS  C:\Users\user\AppData\Local\Temp\cc7qV6fF.s 			page 68


 1704 0158 DC050000 		.4byte	.LASF29
 1705 015c 7B       		.sleb128 -5
 1706 015d 0C       		.uleb128 0xc
 1707 015e A1090000 		.4byte	.LASF30
 1708 0162 7C       		.sleb128 -4
 1709 0163 0C       		.uleb128 0xc
 1710 0164 3A030000 		.4byte	.LASF31
 1711 0168 7E       		.sleb128 -2
 1712 0169 0C       		.uleb128 0xc
 1713 016a 46050000 		.4byte	.LASF32
 1714 016e 7F       		.sleb128 -1
 1715 016f 0A       		.uleb128 0xa
 1716 0170 BD010000 		.4byte	.LASF33
 1717 0174 00       		.byte	0
 1718 0175 0A       		.uleb128 0xa
 1719 0176 A7000000 		.4byte	.LASF34
 1720 017a 01       		.byte	0x1
 1721 017b 0A       		.uleb128 0xa
 1722 017c 83090000 		.4byte	.LASF35
 1723 0180 02       		.byte	0x2
 1724 0181 0A       		.uleb128 0xa
 1725 0182 A80A0000 		.4byte	.LASF36
 1726 0186 03       		.byte	0x3
 1727 0187 0A       		.uleb128 0xa
 1728 0188 52080000 		.4byte	.LASF37
 1729 018c 04       		.byte	0x4
 1730 018d 0A       		.uleb128 0xa
 1731 018e F60A0000 		.4byte	.LASF38
 1732 0192 05       		.byte	0x5
 1733 0193 0A       		.uleb128 0xa
 1734 0194 C9090000 		.4byte	.LASF39
 1735 0198 06       		.byte	0x6
 1736 0199 0A       		.uleb128 0xa
 1737 019a 090B0000 		.4byte	.LASF40
 1738 019e 07       		.byte	0x7
 1739 019f 0A       		.uleb128 0xa
 1740 01a0 B2010000 		.4byte	.LASF41
 1741 01a4 08       		.byte	0x8
 1742 01a5 0A       		.uleb128 0xa
 1743 01a6 090A0000 		.4byte	.LASF42
 1744 01aa 09       		.byte	0x9
 1745 01ab 0A       		.uleb128 0xa
 1746 01ac B9070000 		.4byte	.LASF43
 1747 01b0 0A       		.byte	0xa
 1748 01b1 0A       		.uleb128 0xa
 1749 01b2 FA060000 		.4byte	.LASF44
 1750 01b6 0B       		.byte	0xb
 1751 01b7 0A       		.uleb128 0xa
 1752 01b8 A6050000 		.4byte	.LASF45
 1753 01bc 0C       		.byte	0xc
 1754 01bd 0A       		.uleb128 0xa
 1755 01be BB020000 		.4byte	.LASF46
 1756 01c2 0D       		.byte	0xd
 1757 01c3 0A       		.uleb128 0xa
 1758 01c4 4B030000 		.4byte	.LASF47
 1759 01c8 0E       		.byte	0xe
 1760 01c9 0A       		.uleb128 0xa
ARM GAS  C:\Users\user\AppData\Local\Temp\cc7qV6fF.s 			page 69


 1761 01ca 93040000 		.4byte	.LASF48
 1762 01ce 0F       		.byte	0xf
 1763 01cf 0A       		.uleb128 0xa
 1764 01d0 70090000 		.4byte	.LASF49
 1765 01d4 10       		.byte	0x10
 1766 01d5 0A       		.uleb128 0xa
 1767 01d6 4D0A0000 		.4byte	.LASF50
 1768 01da 11       		.byte	0x11
 1769 01db 0A       		.uleb128 0xa
 1770 01dc FA020000 		.4byte	.LASF51
 1771 01e0 12       		.byte	0x12
 1772 01e1 0A       		.uleb128 0xa
 1773 01e2 AB040000 		.4byte	.LASF52
 1774 01e6 13       		.byte	0x13
 1775 01e7 0A       		.uleb128 0xa
 1776 01e8 23000000 		.4byte	.LASF53
 1777 01ec 14       		.byte	0x14
 1778 01ed 0A       		.uleb128 0xa
 1779 01ee 38010000 		.4byte	.LASF54
 1780 01f2 15       		.byte	0x15
 1781 01f3 0A       		.uleb128 0xa
 1782 01f4 DA0A0000 		.4byte	.LASF55
 1783 01f8 16       		.byte	0x16
 1784 01f9 0A       		.uleb128 0xa
 1785 01fa AE020000 		.4byte	.LASF56
 1786 01fe 17       		.byte	0x17
 1787 01ff 0A       		.uleb128 0xa
 1788 0200 F4080000 		.4byte	.LASF57
 1789 0204 18       		.byte	0x18
 1790 0205 0A       		.uleb128 0xa
 1791 0206 D4090000 		.4byte	.LASF58
 1792 020a 19       		.byte	0x19
 1793 020b 0A       		.uleb128 0xa
 1794 020c 4F000000 		.4byte	.LASF59
 1795 0210 1A       		.byte	0x1a
 1796 0211 0A       		.uleb128 0xa
 1797 0212 53050000 		.4byte	.LASF60
 1798 0216 1B       		.byte	0x1b
 1799 0217 0A       		.uleb128 0xa
 1800 0218 BF090000 		.4byte	.LASF61
 1801 021c 1C       		.byte	0x1c
 1802 021d 0A       		.uleb128 0xa
 1803 021e FF0A0000 		.4byte	.LASF62
 1804 0222 1D       		.byte	0x1d
 1805 0223 0A       		.uleb128 0xa
 1806 0224 9A010000 		.4byte	.LASF63
 1807 0228 1E       		.byte	0x1e
 1808 0229 0A       		.uleb128 0xa
 1809 022a 7F000000 		.4byte	.LASF64
 1810 022e 1F       		.byte	0x1f
 1811 022f 0A       		.uleb128 0xa
 1812 0230 9B0A0000 		.4byte	.LASF65
 1813 0234 20       		.byte	0x20
 1814 0235 0A       		.uleb128 0xa
 1815 0236 A1020000 		.4byte	.LASF66
 1816 023a 21       		.byte	0x21
 1817 023b 0A       		.uleb128 0xa
ARM GAS  C:\Users\user\AppData\Local\Temp\cc7qV6fF.s 			page 70


 1818 023c 8D010000 		.4byte	.LASF67
 1819 0240 22       		.byte	0x22
 1820 0241 0A       		.uleb128 0xa
 1821 0242 EE040000 		.4byte	.LASF68
 1822 0246 23       		.byte	0x23
 1823 0247 0A       		.uleb128 0xa
 1824 0248 49060000 		.4byte	.LASF69
 1825 024c 24       		.byte	0x24
 1826 024d 0A       		.uleb128 0xa
 1827 024e E6090000 		.4byte	.LASF70
 1828 0252 25       		.byte	0x25
 1829 0253 0A       		.uleb128 0xa
 1830 0254 93080000 		.4byte	.LASF71
 1831 0258 26       		.byte	0x26
 1832 0259 0A       		.uleb128 0xa
 1833 025a B3090000 		.4byte	.LASF72
 1834 025e 27       		.byte	0x27
 1835 025f 0A       		.uleb128 0xa
 1836 0260 D9040000 		.4byte	.LASF73
 1837 0264 28       		.byte	0x28
 1838 0265 0A       		.uleb128 0xa
 1839 0266 0D090000 		.4byte	.LASF74
 1840 026a 29       		.byte	0x29
 1841 026b 0A       		.uleb128 0xa
 1842 026c 29030000 		.4byte	.LASF75
 1843 0270 2A       		.byte	0x2a
 1844 0271 0A       		.uleb128 0xa
 1845 0272 28060000 		.4byte	.LASF76
 1846 0276 32       		.byte	0x32
 1847 0277 0A       		.uleb128 0xa
 1848 0278 B10A0000 		.4byte	.LASF77
 1849 027c 33       		.byte	0x33
 1850 027d 0A       		.uleb128 0xa
 1851 027e 1E030000 		.4byte	.LASF78
 1852 0282 34       		.byte	0x34
 1853 0283 0A       		.uleb128 0xa
 1854 0284 F1070000 		.4byte	.LASF79
 1855 0288 35       		.byte	0x35
 1856 0289 0A       		.uleb128 0xa
 1857 028a EA080000 		.4byte	.LASF80
 1858 028e 36       		.byte	0x36
 1859 028f 0A       		.uleb128 0xa
 1860 0290 1B090000 		.4byte	.LASF81
 1861 0294 37       		.byte	0x37
 1862 0295 0A       		.uleb128 0xa
 1863 0296 6F010000 		.4byte	.LASF82
 1864 029a 38       		.byte	0x38
 1865 029b 0A       		.uleb128 0xa
 1866 029c E8050000 		.4byte	.LASF83
 1867 02a0 39       		.byte	0x39
 1868 02a1 0A       		.uleb128 0xa
 1869 02a2 6F050000 		.4byte	.LASF84
 1870 02a6 3A       		.byte	0x3a
 1871 02a7 0A       		.uleb128 0xa
 1872 02a8 C0080000 		.4byte	.LASF85
 1873 02ac 3B       		.byte	0x3b
 1874 02ad 0A       		.uleb128 0xa
ARM GAS  C:\Users\user\AppData\Local\Temp\cc7qV6fF.s 			page 71


 1875 02ae 6F020000 		.4byte	.LASF86
 1876 02b2 3C       		.byte	0x3c
 1877 02b3 0A       		.uleb128 0xa
 1878 02b4 C9050000 		.4byte	.LASF87
 1879 02b8 3D       		.byte	0x3d
 1880 02b9 0A       		.uleb128 0xa
 1881 02ba 3A0A0000 		.4byte	.LASF88
 1882 02be 3E       		.byte	0x3e
 1883 02bf 0A       		.uleb128 0xa
 1884 02c0 70060000 		.4byte	.LASF89
 1885 02c4 3F       		.byte	0x3f
 1886 02c5 0A       		.uleb128 0xa
 1887 02c6 41000000 		.4byte	.LASF90
 1888 02ca 40       		.byte	0x40
 1889 02cb 0A       		.uleb128 0xa
 1890 02cc 38050000 		.4byte	.LASF91
 1891 02d0 41       		.byte	0x41
 1892 02d1 0A       		.uleb128 0xa
 1893 02d2 E80A0000 		.4byte	.LASF92
 1894 02d6 42       		.byte	0x42
 1895 02d7 0A       		.uleb128 0xa
 1896 02d8 6E080000 		.4byte	.LASF93
 1897 02dc 43       		.byte	0x43
 1898 02dd 00       		.byte	0
 1899 02de 0D       		.uleb128 0xd
 1900 02df 5D080000 		.4byte	.LASF94
 1901 02e3 06       		.byte	0x6
 1902 02e4 D801     		.2byte	0x1d8
 1903 02e6 03       		.byte	0x3
 1904 02e7 2D010000 		.4byte	0x12d
 1905 02eb 0E       		.uleb128 0xe
 1906 02ec 040E     		.2byte	0xe04
 1907 02ee 02       		.byte	0x2
 1908 02ef 84       		.byte	0x84
 1909 02f0 09       		.byte	0x9
 1910 02f1 C3030000 		.4byte	0x3c3
 1911 02f5 0F       		.uleb128 0xf
 1912 02f6 D4070000 		.4byte	.LASF95
 1913 02fa 02       		.byte	0x2
 1914 02fb 86       		.byte	0x86
 1915 02fc 11       		.byte	0x11
 1916 02fd D3030000 		.4byte	0x3d3
 1917 0301 02       		.byte	0x2
 1918 0302 23       		.byte	0x23
 1919 0303 00       		.uleb128 0
 1920 0304 0F       		.uleb128 0xf
 1921 0305 32070000 		.4byte	.LASF96
 1922 0309 02       		.byte	0x2
 1923 030a 87       		.byte	0x87
 1924 030b 11       		.byte	0x11
 1925 030c D8030000 		.4byte	0x3d8
 1926 0310 02       		.byte	0x2
 1927 0311 23       		.byte	0x23
 1928 0312 20       		.uleb128 0x20
 1929 0313 0F       		.uleb128 0xf
 1930 0314 F4030000 		.4byte	.LASF97
 1931 0318 02       		.byte	0x2
ARM GAS  C:\Users\user\AppData\Local\Temp\cc7qV6fF.s 			page 72


 1932 0319 88       		.byte	0x88
 1933 031a 11       		.byte	0x11
 1934 031b D3030000 		.4byte	0x3d3
 1935 031f 03       		.byte	0x3
 1936 0320 23       		.byte	0x23
 1937 0321 8001     		.uleb128 0x80
 1938 0323 0F       		.uleb128 0xf
 1939 0324 2C0A0000 		.4byte	.LASF98
 1940 0328 02       		.byte	0x2
 1941 0329 89       		.byte	0x89
 1942 032a 11       		.byte	0x11
 1943 032b D8030000 		.4byte	0x3d8
 1944 032f 03       		.byte	0x3
 1945 0330 23       		.byte	0x23
 1946 0331 A001     		.uleb128 0xa0
 1947 0333 0F       		.uleb128 0xf
 1948 0334 C7010000 		.4byte	.LASF99
 1949 0338 02       		.byte	0x2
 1950 0339 8A       		.byte	0x8a
 1951 033a 11       		.byte	0x11
 1952 033b D3030000 		.4byte	0x3d3
 1953 033f 03       		.byte	0x3
 1954 0340 23       		.byte	0x23
 1955 0341 8002     		.uleb128 0x100
 1956 0343 0F       		.uleb128 0xf
 1957 0344 46070000 		.4byte	.LASF100
 1958 0348 02       		.byte	0x2
 1959 0349 8B       		.byte	0x8b
 1960 034a 11       		.byte	0x11
 1961 034b D8030000 		.4byte	0x3d8
 1962 034f 03       		.byte	0x3
 1963 0350 23       		.byte	0x23
 1964 0351 A002     		.uleb128 0x120
 1965 0353 0F       		.uleb128 0xf
 1966 0354 00000000 		.4byte	.LASF101
 1967 0358 02       		.byte	0x2
 1968 0359 8C       		.byte	0x8c
 1969 035a 11       		.byte	0x11
 1970 035b D3030000 		.4byte	0x3d3
 1971 035f 03       		.byte	0x3
 1972 0360 23       		.byte	0x23
 1973 0361 8003     		.uleb128 0x180
 1974 0363 0F       		.uleb128 0xf
 1975 0364 50070000 		.4byte	.LASF102
 1976 0368 02       		.byte	0x2
 1977 0369 8D       		.byte	0x8d
 1978 036a 11       		.byte	0x11
 1979 036b D8030000 		.4byte	0x3d8
 1980 036f 03       		.byte	0x3
 1981 0370 23       		.byte	0x23
 1982 0371 A003     		.uleb128 0x1a0
 1983 0373 0F       		.uleb128 0xf
 1984 0374 0E060000 		.4byte	.LASF103
 1985 0378 02       		.byte	0x2
 1986 0379 8E       		.byte	0x8e
 1987 037a 11       		.byte	0x11
 1988 037b D3030000 		.4byte	0x3d3
ARM GAS  C:\Users\user\AppData\Local\Temp\cc7qV6fF.s 			page 73


 1989 037f 03       		.byte	0x3
 1990 0380 23       		.byte	0x23
 1991 0381 8004     		.uleb128 0x200
 1992 0383 0F       		.uleb128 0xf
 1993 0384 5A070000 		.4byte	.LASF104
 1994 0388 02       		.byte	0x2
 1995 0389 8F       		.byte	0x8f
 1996 038a 11       		.byte	0x11
 1997 038b E8030000 		.4byte	0x3e8
 1998 038f 03       		.byte	0x3
 1999 0390 23       		.byte	0x23
 2000 0391 A004     		.uleb128 0x220
 2001 0393 10       		.uleb128 0x10
 2002 0394 495000   		.ascii	"IP\000"
 2003 0397 02       		.byte	0x2
 2004 0398 90       		.byte	0x90
 2005 0399 11       		.byte	0x11
 2006 039a 08040000 		.4byte	0x408
 2007 039e 03       		.byte	0x3
 2008 039f 23       		.byte	0x23
 2009 03a0 8006     		.uleb128 0x300
 2010 03a2 0F       		.uleb128 0xf
 2011 03a3 64070000 		.4byte	.LASF105
 2012 03a7 02       		.byte	0x2
 2013 03a8 91       		.byte	0x91
 2014 03a9 11       		.byte	0x11
 2015 03aa 0D040000 		.4byte	0x40d
 2016 03ae 03       		.byte	0x3
 2017 03af 23       		.byte	0x23
 2018 03b0 F007     		.uleb128 0x3f0
 2019 03b2 0F       		.uleb128 0xf
 2020 03b3 350A0000 		.4byte	.LASF106
 2021 03b7 02       		.byte	0x2
 2022 03b8 92       		.byte	0x92
 2023 03b9 11       		.byte	0x11
 2024 03ba D8000000 		.4byte	0xd8
 2025 03be 03       		.byte	0x3
 2026 03bf 23       		.byte	0x23
 2027 03c0 801C     		.uleb128 0xe00
 2028 03c2 00       		.byte	0
 2029 03c3 11       		.uleb128 0x11
 2030 03c4 D8000000 		.4byte	0xd8
 2031 03c8 D3030000 		.4byte	0x3d3
 2032 03cc 12       		.uleb128 0x12
 2033 03cd 2C000000 		.4byte	0x2c
 2034 03d1 07       		.byte	0x7
 2035 03d2 00       		.byte	0
 2036 03d3 08       		.uleb128 0x8
 2037 03d4 C3030000 		.4byte	0x3c3
 2038 03d8 11       		.uleb128 0x11
 2039 03d9 CC000000 		.4byte	0xcc
 2040 03dd E8030000 		.4byte	0x3e8
 2041 03e1 12       		.uleb128 0x12
 2042 03e2 2C000000 		.4byte	0x2c
 2043 03e6 17       		.byte	0x17
 2044 03e7 00       		.byte	0
 2045 03e8 11       		.uleb128 0x11
ARM GAS  C:\Users\user\AppData\Local\Temp\cc7qV6fF.s 			page 74


 2046 03e9 CC000000 		.4byte	0xcc
 2047 03ed F8030000 		.4byte	0x3f8
 2048 03f1 12       		.uleb128 0x12
 2049 03f2 2C000000 		.4byte	0x2c
 2050 03f6 37       		.byte	0x37
 2051 03f7 00       		.byte	0
 2052 03f8 11       		.uleb128 0x11
 2053 03f9 B6000000 		.4byte	0xb6
 2054 03fd 08040000 		.4byte	0x408
 2055 0401 12       		.uleb128 0x12
 2056 0402 2C000000 		.4byte	0x2c
 2057 0406 EF       		.byte	0xef
 2058 0407 00       		.byte	0
 2059 0408 08       		.uleb128 0x8
 2060 0409 F8030000 		.4byte	0x3f8
 2061 040d 11       		.uleb128 0x11
 2062 040e CC000000 		.4byte	0xcc
 2063 0412 1E040000 		.4byte	0x41e
 2064 0416 13       		.uleb128 0x13
 2065 0417 2C000000 		.4byte	0x2c
 2066 041b 8302     		.2byte	0x283
 2067 041d 00       		.byte	0
 2068 041e 04       		.uleb128 0x4
 2069 041f D9070000 		.4byte	.LASF107
 2070 0423 02       		.byte	0x2
 2071 0424 93       		.byte	0x93
 2072 0425 04       		.byte	0x4
 2073 0426 EB020000 		.4byte	0x2eb
 2074 042a 14       		.uleb128 0x14
 2075 042b 74       		.byte	0x74
 2076 042c 02       		.byte	0x2
 2077 042d 9B       		.byte	0x9b
 2078 042e 09       		.byte	0x9
 2079 042f 51050000 		.4byte	0x551
 2080 0433 0F       		.uleb128 0xf
 2081 0434 EB060000 		.4byte	.LASF108
 2082 0438 02       		.byte	0x2
 2083 0439 9D       		.byte	0x9d
 2084 043a 11       		.byte	0x11
 2085 043b DD000000 		.4byte	0xdd
 2086 043f 02       		.byte	0x2
 2087 0440 23       		.byte	0x23
 2088 0441 00       		.uleb128 0
 2089 0442 0F       		.uleb128 0xf
 2090 0443 B8040000 		.4byte	.LASF109
 2091 0447 02       		.byte	0x2
 2092 0448 9E       		.byte	0x9e
 2093 0449 11       		.byte	0x11
 2094 044a D8000000 		.4byte	0xd8
 2095 044e 02       		.byte	0x2
 2096 044f 23       		.byte	0x23
 2097 0450 04       		.uleb128 0x4
 2098 0451 0F       		.uleb128 0xf
 2099 0452 79040000 		.4byte	.LASF110
 2100 0456 02       		.byte	0x2
 2101 0457 9F       		.byte	0x9f
 2102 0458 11       		.byte	0x11
ARM GAS  C:\Users\user\AppData\Local\Temp\cc7qV6fF.s 			page 75


 2103 0459 D8000000 		.4byte	0xd8
 2104 045d 02       		.byte	0x2
 2105 045e 23       		.byte	0x23
 2106 045f 08       		.uleb128 0x8
 2107 0460 0F       		.uleb128 0xf
 2108 0461 CE040000 		.4byte	.LASF111
 2109 0465 02       		.byte	0x2
 2110 0466 A0       		.byte	0xa0
 2111 0467 11       		.byte	0x11
 2112 0468 D8000000 		.4byte	0xd8
 2113 046c 02       		.byte	0x2
 2114 046d 23       		.byte	0x23
 2115 046e 0C       		.uleb128 0xc
 2116 046f 10       		.uleb128 0x10
 2117 0470 53435200 		.ascii	"SCR\000"
 2118 0474 02       		.byte	0x2
 2119 0475 A1       		.byte	0xa1
 2120 0476 11       		.byte	0x11
 2121 0477 D8000000 		.4byte	0xd8
 2122 047b 02       		.byte	0x2
 2123 047c 23       		.byte	0x23
 2124 047d 10       		.uleb128 0x10
 2125 047e 10       		.uleb128 0x10
 2126 047f 43435200 		.ascii	"CCR\000"
 2127 0483 02       		.byte	0x2
 2128 0484 A2       		.byte	0xa2
 2129 0485 11       		.byte	0x11
 2130 0486 D8000000 		.4byte	0xd8
 2131 048a 02       		.byte	0x2
 2132 048b 23       		.byte	0x23
 2133 048c 14       		.uleb128 0x14
 2134 048d 10       		.uleb128 0x10
 2135 048e 53485000 		.ascii	"SHP\000"
 2136 0492 02       		.byte	0x2
 2137 0493 A3       		.byte	0xa3
 2138 0494 11       		.byte	0x11
 2139 0495 61050000 		.4byte	0x561
 2140 0499 02       		.byte	0x2
 2141 049a 23       		.byte	0x23
 2142 049b 18       		.uleb128 0x18
 2143 049c 0F       		.uleb128 0xf
 2144 049d B3070000 		.4byte	.LASF112
 2145 04a1 02       		.byte	0x2
 2146 04a2 A4       		.byte	0xa4
 2147 04a3 11       		.byte	0x11
 2148 04a4 D8000000 		.4byte	0xd8
 2149 04a8 02       		.byte	0x2
 2150 04a9 23       		.byte	0x23
 2151 04aa 24       		.uleb128 0x24
 2152 04ab 0F       		.uleb128 0xf
 2153 04ac FB050000 		.4byte	.LASF113
 2154 04b0 02       		.byte	0x2
 2155 04b1 A5       		.byte	0xa5
 2156 04b2 11       		.byte	0x11
 2157 04b3 D8000000 		.4byte	0xd8
 2158 04b7 02       		.byte	0x2
 2159 04b8 23       		.byte	0x23
ARM GAS  C:\Users\user\AppData\Local\Temp\cc7qV6fF.s 			page 76


 2160 04b9 28       		.uleb128 0x28
 2161 04ba 0F       		.uleb128 0xf
 2162 04bb D50A0000 		.4byte	.LASF114
 2163 04bf 02       		.byte	0x2
 2164 04c0 A6       		.byte	0xa6
 2165 04c1 11       		.byte	0x11
 2166 04c2 D8000000 		.4byte	0xd8
 2167 04c6 02       		.byte	0x2
 2168 04c7 23       		.byte	0x23
 2169 04c8 2C       		.uleb128 0x2c
 2170 04c9 0F       		.uleb128 0xf
 2171 04ca D4040000 		.4byte	.LASF115
 2172 04ce 02       		.byte	0x2
 2173 04cf A7       		.byte	0xa7
 2174 04d0 11       		.byte	0x11
 2175 04d1 D8000000 		.4byte	0xd8
 2176 04d5 02       		.byte	0x2
 2177 04d6 23       		.byte	0x23
 2178 04d7 30       		.uleb128 0x30
 2179 04d8 0F       		.uleb128 0xf
 2180 04d9 E8040000 		.4byte	.LASF116
 2181 04dd 02       		.byte	0x2
 2182 04de A8       		.byte	0xa8
 2183 04df 11       		.byte	0x11
 2184 04e0 D8000000 		.4byte	0xd8
 2185 04e4 02       		.byte	0x2
 2186 04e5 23       		.byte	0x23
 2187 04e6 34       		.uleb128 0x34
 2188 04e7 0F       		.uleb128 0xf
 2189 04e8 46030000 		.4byte	.LASF117
 2190 04ec 02       		.byte	0x2
 2191 04ed A9       		.byte	0xa9
 2192 04ee 11       		.byte	0x11
 2193 04ef D8000000 		.4byte	0xd8
 2194 04f3 02       		.byte	0x2
 2195 04f4 23       		.byte	0x23
 2196 04f5 38       		.uleb128 0x38
 2197 04f6 0F       		.uleb128 0xf
 2198 04f7 68030000 		.4byte	.LASF118
 2199 04fb 02       		.byte	0x2
 2200 04fc AA       		.byte	0xaa
 2201 04fd 11       		.byte	0x11
 2202 04fe D8000000 		.4byte	0xd8
 2203 0502 02       		.byte	0x2
 2204 0503 23       		.byte	0x23
 2205 0504 3C       		.uleb128 0x3c
 2206 0505 10       		.uleb128 0x10
 2207 0506 50465200 		.ascii	"PFR\000"
 2208 050a 02       		.byte	0x2
 2209 050b AB       		.byte	0xab
 2210 050c 11       		.byte	0x11
 2211 050d 7B050000 		.4byte	0x57b
 2212 0511 02       		.byte	0x2
 2213 0512 23       		.byte	0x23
 2214 0513 40       		.uleb128 0x40
 2215 0514 10       		.uleb128 0x10
 2216 0515 44465200 		.ascii	"DFR\000"
ARM GAS  C:\Users\user\AppData\Local\Temp\cc7qV6fF.s 			page 77


 2217 0519 02       		.byte	0x2
 2218 051a AC       		.byte	0xac
 2219 051b 11       		.byte	0x11
 2220 051c DD000000 		.4byte	0xdd
 2221 0520 02       		.byte	0x2
 2222 0521 23       		.byte	0x23
 2223 0522 48       		.uleb128 0x48
 2224 0523 10       		.uleb128 0x10
 2225 0524 41445200 		.ascii	"ADR\000"
 2226 0528 02       		.byte	0x2
 2227 0529 AD       		.byte	0xad
 2228 052a 11       		.byte	0x11
 2229 052b DD000000 		.4byte	0xdd
 2230 052f 02       		.byte	0x2
 2231 0530 23       		.byte	0x23
 2232 0531 4C       		.uleb128 0x4c
 2233 0532 0F       		.uleb128 0xf
 2234 0533 45090000 		.4byte	.LASF119
 2235 0537 02       		.byte	0x2
 2236 0538 AE       		.byte	0xae
 2237 0539 11       		.byte	0x11
 2238 053a 95050000 		.4byte	0x595
 2239 053e 02       		.byte	0x2
 2240 053f 23       		.byte	0x23
 2241 0540 50       		.uleb128 0x50
 2242 0541 0F       		.uleb128 0xf
 2243 0542 E1010000 		.4byte	.LASF120
 2244 0546 02       		.byte	0x2
 2245 0547 AF       		.byte	0xaf
 2246 0548 11       		.byte	0x11
 2247 0549 AF050000 		.4byte	0x5af
 2248 054d 02       		.byte	0x2
 2249 054e 23       		.byte	0x23
 2250 054f 60       		.uleb128 0x60
 2251 0550 00       		.byte	0
 2252 0551 11       		.uleb128 0x11
 2253 0552 B6000000 		.4byte	0xb6
 2254 0556 61050000 		.4byte	0x561
 2255 055a 12       		.uleb128 0x12
 2256 055b 2C000000 		.4byte	0x2c
 2257 055f 0B       		.byte	0xb
 2258 0560 00       		.byte	0
 2259 0561 08       		.uleb128 0x8
 2260 0562 51050000 		.4byte	0x551
 2261 0566 11       		.uleb128 0x11
 2262 0567 DD000000 		.4byte	0xdd
 2263 056b 76050000 		.4byte	0x576
 2264 056f 12       		.uleb128 0x12
 2265 0570 2C000000 		.4byte	0x2c
 2266 0574 01       		.byte	0x1
 2267 0575 00       		.byte	0
 2268 0576 06       		.uleb128 0x6
 2269 0577 66050000 		.4byte	0x566
 2270 057b 08       		.uleb128 0x8
 2271 057c 76050000 		.4byte	0x576
 2272 0580 11       		.uleb128 0x11
 2273 0581 DD000000 		.4byte	0xdd
ARM GAS  C:\Users\user\AppData\Local\Temp\cc7qV6fF.s 			page 78


 2274 0585 90050000 		.4byte	0x590
 2275 0589 12       		.uleb128 0x12
 2276 058a 2C000000 		.4byte	0x2c
 2277 058e 03       		.byte	0x3
 2278 058f 00       		.byte	0
 2279 0590 06       		.uleb128 0x6
 2280 0591 80050000 		.4byte	0x580
 2281 0595 08       		.uleb128 0x8
 2282 0596 90050000 		.4byte	0x590
 2283 059a 11       		.uleb128 0x11
 2284 059b DD000000 		.4byte	0xdd
 2285 059f AA050000 		.4byte	0x5aa
 2286 05a3 12       		.uleb128 0x12
 2287 05a4 2C000000 		.4byte	0x2c
 2288 05a8 04       		.byte	0x4
 2289 05a9 00       		.byte	0
 2290 05aa 06       		.uleb128 0x6
 2291 05ab 9A050000 		.4byte	0x59a
 2292 05af 08       		.uleb128 0x8
 2293 05b0 AA050000 		.4byte	0x5aa
 2294 05b4 04       		.uleb128 0x4
 2295 05b5 97030000 		.4byte	.LASF121
 2296 05b9 02       		.byte	0x2
 2297 05ba B0       		.byte	0xb0
 2298 05bb 03       		.byte	0x3
 2299 05bc 2A040000 		.4byte	0x42a
 2300 05c0 15       		.uleb128 0x15
 2301 05c1 07       		.byte	0x7
 2302 05c2 01       		.byte	0x1
 2303 05c3 54000000 		.4byte	0x54
 2304 05c7 06       		.byte	0x6
 2305 05c8 0902     		.2byte	0x209
 2306 05ca 0E       		.byte	0xe
 2307 05cb DC050000 		.4byte	0x5dc
 2308 05cf 0A       		.uleb128 0xa
 2309 05d0 30010000 		.4byte	.LASF122
 2310 05d4 00       		.byte	0
 2311 05d5 0A       		.uleb128 0xa
 2312 05d6 9A020000 		.4byte	.LASF123
 2313 05da 01       		.byte	0x1
 2314 05db 00       		.byte	0
 2315 05dc 16       		.uleb128 0x16
 2316 05dd 1C       		.byte	0x1c
 2317 05de 06       		.byte	0x6
 2318 05df E903     		.2byte	0x3e9
 2319 05e1 09       		.byte	0x9
 2320 05e2 57060000 		.4byte	0x657
 2321 05e6 17       		.uleb128 0x17
 2322 05e7 43524C00 		.ascii	"CRL\000"
 2323 05eb 06       		.byte	0x6
 2324 05ec EB03     		.2byte	0x3eb
 2325 05ee 11       		.byte	0x11
 2326 05ef D8000000 		.4byte	0xd8
 2327 05f3 02       		.byte	0x2
 2328 05f4 23       		.byte	0x23
 2329 05f5 00       		.uleb128 0
 2330 05f6 17       		.uleb128 0x17
ARM GAS  C:\Users\user\AppData\Local\Temp\cc7qV6fF.s 			page 79


 2331 05f7 43524800 		.ascii	"CRH\000"
 2332 05fb 06       		.byte	0x6
 2333 05fc EC03     		.2byte	0x3ec
 2334 05fe 11       		.byte	0x11
 2335 05ff D8000000 		.4byte	0xd8
 2336 0603 02       		.byte	0x2
 2337 0604 23       		.byte	0x23
 2338 0605 04       		.uleb128 0x4
 2339 0606 17       		.uleb128 0x17
 2340 0607 49445200 		.ascii	"IDR\000"
 2341 060b 06       		.byte	0x6
 2342 060c ED03     		.2byte	0x3ed
 2343 060e 11       		.byte	0x11
 2344 060f D8000000 		.4byte	0xd8
 2345 0613 02       		.byte	0x2
 2346 0614 23       		.byte	0x23
 2347 0615 08       		.uleb128 0x8
 2348 0616 17       		.uleb128 0x17
 2349 0617 4F445200 		.ascii	"ODR\000"
 2350 061b 06       		.byte	0x6
 2351 061c EE03     		.2byte	0x3ee
 2352 061e 11       		.byte	0x11
 2353 061f D8000000 		.4byte	0xd8
 2354 0623 02       		.byte	0x2
 2355 0624 23       		.byte	0x23
 2356 0625 0C       		.uleb128 0xc
 2357 0626 18       		.uleb128 0x18
 2358 0627 E1090000 		.4byte	.LASF124
 2359 062b 06       		.byte	0x6
 2360 062c EF03     		.2byte	0x3ef
 2361 062e 11       		.byte	0x11
 2362 062f D8000000 		.4byte	0xd8
 2363 0633 02       		.byte	0x2
 2364 0634 23       		.byte	0x23
 2365 0635 10       		.uleb128 0x10
 2366 0636 17       		.uleb128 0x17
 2367 0637 42525200 		.ascii	"BRR\000"
 2368 063b 06       		.byte	0x6
 2369 063c F003     		.2byte	0x3f0
 2370 063e 11       		.byte	0x11
 2371 063f D8000000 		.4byte	0xd8
 2372 0643 02       		.byte	0x2
 2373 0644 23       		.byte	0x23
 2374 0645 14       		.uleb128 0x14
 2375 0646 18       		.uleb128 0x18
 2376 0647 1E000000 		.4byte	.LASF125
 2377 064b 06       		.byte	0x6
 2378 064c F103     		.2byte	0x3f1
 2379 064e 11       		.byte	0x11
 2380 064f D8000000 		.4byte	0xd8
 2381 0653 02       		.byte	0x2
 2382 0654 23       		.byte	0x23
 2383 0655 18       		.uleb128 0x18
 2384 0656 00       		.byte	0
 2385 0657 0D       		.uleb128 0xd
 2386 0658 38040000 		.4byte	.LASF126
 2387 065c 06       		.byte	0x6
ARM GAS  C:\Users\user\AppData\Local\Temp\cc7qV6fF.s 			page 80


 2388 065d F203     		.2byte	0x3f2
 2389 065f 03       		.byte	0x3
 2390 0660 DC050000 		.4byte	0x5dc
 2391 0664 16       		.uleb128 0x16
 2392 0665 1C       		.byte	0x1c
 2393 0666 06       		.byte	0x6
 2394 0667 D204     		.2byte	0x4d2
 2395 0669 09       		.byte	0x9
 2396 066a 4D070000 		.4byte	0x74d
 2397 066e 17       		.uleb128 0x17
 2398 066f 535200   		.ascii	"SR\000"
 2399 0672 06       		.byte	0x6
 2400 0673 D404     		.2byte	0x4d4
 2401 0675 11       		.byte	0x11
 2402 0676 C7000000 		.4byte	0xc7
 2403 067a 02       		.byte	0x2
 2404 067b 23       		.byte	0x23
 2405 067c 00       		.uleb128 0
 2406 067d 18       		.uleb128 0x18
 2407 067e 32070000 		.4byte	.LASF96
 2408 0682 06       		.byte	0x6
 2409 0683 D504     		.2byte	0x4d5
 2410 0685 0D       		.byte	0xd
 2411 0686 BB000000 		.4byte	0xbb
 2412 068a 02       		.byte	0x2
 2413 068b 23       		.byte	0x23
 2414 068c 02       		.uleb128 0x2
 2415 068d 17       		.uleb128 0x17
 2416 068e 445200   		.ascii	"DR\000"
 2417 0691 06       		.byte	0x6
 2418 0692 D604     		.2byte	0x4d6
 2419 0694 11       		.byte	0x11
 2420 0695 C7000000 		.4byte	0xc7
 2421 0699 02       		.byte	0x2
 2422 069a 23       		.byte	0x23
 2423 069b 04       		.uleb128 0x4
 2424 069c 18       		.uleb128 0x18
 2425 069d 3C070000 		.4byte	.LASF127
 2426 06a1 06       		.byte	0x6
 2427 06a2 D704     		.2byte	0x4d7
 2428 06a4 0D       		.byte	0xd
 2429 06a5 BB000000 		.4byte	0xbb
 2430 06a9 02       		.byte	0x2
 2431 06aa 23       		.byte	0x23
 2432 06ab 06       		.uleb128 0x6
 2433 06ac 17       		.uleb128 0x17
 2434 06ad 42525200 		.ascii	"BRR\000"
 2435 06b1 06       		.byte	0x6
 2436 06b2 D804     		.2byte	0x4d8
 2437 06b4 11       		.byte	0x11
 2438 06b5 C7000000 		.4byte	0xc7
 2439 06b9 02       		.byte	0x2
 2440 06ba 23       		.byte	0x23
 2441 06bb 08       		.uleb128 0x8
 2442 06bc 18       		.uleb128 0x18
 2443 06bd 46070000 		.4byte	.LASF100
 2444 06c1 06       		.byte	0x6
ARM GAS  C:\Users\user\AppData\Local\Temp\cc7qV6fF.s 			page 81


 2445 06c2 D904     		.2byte	0x4d9
 2446 06c4 0D       		.byte	0xd
 2447 06c5 BB000000 		.4byte	0xbb
 2448 06c9 02       		.byte	0x2
 2449 06ca 23       		.byte	0x23
 2450 06cb 0A       		.uleb128 0xa
 2451 06cc 17       		.uleb128 0x17
 2452 06cd 43523100 		.ascii	"CR1\000"
 2453 06d1 06       		.byte	0x6
 2454 06d2 DA04     		.2byte	0x4da
 2455 06d4 11       		.byte	0x11
 2456 06d5 C7000000 		.4byte	0xc7
 2457 06d9 02       		.byte	0x2
 2458 06da 23       		.byte	0x23
 2459 06db 0C       		.uleb128 0xc
 2460 06dc 18       		.uleb128 0x18
 2461 06dd 50070000 		.4byte	.LASF102
 2462 06e1 06       		.byte	0x6
 2463 06e2 DB04     		.2byte	0x4db
 2464 06e4 0D       		.byte	0xd
 2465 06e5 BB000000 		.4byte	0xbb
 2466 06e9 02       		.byte	0x2
 2467 06ea 23       		.byte	0x23
 2468 06eb 0E       		.uleb128 0xe
 2469 06ec 17       		.uleb128 0x17
 2470 06ed 43523200 		.ascii	"CR2\000"
 2471 06f1 06       		.byte	0x6
 2472 06f2 DC04     		.2byte	0x4dc
 2473 06f4 11       		.byte	0x11
 2474 06f5 C7000000 		.4byte	0xc7
 2475 06f9 02       		.byte	0x2
 2476 06fa 23       		.byte	0x23
 2477 06fb 10       		.uleb128 0x10
 2478 06fc 18       		.uleb128 0x18
 2479 06fd 5A070000 		.4byte	.LASF104
 2480 0701 06       		.byte	0x6
 2481 0702 DD04     		.2byte	0x4dd
 2482 0704 0D       		.byte	0xd
 2483 0705 BB000000 		.4byte	0xbb
 2484 0709 02       		.byte	0x2
 2485 070a 23       		.byte	0x23
 2486 070b 12       		.uleb128 0x12
 2487 070c 17       		.uleb128 0x17
 2488 070d 43523300 		.ascii	"CR3\000"
 2489 0711 06       		.byte	0x6
 2490 0712 DE04     		.2byte	0x4de
 2491 0714 11       		.byte	0x11
 2492 0715 C7000000 		.4byte	0xc7
 2493 0719 02       		.byte	0x2
 2494 071a 23       		.byte	0x23
 2495 071b 14       		.uleb128 0x14
 2496 071c 18       		.uleb128 0x18
 2497 071d 64070000 		.4byte	.LASF105
 2498 0721 06       		.byte	0x6
 2499 0722 DF04     		.2byte	0x4df
 2500 0724 0D       		.byte	0xd
 2501 0725 BB000000 		.4byte	0xbb
ARM GAS  C:\Users\user\AppData\Local\Temp\cc7qV6fF.s 			page 82


 2502 0729 02       		.byte	0x2
 2503 072a 23       		.byte	0x23
 2504 072b 16       		.uleb128 0x16
 2505 072c 18       		.uleb128 0x18
 2506 072d 2D020000 		.4byte	.LASF128
 2507 0731 06       		.byte	0x6
 2508 0732 E004     		.2byte	0x4e0
 2509 0734 11       		.byte	0x11
 2510 0735 C7000000 		.4byte	0xc7
 2511 0739 02       		.byte	0x2
 2512 073a 23       		.byte	0x23
 2513 073b 18       		.uleb128 0x18
 2514 073c 18       		.uleb128 0x18
 2515 073d 6E070000 		.4byte	.LASF129
 2516 0741 06       		.byte	0x6
 2517 0742 E104     		.2byte	0x4e1
 2518 0744 0D       		.byte	0xd
 2519 0745 BB000000 		.4byte	0xbb
 2520 0749 02       		.byte	0x2
 2521 074a 23       		.byte	0x23
 2522 074b 1A       		.uleb128 0x1a
 2523 074c 00       		.byte	0
 2524 074d 0D       		.uleb128 0xd
 2525 074e F8040000 		.4byte	.LASF130
 2526 0752 06       		.byte	0x6
 2527 0753 E204     		.2byte	0x4e2
 2528 0755 03       		.byte	0x3
 2529 0756 64060000 		.4byte	0x664
 2530 075a 09       		.uleb128 0x9
 2531 075b 07       		.byte	0x7
 2532 075c 01       		.byte	0x1
 2533 075d 54000000 		.4byte	0x54
 2534 0761 07       		.byte	0x7
 2535 0762 3B       		.byte	0x3b
 2536 0763 01       		.byte	0x1
 2537 0764 7B070000 		.4byte	0x77b
 2538 0768 0A       		.uleb128 0xa
 2539 0769 96000000 		.4byte	.LASF131
 2540 076d 01       		.byte	0x1
 2541 076e 0A       		.uleb128 0xa
 2542 076f C4070000 		.4byte	.LASF132
 2543 0773 02       		.byte	0x2
 2544 0774 0A       		.uleb128 0xa
 2545 0775 B8060000 		.4byte	.LASF133
 2546 0779 03       		.byte	0x3
 2547 077a 00       		.byte	0
 2548 077b 04       		.uleb128 0x4
 2549 077c BC030000 		.4byte	.LASF134
 2550 0780 07       		.byte	0x7
 2551 0781 3F       		.byte	0x3f
 2552 0782 02       		.byte	0x2
 2553 0783 5A070000 		.4byte	0x75a
 2554 0787 09       		.uleb128 0x9
 2555 0788 07       		.byte	0x7
 2556 0789 01       		.byte	0x1
 2557 078a 54000000 		.4byte	0x54
 2558 078e 07       		.byte	0x7
ARM GAS  C:\Users\user\AppData\Local\Temp\cc7qV6fF.s 			page 83


 2559 078f 48       		.byte	0x48
 2560 0790 01       		.byte	0x1
 2561 0791 C6070000 		.4byte	0x7c6
 2562 0795 0A       		.uleb128 0xa
 2563 0796 0B080000 		.4byte	.LASF135
 2564 079a 00       		.byte	0
 2565 079b 0A       		.uleb128 0xa
 2566 079c 63040000 		.4byte	.LASF136
 2567 07a0 04       		.byte	0x4
 2568 07a1 0A       		.uleb128 0xa
 2569 07a2 62060000 		.4byte	.LASF137
 2570 07a6 28       		.byte	0x28
 2571 07a7 0A       		.uleb128 0xa
 2572 07a8 4F020000 		.4byte	.LASF138
 2573 07ac 48       		.byte	0x48
 2574 07ad 0A       		.uleb128 0xa
 2575 07ae BD040000 		.4byte	.LASF139
 2576 07b2 14       		.byte	0x14
 2577 07b3 0A       		.uleb128 0xa
 2578 07b4 96060000 		.4byte	.LASF140
 2579 07b8 10       		.byte	0x10
 2580 07b9 0A       		.uleb128 0xa
 2581 07ba 83040000 		.4byte	.LASF141
 2582 07be 1C       		.byte	0x1c
 2583 07bf 0A       		.uleb128 0xa
 2584 07c0 39060000 		.4byte	.LASF142
 2585 07c4 18       		.byte	0x18
 2586 07c5 00       		.byte	0
 2587 07c6 04       		.uleb128 0x4
 2588 07c7 810A0000 		.4byte	.LASF143
 2589 07cb 07       		.byte	0x7
 2590 07cc 50       		.byte	0x50
 2591 07cd 02       		.byte	0x2
 2592 07ce 87070000 		.4byte	0x787
 2593 07d2 14       		.uleb128 0x14
 2594 07d3 04       		.byte	0x4
 2595 07d4 07       		.byte	0x7
 2596 07d5 5B       		.byte	0x5b
 2597 07d6 09       		.byte	0x9
 2598 07d7 09080000 		.4byte	0x809
 2599 07db 0F       		.uleb128 0xf
 2600 07dc CE030000 		.4byte	.LASF144
 2601 07e0 07       		.byte	0x7
 2602 07e1 5D       		.byte	0x5d
 2603 07e2 0C       		.byte	0xc
 2604 07e3 BB000000 		.4byte	0xbb
 2605 07e7 02       		.byte	0x2
 2606 07e8 23       		.byte	0x23
 2607 07e9 00       		.uleb128 0
 2608 07ea 0F       		.uleb128 0xf
 2609 07eb 82010000 		.4byte	.LASF145
 2610 07ef 07       		.byte	0x7
 2611 07f0 60       		.byte	0x60
 2612 07f1 15       		.byte	0x15
 2613 07f2 7B070000 		.4byte	0x77b
 2614 07f6 02       		.byte	0x2
 2615 07f7 23       		.byte	0x23
ARM GAS  C:\Users\user\AppData\Local\Temp\cc7qV6fF.s 			page 84


 2616 07f8 02       		.uleb128 0x2
 2617 07f9 0F       		.uleb128 0xf
 2618 07fa 06030000 		.4byte	.LASF146
 2619 07fe 07       		.byte	0x7
 2620 07ff 63       		.byte	0x63
 2621 0800 14       		.byte	0x14
 2622 0801 C6070000 		.4byte	0x7c6
 2623 0805 02       		.byte	0x2
 2624 0806 23       		.byte	0x23
 2625 0807 03       		.uleb128 0x3
 2626 0808 00       		.byte	0
 2627 0809 04       		.uleb128 0x4
 2628 080a 7D060000 		.4byte	.LASF147
 2629 080e 07       		.byte	0x7
 2630 080f 65       		.byte	0x65
 2631 0810 02       		.byte	0x2
 2632 0811 D2070000 		.4byte	0x7d2
 2633 0815 14       		.uleb128 0x14
 2634 0816 10       		.byte	0x10
 2635 0817 08       		.byte	0x8
 2636 0818 32       		.byte	0x32
 2637 0819 09       		.byte	0x9
 2638 081a 79080000 		.4byte	0x879
 2639 081e 0F       		.uleb128 0xf
 2640 081f 82020000 		.4byte	.LASF148
 2641 0823 08       		.byte	0x8
 2642 0824 34       		.byte	0x34
 2643 0825 0C       		.byte	0xc
 2644 0826 CC000000 		.4byte	0xcc
 2645 082a 02       		.byte	0x2
 2646 082b 23       		.byte	0x23
 2647 082c 00       		.uleb128 0
 2648 082d 0F       		.uleb128 0xf
 2649 082e 25090000 		.4byte	.LASF149
 2650 0832 08       		.byte	0x8
 2651 0833 39       		.byte	0x39
 2652 0834 0C       		.byte	0xc
 2653 0835 BB000000 		.4byte	0xbb
 2654 0839 02       		.byte	0x2
 2655 083a 23       		.byte	0x23
 2656 083b 04       		.uleb128 0x4
 2657 083c 0F       		.uleb128 0xf
 2658 083d 88030000 		.4byte	.LASF150
 2659 0841 08       		.byte	0x8
 2660 0842 3C       		.byte	0x3c
 2661 0843 0C       		.byte	0xc
 2662 0844 BB000000 		.4byte	0xbb
 2663 0848 02       		.byte	0x2
 2664 0849 23       		.byte	0x23
 2665 084a 06       		.uleb128 0x6
 2666 084b 0F       		.uleb128 0xf
 2667 084c 20020000 		.4byte	.LASF151
 2668 0850 08       		.byte	0x8
 2669 0851 3F       		.byte	0x3f
 2670 0852 0C       		.byte	0xc
 2671 0853 BB000000 		.4byte	0xbb
 2672 0857 02       		.byte	0x2
ARM GAS  C:\Users\user\AppData\Local\Temp\cc7qV6fF.s 			page 85


 2673 0858 23       		.byte	0x23
 2674 0859 08       		.uleb128 0x8
 2675 085a 0F       		.uleb128 0xf
 2676 085b 44020000 		.4byte	.LASF152
 2677 085f 08       		.byte	0x8
 2678 0860 46       		.byte	0x46
 2679 0861 0C       		.byte	0xc
 2680 0862 BB000000 		.4byte	0xbb
 2681 0866 02       		.byte	0x2
 2682 0867 23       		.byte	0x23
 2683 0868 0A       		.uleb128 0xa
 2684 0869 0F       		.uleb128 0xf
 2685 086a BB0A0000 		.4byte	.LASF153
 2686 086e 08       		.byte	0x8
 2687 086f 49       		.byte	0x49
 2688 0870 0C       		.byte	0xc
 2689 0871 BB000000 		.4byte	0xbb
 2690 0875 02       		.byte	0x2
 2691 0876 23       		.byte	0x23
 2692 0877 0C       		.uleb128 0xc
 2693 0878 00       		.byte	0
 2694 0879 04       		.uleb128 0x4
 2695 087a 46010000 		.4byte	.LASF154
 2696 087e 08       		.byte	0x8
 2697 087f 4C       		.byte	0x4c
 2698 0880 03       		.byte	0x3
 2699 0881 15080000 		.4byte	0x815
 2700 0885 04       		.uleb128 0x4
 2701 0886 EF020000 		.4byte	.LASF155
 2702 088a 09       		.byte	0x9
 2703 088b 62       		.byte	0x62
 2704 088c 0E       		.byte	0xe
 2705 088d 75000000 		.4byte	0x75
 2706 0891 07       		.uleb128 0x7
 2707 0892 04       		.byte	0x4
 2708 0893 AA000000 		.4byte	0xaa
 2709 0897 04       		.uleb128 0x4
 2710 0898 A4010000 		.4byte	.LASF156
 2711 089c 0A       		.byte	0xa
 2712 089d 58       		.byte	0x58
 2713 089e 10       		.byte	0x10
 2714 089f 96000000 		.4byte	0x96
 2715 08a3 14       		.uleb128 0x14
 2716 08a4 10       		.byte	0x10
 2717 08a5 01       		.byte	0x1
 2718 08a6 0D       		.byte	0xd
 2719 08a7 09       		.byte	0x9
 2720 08a8 E9080000 		.4byte	0x8e9
 2721 08ac 0F       		.uleb128 0xf
 2722 08ad 67050000 		.4byte	.LASF157
 2723 08b1 01       		.byte	0x1
 2724 08b2 0F       		.byte	0xf
 2725 08b3 08       		.byte	0x8
 2726 08b4 21010000 		.4byte	0x121
 2727 08b8 02       		.byte	0x2
 2728 08b9 23       		.byte	0x23
 2729 08ba 00       		.uleb128 0
ARM GAS  C:\Users\user\AppData\Local\Temp\cc7qV6fF.s 			page 86


 2730 08bb 0F       		.uleb128 0xf
 2731 08bc A6040000 		.4byte	.LASF158
 2732 08c0 01       		.byte	0x1
 2733 08c1 10       		.byte	0x10
 2734 08c2 0B       		.byte	0xb
 2735 08c3 CC000000 		.4byte	0xcc
 2736 08c7 02       		.byte	0x2
 2737 08c8 23       		.byte	0x23
 2738 08c9 04       		.uleb128 0x4
 2739 08ca 0F       		.uleb128 0xf
 2740 08cb E3060000 		.4byte	.LASF159
 2741 08cf 01       		.byte	0x1
 2742 08d0 11       		.byte	0x11
 2743 08d1 0F       		.byte	0xf
 2744 08d2 97080000 		.4byte	0x897
 2745 08d6 02       		.byte	0x2
 2746 08d7 23       		.byte	0x23
 2747 08d8 08       		.uleb128 0x8
 2748 08d9 0F       		.uleb128 0xf
 2749 08da 53060000 		.4byte	.LASF160
 2750 08de 01       		.byte	0x1
 2751 08df 12       		.byte	0x12
 2752 08e0 0B       		.byte	0xb
 2753 08e1 CC000000 		.4byte	0xcc
 2754 08e5 02       		.byte	0x2
 2755 08e6 23       		.byte	0x23
 2756 08e7 0C       		.uleb128 0xc
 2757 08e8 00       		.byte	0
 2758 08e9 04       		.uleb128 0x4
 2759 08ea 5E030000 		.4byte	.LASF161
 2760 08ee 01       		.byte	0x1
 2761 08ef 13       		.byte	0x13
 2762 08f0 03       		.byte	0x3
 2763 08f1 A3080000 		.4byte	0x8a3
 2764 08f5 11       		.uleb128 0x11
 2765 08f6 E9080000 		.4byte	0x8e9
 2766 08fa 05090000 		.4byte	0x905
 2767 08fe 12       		.uleb128 0x12
 2768 08ff 2C000000 		.4byte	0x2c
 2769 0903 06       		.byte	0x6
 2770 0904 00       		.byte	0
 2771 0905 19       		.uleb128 0x19
 2772 0906 32020000 		.4byte	.LASF162
 2773 090a 01       		.byte	0x1
 2774 090b 15       		.byte	0x15
 2775 090c 12       		.byte	0x12
 2776 090d F5080000 		.4byte	0x8f5
 2777 0911 05       		.byte	0x5
 2778 0912 03       		.byte	0x3
 2779 0913 00000000 		.4byte	usart_handle_list
 2780 0917 1A       		.uleb128 0x1a
 2781 0918 01       		.byte	0x1
 2782 0919 7F070000 		.4byte	.LASF166
 2783 091d 01       		.byte	0x1
 2784 091e 9601     		.2byte	0x196
 2785 0920 06       		.byte	0x6
 2786 0921 01       		.byte	0x1
ARM GAS  C:\Users\user\AppData\Local\Temp\cc7qV6fF.s 			page 87


 2787 0922 A0030000 		.4byte	.LFB48
 2788 0926 FC030000 		.4byte	.LFE48
 2789 092a 00000000 		.4byte	.LLST40
 2790 092e 01       		.byte	0x1
 2791 092f E1090000 		.4byte	0x9e1
 2792 0933 1B       		.uleb128 0x1b
 2793 0934 0D070000 		.4byte	.LASF163
 2794 0938 01       		.byte	0x1
 2795 0939 9801     		.2byte	0x198
 2796 093b 0D       		.byte	0xd
 2797 093c 85080000 		.4byte	0x885
 2798 0940 02       		.byte	0x2
 2799 0941 91       		.byte	0x91
 2800 0942 74       		.sleb128 -12
 2801 0943 1B       		.uleb128 0x1b
 2802 0944 E1030000 		.4byte	.LASF164
 2803 0948 01       		.byte	0x1
 2804 0949 9901     		.2byte	0x199
 2805 094b 0D       		.byte	0xd
 2806 094c E1090000 		.4byte	0x9e1
 2807 0950 06       		.byte	0x6
 2808 0951 03       		.byte	0x3
 2809 0952 30000000 		.4byte	usart_handle_list+48
 2810 0956 9F       		.byte	0x9f
 2811 0957 1C       		.uleb128 0x1c
 2812 0958 B4030000 		.4byte	.LBB24
 2813 095c D8030000 		.4byte	.LBE24
 2814 0960 C6090000 		.4byte	0x9c6
 2815 0964 1B       		.uleb128 0x1b
 2816 0965 7E040000 		.4byte	.LASF165
 2817 0969 01       		.byte	0x1
 2818 096a 9E01     		.2byte	0x19e
 2819 096c 0B       		.byte	0xb
 2820 096d AA000000 		.4byte	0xaa
 2821 0971 02       		.byte	0x2
 2822 0972 91       		.byte	0x91
 2823 0973 73       		.sleb128 -13
 2824 0974 1D       		.uleb128 0x1d
 2825 0975 BE030000 		.4byte	.LVL118
 2826 0979 4A120000 		.4byte	0x124a
 2827 097d 92090000 		.4byte	0x992
 2828 0981 1E       		.uleb128 0x1e
 2829 0982 01       		.byte	0x1
 2830 0983 50       		.byte	0x50
 2831 0984 05       		.byte	0x5
 2832 0985 0C       		.byte	0xc
 2833 0986 004C0040 		.4byte	0x40004c00
 2834 098a 1E       		.uleb128 0x1e
 2835 098b 01       		.byte	0x1
 2836 098c 51       		.byte	0x51
 2837 098d 03       		.byte	0x3
 2838 098e 0A       		.byte	0xa
 2839 098f 2505     		.2byte	0x525
 2840 0991 00       		.byte	0
 2841 0992 1D       		.uleb128 0x1d
 2842 0993 C4030000 		.4byte	.LVL119
 2843 0997 59120000 		.4byte	0x1259
ARM GAS  C:\Users\user\AppData\Local\Temp\cc7qV6fF.s 			page 88


 2844 099b A9090000 		.4byte	0x9a9
 2845 099f 1E       		.uleb128 0x1e
 2846 09a0 01       		.byte	0x1
 2847 09a1 50       		.byte	0x50
 2848 09a2 05       		.byte	0x5
 2849 09a3 0C       		.byte	0xc
 2850 09a4 004C0040 		.4byte	0x40004c00
 2851 09a8 00       		.byte	0
 2852 09a9 1F       		.uleb128 0x1f
 2853 09aa D8030000 		.4byte	.LVL120
 2854 09ae 68120000 		.4byte	0x1268
 2855 09b2 1E       		.uleb128 0x1e
 2856 09b3 01       		.byte	0x1
 2857 09b4 51       		.byte	0x51
 2858 09b5 02       		.byte	0x2
 2859 09b6 91       		.byte	0x91
 2860 09b7 73       		.sleb128 -13
 2861 09b8 1E       		.uleb128 0x1e
 2862 09b9 01       		.byte	0x1
 2863 09ba 52       		.byte	0x52
 2864 09bb 02       		.byte	0x2
 2865 09bc 91       		.byte	0x91
 2866 09bd 74       		.sleb128 -12
 2867 09be 1E       		.uleb128 0x1e
 2868 09bf 01       		.byte	0x1
 2869 09c0 53       		.byte	0x53
 2870 09c1 02       		.byte	0x2
 2871 09c2 74       		.byte	0x74
 2872 09c3 00       		.sleb128 0
 2873 09c4 00       		.byte	0
 2874 09c5 00       		.byte	0
 2875 09c6 1F       		.uleb128 0x1f
 2876 09c7 B0030000 		.4byte	.LVL117
 2877 09cb 77120000 		.4byte	0x1277
 2878 09cf 1E       		.uleb128 0x1e
 2879 09d0 01       		.byte	0x1
 2880 09d1 50       		.byte	0x50
 2881 09d2 05       		.byte	0x5
 2882 09d3 0C       		.byte	0xc
 2883 09d4 004C0040 		.4byte	0x40004c00
 2884 09d8 1E       		.uleb128 0x1e
 2885 09d9 01       		.byte	0x1
 2886 09da 51       		.byte	0x51
 2887 09db 03       		.byte	0x3
 2888 09dc 0A       		.byte	0xa
 2889 09dd 2505     		.2byte	0x525
 2890 09df 00       		.byte	0
 2891 09e0 00       		.byte	0
 2892 09e1 07       		.uleb128 0x7
 2893 09e2 04       		.byte	0x4
 2894 09e3 E9080000 		.4byte	0x8e9
 2895 09e7 1A       		.uleb128 0x1a
 2896 09e8 01       		.byte	0x1
 2897 09e9 6F0A0000 		.4byte	.LASF167
 2898 09ed 01       		.byte	0x1
 2899 09ee 7A01     		.2byte	0x17a
 2900 09f0 06       		.byte	0x6
ARM GAS  C:\Users\user\AppData\Local\Temp\cc7qV6fF.s 			page 89


 2901 09f1 01       		.byte	0x1
 2902 09f2 44030000 		.4byte	.LFB47
 2903 09f6 A0030000 		.4byte	.LFE47
 2904 09fa 2C000000 		.4byte	.LLST39
 2905 09fe 01       		.byte	0x1
 2906 09ff B10A0000 		.4byte	0xab1
 2907 0a03 1B       		.uleb128 0x1b
 2908 0a04 0D070000 		.4byte	.LASF163
 2909 0a08 01       		.byte	0x1
 2910 0a09 7C01     		.2byte	0x17c
 2911 0a0b 0E       		.byte	0xe
 2912 0a0c 85080000 		.4byte	0x885
 2913 0a10 02       		.byte	0x2
 2914 0a11 91       		.byte	0x91
 2915 0a12 74       		.sleb128 -12
 2916 0a13 1B       		.uleb128 0x1b
 2917 0a14 E1030000 		.4byte	.LASF164
 2918 0a18 01       		.byte	0x1
 2919 0a19 7D01     		.2byte	0x17d
 2920 0a1b 0F       		.byte	0xf
 2921 0a1c E1090000 		.4byte	0x9e1
 2922 0a20 06       		.byte	0x6
 2923 0a21 03       		.byte	0x3
 2924 0a22 10000000 		.4byte	usart_handle_list+16
 2925 0a26 9F       		.byte	0x9f
 2926 0a27 1C       		.uleb128 0x1c
 2927 0a28 58030000 		.4byte	.LBB23
 2928 0a2c 7C030000 		.4byte	.LBE23
 2929 0a30 960A0000 		.4byte	0xa96
 2930 0a34 1B       		.uleb128 0x1b
 2931 0a35 7E040000 		.4byte	.LASF165
 2932 0a39 01       		.byte	0x1
 2933 0a3a 8101     		.2byte	0x181
 2934 0a3c 0C       		.byte	0xc
 2935 0a3d AA000000 		.4byte	0xaa
 2936 0a41 02       		.byte	0x2
 2937 0a42 91       		.byte	0x91
 2938 0a43 73       		.sleb128 -13
 2939 0a44 1D       		.uleb128 0x1d
 2940 0a45 62030000 		.4byte	.LVL113
 2941 0a49 4A120000 		.4byte	0x124a
 2942 0a4d 620A0000 		.4byte	0xa62
 2943 0a51 1E       		.uleb128 0x1e
 2944 0a52 01       		.byte	0x1
 2945 0a53 50       		.byte	0x50
 2946 0a54 05       		.byte	0x5
 2947 0a55 0C       		.byte	0xc
 2948 0a56 00440040 		.4byte	0x40004400
 2949 0a5a 1E       		.uleb128 0x1e
 2950 0a5b 01       		.byte	0x1
 2951 0a5c 51       		.byte	0x51
 2952 0a5d 03       		.byte	0x3
 2953 0a5e 0A       		.byte	0xa
 2954 0a5f 2505     		.2byte	0x525
 2955 0a61 00       		.byte	0
 2956 0a62 1D       		.uleb128 0x1d
 2957 0a63 68030000 		.4byte	.LVL114
ARM GAS  C:\Users\user\AppData\Local\Temp\cc7qV6fF.s 			page 90


 2958 0a67 59120000 		.4byte	0x1259
 2959 0a6b 790A0000 		.4byte	0xa79
 2960 0a6f 1E       		.uleb128 0x1e
 2961 0a70 01       		.byte	0x1
 2962 0a71 50       		.byte	0x50
 2963 0a72 05       		.byte	0x5
 2964 0a73 0C       		.byte	0xc
 2965 0a74 00440040 		.4byte	0x40004400
 2966 0a78 00       		.byte	0
 2967 0a79 1F       		.uleb128 0x1f
 2968 0a7a 7C030000 		.4byte	.LVL115
 2969 0a7e 68120000 		.4byte	0x1268
 2970 0a82 1E       		.uleb128 0x1e
 2971 0a83 01       		.byte	0x1
 2972 0a84 51       		.byte	0x51
 2973 0a85 02       		.byte	0x2
 2974 0a86 91       		.byte	0x91
 2975 0a87 73       		.sleb128 -13
 2976 0a88 1E       		.uleb128 0x1e
 2977 0a89 01       		.byte	0x1
 2978 0a8a 52       		.byte	0x52
 2979 0a8b 02       		.byte	0x2
 2980 0a8c 91       		.byte	0x91
 2981 0a8d 74       		.sleb128 -12
 2982 0a8e 1E       		.uleb128 0x1e
 2983 0a8f 01       		.byte	0x1
 2984 0a90 53       		.byte	0x53
 2985 0a91 02       		.byte	0x2
 2986 0a92 74       		.byte	0x74
 2987 0a93 00       		.sleb128 0
 2988 0a94 00       		.byte	0
 2989 0a95 00       		.byte	0
 2990 0a96 1F       		.uleb128 0x1f
 2991 0a97 54030000 		.4byte	.LVL112
 2992 0a9b 77120000 		.4byte	0x1277
 2993 0a9f 1E       		.uleb128 0x1e
 2994 0aa0 01       		.byte	0x1
 2995 0aa1 50       		.byte	0x50
 2996 0aa2 05       		.byte	0x5
 2997 0aa3 0C       		.byte	0xc
 2998 0aa4 00440040 		.4byte	0x40004400
 2999 0aa8 1E       		.uleb128 0x1e
 3000 0aa9 01       		.byte	0x1
 3001 0aaa 51       		.byte	0x51
 3002 0aab 03       		.byte	0x3
 3003 0aac 0A       		.byte	0xa
 3004 0aad 2505     		.2byte	0x525
 3005 0aaf 00       		.byte	0
 3006 0ab0 00       		.byte	0
 3007 0ab1 1A       		.uleb128 0x1a
 3008 0ab2 01       		.byte	0x1
 3009 0ab3 5D020000 		.4byte	.LASF168
 3010 0ab7 01       		.byte	0x1
 3011 0ab8 6C01     		.2byte	0x16c
 3012 0aba 06       		.byte	0x6
 3013 0abb 01       		.byte	0x1
 3014 0abc E6020000 		.4byte	.LFB46
ARM GAS  C:\Users\user\AppData\Local\Temp\cc7qV6fF.s 			page 91


 3015 0ac0 44030000 		.4byte	.LFE46
 3016 0ac4 58000000 		.4byte	.LLST38
 3017 0ac8 01       		.byte	0x1
 3018 0ac9 7B0B0000 		.4byte	0xb7b
 3019 0acd 1B       		.uleb128 0x1b
 3020 0ace 0D070000 		.4byte	.LASF163
 3021 0ad2 01       		.byte	0x1
 3022 0ad3 6E01     		.2byte	0x16e
 3023 0ad5 0D       		.byte	0xd
 3024 0ad6 85080000 		.4byte	0x885
 3025 0ada 02       		.byte	0x2
 3026 0adb 91       		.byte	0x91
 3027 0adc 74       		.sleb128 -12
 3028 0add 1B       		.uleb128 0x1b
 3029 0ade E1030000 		.4byte	.LASF164
 3030 0ae2 01       		.byte	0x1
 3031 0ae3 6F01     		.2byte	0x16f
 3032 0ae5 0D       		.byte	0xd
 3033 0ae6 E1090000 		.4byte	0x9e1
 3034 0aea 06       		.byte	0x6
 3035 0aeb 03       		.byte	0x3
 3036 0aec 00000000 		.4byte	usart_handle_list
 3037 0af0 9F       		.byte	0x9f
 3038 0af1 1C       		.uleb128 0x1c
 3039 0af2 FA020000 		.4byte	.LBB22
 3040 0af6 1E030000 		.4byte	.LBE22
 3041 0afa 600B0000 		.4byte	0xb60
 3042 0afe 1B       		.uleb128 0x1b
 3043 0aff 7E040000 		.4byte	.LASF165
 3044 0b03 01       		.byte	0x1
 3045 0b04 7401     		.2byte	0x174
 3046 0b06 0B       		.byte	0xb
 3047 0b07 AA000000 		.4byte	0xaa
 3048 0b0b 02       		.byte	0x2
 3049 0b0c 91       		.byte	0x91
 3050 0b0d 73       		.sleb128 -13
 3051 0b0e 1D       		.uleb128 0x1d
 3052 0b0f 04030000 		.4byte	.LVL108
 3053 0b13 4A120000 		.4byte	0x124a
 3054 0b17 2C0B0000 		.4byte	0xb2c
 3055 0b1b 1E       		.uleb128 0x1e
 3056 0b1c 01       		.byte	0x1
 3057 0b1d 50       		.byte	0x50
 3058 0b1e 05       		.byte	0x5
 3059 0b1f 0C       		.byte	0xc
 3060 0b20 00380140 		.4byte	0x40013800
 3061 0b24 1E       		.uleb128 0x1e
 3062 0b25 01       		.byte	0x1
 3063 0b26 51       		.byte	0x51
 3064 0b27 03       		.byte	0x3
 3065 0b28 0A       		.byte	0xa
 3066 0b29 2505     		.2byte	0x525
 3067 0b2b 00       		.byte	0
 3068 0b2c 1D       		.uleb128 0x1d
 3069 0b2d 0A030000 		.4byte	.LVL109
 3070 0b31 59120000 		.4byte	0x1259
 3071 0b35 430B0000 		.4byte	0xb43
ARM GAS  C:\Users\user\AppData\Local\Temp\cc7qV6fF.s 			page 92


 3072 0b39 1E       		.uleb128 0x1e
 3073 0b3a 01       		.byte	0x1
 3074 0b3b 50       		.byte	0x50
 3075 0b3c 05       		.byte	0x5
 3076 0b3d 0C       		.byte	0xc
 3077 0b3e 00380140 		.4byte	0x40013800
 3078 0b42 00       		.byte	0
 3079 0b43 1F       		.uleb128 0x1f
 3080 0b44 1E030000 		.4byte	.LVL110
 3081 0b48 68120000 		.4byte	0x1268
 3082 0b4c 1E       		.uleb128 0x1e
 3083 0b4d 01       		.byte	0x1
 3084 0b4e 51       		.byte	0x51
 3085 0b4f 02       		.byte	0x2
 3086 0b50 91       		.byte	0x91
 3087 0b51 73       		.sleb128 -13
 3088 0b52 1E       		.uleb128 0x1e
 3089 0b53 01       		.byte	0x1
 3090 0b54 52       		.byte	0x52
 3091 0b55 02       		.byte	0x2
 3092 0b56 91       		.byte	0x91
 3093 0b57 74       		.sleb128 -12
 3094 0b58 1E       		.uleb128 0x1e
 3095 0b59 01       		.byte	0x1
 3096 0b5a 53       		.byte	0x53
 3097 0b5b 02       		.byte	0x2
 3098 0b5c 74       		.byte	0x74
 3099 0b5d 00       		.sleb128 0
 3100 0b5e 00       		.byte	0
 3101 0b5f 00       		.byte	0
 3102 0b60 1F       		.uleb128 0x1f
 3103 0b61 F6020000 		.4byte	.LVL107
 3104 0b65 77120000 		.4byte	0x1277
 3105 0b69 1E       		.uleb128 0x1e
 3106 0b6a 01       		.byte	0x1
 3107 0b6b 50       		.byte	0x50
 3108 0b6c 05       		.byte	0x5
 3109 0b6d 0C       		.byte	0xc
 3110 0b6e 00380140 		.4byte	0x40013800
 3111 0b72 1E       		.uleb128 0x1e
 3112 0b73 01       		.byte	0x1
 3113 0b74 51       		.byte	0x51
 3114 0b75 03       		.byte	0x3
 3115 0b76 0A       		.byte	0xa
 3116 0b77 2505     		.2byte	0x525
 3117 0b79 00       		.byte	0
 3118 0b7a 00       		.byte	0
 3119 0b7b 20       		.uleb128 0x20
 3120 0b7c 01       		.byte	0x1
 3121 0b7d E3070000 		.4byte	.LASF170
 3122 0b81 01       		.byte	0x1
 3123 0b82 6101     		.2byte	0x161
 3124 0b84 0A       		.byte	0xa
 3125 0b85 01       		.byte	0x1
 3126 0b86 CC000000 		.4byte	0xcc
 3127 0b8a E2020000 		.4byte	.LFB45
 3128 0b8e E6020000 		.4byte	.LFE45
ARM GAS  C:\Users\user\AppData\Local\Temp\cc7qV6fF.s 			page 93


 3129 0b92 02       		.byte	0x2
 3130 0b93 7D       		.byte	0x7d
 3131 0b94 00       		.sleb128 0
 3132 0b95 01       		.byte	0x1
 3133 0b96 C50B0000 		.4byte	0xbc5
 3134 0b9a 21       		.uleb128 0x21
 3135 0b9b 60050000 		.4byte	.LASF172
 3136 0b9f 01       		.byte	0x1
 3137 0ba0 6101     		.2byte	0x161
 3138 0ba2 24       		.byte	0x24
 3139 0ba3 E2000000 		.4byte	0xe2
 3140 0ba7 88000000 		.4byte	.LLST36
 3141 0bab 84000000 		.4byte	.LVUS36
 3142 0baf 22       		.uleb128 0x22
 3143 0bb0 E1030000 		.4byte	.LASF164
 3144 0bb4 01       		.byte	0x1
 3145 0bb5 6501     		.2byte	0x165
 3146 0bb7 0D       		.byte	0xd
 3147 0bb8 E1090000 		.4byte	0x9e1
 3148 0bbc AD000000 		.4byte	.LLST37
 3149 0bc0 A9000000 		.4byte	.LVUS37
 3150 0bc4 00       		.byte	0
 3151 0bc5 23       		.uleb128 0x23
 3152 0bc6 01       		.byte	0x1
 3153 0bc7 1D050000 		.4byte	.LASF169
 3154 0bcb 01       		.byte	0x1
 3155 0bcc 5901     		.2byte	0x159
 3156 0bce 06       		.byte	0x6
 3157 0bcf 01       		.byte	0x1
 3158 0bd0 E0020000 		.4byte	.LFB44
 3159 0bd4 E2020000 		.4byte	.LFE44
 3160 0bd8 02       		.byte	0x2
 3161 0bd9 7D       		.byte	0x7d
 3162 0bda 00       		.sleb128 0
 3163 0bdb 01       		.byte	0x1
 3164 0bdc F00B0000 		.4byte	0xbf0
 3165 0be0 24       		.uleb128 0x24
 3166 0be1 60050000 		.4byte	.LASF172
 3167 0be5 01       		.byte	0x1
 3168 0be6 5901     		.2byte	0x159
 3169 0be8 23       		.byte	0x23
 3170 0be9 E2000000 		.4byte	0xe2
 3171 0bed 01       		.byte	0x1
 3172 0bee 50       		.byte	0x50
 3173 0bef 00       		.byte	0
 3174 0bf0 25       		.uleb128 0x25
 3175 0bf1 01       		.byte	0x1
 3176 0bf2 A7060000 		.4byte	.LASF171
 3177 0bf6 01       		.byte	0x1
 3178 0bf7 4E01     		.2byte	0x14e
 3179 0bf9 0A       		.byte	0xa
 3180 0bfa 01       		.byte	0x1
 3181 0bfb CC000000 		.4byte	0xcc
 3182 0bff CA020000 		.4byte	.LFB43
 3183 0c03 E0020000 		.4byte	.LFE43
 3184 0c07 CE000000 		.4byte	.LLST32
 3185 0c0b 01       		.byte	0x1
ARM GAS  C:\Users\user\AppData\Local\Temp\cc7qV6fF.s 			page 94


 3186 0c0c 6D0C0000 		.4byte	0xc6d
 3187 0c10 21       		.uleb128 0x21
 3188 0c11 60050000 		.4byte	.LASF172
 3189 0c15 01       		.byte	0x1
 3190 0c16 4E01     		.2byte	0x14e
 3191 0c18 27       		.byte	0x27
 3192 0c19 E2000000 		.4byte	0xe2
 3193 0c1d F2000000 		.4byte	.LLST33
 3194 0c21 EE000000 		.4byte	.LVUS33
 3195 0c25 21       		.uleb128 0x21
 3196 0c26 7E040000 		.4byte	.LASF165
 3197 0c2a 01       		.byte	0x1
 3198 0c2b 4E01     		.2byte	0x14e
 3199 0c2d 38       		.byte	0x38
 3200 0c2e 91080000 		.4byte	0x891
 3201 0c32 17010000 		.4byte	.LLST34
 3202 0c36 13010000 		.4byte	.LVUS34
 3203 0c3a 22       		.uleb128 0x22
 3204 0c3b E1030000 		.4byte	.LASF164
 3205 0c3f 01       		.byte	0x1
 3206 0c40 5301     		.2byte	0x153
 3207 0c42 0D       		.byte	0xd
 3208 0c43 E1090000 		.4byte	0x9e1
 3209 0c47 3C010000 		.4byte	.LLST35
 3210 0c4b 38010000 		.4byte	.LVUS35
 3211 0c4f 1F       		.uleb128 0x1f
 3212 0c50 D8020000 		.4byte	.LVL102
 3213 0c54 86120000 		.4byte	0x1286
 3214 0c58 1E       		.uleb128 0x1e
 3215 0c59 01       		.byte	0x1
 3216 0c5a 51       		.byte	0x51
 3217 0c5b 03       		.byte	0x3
 3218 0c5c F3       		.byte	0xf3
 3219 0c5d 01       		.uleb128 0x1
 3220 0c5e 51       		.byte	0x51
 3221 0c5f 1E       		.uleb128 0x1e
 3222 0c60 01       		.byte	0x1
 3223 0c61 52       		.byte	0x52
 3224 0c62 03       		.byte	0x3
 3225 0c63 0A       		.byte	0xa
 3226 0c64 1027     		.2byte	0x2710
 3227 0c66 1E       		.uleb128 0x1e
 3228 0c67 01       		.byte	0x1
 3229 0c68 53       		.byte	0x53
 3230 0c69 01       		.byte	0x1
 3231 0c6a 30       		.byte	0x30
 3232 0c6b 00       		.byte	0
 3233 0c6c 00       		.byte	0
 3234 0c6d 1A       		.uleb128 0x1a
 3235 0c6e 01       		.byte	0x1
 3236 0c6f 45040000 		.4byte	.LASF173
 3237 0c73 01       		.byte	0x1
 3238 0c74 4301     		.2byte	0x143
 3239 0c76 06       		.byte	0x6
 3240 0c77 01       		.byte	0x1
 3241 0c78 B0020000 		.4byte	.LFB42
 3242 0c7c CA020000 		.4byte	.LFE42
ARM GAS  C:\Users\user\AppData\Local\Temp\cc7qV6fF.s 			page 95


 3243 0c80 5D010000 		.4byte	.LLST27
 3244 0c84 01       		.byte	0x1
 3245 0c85 F20C0000 		.4byte	0xcf2
 3246 0c89 21       		.uleb128 0x21
 3247 0c8a 60050000 		.4byte	.LASF172
 3248 0c8e 01       		.byte	0x1
 3249 0c8f 4301     		.2byte	0x143
 3250 0c91 22       		.byte	0x22
 3251 0c92 E2000000 		.4byte	0xe2
 3252 0c96 81010000 		.4byte	.LLST28
 3253 0c9a 7D010000 		.4byte	.LVUS28
 3254 0c9e 21       		.uleb128 0x21
 3255 0c9f 67080000 		.4byte	.LASF174
 3256 0ca3 01       		.byte	0x1
 3257 0ca4 4301     		.2byte	0x143
 3258 0ca6 36       		.byte	0x36
 3259 0ca7 A4000000 		.4byte	0xa4
 3260 0cab A3010000 		.4byte	.LLST29
 3261 0caf 9F010000 		.4byte	.LVUS29
 3262 0cb3 26       		.uleb128 0x26
 3263 0cb4 6C656E00 		.ascii	"len\000"
 3264 0cb8 01       		.byte	0x1
 3265 0cb9 4301     		.2byte	0x143
 3266 0cbb 47       		.byte	0x47
 3267 0cbc CC000000 		.4byte	0xcc
 3268 0cc0 C8010000 		.4byte	.LLST30
 3269 0cc4 C4010000 		.4byte	.LVUS30
 3270 0cc8 27       		.uleb128 0x27
 3271 0cc9 48000000 		.4byte	.Ldebug_ranges0+0x48
 3272 0ccd 28       		.uleb128 0x28
 3273 0cce 6900     		.ascii	"i\000"
 3274 0cd0 01       		.byte	0x1
 3275 0cd1 4801     		.2byte	0x148
 3276 0cd3 0B       		.byte	0xb
 3277 0cd4 25000000 		.4byte	0x25
 3278 0cd8 F1010000 		.4byte	.LLST31
 3279 0cdc E9010000 		.4byte	.LVUS31
 3280 0ce0 1F       		.uleb128 0x1f
 3281 0ce1 C8020000 		.4byte	.LVL99
 3282 0ce5 F20C0000 		.4byte	0xcf2
 3283 0ce9 1E       		.uleb128 0x1e
 3284 0cea 01       		.byte	0x1
 3285 0ceb 50       		.byte	0x50
 3286 0cec 02       		.byte	0x2
 3287 0ced 76       		.byte	0x76
 3288 0cee 00       		.sleb128 0
 3289 0cef 00       		.byte	0
 3290 0cf0 00       		.byte	0
 3291 0cf1 00       		.byte	0
 3292 0cf2 1A       		.uleb128 0x1a
 3293 0cf3 01       		.byte	0x1
 3294 0cf4 44080000 		.4byte	.LASF175
 3295 0cf8 01       		.byte	0x1
 3296 0cf9 3501     		.2byte	0x135
 3297 0cfb 06       		.byte	0x6
 3298 0cfc 01       		.byte	0x1
 3299 0cfd 90020000 		.4byte	.LFB41
ARM GAS  C:\Users\user\AppData\Local\Temp\cc7qV6fF.s 			page 96


 3300 0d01 B0020000 		.4byte	.LFE41
 3301 0d05 39020000 		.4byte	.LLST23
 3302 0d09 01       		.byte	0x1
 3303 0d0a 790D0000 		.4byte	0xd79
 3304 0d0e 21       		.uleb128 0x21
 3305 0d0f 60050000 		.4byte	.LASF172
 3306 0d13 01       		.byte	0x1
 3307 0d14 3501     		.2byte	0x135
 3308 0d16 20       		.byte	0x20
 3309 0d17 E2000000 		.4byte	0xe2
 3310 0d1b 5D020000 		.4byte	.LLST24
 3311 0d1f 59020000 		.4byte	.LVUS24
 3312 0d23 21       		.uleb128 0x21
 3313 0d24 7E040000 		.4byte	.LASF165
 3314 0d28 01       		.byte	0x1
 3315 0d29 3501     		.2byte	0x135
 3316 0d2b 30       		.byte	0x30
 3317 0d2c AA000000 		.4byte	0xaa
 3318 0d30 7F020000 		.4byte	.LLST25
 3319 0d34 7B020000 		.4byte	.LVUS25
 3320 0d38 22       		.uleb128 0x22
 3321 0d39 E1030000 		.4byte	.LASF164
 3322 0d3d 01       		.byte	0x1
 3323 0d3e 3801     		.2byte	0x138
 3324 0d40 0D       		.byte	0xd
 3325 0d41 E1090000 		.4byte	0x9e1
 3326 0d45 A4020000 		.4byte	.LLST26
 3327 0d49 A0020000 		.4byte	.LVUS26
 3328 0d4d 29       		.uleb128 0x29
 3329 0d4e 9A020000 		.4byte	.LVL90
 3330 0d52 A30F0000 		.4byte	0xfa3
 3331 0d56 29       		.uleb128 0x29
 3332 0d57 9E020000 		.4byte	.LVL91
 3333 0d5b 95120000 		.4byte	0x1295
 3334 0d5f 29       		.uleb128 0x29
 3335 0d60 A4020000 		.4byte	.LVL92
 3336 0d64 A30F0000 		.4byte	0xfa3
 3337 0d68 1F       		.uleb128 0x1f
 3338 0d69 AA020000 		.4byte	.LVL93
 3339 0d6d A4120000 		.4byte	0x12a4
 3340 0d71 1E       		.uleb128 0x1e
 3341 0d72 01       		.byte	0x1
 3342 0d73 51       		.byte	0x51
 3343 0d74 02       		.byte	0x2
 3344 0d75 08       		.byte	0x8
 3345 0d76 80       		.byte	0x80
 3346 0d77 00       		.byte	0
 3347 0d78 00       		.byte	0
 3348 0d79 25       		.uleb128 0x25
 3349 0d7a 01       		.byte	0x1
 3350 0d7b D7030000 		.4byte	.LASF176
 3351 0d7f 01       		.byte	0x1
 3352 0d80 0401     		.2byte	0x104
 3353 0d82 0D       		.byte	0xd
 3354 0d83 01       		.byte	0x1
 3355 0d84 E2000000 		.4byte	0xe2
 3356 0d88 D0010000 		.4byte	.LFB40
ARM GAS  C:\Users\user\AppData\Local\Temp\cc7qV6fF.s 			page 97


 3357 0d8c 90020000 		.4byte	.LFE40
 3358 0d90 C2020000 		.4byte	.LLST14
 3359 0d94 01       		.byte	0x1
 3360 0d95 3C0F0000 		.4byte	0xf3c
 3361 0d99 26       		.uleb128 0x26
 3362 0d9a 696400   		.ascii	"id\000"
 3363 0d9d 01       		.byte	0x1
 3364 0d9e 0401     		.2byte	0x104
 3365 0da0 1D       		.byte	0x1d
 3366 0da1 21010000 		.4byte	0x121
 3367 0da5 FE020000 		.4byte	.LLST15
 3368 0da9 FA020000 		.4byte	.LVUS15
 3369 0dad 21       		.uleb128 0x21
 3370 0dae A6040000 		.4byte	.LASF158
 3371 0db2 01       		.byte	0x1
 3372 0db3 0401     		.2byte	0x104
 3373 0db5 2A       		.byte	0x2a
 3374 0db6 CC000000 		.4byte	0xcc
 3375 0dba 25030000 		.4byte	.LLST16
 3376 0dbe 1F030000 		.4byte	.LVUS16
 3377 0dc2 21       		.uleb128 0x21
 3378 0dc3 140A0000 		.4byte	.LASF177
 3379 0dc7 01       		.byte	0x1
 3380 0dc8 0401     		.2byte	0x104
 3381 0dca 39       		.byte	0x39
 3382 0dcb CC000000 		.4byte	0xcc
 3383 0dcf 55030000 		.4byte	.LLST17
 3384 0dd3 51030000 		.4byte	.LVUS17
 3385 0dd7 21       		.uleb128 0x21
 3386 0dd8 B9050000 		.4byte	.LASF178
 3387 0ddc 01       		.byte	0x1
 3388 0ddd 0401     		.2byte	0x104
 3389 0ddf 53       		.byte	0x53
 3390 0de0 CC000000 		.4byte	0xcc
 3391 0de4 7C030000 		.4byte	.LLST18
 3392 0de8 76030000 		.4byte	.LVUS18
 3393 0dec 1B       		.uleb128 0x1b
 3394 0ded D9020000 		.4byte	.LASF179
 3395 0df1 01       		.byte	0x1
 3396 0df2 0C01     		.2byte	0x10c
 3397 0df4 14       		.byte	0x14
 3398 0df5 79080000 		.4byte	0x879
 3399 0df9 02       		.byte	0x2
 3400 0dfa 91       		.byte	0x91
 3401 0dfb 50       		.sleb128 -48
 3402 0dfc 22       		.uleb128 0x22
 3403 0dfd E1030000 		.4byte	.LASF164
 3404 0e01 01       		.byte	0x1
 3405 0e02 2301     		.2byte	0x123
 3406 0e04 0D       		.byte	0xd
 3407 0e05 E1090000 		.4byte	0x9e1
 3408 0e09 AA030000 		.4byte	.LLST19
 3409 0e0d A8030000 		.4byte	.LVUS19
 3410 0e11 2A       		.uleb128 0x2a
 3411 0e12 D9110000 		.4byte	0x11d9
 3412 0e16 24020000 		.4byte	.LBI12
 3413 0e1a 00       		.byte	.LVU164
ARM GAS  C:\Users\user\AppData\Local\Temp\cc7qV6fF.s 			page 98


 3414 0e1b 18000000 		.4byte	.Ldebug_ranges0+0x18
 3415 0e1f 01       		.byte	0x1
 3416 0e20 1D01     		.2byte	0x11d
 3417 0e22 02       		.byte	0x2
 3418 0e23 350E0000 		.4byte	0xe35
 3419 0e27 2B       		.uleb128 0x2b
 3420 0e28 E8110000 		.4byte	0x11e8
 3421 0e2c BF030000 		.4byte	.LLST20
 3422 0e30 BD030000 		.4byte	.LVUS20
 3423 0e34 00       		.byte	0
 3424 0e35 2A       		.uleb128 0x2a
 3425 0e36 AF110000 		.4byte	0x11af
 3426 0e3a 3A020000 		.4byte	.LBI15
 3427 0e3e 02       		.byte	.LVU176
 3428 0e3f 30000000 		.4byte	.Ldebug_ranges0+0x30
 3429 0e43 01       		.byte	0x1
 3430 0e44 1E01     		.2byte	0x11e
 3431 0e46 02       		.byte	0x2
 3432 0e47 660E0000 		.4byte	0xe66
 3433 0e4b 2B       		.uleb128 0x2b
 3434 0e4c CB110000 		.4byte	0x11cb
 3435 0e50 D4030000 		.4byte	.LLST21
 3436 0e54 D2030000 		.4byte	.LVUS21
 3437 0e58 2B       		.uleb128 0x2b
 3438 0e59 BE110000 		.4byte	0x11be
 3439 0e5d EA030000 		.4byte	.LLST22
 3440 0e61 E8030000 		.4byte	.LVUS22
 3441 0e65 00       		.byte	0
 3442 0e66 1D       		.uleb128 0x1d
 3443 0e67 E0010000 		.4byte	.LVL73
 3444 0e6b E80F0000 		.4byte	0xfe8
 3445 0e6f 7A0E0000 		.4byte	0xe7a
 3446 0e73 1E       		.uleb128 0x1e
 3447 0e74 01       		.byte	0x1
 3448 0e75 50       		.byte	0x50
 3449 0e76 02       		.byte	0x2
 3450 0e77 75       		.byte	0x75
 3451 0e78 00       		.sleb128 0
 3452 0e79 00       		.byte	0
 3453 0e7a 1D       		.uleb128 0x1d
 3454 0e7b EE010000 		.4byte	.LVL74
 3455 0e7f B3120000 		.4byte	0x12b3
 3456 0e83 920E0000 		.4byte	0xe92
 3457 0e87 1E       		.uleb128 0x1e
 3458 0e88 01       		.byte	0x1
 3459 0e89 50       		.byte	0x50
 3460 0e8a 01       		.byte	0x1
 3461 0e8b 31       		.byte	0x31
 3462 0e8c 1E       		.uleb128 0x1e
 3463 0e8d 01       		.byte	0x1
 3464 0e8e 51       		.byte	0x51
 3465 0e8f 01       		.byte	0x1
 3466 0e90 31       		.byte	0x31
 3467 0e91 00       		.byte	0
 3468 0e92 1D       		.uleb128 0x1d
 3469 0e93 04020000 		.4byte	.LVL75
 3470 0e97 3C0F0000 		.4byte	0xf3c
ARM GAS  C:\Users\user\AppData\Local\Temp\cc7qV6fF.s 			page 99


 3471 0e9b A60E0000 		.4byte	0xea6
 3472 0e9f 1E       		.uleb128 0x1e
 3473 0ea0 01       		.byte	0x1
 3474 0ea1 50       		.byte	0x50
 3475 0ea2 02       		.byte	0x2
 3476 0ea3 75       		.byte	0x75
 3477 0ea4 00       		.sleb128 0
 3478 0ea5 00       		.byte	0
 3479 0ea6 1D       		.uleb128 0x1d
 3480 0ea7 0A020000 		.4byte	.LVL76
 3481 0eab A30F0000 		.4byte	0xfa3
 3482 0eaf BA0E0000 		.4byte	0xeba
 3483 0eb3 1E       		.uleb128 0x1e
 3484 0eb4 01       		.byte	0x1
 3485 0eb5 50       		.byte	0x50
 3486 0eb6 02       		.byte	0x2
 3487 0eb7 75       		.byte	0x75
 3488 0eb8 00       		.sleb128 0
 3489 0eb9 00       		.byte	0
 3490 0eba 1D       		.uleb128 0x1d
 3491 0ebb 12020000 		.4byte	.LVL77
 3492 0ebf C2120000 		.4byte	0x12c2
 3493 0ec3 D40E0000 		.4byte	0xed4
 3494 0ec7 1E       		.uleb128 0x1e
 3495 0ec8 01       		.byte	0x1
 3496 0ec9 50       		.byte	0x50
 3497 0eca 02       		.byte	0x2
 3498 0ecb 74       		.byte	0x74
 3499 0ecc 00       		.sleb128 0
 3500 0ecd 1E       		.uleb128 0x1e
 3501 0ece 01       		.byte	0x1
 3502 0ecf 51       		.byte	0x51
 3503 0ed0 02       		.byte	0x2
 3504 0ed1 7D       		.byte	0x7d
 3505 0ed2 00       		.sleb128 0
 3506 0ed3 00       		.byte	0
 3507 0ed4 1D       		.uleb128 0x1d
 3508 0ed5 1E020000 		.4byte	.LVL78
 3509 0ed9 D1120000 		.4byte	0x12d1
 3510 0edd F40E0000 		.4byte	0xef4
 3511 0ee1 1E       		.uleb128 0x1e
 3512 0ee2 01       		.byte	0x1
 3513 0ee3 50       		.byte	0x50
 3514 0ee4 02       		.byte	0x2
 3515 0ee5 74       		.byte	0x74
 3516 0ee6 00       		.sleb128 0
 3517 0ee7 1E       		.uleb128 0x1e
 3518 0ee8 01       		.byte	0x1
 3519 0ee9 51       		.byte	0x51
 3520 0eea 03       		.byte	0x3
 3521 0eeb 0A       		.byte	0xa
 3522 0eec 2505     		.2byte	0x525
 3523 0eee 1E       		.uleb128 0x1e
 3524 0eef 01       		.byte	0x1
 3525 0ef0 52       		.byte	0x52
 3526 0ef1 01       		.byte	0x1
 3527 0ef2 31       		.byte	0x31
ARM GAS  C:\Users\user\AppData\Local\Temp\cc7qV6fF.s 			page 100


 3528 0ef3 00       		.byte	0
 3529 0ef4 1D       		.uleb128 0x1d
 3530 0ef5 24020000 		.4byte	.LVL79
 3531 0ef9 22110000 		.4byte	0x1122
 3532 0efd 080F0000 		.4byte	0xf08
 3533 0f01 1E       		.uleb128 0x1e
 3534 0f02 01       		.byte	0x1
 3535 0f03 50       		.byte	0x50
 3536 0f04 02       		.byte	0x2
 3537 0f05 75       		.byte	0x75
 3538 0f06 00       		.sleb128 0
 3539 0f07 00       		.byte	0
 3540 0f08 1D       		.uleb128 0x1d
 3541 0f09 5C020000 		.4byte	.LVL83
 3542 0f0d E0120000 		.4byte	0x12e0
 3543 0f11 210F0000 		.4byte	0xf21
 3544 0f15 1E       		.uleb128 0x1e
 3545 0f16 01       		.byte	0x1
 3546 0f17 50       		.byte	0x50
 3547 0f18 02       		.byte	0x2
 3548 0f19 74       		.byte	0x74
 3549 0f1a 00       		.sleb128 0
 3550 0f1b 1E       		.uleb128 0x1e
 3551 0f1c 01       		.byte	0x1
 3552 0f1d 51       		.byte	0x51
 3553 0f1e 01       		.byte	0x1
 3554 0f1f 31       		.byte	0x31
 3555 0f20 00       		.byte	0
 3556 0f21 1F       		.uleb128 0x1f
 3557 0f22 66020000 		.4byte	.LVL84
 3558 0f26 EF120000 		.4byte	0x12ef
 3559 0f2a 1E       		.uleb128 0x1e
 3560 0f2b 01       		.byte	0x1
 3561 0f2c 50       		.byte	0x50
 3562 0f2d 02       		.byte	0x2
 3563 0f2e 77       		.byte	0x77
 3564 0f2f 00       		.sleb128 0
 3565 0f30 1E       		.uleb128 0x1e
 3566 0f31 01       		.byte	0x1
 3567 0f32 51       		.byte	0x51
 3568 0f33 01       		.byte	0x1
 3569 0f34 31       		.byte	0x31
 3570 0f35 1E       		.uleb128 0x1e
 3571 0f36 01       		.byte	0x1
 3572 0f37 52       		.byte	0x52
 3573 0f38 01       		.byte	0x1
 3574 0f39 30       		.byte	0x30
 3575 0f3a 00       		.byte	0
 3576 0f3b 00       		.byte	0
 3577 0f3c 2C       		.uleb128 0x2c
 3578 0f3d 01       		.byte	0x1
 3579 0f3e 78030000 		.4byte	.LASF180
 3580 0f42 01       		.byte	0x1
 3581 0f43 E5       		.byte	0xe5
 3582 0f44 06       		.byte	0x6
 3583 0f45 01       		.byte	0x1
 3584 0f46 94010000 		.4byte	.LFB39
ARM GAS  C:\Users\user\AppData\Local\Temp\cc7qV6fF.s 			page 101


 3585 0f4a D0010000 		.4byte	.LFE39
 3586 0f4e 02       		.byte	0x2
 3587 0f4f 7D       		.byte	0x7d
 3588 0f50 00       		.sleb128 0
 3589 0f51 01       		.byte	0x1
 3590 0f52 A30F0000 		.4byte	0xfa3
 3591 0f56 2D       		.uleb128 0x2d
 3592 0f57 696400   		.ascii	"id\000"
 3593 0f5a 01       		.byte	0x1
 3594 0f5b E5       		.byte	0xe5
 3595 0f5c 1C       		.byte	0x1c
 3596 0f5d 21010000 		.4byte	0x121
 3597 0f61 13040000 		.4byte	.LLST12
 3598 0f65 FD030000 		.4byte	.LVUS12
 3599 0f69 2E       		.uleb128 0x2e
 3600 0f6a 13060000 		.4byte	.LASF181
 3601 0f6e 01       		.byte	0x1
 3602 0f6f E7       		.byte	0xe7
 3603 0f70 0B       		.byte	0xb
 3604 0f71 CC000000 		.4byte	0xcc
 3605 0f75 B9040000 		.4byte	.LLST13
 3606 0f79 A3040000 		.4byte	.LVUS13
 3607 0f7d 2F       		.uleb128 0x2f
 3608 0f7e AC010000 		.4byte	.LVL63
 3609 0f82 01       		.byte	0x1
 3610 0f83 B3120000 		.4byte	0x12b3
 3611 0f87 980F0000 		.4byte	0xf98
 3612 0f8b 1E       		.uleb128 0x1e
 3613 0f8c 01       		.byte	0x1
 3614 0f8d 50       		.byte	0x50
 3615 0f8e 03       		.byte	0x3
 3616 0f8f 0A       		.byte	0xa
 3617 0f90 0040     		.2byte	0x4000
 3618 0f92 1E       		.uleb128 0x1e
 3619 0f93 01       		.byte	0x1
 3620 0f94 51       		.byte	0x51
 3621 0f95 01       		.byte	0x1
 3622 0f96 31       		.byte	0x31
 3623 0f97 00       		.byte	0
 3624 0f98 30       		.uleb128 0x30
 3625 0f99 B6010000 		.4byte	.LVL65
 3626 0f9d 01       		.byte	0x1
 3627 0f9e FE120000 		.4byte	0x12fe
 3628 0fa2 00       		.byte	0
 3629 0fa3 31       		.uleb128 0x31
 3630 0fa4 01       		.byte	0x1
 3631 0fa5 55040000 		.4byte	.LASF182
 3632 0fa9 01       		.byte	0x1
 3633 0faa CA       		.byte	0xca
 3634 0fab 10       		.byte	0x10
 3635 0fac 01       		.byte	0x1
 3636 0fad E20F0000 		.4byte	0xfe2
 3637 0fb1 80010000 		.4byte	.LFB38
 3638 0fb5 94010000 		.4byte	.LFE38
 3639 0fb9 02       		.byte	0x2
 3640 0fba 7D       		.byte	0x7d
 3641 0fbb 00       		.sleb128 0
ARM GAS  C:\Users\user\AppData\Local\Temp\cc7qV6fF.s 			page 102


 3642 0fbc 01       		.byte	0x1
 3643 0fbd E20F0000 		.4byte	0xfe2
 3644 0fc1 2D       		.uleb128 0x2d
 3645 0fc2 696400   		.ascii	"id\000"
 3646 0fc5 01       		.byte	0x1
 3647 0fc6 CA       		.byte	0xca
 3648 0fc7 24       		.byte	0x24
 3649 0fc8 21010000 		.4byte	0x121
 3650 0fcc 53050000 		.4byte	.LLST11
 3651 0fd0 4F050000 		.4byte	.LVUS11
 3652 0fd4 32       		.uleb128 0x32
 3653 0fd5 CE020000 		.4byte	.LASF183
 3654 0fd9 01       		.byte	0x1
 3655 0fda CC       		.byte	0xcc
 3656 0fdb 11       		.byte	0x11
 3657 0fdc E20F0000 		.4byte	0xfe2
 3658 0fe0 00       		.byte	0
 3659 0fe1 00       		.byte	0
 3660 0fe2 07       		.uleb128 0x7
 3661 0fe3 04       		.byte	0x4
 3662 0fe4 4D070000 		.4byte	0x74d
 3663 0fe8 33       		.uleb128 0x33
 3664 0fe9 01       		.byte	0x1
 3665 0fea 83080000 		.4byte	.LASF184
 3666 0fee 01       		.byte	0x1
 3667 0fef 83       		.byte	0x83
 3668 0ff0 0A       		.byte	0xa
 3669 0ff1 01       		.byte	0x1
 3670 0ff2 CC000000 		.4byte	0xcc
 3671 0ff6 18010000 		.4byte	.LFB37
 3672 0ffa 80010000 		.4byte	.LFE37
 3673 0ffe 74050000 		.4byte	.LLST6
 3674 1002 01       		.byte	0x1
 3675 1003 F0100000 		.4byte	0x10f0
 3676 1007 2D       		.uleb128 0x2d
 3677 1008 696400   		.ascii	"id\000"
 3678 100b 01       		.byte	0x1
 3679 100c 83       		.byte	0x83
 3680 100d 20       		.byte	0x20
 3681 100e 21010000 		.4byte	0x121
 3682 1012 B4050000 		.4byte	.LLST7
 3683 1016 AC050000 		.4byte	.LVUS7
 3684 101a 19       		.uleb128 0x19
 3685 101b 00020000 		.4byte	.LASF185
 3686 101f 01       		.byte	0x1
 3687 1020 85       		.byte	0x85
 3688 1021 13       		.byte	0x13
 3689 1022 09080000 		.4byte	0x809
 3690 1026 02       		.byte	0x2
 3691 1027 91       		.byte	0x91
 3692 1028 6C       		.sleb128 -20
 3693 1029 2E       		.uleb128 0x2e
 3694 102a A0030000 		.4byte	.LASF186
 3695 102e 01       		.byte	0x1
 3696 102f 86       		.byte	0x86
 3697 1030 10       		.byte	0x10
 3698 1031 F0100000 		.4byte	0x10f0
ARM GAS  C:\Users\user\AppData\Local\Temp\cc7qV6fF.s 			page 103


 3699 1035 F0050000 		.4byte	.LLST8
 3700 1039 EE050000 		.4byte	.LVUS8
 3701 103d 2E       		.uleb128 0x2e
 3702 103e 8E060000 		.4byte	.LASF187
 3703 1042 01       		.byte	0x1
 3704 1043 87       		.byte	0x87
 3705 1044 10       		.byte	0x10
 3706 1045 F0100000 		.4byte	0x10f0
 3707 1049 05060000 		.4byte	.LLST9
 3708 104d 03060000 		.4byte	.LVUS9
 3709 1051 34       		.uleb128 0x34
 3710 1052 32060000 		.4byte	.LASF189
 3711 1056 01       		.byte	0x1
 3712 1057 88       		.byte	0x88
 3713 1058 0B       		.byte	0xb
 3714 1059 BB000000 		.4byte	0xbb
 3715 105d 2E       		.uleb128 0x2e
 3716 105e 78070000 		.4byte	.LASF188
 3717 1062 01       		.byte	0x1
 3718 1063 89       		.byte	0x89
 3719 1064 0B       		.byte	0xb
 3720 1065 BB000000 		.4byte	0xbb
 3721 1069 1A060000 		.4byte	.LLST10
 3722 106d 18060000 		.4byte	.LVUS10
 3723 1071 1D       		.uleb128 0x1d
 3724 1072 44010000 		.4byte	.LVL48
 3725 1076 F6100000 		.4byte	0x10f6
 3726 107a 85100000 		.4byte	0x1085
 3727 107e 1E       		.uleb128 0x1e
 3728 107f 01       		.byte	0x1
 3729 1080 50       		.byte	0x50
 3730 1081 02       		.byte	0x2
 3731 1082 75       		.byte	0x75
 3732 1083 00       		.sleb128 0
 3733 1084 00       		.byte	0
 3734 1085 1D       		.uleb128 0x1d
 3735 1086 4A010000 		.4byte	.LVL50
 3736 108a B3120000 		.4byte	0x12b3
 3737 108e 98100000 		.4byte	0x1098
 3738 1092 1E       		.uleb128 0x1e
 3739 1093 01       		.byte	0x1
 3740 1094 51       		.byte	0x51
 3741 1095 01       		.byte	0x1
 3742 1096 31       		.byte	0x31
 3743 1097 00       		.byte	0
 3744 1098 1D       		.uleb128 0x1d
 3745 1099 52010000 		.4byte	.LVL51
 3746 109d 0D130000 		.4byte	0x130d
 3747 10a1 B2100000 		.4byte	0x10b2
 3748 10a5 1E       		.uleb128 0x1e
 3749 10a6 01       		.byte	0x1
 3750 10a7 50       		.byte	0x50
 3751 10a8 02       		.byte	0x2
 3752 10a9 75       		.byte	0x75
 3753 10aa 00       		.sleb128 0
 3754 10ab 1E       		.uleb128 0x1e
 3755 10ac 01       		.byte	0x1
ARM GAS  C:\Users\user\AppData\Local\Temp\cc7qV6fF.s 			page 104


 3756 10ad 51       		.byte	0x51
 3757 10ae 02       		.byte	0x2
 3758 10af 91       		.byte	0x91
 3759 10b0 6C       		.sleb128 -20
 3760 10b1 00       		.byte	0
 3761 10b2 1D       		.uleb128 0x1d
 3762 10b3 66010000 		.4byte	.LVL52
 3763 10b7 F6100000 		.4byte	0x10f6
 3764 10bb C6100000 		.4byte	0x10c6
 3765 10bf 1E       		.uleb128 0x1e
 3766 10c0 01       		.byte	0x1
 3767 10c1 50       		.byte	0x50
 3768 10c2 02       		.byte	0x2
 3769 10c3 74       		.byte	0x74
 3770 10c4 00       		.sleb128 0
 3771 10c5 00       		.byte	0
 3772 10c6 1D       		.uleb128 0x1d
 3773 10c7 6A010000 		.4byte	.LVL53
 3774 10cb B3120000 		.4byte	0x12b3
 3775 10cf D9100000 		.4byte	0x10d9
 3776 10d3 1E       		.uleb128 0x1e
 3777 10d4 01       		.byte	0x1
 3778 10d5 51       		.byte	0x51
 3779 10d6 01       		.byte	0x1
 3780 10d7 31       		.byte	0x31
 3781 10d8 00       		.byte	0
 3782 10d9 1F       		.uleb128 0x1f
 3783 10da 72010000 		.4byte	.LVL54
 3784 10de 0D130000 		.4byte	0x130d
 3785 10e2 1E       		.uleb128 0x1e
 3786 10e3 01       		.byte	0x1
 3787 10e4 50       		.byte	0x50
 3788 10e5 02       		.byte	0x2
 3789 10e6 74       		.byte	0x74
 3790 10e7 00       		.sleb128 0
 3791 10e8 1E       		.uleb128 0x1e
 3792 10e9 01       		.byte	0x1
 3793 10ea 51       		.byte	0x51
 3794 10eb 02       		.byte	0x2
 3795 10ec 91       		.byte	0x91
 3796 10ed 6C       		.sleb128 -20
 3797 10ee 00       		.byte	0
 3798 10ef 00       		.byte	0
 3799 10f0 07       		.uleb128 0x7
 3800 10f1 04       		.byte	0x4
 3801 10f2 57060000 		.4byte	0x657
 3802 10f6 35       		.uleb128 0x35
 3803 10f7 01       		.byte	0x1
 3804 10f8 0C050000 		.4byte	.LASF217
 3805 10fc 01       		.byte	0x1
 3806 10fd 6C       		.byte	0x6c
 3807 10fe 0A       		.byte	0xa
 3808 10ff 01       		.byte	0x1
 3809 1100 CC000000 		.4byte	0xcc
 3810 1104 01       		.byte	0x1
 3811 1105 22110000 		.4byte	0x1122
 3812 1109 36       		.uleb128 0x36
ARM GAS  C:\Users\user\AppData\Local\Temp\cc7qV6fF.s 			page 105


 3813 110a 480A0000 		.4byte	.LASF195
 3814 110e 01       		.byte	0x1
 3815 110f 6C       		.byte	0x6c
 3816 1110 29       		.byte	0x29
 3817 1111 F0100000 		.4byte	0x10f0
 3818 1115 34       		.uleb128 0x34
 3819 1116 92050000 		.4byte	.LASF190
 3820 111a 01       		.byte	0x1
 3821 111b 6E       		.byte	0x6e
 3822 111c 0B       		.byte	0xb
 3823 111d CC000000 		.4byte	0xcc
 3824 1121 00       		.byte	0
 3825 1122 31       		.uleb128 0x31
 3826 1123 01       		.byte	0x1
 3827 1124 00060000 		.4byte	.LASF191
 3828 1128 01       		.byte	0x1
 3829 1129 52       		.byte	0x52
 3830 112a 0B       		.byte	0xb
 3831 112b 01       		.byte	0x1
 3832 112c DE020000 		.4byte	0x2de
 3833 1130 A8000000 		.4byte	.LFB35
 3834 1134 BC000000 		.4byte	.LFE35
 3835 1138 02       		.byte	0x2
 3836 1139 7D       		.byte	0x7d
 3837 113a 00       		.sleb128 0
 3838 113b 01       		.byte	0x1
 3839 113c 68110000 		.4byte	0x1168
 3840 1140 2D       		.uleb128 0x2d
 3841 1141 696400   		.ascii	"id\000"
 3842 1144 01       		.byte	0x1
 3843 1145 52       		.byte	0x52
 3844 1146 1F       		.byte	0x1f
 3845 1147 21010000 		.4byte	0x121
 3846 114b 31060000 		.4byte	.LLST2
 3847 114f 2D060000 		.4byte	.LVUS2
 3848 1153 2E       		.uleb128 0x2e
 3849 1154 920A0000 		.4byte	.LASF192
 3850 1158 01       		.byte	0x1
 3851 1159 54       		.byte	0x54
 3852 115a 0C       		.byte	0xc
 3853 115b DE020000 		.4byte	0x2de
 3854 115f 56060000 		.4byte	.LLST3
 3855 1163 52060000 		.4byte	.LVUS3
 3856 1167 00       		.byte	0
 3857 1168 31       		.uleb128 0x31
 3858 1169 01       		.byte	0x1
 3859 116a 31000000 		.4byte	.LASF193
 3860 116e 01       		.byte	0x1
 3861 116f 17       		.byte	0x17
 3862 1170 0A       		.byte	0xa
 3863 1171 01       		.byte	0x1
 3864 1172 BB000000 		.4byte	0xbb
 3865 1176 00000000 		.4byte	.LFB34
 3866 117a A8000000 		.4byte	.LFE34
 3867 117e 02       		.byte	0x2
 3868 117f 7D       		.byte	0x7d
 3869 1180 00       		.sleb128 0
ARM GAS  C:\Users\user\AppData\Local\Temp\cc7qV6fF.s 			page 106


 3870 1181 01       		.byte	0x1
 3871 1182 AF110000 		.4byte	0x11af
 3872 1186 2D       		.uleb128 0x2d
 3873 1187 70696E00 		.ascii	"pin\000"
 3874 118b 01       		.byte	0x1
 3875 118c 17       		.byte	0x17
 3876 118d 23       		.byte	0x23
 3877 118e BB000000 		.4byte	0xbb
 3878 1192 AA060000 		.4byte	.LLST0
 3879 1196 76060000 		.4byte	.LVUS0
 3880 119a 2E       		.uleb128 0x2e
 3881 119b 9A070000 		.4byte	.LASF194
 3882 119f 01       		.byte	0x1
 3883 11a0 19       		.byte	0x19
 3884 11a1 0B       		.byte	0xb
 3885 11a2 BB000000 		.4byte	0xbb
 3886 11a6 03080000 		.4byte	.LLST1
 3887 11aa F7070000 		.4byte	.LVUS1
 3888 11ae 00       		.byte	0
 3889 11af 37       		.uleb128 0x37
 3890 11b0 140B0000 		.4byte	.LASF198
 3891 11b4 02       		.byte	0x2
 3892 11b5 3206     		.2byte	0x632
 3893 11b7 16       		.byte	0x16
 3894 11b8 01       		.byte	0x1
 3895 11b9 03       		.byte	0x3
 3896 11ba D9110000 		.4byte	0x11d9
 3897 11be 38       		.uleb128 0x38
 3898 11bf 82050000 		.4byte	.LASF196
 3899 11c3 02       		.byte	0x2
 3900 11c4 3206     		.2byte	0x632
 3901 11c6 31       		.byte	0x31
 3902 11c7 DE020000 		.4byte	0x2de
 3903 11cb 38       		.uleb128 0x38
 3904 11cc F1060000 		.4byte	.LASF197
 3905 11d0 02       		.byte	0x2
 3906 11d1 3206     		.2byte	0x632
 3907 11d3 40       		.byte	0x40
 3908 11d4 CC000000 		.4byte	0xcc
 3909 11d8 00       		.byte	0
 3910 11d9 37       		.uleb128 0x37
 3911 11da FC070000 		.4byte	.LASF199
 3912 11de 02       		.byte	0x2
 3913 11df DE05     		.2byte	0x5de
 3914 11e1 16       		.byte	0x16
 3915 11e2 01       		.byte	0x1
 3916 11e3 03       		.byte	0x3
 3917 11e4 F6110000 		.4byte	0x11f6
 3918 11e8 38       		.uleb128 0x38
 3919 11e9 82050000 		.4byte	.LASF196
 3920 11ed 02       		.byte	0x2
 3921 11ee DE05     		.2byte	0x5de
 3922 11f0 2F       		.byte	0x2f
 3923 11f1 DE020000 		.4byte	0x2de
 3924 11f5 00       		.byte	0
 3925 11f6 39       		.uleb128 0x39
 3926 11f7 F6100000 		.4byte	0x10f6
ARM GAS  C:\Users\user\AppData\Local\Temp\cc7qV6fF.s 			page 107


 3927 11fb BC000000 		.4byte	.LFB36
 3928 11ff 18010000 		.4byte	.LFE36
 3929 1203 02       		.byte	0x2
 3930 1204 7D       		.byte	0x7d
 3931 1205 00       		.sleb128 0
 3932 1206 01       		.byte	0x1
 3933 1207 4A120000 		.4byte	0x124a
 3934 120b 2B       		.uleb128 0x2b
 3935 120c 09110000 		.4byte	0x1109
 3936 1210 6E080000 		.4byte	.LLST4
 3937 1214 52080000 		.4byte	.LVUS4
 3938 1218 3A       		.uleb128 0x3a
 3939 1219 15110000 		.4byte	0x1115
 3940 121d 01       		.byte	0x1
 3941 121e 50       		.byte	0x50
 3942 121f 3B       		.uleb128 0x3b
 3943 1220 F6100000 		.4byte	0x10f6
 3944 1224 E2000000 		.4byte	.LBI4
 3945 1228 00       		.byte	.LVU60
 3946 1229 00000000 		.4byte	.Ldebug_ranges0+0
 3947 122d 01       		.byte	0x1
 3948 122e 6C       		.byte	0x6c
 3949 122f 0A       		.byte	0xa
 3950 1230 2B       		.uleb128 0x2b
 3951 1231 09110000 		.4byte	0x1109
 3952 1235 2D090000 		.4byte	.LLST5
 3953 1239 25090000 		.4byte	.LVUS5
 3954 123d 27       		.uleb128 0x27
 3955 123e 00000000 		.4byte	.Ldebug_ranges0+0
 3956 1242 3C       		.uleb128 0x3c
 3957 1243 15110000 		.4byte	0x1115
 3958 1247 00       		.byte	0
 3959 1248 00       		.byte	0
 3960 1249 00       		.byte	0
 3961 124a 3D       		.uleb128 0x3d
 3962 124b 01       		.byte	0x1
 3963 124c 01       		.byte	0x1
 3964 124d 2C080000 		.4byte	.LASF200
 3965 1251 2C080000 		.4byte	.LASF200
 3966 1255 08       		.byte	0x8
 3967 1256 8901     		.2byte	0x189
 3968 1258 06       		.byte	0x6
 3969 1259 3D       		.uleb128 0x3d
 3970 125a 01       		.byte	0x1
 3971 125b 01       		.byte	0x1
 3972 125c 4A090000 		.4byte	.LASF201
 3973 1260 4A090000 		.4byte	.LASF201
 3974 1264 08       		.byte	0x8
 3975 1265 7B01     		.2byte	0x17b
 3976 1267 0A       		.byte	0xa
 3977 1268 3D       		.uleb128 0x3d
 3978 1269 01       		.byte	0x1
 3979 126a 01       		.byte	0x1
 3980 126b 05000000 		.4byte	.LASF202
 3981 126f 05000000 		.4byte	.LASF202
 3982 1273 0A       		.byte	0xa
 3983 1274 A005     		.2byte	0x5a0
ARM GAS  C:\Users\user\AppData\Local\Temp\cc7qV6fF.s 			page 108


 3984 1276 0C       		.byte	0xc
 3985 1277 3D       		.uleb128 0x3d
 3986 1278 01       		.byte	0x1
 3987 1279 01       		.byte	0x1
 3988 127a 8F090000 		.4byte	.LASF203
 3989 127e 8F090000 		.4byte	.LASF203
 3990 1282 08       		.byte	0x8
 3991 1283 8801     		.2byte	0x188
 3992 1285 0A       		.byte	0xa
 3993 1286 3D       		.uleb128 0x3d
 3994 1287 01       		.byte	0x1
 3995 1288 01       		.byte	0x1
 3996 1289 CC010000 		.4byte	.LASF204
 3997 128d CC010000 		.4byte	.LASF204
 3998 1291 0A       		.byte	0xa
 3999 1292 F503     		.2byte	0x3f5
 4000 1294 0C       		.byte	0xc
 4001 1295 3D       		.uleb128 0x3d
 4002 1296 01       		.byte	0x1
 4003 1297 01       		.byte	0x1
 4004 1298 36090000 		.4byte	.LASF205
 4005 129c 36090000 		.4byte	.LASF205
 4006 12a0 08       		.byte	0x8
 4007 12a1 7A01     		.2byte	0x17a
 4008 12a3 06       		.byte	0x6
 4009 12a4 3D       		.uleb128 0x3d
 4010 12a5 01       		.byte	0x1
 4011 12a6 01       		.byte	0x1
 4012 12a7 0C020000 		.4byte	.LASF206
 4013 12ab 0C020000 		.4byte	.LASF206
 4014 12af 08       		.byte	0x8
 4015 12b0 8601     		.2byte	0x186
 4016 12b2 0C       		.byte	0xc
 4017 12b3 3D       		.uleb128 0x3d
 4018 12b4 01       		.byte	0x1
 4019 12b5 01       		.byte	0x1
 4020 12b6 D3080000 		.4byte	.LASF207
 4021 12ba D3080000 		.4byte	.LASF207
 4022 12be 0B       		.byte	0xb
 4023 12bf B502     		.2byte	0x2b5
 4024 12c1 06       		.byte	0x6
 4025 12c2 3D       		.uleb128 0x3d
 4026 12c3 01       		.byte	0x1
 4027 12c4 01       		.byte	0x1
 4028 12c5 87050000 		.4byte	.LASF208
 4029 12c9 87050000 		.4byte	.LASF208
 4030 12cd 08       		.byte	0x8
 4031 12ce 6E01     		.2byte	0x16e
 4032 12d0 06       		.byte	0x6
 4033 12d1 3D       		.uleb128 0x3d
 4034 12d2 01       		.byte	0x1
 4035 12d3 01       		.byte	0x1
 4036 12d4 600A0000 		.4byte	.LASF209
 4037 12d8 600A0000 		.4byte	.LASF209
 4038 12dc 08       		.byte	0x8
 4039 12dd 7301     		.2byte	0x173
 4040 12df 06       		.byte	0x6
ARM GAS  C:\Users\user\AppData\Local\Temp\cc7qV6fF.s 			page 109


 4041 12e0 3D       		.uleb128 0x3d
 4042 12e1 01       		.byte	0x1
 4043 12e2 01       		.byte	0x1
 4044 12e3 90070000 		.4byte	.LASF210
 4045 12e7 90070000 		.4byte	.LASF210
 4046 12eb 08       		.byte	0x8
 4047 12ec 7201     		.2byte	0x172
 4048 12ee 06       		.byte	0x6
 4049 12ef 3D       		.uleb128 0x3d
 4050 12f0 01       		.byte	0x1
 4051 12f1 01       		.byte	0x1
 4052 12f2 A8030000 		.4byte	.LASF211
 4053 12f6 A8030000 		.4byte	.LASF211
 4054 12fa 0A       		.byte	0xa
 4055 12fb 6706     		.2byte	0x667
 4056 12fd 10       		.byte	0x10
 4057 12fe 3D       		.uleb128 0x3d
 4058 12ff 01       		.byte	0x1
 4059 1300 01       		.byte	0x1
 4060 1301 F2090000 		.4byte	.LASF212
 4061 1305 F2090000 		.4byte	.LASF212
 4062 1309 0B       		.byte	0xb
 4063 130a B602     		.2byte	0x2b6
 4064 130c 06       		.byte	0x6
 4065 130d 3D       		.uleb128 0x3d
 4066 130e 01       		.byte	0x1
 4067 130f 01       		.byte	0x1
 4068 1310 D2050000 		.4byte	.LASF213
 4069 1314 D2050000 		.4byte	.LASF213
 4070 1318 07       		.byte	0x7
 4071 1319 5F01     		.2byte	0x15f
 4072 131b 06       		.byte	0x6
 4073 131c 00       		.byte	0
 4074              		.section	.debug_abbrev,"",%progbits
 4075              	.Ldebug_abbrev0:
 4076 0000 01       		.uleb128 0x1
 4077 0001 11       		.uleb128 0x11
 4078 0002 01       		.byte	0x1
 4079 0003 25       		.uleb128 0x25
 4080 0004 0E       		.uleb128 0xe
 4081 0005 13       		.uleb128 0x13
 4082 0006 0B       		.uleb128 0xb
 4083 0007 03       		.uleb128 0x3
 4084 0008 0E       		.uleb128 0xe
 4085 0009 1B       		.uleb128 0x1b
 4086 000a 0E       		.uleb128 0xe
 4087 000b 11       		.uleb128 0x11
 4088 000c 01       		.uleb128 0x1
 4089 000d 12       		.uleb128 0x12
 4090 000e 01       		.uleb128 0x1
 4091 000f 10       		.uleb128 0x10
 4092 0010 06       		.uleb128 0x6
 4093 0011 00       		.byte	0
 4094 0012 00       		.byte	0
 4095 0013 02       		.uleb128 0x2
 4096 0014 24       		.uleb128 0x24
 4097 0015 00       		.byte	0
ARM GAS  C:\Users\user\AppData\Local\Temp\cc7qV6fF.s 			page 110


 4098 0016 0B       		.uleb128 0xb
 4099 0017 0B       		.uleb128 0xb
 4100 0018 3E       		.uleb128 0x3e
 4101 0019 0B       		.uleb128 0xb
 4102 001a 03       		.uleb128 0x3
 4103 001b 08       		.uleb128 0x8
 4104 001c 00       		.byte	0
 4105 001d 00       		.byte	0
 4106 001e 03       		.uleb128 0x3
 4107 001f 24       		.uleb128 0x24
 4108 0020 00       		.byte	0
 4109 0021 0B       		.uleb128 0xb
 4110 0022 0B       		.uleb128 0xb
 4111 0023 3E       		.uleb128 0x3e
 4112 0024 0B       		.uleb128 0xb
 4113 0025 03       		.uleb128 0x3
 4114 0026 0E       		.uleb128 0xe
 4115 0027 00       		.byte	0
 4116 0028 00       		.byte	0
 4117 0029 04       		.uleb128 0x4
 4118 002a 16       		.uleb128 0x16
 4119 002b 00       		.byte	0
 4120 002c 03       		.uleb128 0x3
 4121 002d 0E       		.uleb128 0xe
 4122 002e 3A       		.uleb128 0x3a
 4123 002f 0B       		.uleb128 0xb
 4124 0030 3B       		.uleb128 0x3b
 4125 0031 0B       		.uleb128 0xb
 4126 0032 39       		.uleb128 0x39
 4127 0033 0B       		.uleb128 0xb
 4128 0034 49       		.uleb128 0x49
 4129 0035 13       		.uleb128 0x13
 4130 0036 00       		.byte	0
 4131 0037 00       		.byte	0
 4132 0038 05       		.uleb128 0x5
 4133 0039 0F       		.uleb128 0xf
 4134 003a 00       		.byte	0
 4135 003b 0B       		.uleb128 0xb
 4136 003c 0B       		.uleb128 0xb
 4137 003d 00       		.byte	0
 4138 003e 00       		.byte	0
 4139 003f 06       		.uleb128 0x6
 4140 0040 26       		.uleb128 0x26
 4141 0041 00       		.byte	0
 4142 0042 49       		.uleb128 0x49
 4143 0043 13       		.uleb128 0x13
 4144 0044 00       		.byte	0
 4145 0045 00       		.byte	0
 4146 0046 07       		.uleb128 0x7
 4147 0047 0F       		.uleb128 0xf
 4148 0048 00       		.byte	0
 4149 0049 0B       		.uleb128 0xb
 4150 004a 0B       		.uleb128 0xb
 4151 004b 49       		.uleb128 0x49
 4152 004c 13       		.uleb128 0x13
 4153 004d 00       		.byte	0
 4154 004e 00       		.byte	0
ARM GAS  C:\Users\user\AppData\Local\Temp\cc7qV6fF.s 			page 111


 4155 004f 08       		.uleb128 0x8
 4156 0050 35       		.uleb128 0x35
 4157 0051 00       		.byte	0
 4158 0052 49       		.uleb128 0x49
 4159 0053 13       		.uleb128 0x13
 4160 0054 00       		.byte	0
 4161 0055 00       		.byte	0
 4162 0056 09       		.uleb128 0x9
 4163 0057 04       		.uleb128 0x4
 4164 0058 01       		.byte	0x1
 4165 0059 3E       		.uleb128 0x3e
 4166 005a 0B       		.uleb128 0xb
 4167 005b 0B       		.uleb128 0xb
 4168 005c 0B       		.uleb128 0xb
 4169 005d 49       		.uleb128 0x49
 4170 005e 13       		.uleb128 0x13
 4171 005f 3A       		.uleb128 0x3a
 4172 0060 0B       		.uleb128 0xb
 4173 0061 3B       		.uleb128 0x3b
 4174 0062 0B       		.uleb128 0xb
 4175 0063 39       		.uleb128 0x39
 4176 0064 0B       		.uleb128 0xb
 4177 0065 01       		.uleb128 0x1
 4178 0066 13       		.uleb128 0x13
 4179 0067 00       		.byte	0
 4180 0068 00       		.byte	0
 4181 0069 0A       		.uleb128 0xa
 4182 006a 28       		.uleb128 0x28
 4183 006b 00       		.byte	0
 4184 006c 03       		.uleb128 0x3
 4185 006d 0E       		.uleb128 0xe
 4186 006e 1C       		.uleb128 0x1c
 4187 006f 0B       		.uleb128 0xb
 4188 0070 00       		.byte	0
 4189 0071 00       		.byte	0
 4190 0072 0B       		.uleb128 0xb
 4191 0073 04       		.uleb128 0x4
 4192 0074 01       		.byte	0x1
 4193 0075 03       		.uleb128 0x3
 4194 0076 0E       		.uleb128 0xe
 4195 0077 3E       		.uleb128 0x3e
 4196 0078 0B       		.uleb128 0xb
 4197 0079 0B       		.uleb128 0xb
 4198 007a 0B       		.uleb128 0xb
 4199 007b 49       		.uleb128 0x49
 4200 007c 13       		.uleb128 0x13
 4201 007d 3A       		.uleb128 0x3a
 4202 007e 0B       		.uleb128 0xb
 4203 007f 3B       		.uleb128 0x3b
 4204 0080 0B       		.uleb128 0xb
 4205 0081 39       		.uleb128 0x39
 4206 0082 0B       		.uleb128 0xb
 4207 0083 01       		.uleb128 0x1
 4208 0084 13       		.uleb128 0x13
 4209 0085 00       		.byte	0
 4210 0086 00       		.byte	0
 4211 0087 0C       		.uleb128 0xc
ARM GAS  C:\Users\user\AppData\Local\Temp\cc7qV6fF.s 			page 112


 4212 0088 28       		.uleb128 0x28
 4213 0089 00       		.byte	0
 4214 008a 03       		.uleb128 0x3
 4215 008b 0E       		.uleb128 0xe
 4216 008c 1C       		.uleb128 0x1c
 4217 008d 0D       		.uleb128 0xd
 4218 008e 00       		.byte	0
 4219 008f 00       		.byte	0
 4220 0090 0D       		.uleb128 0xd
 4221 0091 16       		.uleb128 0x16
 4222 0092 00       		.byte	0
 4223 0093 03       		.uleb128 0x3
 4224 0094 0E       		.uleb128 0xe
 4225 0095 3A       		.uleb128 0x3a
 4226 0096 0B       		.uleb128 0xb
 4227 0097 3B       		.uleb128 0x3b
 4228 0098 05       		.uleb128 0x5
 4229 0099 39       		.uleb128 0x39
 4230 009a 0B       		.uleb128 0xb
 4231 009b 49       		.uleb128 0x49
 4232 009c 13       		.uleb128 0x13
 4233 009d 00       		.byte	0
 4234 009e 00       		.byte	0
 4235 009f 0E       		.uleb128 0xe
 4236 00a0 13       		.uleb128 0x13
 4237 00a1 01       		.byte	0x1
 4238 00a2 0B       		.uleb128 0xb
 4239 00a3 05       		.uleb128 0x5
 4240 00a4 3A       		.uleb128 0x3a
 4241 00a5 0B       		.uleb128 0xb
 4242 00a6 3B       		.uleb128 0x3b
 4243 00a7 0B       		.uleb128 0xb
 4244 00a8 39       		.uleb128 0x39
 4245 00a9 0B       		.uleb128 0xb
 4246 00aa 01       		.uleb128 0x1
 4247 00ab 13       		.uleb128 0x13
 4248 00ac 00       		.byte	0
 4249 00ad 00       		.byte	0
 4250 00ae 0F       		.uleb128 0xf
 4251 00af 0D       		.uleb128 0xd
 4252 00b0 00       		.byte	0
 4253 00b1 03       		.uleb128 0x3
 4254 00b2 0E       		.uleb128 0xe
 4255 00b3 3A       		.uleb128 0x3a
 4256 00b4 0B       		.uleb128 0xb
 4257 00b5 3B       		.uleb128 0x3b
 4258 00b6 0B       		.uleb128 0xb
 4259 00b7 39       		.uleb128 0x39
 4260 00b8 0B       		.uleb128 0xb
 4261 00b9 49       		.uleb128 0x49
 4262 00ba 13       		.uleb128 0x13
 4263 00bb 38       		.uleb128 0x38
 4264 00bc 0A       		.uleb128 0xa
 4265 00bd 00       		.byte	0
 4266 00be 00       		.byte	0
 4267 00bf 10       		.uleb128 0x10
 4268 00c0 0D       		.uleb128 0xd
ARM GAS  C:\Users\user\AppData\Local\Temp\cc7qV6fF.s 			page 113


 4269 00c1 00       		.byte	0
 4270 00c2 03       		.uleb128 0x3
 4271 00c3 08       		.uleb128 0x8
 4272 00c4 3A       		.uleb128 0x3a
 4273 00c5 0B       		.uleb128 0xb
 4274 00c6 3B       		.uleb128 0x3b
 4275 00c7 0B       		.uleb128 0xb
 4276 00c8 39       		.uleb128 0x39
 4277 00c9 0B       		.uleb128 0xb
 4278 00ca 49       		.uleb128 0x49
 4279 00cb 13       		.uleb128 0x13
 4280 00cc 38       		.uleb128 0x38
 4281 00cd 0A       		.uleb128 0xa
 4282 00ce 00       		.byte	0
 4283 00cf 00       		.byte	0
 4284 00d0 11       		.uleb128 0x11
 4285 00d1 01       		.uleb128 0x1
 4286 00d2 01       		.byte	0x1
 4287 00d3 49       		.uleb128 0x49
 4288 00d4 13       		.uleb128 0x13
 4289 00d5 01       		.uleb128 0x1
 4290 00d6 13       		.uleb128 0x13
 4291 00d7 00       		.byte	0
 4292 00d8 00       		.byte	0
 4293 00d9 12       		.uleb128 0x12
 4294 00da 21       		.uleb128 0x21
 4295 00db 00       		.byte	0
 4296 00dc 49       		.uleb128 0x49
 4297 00dd 13       		.uleb128 0x13
 4298 00de 2F       		.uleb128 0x2f
 4299 00df 0B       		.uleb128 0xb
 4300 00e0 00       		.byte	0
 4301 00e1 00       		.byte	0
 4302 00e2 13       		.uleb128 0x13
 4303 00e3 21       		.uleb128 0x21
 4304 00e4 00       		.byte	0
 4305 00e5 49       		.uleb128 0x49
 4306 00e6 13       		.uleb128 0x13
 4307 00e7 2F       		.uleb128 0x2f
 4308 00e8 05       		.uleb128 0x5
 4309 00e9 00       		.byte	0
 4310 00ea 00       		.byte	0
 4311 00eb 14       		.uleb128 0x14
 4312 00ec 13       		.uleb128 0x13
 4313 00ed 01       		.byte	0x1
 4314 00ee 0B       		.uleb128 0xb
 4315 00ef 0B       		.uleb128 0xb
 4316 00f0 3A       		.uleb128 0x3a
 4317 00f1 0B       		.uleb128 0xb
 4318 00f2 3B       		.uleb128 0x3b
 4319 00f3 0B       		.uleb128 0xb
 4320 00f4 39       		.uleb128 0x39
 4321 00f5 0B       		.uleb128 0xb
 4322 00f6 01       		.uleb128 0x1
 4323 00f7 13       		.uleb128 0x13
 4324 00f8 00       		.byte	0
 4325 00f9 00       		.byte	0
ARM GAS  C:\Users\user\AppData\Local\Temp\cc7qV6fF.s 			page 114


 4326 00fa 15       		.uleb128 0x15
 4327 00fb 04       		.uleb128 0x4
 4328 00fc 01       		.byte	0x1
 4329 00fd 3E       		.uleb128 0x3e
 4330 00fe 0B       		.uleb128 0xb
 4331 00ff 0B       		.uleb128 0xb
 4332 0100 0B       		.uleb128 0xb
 4333 0101 49       		.uleb128 0x49
 4334 0102 13       		.uleb128 0x13
 4335 0103 3A       		.uleb128 0x3a
 4336 0104 0B       		.uleb128 0xb
 4337 0105 3B       		.uleb128 0x3b
 4338 0106 05       		.uleb128 0x5
 4339 0107 39       		.uleb128 0x39
 4340 0108 0B       		.uleb128 0xb
 4341 0109 01       		.uleb128 0x1
 4342 010a 13       		.uleb128 0x13
 4343 010b 00       		.byte	0
 4344 010c 00       		.byte	0
 4345 010d 16       		.uleb128 0x16
 4346 010e 13       		.uleb128 0x13
 4347 010f 01       		.byte	0x1
 4348 0110 0B       		.uleb128 0xb
 4349 0111 0B       		.uleb128 0xb
 4350 0112 3A       		.uleb128 0x3a
 4351 0113 0B       		.uleb128 0xb
 4352 0114 3B       		.uleb128 0x3b
 4353 0115 05       		.uleb128 0x5
 4354 0116 39       		.uleb128 0x39
 4355 0117 0B       		.uleb128 0xb
 4356 0118 01       		.uleb128 0x1
 4357 0119 13       		.uleb128 0x13
 4358 011a 00       		.byte	0
 4359 011b 00       		.byte	0
 4360 011c 17       		.uleb128 0x17
 4361 011d 0D       		.uleb128 0xd
 4362 011e 00       		.byte	0
 4363 011f 03       		.uleb128 0x3
 4364 0120 08       		.uleb128 0x8
 4365 0121 3A       		.uleb128 0x3a
 4366 0122 0B       		.uleb128 0xb
 4367 0123 3B       		.uleb128 0x3b
 4368 0124 05       		.uleb128 0x5
 4369 0125 39       		.uleb128 0x39
 4370 0126 0B       		.uleb128 0xb
 4371 0127 49       		.uleb128 0x49
 4372 0128 13       		.uleb128 0x13
 4373 0129 38       		.uleb128 0x38
 4374 012a 0A       		.uleb128 0xa
 4375 012b 00       		.byte	0
 4376 012c 00       		.byte	0
 4377 012d 18       		.uleb128 0x18
 4378 012e 0D       		.uleb128 0xd
 4379 012f 00       		.byte	0
 4380 0130 03       		.uleb128 0x3
 4381 0131 0E       		.uleb128 0xe
 4382 0132 3A       		.uleb128 0x3a
ARM GAS  C:\Users\user\AppData\Local\Temp\cc7qV6fF.s 			page 115


 4383 0133 0B       		.uleb128 0xb
 4384 0134 3B       		.uleb128 0x3b
 4385 0135 05       		.uleb128 0x5
 4386 0136 39       		.uleb128 0x39
 4387 0137 0B       		.uleb128 0xb
 4388 0138 49       		.uleb128 0x49
 4389 0139 13       		.uleb128 0x13
 4390 013a 38       		.uleb128 0x38
 4391 013b 0A       		.uleb128 0xa
 4392 013c 00       		.byte	0
 4393 013d 00       		.byte	0
 4394 013e 19       		.uleb128 0x19
 4395 013f 34       		.uleb128 0x34
 4396 0140 00       		.byte	0
 4397 0141 03       		.uleb128 0x3
 4398 0142 0E       		.uleb128 0xe
 4399 0143 3A       		.uleb128 0x3a
 4400 0144 0B       		.uleb128 0xb
 4401 0145 3B       		.uleb128 0x3b
 4402 0146 0B       		.uleb128 0xb
 4403 0147 39       		.uleb128 0x39
 4404 0148 0B       		.uleb128 0xb
 4405 0149 49       		.uleb128 0x49
 4406 014a 13       		.uleb128 0x13
 4407 014b 02       		.uleb128 0x2
 4408 014c 0A       		.uleb128 0xa
 4409 014d 00       		.byte	0
 4410 014e 00       		.byte	0
 4411 014f 1A       		.uleb128 0x1a
 4412 0150 2E       		.uleb128 0x2e
 4413 0151 01       		.byte	0x1
 4414 0152 3F       		.uleb128 0x3f
 4415 0153 0C       		.uleb128 0xc
 4416 0154 03       		.uleb128 0x3
 4417 0155 0E       		.uleb128 0xe
 4418 0156 3A       		.uleb128 0x3a
 4419 0157 0B       		.uleb128 0xb
 4420 0158 3B       		.uleb128 0x3b
 4421 0159 05       		.uleb128 0x5
 4422 015a 39       		.uleb128 0x39
 4423 015b 0B       		.uleb128 0xb
 4424 015c 27       		.uleb128 0x27
 4425 015d 0C       		.uleb128 0xc
 4426 015e 11       		.uleb128 0x11
 4427 015f 01       		.uleb128 0x1
 4428 0160 12       		.uleb128 0x12
 4429 0161 01       		.uleb128 0x1
 4430 0162 40       		.uleb128 0x40
 4431 0163 06       		.uleb128 0x6
 4432 0164 9742     		.uleb128 0x2117
 4433 0166 0C       		.uleb128 0xc
 4434 0167 01       		.uleb128 0x1
 4435 0168 13       		.uleb128 0x13
 4436 0169 00       		.byte	0
 4437 016a 00       		.byte	0
 4438 016b 1B       		.uleb128 0x1b
 4439 016c 34       		.uleb128 0x34
ARM GAS  C:\Users\user\AppData\Local\Temp\cc7qV6fF.s 			page 116


 4440 016d 00       		.byte	0
 4441 016e 03       		.uleb128 0x3
 4442 016f 0E       		.uleb128 0xe
 4443 0170 3A       		.uleb128 0x3a
 4444 0171 0B       		.uleb128 0xb
 4445 0172 3B       		.uleb128 0x3b
 4446 0173 05       		.uleb128 0x5
 4447 0174 39       		.uleb128 0x39
 4448 0175 0B       		.uleb128 0xb
 4449 0176 49       		.uleb128 0x49
 4450 0177 13       		.uleb128 0x13
 4451 0178 02       		.uleb128 0x2
 4452 0179 0A       		.uleb128 0xa
 4453 017a 00       		.byte	0
 4454 017b 00       		.byte	0
 4455 017c 1C       		.uleb128 0x1c
 4456 017d 0B       		.uleb128 0xb
 4457 017e 01       		.byte	0x1
 4458 017f 11       		.uleb128 0x11
 4459 0180 01       		.uleb128 0x1
 4460 0181 12       		.uleb128 0x12
 4461 0182 01       		.uleb128 0x1
 4462 0183 01       		.uleb128 0x1
 4463 0184 13       		.uleb128 0x13
 4464 0185 00       		.byte	0
 4465 0186 00       		.byte	0
 4466 0187 1D       		.uleb128 0x1d
 4467 0188 898201   		.uleb128 0x4109
 4468 018b 01       		.byte	0x1
 4469 018c 11       		.uleb128 0x11
 4470 018d 01       		.uleb128 0x1
 4471 018e 31       		.uleb128 0x31
 4472 018f 13       		.uleb128 0x13
 4473 0190 01       		.uleb128 0x1
 4474 0191 13       		.uleb128 0x13
 4475 0192 00       		.byte	0
 4476 0193 00       		.byte	0
 4477 0194 1E       		.uleb128 0x1e
 4478 0195 8A8201   		.uleb128 0x410a
 4479 0198 00       		.byte	0
 4480 0199 02       		.uleb128 0x2
 4481 019a 0A       		.uleb128 0xa
 4482 019b 9142     		.uleb128 0x2111
 4483 019d 0A       		.uleb128 0xa
 4484 019e 00       		.byte	0
 4485 019f 00       		.byte	0
 4486 01a0 1F       		.uleb128 0x1f
 4487 01a1 898201   		.uleb128 0x4109
 4488 01a4 01       		.byte	0x1
 4489 01a5 11       		.uleb128 0x11
 4490 01a6 01       		.uleb128 0x1
 4491 01a7 31       		.uleb128 0x31
 4492 01a8 13       		.uleb128 0x13
 4493 01a9 00       		.byte	0
 4494 01aa 00       		.byte	0
 4495 01ab 20       		.uleb128 0x20
 4496 01ac 2E       		.uleb128 0x2e
ARM GAS  C:\Users\user\AppData\Local\Temp\cc7qV6fF.s 			page 117


 4497 01ad 01       		.byte	0x1
 4498 01ae 3F       		.uleb128 0x3f
 4499 01af 0C       		.uleb128 0xc
 4500 01b0 03       		.uleb128 0x3
 4501 01b1 0E       		.uleb128 0xe
 4502 01b2 3A       		.uleb128 0x3a
 4503 01b3 0B       		.uleb128 0xb
 4504 01b4 3B       		.uleb128 0x3b
 4505 01b5 05       		.uleb128 0x5
 4506 01b6 39       		.uleb128 0x39
 4507 01b7 0B       		.uleb128 0xb
 4508 01b8 27       		.uleb128 0x27
 4509 01b9 0C       		.uleb128 0xc
 4510 01ba 49       		.uleb128 0x49
 4511 01bb 13       		.uleb128 0x13
 4512 01bc 11       		.uleb128 0x11
 4513 01bd 01       		.uleb128 0x1
 4514 01be 12       		.uleb128 0x12
 4515 01bf 01       		.uleb128 0x1
 4516 01c0 40       		.uleb128 0x40
 4517 01c1 0A       		.uleb128 0xa
 4518 01c2 9742     		.uleb128 0x2117
 4519 01c4 0C       		.uleb128 0xc
 4520 01c5 01       		.uleb128 0x1
 4521 01c6 13       		.uleb128 0x13
 4522 01c7 00       		.byte	0
 4523 01c8 00       		.byte	0
 4524 01c9 21       		.uleb128 0x21
 4525 01ca 05       		.uleb128 0x5
 4526 01cb 00       		.byte	0
 4527 01cc 03       		.uleb128 0x3
 4528 01cd 0E       		.uleb128 0xe
 4529 01ce 3A       		.uleb128 0x3a
 4530 01cf 0B       		.uleb128 0xb
 4531 01d0 3B       		.uleb128 0x3b
 4532 01d1 05       		.uleb128 0x5
 4533 01d2 39       		.uleb128 0x39
 4534 01d3 0B       		.uleb128 0xb
 4535 01d4 49       		.uleb128 0x49
 4536 01d5 13       		.uleb128 0x13
 4537 01d6 02       		.uleb128 0x2
 4538 01d7 06       		.uleb128 0x6
 4539 01d8 B742     		.uleb128 0x2137
 4540 01da 06       		.uleb128 0x6
 4541 01db 00       		.byte	0
 4542 01dc 00       		.byte	0
 4543 01dd 22       		.uleb128 0x22
 4544 01de 34       		.uleb128 0x34
 4545 01df 00       		.byte	0
 4546 01e0 03       		.uleb128 0x3
 4547 01e1 0E       		.uleb128 0xe
 4548 01e2 3A       		.uleb128 0x3a
 4549 01e3 0B       		.uleb128 0xb
 4550 01e4 3B       		.uleb128 0x3b
 4551 01e5 05       		.uleb128 0x5
 4552 01e6 39       		.uleb128 0x39
 4553 01e7 0B       		.uleb128 0xb
ARM GAS  C:\Users\user\AppData\Local\Temp\cc7qV6fF.s 			page 118


 4554 01e8 49       		.uleb128 0x49
 4555 01e9 13       		.uleb128 0x13
 4556 01ea 02       		.uleb128 0x2
 4557 01eb 06       		.uleb128 0x6
 4558 01ec B742     		.uleb128 0x2137
 4559 01ee 06       		.uleb128 0x6
 4560 01ef 00       		.byte	0
 4561 01f0 00       		.byte	0
 4562 01f1 23       		.uleb128 0x23
 4563 01f2 2E       		.uleb128 0x2e
 4564 01f3 01       		.byte	0x1
 4565 01f4 3F       		.uleb128 0x3f
 4566 01f5 0C       		.uleb128 0xc
 4567 01f6 03       		.uleb128 0x3
 4568 01f7 0E       		.uleb128 0xe
 4569 01f8 3A       		.uleb128 0x3a
 4570 01f9 0B       		.uleb128 0xb
 4571 01fa 3B       		.uleb128 0x3b
 4572 01fb 05       		.uleb128 0x5
 4573 01fc 39       		.uleb128 0x39
 4574 01fd 0B       		.uleb128 0xb
 4575 01fe 27       		.uleb128 0x27
 4576 01ff 0C       		.uleb128 0xc
 4577 0200 11       		.uleb128 0x11
 4578 0201 01       		.uleb128 0x1
 4579 0202 12       		.uleb128 0x12
 4580 0203 01       		.uleb128 0x1
 4581 0204 40       		.uleb128 0x40
 4582 0205 0A       		.uleb128 0xa
 4583 0206 9742     		.uleb128 0x2117
 4584 0208 0C       		.uleb128 0xc
 4585 0209 01       		.uleb128 0x1
 4586 020a 13       		.uleb128 0x13
 4587 020b 00       		.byte	0
 4588 020c 00       		.byte	0
 4589 020d 24       		.uleb128 0x24
 4590 020e 05       		.uleb128 0x5
 4591 020f 00       		.byte	0
 4592 0210 03       		.uleb128 0x3
 4593 0211 0E       		.uleb128 0xe
 4594 0212 3A       		.uleb128 0x3a
 4595 0213 0B       		.uleb128 0xb
 4596 0214 3B       		.uleb128 0x3b
 4597 0215 05       		.uleb128 0x5
 4598 0216 39       		.uleb128 0x39
 4599 0217 0B       		.uleb128 0xb
 4600 0218 49       		.uleb128 0x49
 4601 0219 13       		.uleb128 0x13
 4602 021a 02       		.uleb128 0x2
 4603 021b 0A       		.uleb128 0xa
 4604 021c 00       		.byte	0
 4605 021d 00       		.byte	0
 4606 021e 25       		.uleb128 0x25
 4607 021f 2E       		.uleb128 0x2e
 4608 0220 01       		.byte	0x1
 4609 0221 3F       		.uleb128 0x3f
 4610 0222 0C       		.uleb128 0xc
ARM GAS  C:\Users\user\AppData\Local\Temp\cc7qV6fF.s 			page 119


 4611 0223 03       		.uleb128 0x3
 4612 0224 0E       		.uleb128 0xe
 4613 0225 3A       		.uleb128 0x3a
 4614 0226 0B       		.uleb128 0xb
 4615 0227 3B       		.uleb128 0x3b
 4616 0228 05       		.uleb128 0x5
 4617 0229 39       		.uleb128 0x39
 4618 022a 0B       		.uleb128 0xb
 4619 022b 27       		.uleb128 0x27
 4620 022c 0C       		.uleb128 0xc
 4621 022d 49       		.uleb128 0x49
 4622 022e 13       		.uleb128 0x13
 4623 022f 11       		.uleb128 0x11
 4624 0230 01       		.uleb128 0x1
 4625 0231 12       		.uleb128 0x12
 4626 0232 01       		.uleb128 0x1
 4627 0233 40       		.uleb128 0x40
 4628 0234 06       		.uleb128 0x6
 4629 0235 9742     		.uleb128 0x2117
 4630 0237 0C       		.uleb128 0xc
 4631 0238 01       		.uleb128 0x1
 4632 0239 13       		.uleb128 0x13
 4633 023a 00       		.byte	0
 4634 023b 00       		.byte	0
 4635 023c 26       		.uleb128 0x26
 4636 023d 05       		.uleb128 0x5
 4637 023e 00       		.byte	0
 4638 023f 03       		.uleb128 0x3
 4639 0240 08       		.uleb128 0x8
 4640 0241 3A       		.uleb128 0x3a
 4641 0242 0B       		.uleb128 0xb
 4642 0243 3B       		.uleb128 0x3b
 4643 0244 05       		.uleb128 0x5
 4644 0245 39       		.uleb128 0x39
 4645 0246 0B       		.uleb128 0xb
 4646 0247 49       		.uleb128 0x49
 4647 0248 13       		.uleb128 0x13
 4648 0249 02       		.uleb128 0x2
 4649 024a 06       		.uleb128 0x6
 4650 024b B742     		.uleb128 0x2137
 4651 024d 06       		.uleb128 0x6
 4652 024e 00       		.byte	0
 4653 024f 00       		.byte	0
 4654 0250 27       		.uleb128 0x27
 4655 0251 0B       		.uleb128 0xb
 4656 0252 01       		.byte	0x1
 4657 0253 55       		.uleb128 0x55
 4658 0254 06       		.uleb128 0x6
 4659 0255 00       		.byte	0
 4660 0256 00       		.byte	0
 4661 0257 28       		.uleb128 0x28
 4662 0258 34       		.uleb128 0x34
 4663 0259 00       		.byte	0
 4664 025a 03       		.uleb128 0x3
 4665 025b 08       		.uleb128 0x8
 4666 025c 3A       		.uleb128 0x3a
 4667 025d 0B       		.uleb128 0xb
ARM GAS  C:\Users\user\AppData\Local\Temp\cc7qV6fF.s 			page 120


 4668 025e 3B       		.uleb128 0x3b
 4669 025f 05       		.uleb128 0x5
 4670 0260 39       		.uleb128 0x39
 4671 0261 0B       		.uleb128 0xb
 4672 0262 49       		.uleb128 0x49
 4673 0263 13       		.uleb128 0x13
 4674 0264 02       		.uleb128 0x2
 4675 0265 06       		.uleb128 0x6
 4676 0266 B742     		.uleb128 0x2137
 4677 0268 06       		.uleb128 0x6
 4678 0269 00       		.byte	0
 4679 026a 00       		.byte	0
 4680 026b 29       		.uleb128 0x29
 4681 026c 898201   		.uleb128 0x4109
 4682 026f 00       		.byte	0
 4683 0270 11       		.uleb128 0x11
 4684 0271 01       		.uleb128 0x1
 4685 0272 31       		.uleb128 0x31
 4686 0273 13       		.uleb128 0x13
 4687 0274 00       		.byte	0
 4688 0275 00       		.byte	0
 4689 0276 2A       		.uleb128 0x2a
 4690 0277 1D       		.uleb128 0x1d
 4691 0278 01       		.byte	0x1
 4692 0279 31       		.uleb128 0x31
 4693 027a 13       		.uleb128 0x13
 4694 027b 52       		.uleb128 0x52
 4695 027c 01       		.uleb128 0x1
 4696 027d B842     		.uleb128 0x2138
 4697 027f 0B       		.uleb128 0xb
 4698 0280 55       		.uleb128 0x55
 4699 0281 06       		.uleb128 0x6
 4700 0282 58       		.uleb128 0x58
 4701 0283 0B       		.uleb128 0xb
 4702 0284 59       		.uleb128 0x59
 4703 0285 05       		.uleb128 0x5
 4704 0286 57       		.uleb128 0x57
 4705 0287 0B       		.uleb128 0xb
 4706 0288 01       		.uleb128 0x1
 4707 0289 13       		.uleb128 0x13
 4708 028a 00       		.byte	0
 4709 028b 00       		.byte	0
 4710 028c 2B       		.uleb128 0x2b
 4711 028d 05       		.uleb128 0x5
 4712 028e 00       		.byte	0
 4713 028f 31       		.uleb128 0x31
 4714 0290 13       		.uleb128 0x13
 4715 0291 02       		.uleb128 0x2
 4716 0292 06       		.uleb128 0x6
 4717 0293 B742     		.uleb128 0x2137
 4718 0295 06       		.uleb128 0x6
 4719 0296 00       		.byte	0
 4720 0297 00       		.byte	0
 4721 0298 2C       		.uleb128 0x2c
 4722 0299 2E       		.uleb128 0x2e
 4723 029a 01       		.byte	0x1
 4724 029b 3F       		.uleb128 0x3f
ARM GAS  C:\Users\user\AppData\Local\Temp\cc7qV6fF.s 			page 121


 4725 029c 0C       		.uleb128 0xc
 4726 029d 03       		.uleb128 0x3
 4727 029e 0E       		.uleb128 0xe
 4728 029f 3A       		.uleb128 0x3a
 4729 02a0 0B       		.uleb128 0xb
 4730 02a1 3B       		.uleb128 0x3b
 4731 02a2 0B       		.uleb128 0xb
 4732 02a3 39       		.uleb128 0x39
 4733 02a4 0B       		.uleb128 0xb
 4734 02a5 27       		.uleb128 0x27
 4735 02a6 0C       		.uleb128 0xc
 4736 02a7 11       		.uleb128 0x11
 4737 02a8 01       		.uleb128 0x1
 4738 02a9 12       		.uleb128 0x12
 4739 02aa 01       		.uleb128 0x1
 4740 02ab 40       		.uleb128 0x40
 4741 02ac 0A       		.uleb128 0xa
 4742 02ad 9742     		.uleb128 0x2117
 4743 02af 0C       		.uleb128 0xc
 4744 02b0 01       		.uleb128 0x1
 4745 02b1 13       		.uleb128 0x13
 4746 02b2 00       		.byte	0
 4747 02b3 00       		.byte	0
 4748 02b4 2D       		.uleb128 0x2d
 4749 02b5 05       		.uleb128 0x5
 4750 02b6 00       		.byte	0
 4751 02b7 03       		.uleb128 0x3
 4752 02b8 08       		.uleb128 0x8
 4753 02b9 3A       		.uleb128 0x3a
 4754 02ba 0B       		.uleb128 0xb
 4755 02bb 3B       		.uleb128 0x3b
 4756 02bc 0B       		.uleb128 0xb
 4757 02bd 39       		.uleb128 0x39
 4758 02be 0B       		.uleb128 0xb
 4759 02bf 49       		.uleb128 0x49
 4760 02c0 13       		.uleb128 0x13
 4761 02c1 02       		.uleb128 0x2
 4762 02c2 06       		.uleb128 0x6
 4763 02c3 B742     		.uleb128 0x2137
 4764 02c5 06       		.uleb128 0x6
 4765 02c6 00       		.byte	0
 4766 02c7 00       		.byte	0
 4767 02c8 2E       		.uleb128 0x2e
 4768 02c9 34       		.uleb128 0x34
 4769 02ca 00       		.byte	0
 4770 02cb 03       		.uleb128 0x3
 4771 02cc 0E       		.uleb128 0xe
 4772 02cd 3A       		.uleb128 0x3a
 4773 02ce 0B       		.uleb128 0xb
 4774 02cf 3B       		.uleb128 0x3b
 4775 02d0 0B       		.uleb128 0xb
 4776 02d1 39       		.uleb128 0x39
 4777 02d2 0B       		.uleb128 0xb
 4778 02d3 49       		.uleb128 0x49
 4779 02d4 13       		.uleb128 0x13
 4780 02d5 02       		.uleb128 0x2
 4781 02d6 06       		.uleb128 0x6
ARM GAS  C:\Users\user\AppData\Local\Temp\cc7qV6fF.s 			page 122


 4782 02d7 B742     		.uleb128 0x2137
 4783 02d9 06       		.uleb128 0x6
 4784 02da 00       		.byte	0
 4785 02db 00       		.byte	0
 4786 02dc 2F       		.uleb128 0x2f
 4787 02dd 898201   		.uleb128 0x4109
 4788 02e0 01       		.byte	0x1
 4789 02e1 11       		.uleb128 0x11
 4790 02e2 01       		.uleb128 0x1
 4791 02e3 9542     		.uleb128 0x2115
 4792 02e5 0C       		.uleb128 0xc
 4793 02e6 31       		.uleb128 0x31
 4794 02e7 13       		.uleb128 0x13
 4795 02e8 01       		.uleb128 0x1
 4796 02e9 13       		.uleb128 0x13
 4797 02ea 00       		.byte	0
 4798 02eb 00       		.byte	0
 4799 02ec 30       		.uleb128 0x30
 4800 02ed 898201   		.uleb128 0x4109
 4801 02f0 00       		.byte	0
 4802 02f1 11       		.uleb128 0x11
 4803 02f2 01       		.uleb128 0x1
 4804 02f3 9542     		.uleb128 0x2115
 4805 02f5 0C       		.uleb128 0xc
 4806 02f6 31       		.uleb128 0x31
 4807 02f7 13       		.uleb128 0x13
 4808 02f8 00       		.byte	0
 4809 02f9 00       		.byte	0
 4810 02fa 31       		.uleb128 0x31
 4811 02fb 2E       		.uleb128 0x2e
 4812 02fc 01       		.byte	0x1
 4813 02fd 3F       		.uleb128 0x3f
 4814 02fe 0C       		.uleb128 0xc
 4815 02ff 03       		.uleb128 0x3
 4816 0300 0E       		.uleb128 0xe
 4817 0301 3A       		.uleb128 0x3a
 4818 0302 0B       		.uleb128 0xb
 4819 0303 3B       		.uleb128 0x3b
 4820 0304 0B       		.uleb128 0xb
 4821 0305 39       		.uleb128 0x39
 4822 0306 0B       		.uleb128 0xb
 4823 0307 27       		.uleb128 0x27
 4824 0308 0C       		.uleb128 0xc
 4825 0309 49       		.uleb128 0x49
 4826 030a 13       		.uleb128 0x13
 4827 030b 11       		.uleb128 0x11
 4828 030c 01       		.uleb128 0x1
 4829 030d 12       		.uleb128 0x12
 4830 030e 01       		.uleb128 0x1
 4831 030f 40       		.uleb128 0x40
 4832 0310 0A       		.uleb128 0xa
 4833 0311 9742     		.uleb128 0x2117
 4834 0313 0C       		.uleb128 0xc
 4835 0314 01       		.uleb128 0x1
 4836 0315 13       		.uleb128 0x13
 4837 0316 00       		.byte	0
 4838 0317 00       		.byte	0
ARM GAS  C:\Users\user\AppData\Local\Temp\cc7qV6fF.s 			page 123


 4839 0318 32       		.uleb128 0x32
 4840 0319 34       		.uleb128 0x34
 4841 031a 00       		.byte	0
 4842 031b 03       		.uleb128 0x3
 4843 031c 0E       		.uleb128 0xe
 4844 031d 3A       		.uleb128 0x3a
 4845 031e 0B       		.uleb128 0xb
 4846 031f 3B       		.uleb128 0x3b
 4847 0320 0B       		.uleb128 0xb
 4848 0321 39       		.uleb128 0x39
 4849 0322 0B       		.uleb128 0xb
 4850 0323 49       		.uleb128 0x49
 4851 0324 13       		.uleb128 0x13
 4852 0325 1C       		.uleb128 0x1c
 4853 0326 0B       		.uleb128 0xb
 4854 0327 00       		.byte	0
 4855 0328 00       		.byte	0
 4856 0329 33       		.uleb128 0x33
 4857 032a 2E       		.uleb128 0x2e
 4858 032b 01       		.byte	0x1
 4859 032c 3F       		.uleb128 0x3f
 4860 032d 0C       		.uleb128 0xc
 4861 032e 03       		.uleb128 0x3
 4862 032f 0E       		.uleb128 0xe
 4863 0330 3A       		.uleb128 0x3a
 4864 0331 0B       		.uleb128 0xb
 4865 0332 3B       		.uleb128 0x3b
 4866 0333 0B       		.uleb128 0xb
 4867 0334 39       		.uleb128 0x39
 4868 0335 0B       		.uleb128 0xb
 4869 0336 27       		.uleb128 0x27
 4870 0337 0C       		.uleb128 0xc
 4871 0338 49       		.uleb128 0x49
 4872 0339 13       		.uleb128 0x13
 4873 033a 11       		.uleb128 0x11
 4874 033b 01       		.uleb128 0x1
 4875 033c 12       		.uleb128 0x12
 4876 033d 01       		.uleb128 0x1
 4877 033e 40       		.uleb128 0x40
 4878 033f 06       		.uleb128 0x6
 4879 0340 9742     		.uleb128 0x2117
 4880 0342 0C       		.uleb128 0xc
 4881 0343 01       		.uleb128 0x1
 4882 0344 13       		.uleb128 0x13
 4883 0345 00       		.byte	0
 4884 0346 00       		.byte	0
 4885 0347 34       		.uleb128 0x34
 4886 0348 34       		.uleb128 0x34
 4887 0349 00       		.byte	0
 4888 034a 03       		.uleb128 0x3
 4889 034b 0E       		.uleb128 0xe
 4890 034c 3A       		.uleb128 0x3a
 4891 034d 0B       		.uleb128 0xb
 4892 034e 3B       		.uleb128 0x3b
 4893 034f 0B       		.uleb128 0xb
 4894 0350 39       		.uleb128 0x39
 4895 0351 0B       		.uleb128 0xb
ARM GAS  C:\Users\user\AppData\Local\Temp\cc7qV6fF.s 			page 124


 4896 0352 49       		.uleb128 0x49
 4897 0353 13       		.uleb128 0x13
 4898 0354 00       		.byte	0
 4899 0355 00       		.byte	0
 4900 0356 35       		.uleb128 0x35
 4901 0357 2E       		.uleb128 0x2e
 4902 0358 01       		.byte	0x1
 4903 0359 3F       		.uleb128 0x3f
 4904 035a 0C       		.uleb128 0xc
 4905 035b 03       		.uleb128 0x3
 4906 035c 0E       		.uleb128 0xe
 4907 035d 3A       		.uleb128 0x3a
 4908 035e 0B       		.uleb128 0xb
 4909 035f 3B       		.uleb128 0x3b
 4910 0360 0B       		.uleb128 0xb
 4911 0361 39       		.uleb128 0x39
 4912 0362 0B       		.uleb128 0xb
 4913 0363 27       		.uleb128 0x27
 4914 0364 0C       		.uleb128 0xc
 4915 0365 49       		.uleb128 0x49
 4916 0366 13       		.uleb128 0x13
 4917 0367 20       		.uleb128 0x20
 4918 0368 0B       		.uleb128 0xb
 4919 0369 01       		.uleb128 0x1
 4920 036a 13       		.uleb128 0x13
 4921 036b 00       		.byte	0
 4922 036c 00       		.byte	0
 4923 036d 36       		.uleb128 0x36
 4924 036e 05       		.uleb128 0x5
 4925 036f 00       		.byte	0
 4926 0370 03       		.uleb128 0x3
 4927 0371 0E       		.uleb128 0xe
 4928 0372 3A       		.uleb128 0x3a
 4929 0373 0B       		.uleb128 0xb
 4930 0374 3B       		.uleb128 0x3b
 4931 0375 0B       		.uleb128 0xb
 4932 0376 39       		.uleb128 0x39
 4933 0377 0B       		.uleb128 0xb
 4934 0378 49       		.uleb128 0x49
 4935 0379 13       		.uleb128 0x13
 4936 037a 00       		.byte	0
 4937 037b 00       		.byte	0
 4938 037c 37       		.uleb128 0x37
 4939 037d 2E       		.uleb128 0x2e
 4940 037e 01       		.byte	0x1
 4941 037f 03       		.uleb128 0x3
 4942 0380 0E       		.uleb128 0xe
 4943 0381 3A       		.uleb128 0x3a
 4944 0382 0B       		.uleb128 0xb
 4945 0383 3B       		.uleb128 0x3b
 4946 0384 05       		.uleb128 0x5
 4947 0385 39       		.uleb128 0x39
 4948 0386 0B       		.uleb128 0xb
 4949 0387 27       		.uleb128 0x27
 4950 0388 0C       		.uleb128 0xc
 4951 0389 20       		.uleb128 0x20
 4952 038a 0B       		.uleb128 0xb
ARM GAS  C:\Users\user\AppData\Local\Temp\cc7qV6fF.s 			page 125


 4953 038b 01       		.uleb128 0x1
 4954 038c 13       		.uleb128 0x13
 4955 038d 00       		.byte	0
 4956 038e 00       		.byte	0
 4957 038f 38       		.uleb128 0x38
 4958 0390 05       		.uleb128 0x5
 4959 0391 00       		.byte	0
 4960 0392 03       		.uleb128 0x3
 4961 0393 0E       		.uleb128 0xe
 4962 0394 3A       		.uleb128 0x3a
 4963 0395 0B       		.uleb128 0xb
 4964 0396 3B       		.uleb128 0x3b
 4965 0397 05       		.uleb128 0x5
 4966 0398 39       		.uleb128 0x39
 4967 0399 0B       		.uleb128 0xb
 4968 039a 49       		.uleb128 0x49
 4969 039b 13       		.uleb128 0x13
 4970 039c 00       		.byte	0
 4971 039d 00       		.byte	0
 4972 039e 39       		.uleb128 0x39
 4973 039f 2E       		.uleb128 0x2e
 4974 03a0 01       		.byte	0x1
 4975 03a1 31       		.uleb128 0x31
 4976 03a2 13       		.uleb128 0x13
 4977 03a3 11       		.uleb128 0x11
 4978 03a4 01       		.uleb128 0x1
 4979 03a5 12       		.uleb128 0x12
 4980 03a6 01       		.uleb128 0x1
 4981 03a7 40       		.uleb128 0x40
 4982 03a8 0A       		.uleb128 0xa
 4983 03a9 9742     		.uleb128 0x2117
 4984 03ab 0C       		.uleb128 0xc
 4985 03ac 01       		.uleb128 0x1
 4986 03ad 13       		.uleb128 0x13
 4987 03ae 00       		.byte	0
 4988 03af 00       		.byte	0
 4989 03b0 3A       		.uleb128 0x3a
 4990 03b1 34       		.uleb128 0x34
 4991 03b2 00       		.byte	0
 4992 03b3 31       		.uleb128 0x31
 4993 03b4 13       		.uleb128 0x13
 4994 03b5 02       		.uleb128 0x2
 4995 03b6 0A       		.uleb128 0xa
 4996 03b7 00       		.byte	0
 4997 03b8 00       		.byte	0
 4998 03b9 3B       		.uleb128 0x3b
 4999 03ba 1D       		.uleb128 0x1d
 5000 03bb 01       		.byte	0x1
 5001 03bc 31       		.uleb128 0x31
 5002 03bd 13       		.uleb128 0x13
 5003 03be 52       		.uleb128 0x52
 5004 03bf 01       		.uleb128 0x1
 5005 03c0 B842     		.uleb128 0x2138
 5006 03c2 0B       		.uleb128 0xb
 5007 03c3 55       		.uleb128 0x55
 5008 03c4 06       		.uleb128 0x6
 5009 03c5 58       		.uleb128 0x58
ARM GAS  C:\Users\user\AppData\Local\Temp\cc7qV6fF.s 			page 126


 5010 03c6 0B       		.uleb128 0xb
 5011 03c7 59       		.uleb128 0x59
 5012 03c8 0B       		.uleb128 0xb
 5013 03c9 57       		.uleb128 0x57
 5014 03ca 0B       		.uleb128 0xb
 5015 03cb 00       		.byte	0
 5016 03cc 00       		.byte	0
 5017 03cd 3C       		.uleb128 0x3c
 5018 03ce 34       		.uleb128 0x34
 5019 03cf 00       		.byte	0
 5020 03d0 31       		.uleb128 0x31
 5021 03d1 13       		.uleb128 0x13
 5022 03d2 00       		.byte	0
 5023 03d3 00       		.byte	0
 5024 03d4 3D       		.uleb128 0x3d
 5025 03d5 2E       		.uleb128 0x2e
 5026 03d6 00       		.byte	0
 5027 03d7 3F       		.uleb128 0x3f
 5028 03d8 0C       		.uleb128 0xc
 5029 03d9 3C       		.uleb128 0x3c
 5030 03da 0C       		.uleb128 0xc
 5031 03db 8740     		.uleb128 0x2007
 5032 03dd 0E       		.uleb128 0xe
 5033 03de 03       		.uleb128 0x3
 5034 03df 0E       		.uleb128 0xe
 5035 03e0 3A       		.uleb128 0x3a
 5036 03e1 0B       		.uleb128 0xb
 5037 03e2 3B       		.uleb128 0x3b
 5038 03e3 05       		.uleb128 0x5
 5039 03e4 39       		.uleb128 0x39
 5040 03e5 0B       		.uleb128 0xb
 5041 03e6 00       		.byte	0
 5042 03e7 00       		.byte	0
 5043 03e8 00       		.byte	0
 5044              		.section	.debug_loc,"",%progbits
 5045              	.Ldebug_loc0:
 5046              	.LLST40:
 5047 0000 A0030000 		.4byte	.LFB48-.Ltext0
 5048 0004 A2030000 		.4byte	.LCFI13-.Ltext0
 5049 0008 0200     		.2byte	0x2
 5050 000a 7D       		.byte	0x7d
 5051 000b 00       		.sleb128 0
 5052 000c A2030000 		.4byte	.LCFI13-.Ltext0
 5053 0010 F2030000 		.4byte	.LCFI14-.Ltext0
 5054 0014 0200     		.2byte	0x2
 5055 0016 7D       		.byte	0x7d
 5056 0017 10       		.sleb128 16
 5057 0018 F2030000 		.4byte	.LCFI14-.Ltext0
 5058 001c FC030000 		.4byte	.LFE48-.Ltext0
 5059 0020 0200     		.2byte	0x2
 5060 0022 7D       		.byte	0x7d
 5061 0023 08       		.sleb128 8
 5062 0024 00000000 		.4byte	0
 5063 0028 00000000 		.4byte	0
 5064              	.LLST39:
 5065 002c 44030000 		.4byte	.LFB47-.Ltext0
 5066 0030 46030000 		.4byte	.LCFI11-.Ltext0
ARM GAS  C:\Users\user\AppData\Local\Temp\cc7qV6fF.s 			page 127


 5067 0034 0200     		.2byte	0x2
 5068 0036 7D       		.byte	0x7d
 5069 0037 00       		.sleb128 0
 5070 0038 46030000 		.4byte	.LCFI11-.Ltext0
 5071 003c 96030000 		.4byte	.LCFI12-.Ltext0
 5072 0040 0200     		.2byte	0x2
 5073 0042 7D       		.byte	0x7d
 5074 0043 10       		.sleb128 16
 5075 0044 96030000 		.4byte	.LCFI12-.Ltext0
 5076 0048 A0030000 		.4byte	.LFE47-.Ltext0
 5077 004c 0200     		.2byte	0x2
 5078 004e 7D       		.byte	0x7d
 5079 004f 08       		.sleb128 8
 5080 0050 00000000 		.4byte	0
 5081 0054 00000000 		.4byte	0
 5082              	.LLST38:
 5083 0058 E6020000 		.4byte	.LFB46-.Ltext0
 5084 005c E8020000 		.4byte	.LCFI9-.Ltext0
 5085 0060 0200     		.2byte	0x2
 5086 0062 7D       		.byte	0x7d
 5087 0063 00       		.sleb128 0
 5088 0064 E8020000 		.4byte	.LCFI9-.Ltext0
 5089 0068 38030000 		.4byte	.LCFI10-.Ltext0
 5090 006c 0200     		.2byte	0x2
 5091 006e 7D       		.byte	0x7d
 5092 006f 10       		.sleb128 16
 5093 0070 38030000 		.4byte	.LCFI10-.Ltext0
 5094 0074 44030000 		.4byte	.LFE46-.Ltext0
 5095 0078 0200     		.2byte	0x2
 5096 007a 7D       		.byte	0x7d
 5097 007b 08       		.sleb128 8
 5098 007c 00000000 		.4byte	0
 5099 0080 00000000 		.4byte	0
 5100              	.LVUS36:
 5101 0084 00       		.uleb128 0
 5102 0085 00       		.uleb128 .LVU250
 5103 0086 00       		.uleb128 .LVU250
 5104 0087 00       		.uleb128 0
 5105              	.LLST36:
 5106 0088 E2020000 		.4byte	.LVL104-.Ltext0
 5107 008c E4020000 		.4byte	.LVL105-.Ltext0
 5108 0090 0100     		.2byte	0x1
 5109 0092 50       		.byte	0x50
 5110 0093 E4020000 		.4byte	.LVL105-.Ltext0
 5111 0097 E6020000 		.4byte	.LFE45-.Ltext0
 5112 009b 0400     		.2byte	0x4
 5113 009d F3       		.byte	0xf3
 5114 009e 01       		.uleb128 0x1
 5115 009f 50       		.byte	0x50
 5116 00a0 9F       		.byte	0x9f
 5117 00a1 00000000 		.4byte	0
 5118 00a5 00000000 		.4byte	0
 5119              	.LVUS37:
 5120 00a9 03       		.uleb128 .LVU248
 5121 00aa 00       		.uleb128 .LVU250
 5122 00ab 00       		.uleb128 .LVU250
 5123 00ac 00       		.uleb128 0
ARM GAS  C:\Users\user\AppData\Local\Temp\cc7qV6fF.s 			page 128


 5124              	.LLST37:
 5125 00ad E2020000 		.4byte	.LVL104-.Ltext0
 5126 00b1 E4020000 		.4byte	.LVL105-.Ltext0
 5127 00b5 0100     		.2byte	0x1
 5128 00b7 50       		.byte	0x50
 5129 00b8 E4020000 		.4byte	.LVL105-.Ltext0
 5130 00bc E6020000 		.4byte	.LFE45-.Ltext0
 5131 00c0 0400     		.2byte	0x4
 5132 00c2 F3       		.byte	0xf3
 5133 00c3 01       		.uleb128 0x1
 5134 00c4 50       		.byte	0x50
 5135 00c5 9F       		.byte	0x9f
 5136 00c6 00000000 		.4byte	0
 5137 00ca 00000000 		.4byte	0
 5138              	.LLST32:
 5139 00ce CA020000 		.4byte	.LFB43-.Ltext0
 5140 00d2 CC020000 		.4byte	.LCFI8-.Ltext0
 5141 00d6 0200     		.2byte	0x2
 5142 00d8 7D       		.byte	0x7d
 5143 00d9 00       		.sleb128 0
 5144 00da CC020000 		.4byte	.LCFI8-.Ltext0
 5145 00de E0020000 		.4byte	.LFE43-.Ltext0
 5146 00e2 0200     		.2byte	0x2
 5147 00e4 7D       		.byte	0x7d
 5148 00e5 08       		.sleb128 8
 5149 00e6 00000000 		.4byte	0
 5150 00ea 00000000 		.4byte	0
 5151              	.LVUS33:
 5152 00ee 00       		.uleb128 0
 5153 00ef 00       		.uleb128 .LVU240
 5154 00f0 00       		.uleb128 .LVU240
 5155 00f1 00       		.uleb128 0
 5156              	.LLST33:
 5157 00f2 CA020000 		.4byte	.LVL100-.Ltext0
 5158 00f6 D4020000 		.4byte	.LVL101-.Ltext0
 5159 00fa 0100     		.2byte	0x1
 5160 00fc 50       		.byte	0x50
 5161 00fd D4020000 		.4byte	.LVL101-.Ltext0
 5162 0101 E0020000 		.4byte	.LFE43-.Ltext0
 5163 0105 0400     		.2byte	0x4
 5164 0107 F3       		.byte	0xf3
 5165 0108 01       		.uleb128 0x1
 5166 0109 50       		.byte	0x50
 5167 010a 9F       		.byte	0x9f
 5168 010b 00000000 		.4byte	0
 5169 010f 00000000 		.4byte	0
 5170              	.LVUS34:
 5171 0113 00       		.uleb128 0
 5172 0114 00       		.uleb128 .LVU241
 5173 0115 00       		.uleb128 .LVU241
 5174 0116 00       		.uleb128 0
 5175              	.LLST34:
 5176 0117 CA020000 		.4byte	.LVL100-.Ltext0
 5177 011b D7020000 		.4byte	.LVL102-1-.Ltext0
 5178 011f 0100     		.2byte	0x1
 5179 0121 51       		.byte	0x51
 5180 0122 D7020000 		.4byte	.LVL102-1-.Ltext0
ARM GAS  C:\Users\user\AppData\Local\Temp\cc7qV6fF.s 			page 129


 5181 0126 E0020000 		.4byte	.LFE43-.Ltext0
 5182 012a 0400     		.2byte	0x4
 5183 012c F3       		.byte	0xf3
 5184 012d 01       		.uleb128 0x1
 5185 012e 51       		.byte	0x51
 5186 012f 9F       		.byte	0x9f
 5187 0130 00000000 		.4byte	0
 5188 0134 00000000 		.4byte	0
 5189              	.LVUS35:
 5190 0138 04       		.uleb128 .LVU237
 5191 0139 00       		.uleb128 .LVU240
 5192 013a 00       		.uleb128 .LVU240
 5193 013b 00       		.uleb128 0
 5194              	.LLST35:
 5195 013c CA020000 		.4byte	.LVL100-.Ltext0
 5196 0140 D4020000 		.4byte	.LVL101-.Ltext0
 5197 0144 0100     		.2byte	0x1
 5198 0146 50       		.byte	0x50
 5199 0147 D4020000 		.4byte	.LVL101-.Ltext0
 5200 014b E0020000 		.4byte	.LFE43-.Ltext0
 5201 014f 0400     		.2byte	0x4
 5202 0151 F3       		.byte	0xf3
 5203 0152 01       		.uleb128 0x1
 5204 0153 50       		.byte	0x50
 5205 0154 9F       		.byte	0x9f
 5206 0155 00000000 		.4byte	0
 5207 0159 00000000 		.4byte	0
 5208              	.LLST27:
 5209 015d B0020000 		.4byte	.LFB42-.Ltext0
 5210 0161 B2020000 		.4byte	.LCFI7-.Ltext0
 5211 0165 0200     		.2byte	0x2
 5212 0167 7D       		.byte	0x7d
 5213 0168 00       		.sleb128 0
 5214 0169 B2020000 		.4byte	.LCFI7-.Ltext0
 5215 016d CA020000 		.4byte	.LFE42-.Ltext0
 5216 0171 0200     		.2byte	0x2
 5217 0173 7D       		.byte	0x7d
 5218 0174 10       		.sleb128 16
 5219 0175 00000000 		.4byte	0
 5220 0179 00000000 		.4byte	0
 5221              	.LVUS28:
 5222 017d 00       		.uleb128 0
 5223 017e 00       		.uleb128 .LVU226
 5224 017f 00       		.uleb128 .LVU226
 5225 0180 00       		.uleb128 0
 5226              	.LLST28:
 5227 0181 B0020000 		.4byte	.LVL94-.Ltext0
 5228 0185 B8020000 		.4byte	.LVL96-.Ltext0
 5229 0189 0100     		.2byte	0x1
 5230 018b 50       		.byte	0x50
 5231 018c B8020000 		.4byte	.LVL96-.Ltext0
 5232 0190 CA020000 		.4byte	.LFE42-.Ltext0
 5233 0194 0100     		.2byte	0x1
 5234 0196 56       		.byte	0x56
 5235 0197 00000000 		.4byte	0
 5236 019b 00000000 		.4byte	0
 5237              	.LVUS29:
ARM GAS  C:\Users\user\AppData\Local\Temp\cc7qV6fF.s 			page 130


 5238 019f 00       		.uleb128 0
 5239 01a0 00       		.uleb128 .LVU226
 5240 01a1 00       		.uleb128 .LVU226
 5241 01a2 00       		.uleb128 0
 5242              	.LLST29:
 5243 01a3 B0020000 		.4byte	.LVL94-.Ltext0
 5244 01a7 B8020000 		.4byte	.LVL96-.Ltext0
 5245 01ab 0100     		.2byte	0x1
 5246 01ad 51       		.byte	0x51
 5247 01ae B8020000 		.4byte	.LVL96-.Ltext0
 5248 01b2 CA020000 		.4byte	.LFE42-.Ltext0
 5249 01b6 0400     		.2byte	0x4
 5250 01b8 F3       		.byte	0xf3
 5251 01b9 01       		.uleb128 0x1
 5252 01ba 51       		.byte	0x51
 5253 01bb 9F       		.byte	0x9f
 5254 01bc 00000000 		.4byte	0
 5255 01c0 00000000 		.4byte	0
 5256              	.LVUS30:
 5257 01c4 00       		.uleb128 0
 5258 01c5 00       		.uleb128 .LVU226
 5259 01c6 00       		.uleb128 .LVU226
 5260 01c7 00       		.uleb128 0
 5261              	.LLST30:
 5262 01c8 B0020000 		.4byte	.LVL94-.Ltext0
 5263 01cc B8020000 		.4byte	.LVL96-.Ltext0
 5264 01d0 0100     		.2byte	0x1
 5265 01d2 52       		.byte	0x52
 5266 01d3 B8020000 		.4byte	.LVL96-.Ltext0
 5267 01d7 CA020000 		.4byte	.LFE42-.Ltext0
 5268 01db 0400     		.2byte	0x4
 5269 01dd F3       		.byte	0xf3
 5270 01de 01       		.uleb128 0x1
 5271 01df 52       		.byte	0x52
 5272 01e0 9F       		.byte	0x9f
 5273 01e1 00000000 		.4byte	0
 5274 01e5 00000000 		.4byte	0
 5275              	.LVUS31:
 5276 01e9 04       		.uleb128 .LVU225
 5277 01ea 00       		.uleb128 .LVU226
 5278 01eb 00       		.uleb128 .LVU226
 5279 01ec 00       		.uleb128 .LVU230
 5280 01ed 00       		.uleb128 .LVU230
 5281 01ee 01       		.uleb128 .LVU232
 5282 01ef 01       		.uleb128 .LVU232
 5283 01f0 00       		.uleb128 0
 5284              	.LLST31:
 5285 01f1 B4020000 		.4byte	.LVL95-.Ltext0
 5286 01f5 B8020000 		.4byte	.LVL96-.Ltext0
 5287 01f9 0200     		.2byte	0x2
 5288 01fb 30       		.byte	0x30
 5289 01fc 9F       		.byte	0x9f
 5290 01fd B8020000 		.4byte	.LVL96-.Ltext0
 5291 0201 C4020000 		.4byte	.LVL98-.Ltext0
 5292 0205 0700     		.2byte	0x7
 5293 0207 74       		.byte	0x74
 5294 0208 00       		.sleb128 0
ARM GAS  C:\Users\user\AppData\Local\Temp\cc7qV6fF.s 			page 131


 5295 0209 F3       		.byte	0xf3
 5296 020a 01       		.uleb128 0x1
 5297 020b 51       		.byte	0x51
 5298 020c 1C       		.byte	0x1c
 5299 020d 9F       		.byte	0x9f
 5300 020e C4020000 		.4byte	.LVL98-.Ltext0
 5301 0212 C8020000 		.4byte	.LVL99-.Ltext0
 5302 0216 0800     		.2byte	0x8
 5303 0218 F3       		.byte	0xf3
 5304 0219 01       		.uleb128 0x1
 5305 021a 51       		.byte	0x51
 5306 021b 20       		.byte	0x20
 5307 021c 74       		.byte	0x74
 5308 021d 00       		.sleb128 0
 5309 021e 22       		.byte	0x22
 5310 021f 9F       		.byte	0x9f
 5311 0220 C8020000 		.4byte	.LVL99-.Ltext0
 5312 0224 CA020000 		.4byte	.LFE42-.Ltext0
 5313 0228 0700     		.2byte	0x7
 5314 022a 74       		.byte	0x74
 5315 022b 00       		.sleb128 0
 5316 022c F3       		.byte	0xf3
 5317 022d 01       		.uleb128 0x1
 5318 022e 51       		.byte	0x51
 5319 022f 1C       		.byte	0x1c
 5320 0230 9F       		.byte	0x9f
 5321 0231 00000000 		.4byte	0
 5322 0235 00000000 		.4byte	0
 5323              	.LLST23:
 5324 0239 90020000 		.4byte	.LFB41-.Ltext0
 5325 023d 92020000 		.4byte	.LCFI6-.Ltext0
 5326 0241 0200     		.2byte	0x2
 5327 0243 7D       		.byte	0x7d
 5328 0244 00       		.sleb128 0
 5329 0245 92020000 		.4byte	.LCFI6-.Ltext0
 5330 0249 B0020000 		.4byte	.LFE41-.Ltext0
 5331 024d 0200     		.2byte	0x2
 5332 024f 7D       		.byte	0x7d
 5333 0250 08       		.sleb128 8
 5334 0251 00000000 		.4byte	0
 5335 0255 00000000 		.4byte	0
 5336              	.LVUS24:
 5337 0259 00       		.uleb128 0
 5338 025a 00       		.uleb128 .LVU210
 5339 025b 00       		.uleb128 .LVU210
 5340 025c 00       		.uleb128 0
 5341              	.LLST24:
 5342 025d 90020000 		.4byte	.LVL88-.Ltext0
 5343 0261 96020000 		.4byte	.LVL89-.Ltext0
 5344 0265 0100     		.2byte	0x1
 5345 0267 50       		.byte	0x50
 5346 0268 96020000 		.4byte	.LVL89-.Ltext0
 5347 026c B0020000 		.4byte	.LFE41-.Ltext0
 5348 0270 0100     		.2byte	0x1
 5349 0272 54       		.byte	0x54
 5350 0273 00000000 		.4byte	0
 5351 0277 00000000 		.4byte	0
ARM GAS  C:\Users\user\AppData\Local\Temp\cc7qV6fF.s 			page 132


 5352              	.LVUS25:
 5353 027b 00       		.uleb128 0
 5354 027c 00       		.uleb128 .LVU211
 5355 027d 00       		.uleb128 .LVU211
 5356 027e 00       		.uleb128 0
 5357              	.LLST25:
 5358 027f 90020000 		.4byte	.LVL88-.Ltext0
 5359 0283 9D020000 		.4byte	.LVL91-1-.Ltext0
 5360 0287 0100     		.2byte	0x1
 5361 0289 51       		.byte	0x51
 5362 028a 9D020000 		.4byte	.LVL91-1-.Ltext0
 5363 028e B0020000 		.4byte	.LFE41-.Ltext0
 5364 0292 0400     		.2byte	0x4
 5365 0294 F3       		.byte	0xf3
 5366 0295 01       		.uleb128 0x1
 5367 0296 51       		.byte	0x51
 5368 0297 9F       		.byte	0x9f
 5369 0298 00000000 		.4byte	0
 5370 029c 00000000 		.4byte	0
 5371              	.LVUS26:
 5372 02a0 03       		.uleb128 .LVU206
 5373 02a1 00       		.uleb128 .LVU210
 5374 02a2 00       		.uleb128 .LVU210
 5375 02a3 00       		.uleb128 0
 5376              	.LLST26:
 5377 02a4 90020000 		.4byte	.LVL88-.Ltext0
 5378 02a8 96020000 		.4byte	.LVL89-.Ltext0
 5379 02ac 0100     		.2byte	0x1
 5380 02ae 50       		.byte	0x50
 5381 02af 96020000 		.4byte	.LVL89-.Ltext0
 5382 02b3 B0020000 		.4byte	.LFE41-.Ltext0
 5383 02b7 0100     		.2byte	0x1
 5384 02b9 54       		.byte	0x54
 5385 02ba 00000000 		.4byte	0
 5386 02be 00000000 		.4byte	0
 5387              	.LLST14:
 5388 02c2 D0010000 		.4byte	.LFB40-.Ltext0
 5389 02c6 D4010000 		.4byte	.LCFI3-.Ltext0
 5390 02ca 0200     		.2byte	0x2
 5391 02cc 7D       		.byte	0x7d
 5392 02cd 00       		.sleb128 0
 5393 02ce D4010000 		.4byte	.LCFI3-.Ltext0
 5394 02d2 D6010000 		.4byte	.LCFI4-.Ltext0
 5395 02d6 0200     		.2byte	0x2
 5396 02d8 7D       		.byte	0x7d
 5397 02d9 1C       		.sleb128 28
 5398 02da D6010000 		.4byte	.LCFI4-.Ltext0
 5399 02de 82020000 		.4byte	.LCFI5-.Ltext0
 5400 02e2 0200     		.2byte	0x2
 5401 02e4 7D       		.byte	0x7d
 5402 02e5 30       		.sleb128 48
 5403 02e6 82020000 		.4byte	.LCFI5-.Ltext0
 5404 02ea 90020000 		.4byte	.LFE40-.Ltext0
 5405 02ee 0200     		.2byte	0x2
 5406 02f0 7D       		.byte	0x7d
 5407 02f1 1C       		.sleb128 28
 5408 02f2 00000000 		.4byte	0
ARM GAS  C:\Users\user\AppData\Local\Temp\cc7qV6fF.s 			page 133


 5409 02f6 00000000 		.4byte	0
 5410              	.LVUS15:
 5411 02fa 00       		.uleb128 0
 5412 02fb 00       		.uleb128 .LVU146
 5413 02fc 00       		.uleb128 .LVU146
 5414 02fd 00       		.uleb128 0
 5415              	.LLST15:
 5416 02fe D0010000 		.4byte	.LVL72-.Ltext0
 5417 0302 DF010000 		.4byte	.LVL73-1-.Ltext0
 5418 0306 0100     		.2byte	0x1
 5419 0308 50       		.byte	0x50
 5420 0309 DF010000 		.4byte	.LVL73-1-.Ltext0
 5421 030d 90020000 		.4byte	.LFE40-.Ltext0
 5422 0311 0400     		.2byte	0x4
 5423 0313 F3       		.byte	0xf3
 5424 0314 01       		.uleb128 0x1
 5425 0315 50       		.byte	0x50
 5426 0316 9F       		.byte	0x9f
 5427 0317 00000000 		.4byte	0
 5428 031b 00000000 		.4byte	0
 5429              	.LVUS16:
 5430 031f 00       		.uleb128 0
 5431 0320 00       		.uleb128 .LVU146
 5432 0321 00       		.uleb128 .LVU146
 5433 0322 00       		.uleb128 .LVU202
 5434 0323 00       		.uleb128 .LVU202
 5435 0324 00       		.uleb128 0
 5436              	.LLST16:
 5437 0325 D0010000 		.4byte	.LVL72-.Ltext0
 5438 0329 DF010000 		.4byte	.LVL73-1-.Ltext0
 5439 032d 0100     		.2byte	0x1
 5440 032f 51       		.byte	0x51
 5441 0330 DF010000 		.4byte	.LVL73-1-.Ltext0
 5442 0334 86020000 		.4byte	.LVL87-.Ltext0
 5443 0338 0100     		.2byte	0x1
 5444 033a 56       		.byte	0x56
 5445 033b 86020000 		.4byte	.LVL87-.Ltext0
 5446 033f 90020000 		.4byte	.LFE40-.Ltext0
 5447 0343 0400     		.2byte	0x4
 5448 0345 F3       		.byte	0xf3
 5449 0346 01       		.uleb128 0x1
 5450 0347 51       		.byte	0x51
 5451 0348 9F       		.byte	0x9f
 5452 0349 00000000 		.4byte	0
 5453 034d 00000000 		.4byte	0
 5454              	.LVUS17:
 5455 0351 00       		.uleb128 0
 5456 0352 00       		.uleb128 .LVU146
 5457 0353 00       		.uleb128 .LVU146
 5458 0354 00       		.uleb128 0
 5459              	.LLST17:
 5460 0355 D0010000 		.4byte	.LVL72-.Ltext0
 5461 0359 DF010000 		.4byte	.LVL73-1-.Ltext0
 5462 035d 0100     		.2byte	0x1
 5463 035f 52       		.byte	0x52
 5464 0360 DF010000 		.4byte	.LVL73-1-.Ltext0
 5465 0364 90020000 		.4byte	.LFE40-.Ltext0
ARM GAS  C:\Users\user\AppData\Local\Temp\cc7qV6fF.s 			page 134


 5466 0368 0400     		.2byte	0x4
 5467 036a F3       		.byte	0xf3
 5468 036b 01       		.uleb128 0x1
 5469 036c 52       		.byte	0x52
 5470 036d 9F       		.byte	0x9f
 5471 036e 00000000 		.4byte	0
 5472 0372 00000000 		.4byte	0
 5473              	.LVUS18:
 5474 0376 00       		.uleb128 0
 5475 0377 00       		.uleb128 .LVU146
 5476 0378 00       		.uleb128 .LVU146
 5477 0379 00       		.uleb128 .LVU202
 5478 037a 00       		.uleb128 .LVU202
 5479 037b 00       		.uleb128 0
 5480              	.LLST18:
 5481 037c D0010000 		.4byte	.LVL72-.Ltext0
 5482 0380 DF010000 		.4byte	.LVL73-1-.Ltext0
 5483 0384 0100     		.2byte	0x1
 5484 0386 53       		.byte	0x53
 5485 0387 DF010000 		.4byte	.LVL73-1-.Ltext0
 5486 038b 86020000 		.4byte	.LVL87-.Ltext0
 5487 038f 0100     		.2byte	0x1
 5488 0391 57       		.byte	0x57
 5489 0392 86020000 		.4byte	.LVL87-.Ltext0
 5490 0396 90020000 		.4byte	.LFE40-.Ltext0
 5491 039a 0400     		.2byte	0x4
 5492 039c F3       		.byte	0xf3
 5493 039d 01       		.uleb128 0x1
 5494 039e 53       		.byte	0x53
 5495 039f 9F       		.byte	0x9f
 5496 03a0 00000000 		.4byte	0
 5497 03a4 00000000 		.4byte	0
 5498              	.LVUS19:
 5499 03a8 00       		.uleb128 .LVU193
 5500 03a9 01       		.uleb128 .LVU201
 5501              	.LLST19:
 5502 03aa 74020000 		.4byte	.LVL85-.Ltext0
 5503 03ae 7E020000 		.4byte	.LVL86-.Ltext0
 5504 03b2 0100     		.2byte	0x1
 5505 03b4 54       		.byte	0x54
 5506 03b5 00000000 		.4byte	0
 5507 03b9 00000000 		.4byte	0
 5508              	.LVUS20:
 5509 03bd 00       		.uleb128 .LVU164
 5510 03be 00       		.uleb128 .LVU174
 5511              	.LLST20:
 5512 03bf 24020000 		.4byte	.LVL79-.Ltext0
 5513 03c3 3A020000 		.4byte	.LVL80-.Ltext0
 5514 03c7 0100     		.2byte	0x1
 5515 03c9 50       		.byte	0x50
 5516 03ca 00000000 		.4byte	0
 5517 03ce 00000000 		.4byte	0
 5518              	.LVUS21:
 5519 03d2 03       		.uleb128 .LVU177
 5520 03d3 00       		.uleb128 .LVU187
 5521              	.LLST21:
 5522 03d4 3A020000 		.4byte	.LVL80-.Ltext0
ARM GAS  C:\Users\user\AppData\Local\Temp\cc7qV6fF.s 			page 135


 5523 03d8 54020000 		.4byte	.LVL82-.Ltext0
 5524 03dc 0200     		.2byte	0x2
 5525 03de 36       		.byte	0x36
 5526 03df 9F       		.byte	0x9f
 5527 03e0 00000000 		.4byte	0
 5528 03e4 00000000 		.4byte	0
 5529              	.LVUS22:
 5530 03e8 02       		.uleb128 .LVU176
 5531 03e9 00       		.uleb128 .LVU182
 5532              	.LLST22:
 5533 03ea 3A020000 		.4byte	.LVL80-.Ltext0
 5534 03ee 48020000 		.4byte	.LVL81-.Ltext0
 5535 03f2 0100     		.2byte	0x1
 5536 03f4 50       		.byte	0x50
 5537 03f5 00000000 		.4byte	0
 5538 03f9 00000000 		.4byte	0
 5539              	.LVUS12:
 5540 03fd 00       		.uleb128 0
 5541 03fe 00       		.uleb128 .LVU127
 5542 03ff 00       		.uleb128 .LVU127
 5543 0400 00       		.uleb128 .LVU128
 5544 0401 00       		.uleb128 .LVU128
 5545 0402 00       		.uleb128 .LVU130
 5546 0403 00       		.uleb128 .LVU130
 5547 0404 00       		.uleb128 .LVU131
 5548 0405 00       		.uleb128 .LVU131
 5549 0406 00       		.uleb128 .LVU133
 5550 0407 00       		.uleb128 .LVU133
 5551 0408 00       		.uleb128 .LVU134
 5552 0409 00       		.uleb128 .LVU134
 5553 040a 00       		.uleb128 .LVU136
 5554 040b 00       		.uleb128 .LVU136
 5555 040c 00       		.uleb128 .LVU137
 5556 040d 00       		.uleb128 .LVU137
 5557 040e 00       		.uleb128 .LVU139
 5558 040f 00       		.uleb128 .LVU139
 5559 0410 00       		.uleb128 .LVU140
 5560 0411 00       		.uleb128 .LVU140
 5561 0412 00       		.uleb128 0
 5562              	.LLST12:
 5563 0413 94010000 		.4byte	.LVL60-.Ltext0
 5564 0417 A8010000 		.4byte	.LVL62-.Ltext0
 5565 041b 0100     		.2byte	0x1
 5566 041d 50       		.byte	0x50
 5567 041e A8010000 		.4byte	.LVL62-.Ltext0
 5568 0422 AC010000 		.4byte	.LVL63-.Ltext0
 5569 0426 0400     		.2byte	0x4
 5570 0428 F3       		.byte	0xf3
 5571 0429 01       		.uleb128 0x1
 5572 042a 50       		.byte	0x50
 5573 042b 9F       		.byte	0x9f
 5574 042c AC010000 		.4byte	.LVL63-.Ltext0
 5575 0430 B2010000 		.4byte	.LVL64-.Ltext0
 5576 0434 0100     		.2byte	0x1
 5577 0436 50       		.byte	0x50
 5578 0437 B2010000 		.4byte	.LVL64-.Ltext0
 5579 043b B6010000 		.4byte	.LVL65-.Ltext0
ARM GAS  C:\Users\user\AppData\Local\Temp\cc7qV6fF.s 			page 136


 5580 043f 0400     		.2byte	0x4
 5581 0441 F3       		.byte	0xf3
 5582 0442 01       		.uleb128 0x1
 5583 0443 50       		.byte	0x50
 5584 0444 9F       		.byte	0x9f
 5585 0445 B6010000 		.4byte	.LVL65-.Ltext0
 5586 0449 BC010000 		.4byte	.LVL66-.Ltext0
 5587 044d 0100     		.2byte	0x1
 5588 044f 50       		.byte	0x50
 5589 0450 BC010000 		.4byte	.LVL66-.Ltext0
 5590 0454 BE010000 		.4byte	.LVL67-.Ltext0
 5591 0458 0400     		.2byte	0x4
 5592 045a F3       		.byte	0xf3
 5593 045b 01       		.uleb128 0x1
 5594 045c 50       		.byte	0x50
 5595 045d 9F       		.byte	0x9f
 5596 045e BE010000 		.4byte	.LVL67-.Ltext0
 5597 0462 C4010000 		.4byte	.LVL68-.Ltext0
 5598 0466 0100     		.2byte	0x1
 5599 0468 50       		.byte	0x50
 5600 0469 C4010000 		.4byte	.LVL68-.Ltext0
 5601 046d C6010000 		.4byte	.LVL69-.Ltext0
 5602 0471 0400     		.2byte	0x4
 5603 0473 F3       		.byte	0xf3
 5604 0474 01       		.uleb128 0x1
 5605 0475 50       		.byte	0x50
 5606 0476 9F       		.byte	0x9f
 5607 0477 C6010000 		.4byte	.LVL69-.Ltext0
 5608 047b CC010000 		.4byte	.LVL70-.Ltext0
 5609 047f 0100     		.2byte	0x1
 5610 0481 50       		.byte	0x50
 5611 0482 CC010000 		.4byte	.LVL70-.Ltext0
 5612 0486 CE010000 		.4byte	.LVL71-.Ltext0
 5613 048a 0400     		.2byte	0x4
 5614 048c F3       		.byte	0xf3
 5615 048d 01       		.uleb128 0x1
 5616 048e 50       		.byte	0x50
 5617 048f 9F       		.byte	0x9f
 5618 0490 CE010000 		.4byte	.LVL71-.Ltext0
 5619 0494 D0010000 		.4byte	.LFE39-.Ltext0
 5620 0498 0100     		.2byte	0x1
 5621 049a 50       		.byte	0x50
 5622 049b 00000000 		.4byte	0
 5623 049f 00000000 		.4byte	0
 5624              	.LVUS13:
 5625 04a3 02       		.uleb128 .LVU124
 5626 04a4 01       		.uleb128 .LVU126
 5627 04a5 01       		.uleb128 .LVU126
 5628 04a6 00       		.uleb128 .LVU128
 5629 04a7 00       		.uleb128 .LVU128
 5630 04a8 01       		.uleb128 .LVU129
 5631 04a9 01       		.uleb128 .LVU129
 5632 04aa 00       		.uleb128 .LVU130
 5633 04ab 00       		.uleb128 .LVU131
 5634 04ac 01       		.uleb128 .LVU132
 5635 04ad 01       		.uleb128 .LVU132
 5636 04ae 00       		.uleb128 .LVU134
ARM GAS  C:\Users\user\AppData\Local\Temp\cc7qV6fF.s 			page 137


 5637 04af 00       		.uleb128 .LVU134
 5638 04b0 01       		.uleb128 .LVU135
 5639 04b1 01       		.uleb128 .LVU135
 5640 04b2 00       		.uleb128 .LVU137
 5641 04b3 00       		.uleb128 .LVU137
 5642 04b4 01       		.uleb128 .LVU138
 5643 04b5 01       		.uleb128 .LVU138
 5644 04b6 00       		.uleb128 .LVU140
 5645 04b7 00       		.uleb128 .LVU140
 5646 04b8 00       		.uleb128 0
 5647              	.LLST13:
 5648 04b9 94010000 		.4byte	.LVL60-.Ltext0
 5649 04bd A2010000 		.4byte	.LVL61-.Ltext0
 5650 04c1 0200     		.2byte	0x2
 5651 04c3 30       		.byte	0x30
 5652 04c4 9F       		.byte	0x9f
 5653 04c5 A2010000 		.4byte	.LVL61-.Ltext0
 5654 04c9 AC010000 		.4byte	.LVL63-.Ltext0
 5655 04cd 0400     		.2byte	0x4
 5656 04cf 0A       		.byte	0xa
 5657 04d0 0040     		.2byte	0x4000
 5658 04d2 9F       		.byte	0x9f
 5659 04d3 AC010000 		.4byte	.LVL63-.Ltext0
 5660 04d7 AC010000 		.4byte	.LVL63-.Ltext0
 5661 04db 0200     		.2byte	0x2
 5662 04dd 30       		.byte	0x30
 5663 04de 9F       		.byte	0x9f
 5664 04df AC010000 		.4byte	.LVL63-.Ltext0
 5665 04e3 B2010000 		.4byte	.LVL64-.Ltext0
 5666 04e7 0400     		.2byte	0x4
 5667 04e9 40       		.byte	0x40
 5668 04ea 3D       		.byte	0x3d
 5669 04eb 24       		.byte	0x24
 5670 04ec 9F       		.byte	0x9f
 5671 04ed B6010000 		.4byte	.LVL65-.Ltext0
 5672 04f1 B6010000 		.4byte	.LVL65-.Ltext0
 5673 04f5 0200     		.2byte	0x2
 5674 04f7 30       		.byte	0x30
 5675 04f8 9F       		.byte	0x9f
 5676 04f9 B6010000 		.4byte	.LVL65-.Ltext0
 5677 04fd BE010000 		.4byte	.LVL67-.Ltext0
 5678 0501 0400     		.2byte	0x4
 5679 0503 40       		.byte	0x40
 5680 0504 3E       		.byte	0x3e
 5681 0505 24       		.byte	0x24
 5682 0506 9F       		.byte	0x9f
 5683 0507 BE010000 		.4byte	.LVL67-.Ltext0
 5684 050b BE010000 		.4byte	.LVL67-.Ltext0
 5685 050f 0200     		.2byte	0x2
 5686 0511 30       		.byte	0x30
 5687 0512 9F       		.byte	0x9f
 5688 0513 BE010000 		.4byte	.LVL67-.Ltext0
 5689 0517 C6010000 		.4byte	.LVL69-.Ltext0
 5690 051b 0400     		.2byte	0x4
 5691 051d 40       		.byte	0x40
 5692 051e 3F       		.byte	0x3f
 5693 051f 24       		.byte	0x24
ARM GAS  C:\Users\user\AppData\Local\Temp\cc7qV6fF.s 			page 138


 5694 0520 9F       		.byte	0x9f
 5695 0521 C6010000 		.4byte	.LVL69-.Ltext0
 5696 0525 C6010000 		.4byte	.LVL69-.Ltext0
 5697 0529 0200     		.2byte	0x2
 5698 052b 30       		.byte	0x30
 5699 052c 9F       		.byte	0x9f
 5700 052d C6010000 		.4byte	.LVL69-.Ltext0
 5701 0531 CE010000 		.4byte	.LVL71-.Ltext0
 5702 0535 0400     		.2byte	0x4
 5703 0537 40       		.byte	0x40
 5704 0538 40       		.byte	0x40
 5705 0539 24       		.byte	0x24
 5706 053a 9F       		.byte	0x9f
 5707 053b CE010000 		.4byte	.LVL71-.Ltext0
 5708 053f D0010000 		.4byte	.LFE39-.Ltext0
 5709 0543 0200     		.2byte	0x2
 5710 0545 30       		.byte	0x30
 5711 0546 9F       		.byte	0x9f
 5712 0547 00000000 		.4byte	0
 5713 054b 00000000 		.4byte	0
 5714              	.LVUS11:
 5715 054f 00       		.uleb128 0
 5716 0550 00       		.uleb128 .LVU118
 5717 0551 00       		.uleb128 .LVU118
 5718 0552 00       		.uleb128 0
 5719              	.LLST11:
 5720 0553 80010000 		.4byte	.LVL58-.Ltext0
 5721 0557 8A010000 		.4byte	.LVL59-.Ltext0
 5722 055b 0100     		.2byte	0x1
 5723 055d 50       		.byte	0x50
 5724 055e 8A010000 		.4byte	.LVL59-.Ltext0
 5725 0562 94010000 		.4byte	.LFE38-.Ltext0
 5726 0566 0400     		.2byte	0x4
 5727 0568 F3       		.byte	0xf3
 5728 0569 01       		.uleb128 0x1
 5729 056a 50       		.byte	0x50
 5730 056b 9F       		.byte	0x9f
 5731 056c 00000000 		.4byte	0
 5732 0570 00000000 		.4byte	0
 5733              	.LLST6:
 5734 0574 18010000 		.4byte	.LFB37-.Ltext0
 5735 0578 1C010000 		.4byte	.LCFI0-.Ltext0
 5736 057c 0200     		.2byte	0x2
 5737 057e 7D       		.byte	0x7d
 5738 057f 00       		.sleb128 0
 5739 0580 1C010000 		.4byte	.LCFI0-.Ltext0
 5740 0584 76010000 		.4byte	.LCFI1-.Ltext0
 5741 0588 0200     		.2byte	0x2
 5742 058a 7D       		.byte	0x7d
 5743 058b 18       		.sleb128 24
 5744 058c 76010000 		.4byte	.LCFI1-.Ltext0
 5745 0590 78010000 		.4byte	.LCFI2-.Ltext0
 5746 0594 0200     		.2byte	0x2
 5747 0596 7D       		.byte	0x7d
 5748 0597 10       		.sleb128 16
 5749 0598 78010000 		.4byte	.LCFI2-.Ltext0
 5750 059c 80010000 		.4byte	.LFE37-.Ltext0
ARM GAS  C:\Users\user\AppData\Local\Temp\cc7qV6fF.s 			page 139


 5751 05a0 0200     		.2byte	0x2
 5752 05a2 7D       		.byte	0x7d
 5753 05a3 18       		.sleb128 24
 5754 05a4 00000000 		.4byte	0
 5755 05a8 00000000 		.4byte	0
 5756              	.LVUS7:
 5757 05ac 00       		.uleb128 0
 5758 05ad 00       		.uleb128 .LVU89
 5759 05ae 00       		.uleb128 .LVU89
 5760 05af 00       		.uleb128 .LVU113
 5761 05b0 00       		.uleb128 .LVU113
 5762 05b1 00       		.uleb128 .LVU114
 5763 05b2 00       		.uleb128 .LVU114
 5764 05b3 00       		.uleb128 0
 5765              	.LLST7:
 5766 05b4 18010000 		.4byte	.LVL46-.Ltext0
 5767 05b8 2A010000 		.4byte	.LVL47-.Ltext0
 5768 05bc 0100     		.2byte	0x1
 5769 05be 50       		.byte	0x50
 5770 05bf 2A010000 		.4byte	.LVL47-.Ltext0
 5771 05c3 78010000 		.4byte	.LVL56-.Ltext0
 5772 05c7 0400     		.2byte	0x4
 5773 05c9 F3       		.byte	0xf3
 5774 05ca 01       		.uleb128 0x1
 5775 05cb 50       		.byte	0x50
 5776 05cc 9F       		.byte	0x9f
 5777 05cd 78010000 		.4byte	.LVL56-.Ltext0
 5778 05d1 7A010000 		.4byte	.LVL57-.Ltext0
 5779 05d5 0100     		.2byte	0x1
 5780 05d7 50       		.byte	0x50
 5781 05d8 7A010000 		.4byte	.LVL57-.Ltext0
 5782 05dc 80010000 		.4byte	.LFE37-.Ltext0
 5783 05e0 0400     		.2byte	0x4
 5784 05e2 F3       		.byte	0xf3
 5785 05e3 01       		.uleb128 0x1
 5786 05e4 50       		.byte	0x50
 5787 05e5 9F       		.byte	0x9f
 5788 05e6 00000000 		.4byte	0
 5789 05ea 00000000 		.4byte	0
 5790              	.LVUS8:
 5791 05ee 00       		.uleb128 .LVU94
 5792 05ef 00       		.uleb128 .LVU112
 5793              	.LLST8:
 5794 05f0 46010000 		.4byte	.LVL49-.Ltext0
 5795 05f4 74010000 		.4byte	.LVL55-.Ltext0
 5796 05f8 0100     		.2byte	0x1
 5797 05fa 55       		.byte	0x55
 5798 05fb 00000000 		.4byte	0
 5799 05ff 00000000 		.4byte	0
 5800              	.LVUS9:
 5801 0603 00       		.uleb128 .LVU94
 5802 0604 00       		.uleb128 .LVU112
 5803              	.LLST9:
 5804 0605 46010000 		.4byte	.LVL49-.Ltext0
 5805 0609 74010000 		.4byte	.LVL55-.Ltext0
 5806 060d 0100     		.2byte	0x1
 5807 060f 54       		.byte	0x54
ARM GAS  C:\Users\user\AppData\Local\Temp\cc7qV6fF.s 			page 140


 5808 0610 00000000 		.4byte	0
 5809 0614 00000000 		.4byte	0
 5810              	.LVUS10:
 5811 0618 00       		.uleb128 .LVU94
 5812 0619 00       		.uleb128 .LVU112
 5813              	.LLST10:
 5814 061a 46010000 		.4byte	.LVL49-.Ltext0
 5815 061e 74010000 		.4byte	.LVL55-.Ltext0
 5816 0622 0100     		.2byte	0x1
 5817 0624 56       		.byte	0x56
 5818 0625 00000000 		.4byte	0
 5819 0629 00000000 		.4byte	0
 5820              	.LVUS2:
 5821 062d 00       		.uleb128 0
 5822 062e 00       		.uleb128 .LVU45
 5823 062f 00       		.uleb128 .LVU45
 5824 0630 00       		.uleb128 0
 5825              	.LLST2:
 5826 0631 A8000000 		.4byte	.LVL28-.Ltext0
 5827 0635 B0000000 		.4byte	.LVL29-.Ltext0
 5828 0639 0100     		.2byte	0x1
 5829 063b 50       		.byte	0x50
 5830 063c B0000000 		.4byte	.LVL29-.Ltext0
 5831 0640 BC000000 		.4byte	.LFE35-.Ltext0
 5832 0644 0400     		.2byte	0x4
 5833 0646 F3       		.byte	0xf3
 5834 0647 01       		.uleb128 0x1
 5835 0648 50       		.byte	0x50
 5836 0649 9F       		.byte	0x9f
 5837 064a 00000000 		.4byte	0
 5838 064e 00000000 		.4byte	0
 5839              	.LVUS3:
 5840 0652 02       		.uleb128 .LVU44
 5841 0653 00       		.uleb128 .LVU46
 5842 0654 00       		.uleb128 .LVU46
 5843 0655 00       		.uleb128 0
 5844              	.LLST3:
 5845 0656 A8000000 		.4byte	.LVL28-.Ltext0
 5846 065a B4000000 		.4byte	.LVL30-.Ltext0
 5847 065e 0300     		.2byte	0x3
 5848 0660 09       		.byte	0x9
 5849 0661 F5       		.byte	0xf5
 5850 0662 9F       		.byte	0x9f
 5851 0663 B4000000 		.4byte	.LVL30-.Ltext0
 5852 0667 BC000000 		.4byte	.LFE35-.Ltext0
 5853 066b 0100     		.2byte	0x1
 5854 066d 50       		.byte	0x50
 5855 066e 00000000 		.4byte	0
 5856 0672 00000000 		.4byte	0
 5857              	.LVUS0:
 5858 0676 00       		.uleb128 0
 5859 0677 00       		.uleb128 .LVU3
 5860 0678 00       		.uleb128 .LVU3
 5861 0679 00       		.uleb128 .LVU4
 5862 067a 00       		.uleb128 .LVU4
 5863 067b 00       		.uleb128 .LVU6
 5864 067c 00       		.uleb128 .LVU6
ARM GAS  C:\Users\user\AppData\Local\Temp\cc7qV6fF.s 			page 141


 5865 067d 00       		.uleb128 .LVU7
 5866 067e 00       		.uleb128 .LVU7
 5867 067f 00       		.uleb128 .LVU9
 5868 0680 00       		.uleb128 .LVU9
 5869 0681 00       		.uleb128 .LVU10
 5870 0682 00       		.uleb128 .LVU10
 5871 0683 00       		.uleb128 .LVU12
 5872 0684 00       		.uleb128 .LVU12
 5873 0685 00       		.uleb128 .LVU21
 5874 0686 00       		.uleb128 .LVU21
 5875 0687 00       		.uleb128 .LVU22
 5876 0688 00       		.uleb128 .LVU22
 5877 0689 00       		.uleb128 .LVU23
 5878 068a 00       		.uleb128 .LVU23
 5879 068b 00       		.uleb128 .LVU24
 5880 068c 00       		.uleb128 .LVU24
 5881 068d 00       		.uleb128 .LVU27
 5882 068e 00       		.uleb128 .LVU27
 5883 068f 00       		.uleb128 .LVU28
 5884 0690 00       		.uleb128 .LVU28
 5885 0691 00       		.uleb128 .LVU29
 5886 0692 00       		.uleb128 .LVU29
 5887 0693 00       		.uleb128 .LVU30
 5888 0694 00       		.uleb128 .LVU30
 5889 0695 00       		.uleb128 .LVU31
 5890 0696 00       		.uleb128 .LVU31
 5891 0697 00       		.uleb128 .LVU32
 5892 0698 00       		.uleb128 .LVU32
 5893 0699 00       		.uleb128 .LVU33
 5894 069a 00       		.uleb128 .LVU33
 5895 069b 00       		.uleb128 .LVU34
 5896 069c 00       		.uleb128 .LVU34
 5897 069d 00       		.uleb128 .LVU35
 5898 069e 00       		.uleb128 .LVU35
 5899 069f 00       		.uleb128 .LVU36
 5900 06a0 00       		.uleb128 .LVU36
 5901 06a1 00       		.uleb128 .LVU37
 5902 06a2 00       		.uleb128 .LVU37
 5903 06a3 00       		.uleb128 .LVU38
 5904 06a4 00       		.uleb128 .LVU38
 5905 06a5 00       		.uleb128 .LVU39
 5906 06a6 00       		.uleb128 .LVU39
 5907 06a7 00       		.uleb128 .LVU40
 5908 06a8 00       		.uleb128 .LVU40
 5909 06a9 00       		.uleb128 0
 5910              	.LLST0:
 5911 06aa 00000000 		.4byte	.LVL0-.Ltext0
 5912 06ae 10000000 		.4byte	.LVL1-.Ltext0
 5913 06b2 0100     		.2byte	0x1
 5914 06b4 50       		.byte	0x50
 5915 06b5 10000000 		.4byte	.LVL1-.Ltext0
 5916 06b9 2A000000 		.4byte	.LVL2-.Ltext0
 5917 06bd 0400     		.2byte	0x4
 5918 06bf F3       		.byte	0xf3
 5919 06c0 01       		.uleb128 0x1
 5920 06c1 50       		.byte	0x50
 5921 06c2 9F       		.byte	0x9f
ARM GAS  C:\Users\user\AppData\Local\Temp\cc7qV6fF.s 			page 142


 5922 06c3 2A000000 		.4byte	.LVL2-.Ltext0
 5923 06c7 38000000 		.4byte	.LVL3-.Ltext0
 5924 06cb 0100     		.2byte	0x1
 5925 06cd 50       		.byte	0x50
 5926 06ce 38000000 		.4byte	.LVL3-.Ltext0
 5927 06d2 3C000000 		.4byte	.LVL4-.Ltext0
 5928 06d6 0400     		.2byte	0x4
 5929 06d8 F3       		.byte	0xf3
 5930 06d9 01       		.uleb128 0x1
 5931 06da 50       		.byte	0x50
 5932 06db 9F       		.byte	0x9f
 5933 06dc 3C000000 		.4byte	.LVL4-.Ltext0
 5934 06e0 58000000 		.4byte	.LVL5-.Ltext0
 5935 06e4 0100     		.2byte	0x1
 5936 06e6 50       		.byte	0x50
 5937 06e7 58000000 		.4byte	.LVL5-.Ltext0
 5938 06eb 5C000000 		.4byte	.LVL6-.Ltext0
 5939 06ef 0400     		.2byte	0x4
 5940 06f1 F3       		.byte	0xf3
 5941 06f2 01       		.uleb128 0x1
 5942 06f3 50       		.byte	0x50
 5943 06f4 9F       		.byte	0x9f
 5944 06f5 5C000000 		.4byte	.LVL6-.Ltext0
 5945 06f9 70000000 		.4byte	.LVL7-.Ltext0
 5946 06fd 0100     		.2byte	0x1
 5947 06ff 50       		.byte	0x50
 5948 0700 70000000 		.4byte	.LVL7-.Ltext0
 5949 0704 7C000000 		.4byte	.LVL10-.Ltext0
 5950 0708 0400     		.2byte	0x4
 5951 070a F3       		.byte	0xf3
 5952 070b 01       		.uleb128 0x1
 5953 070c 50       		.byte	0x50
 5954 070d 9F       		.byte	0x9f
 5955 070e 7C000000 		.4byte	.LVL10-.Ltext0
 5956 0712 7E000000 		.4byte	.LVL11-.Ltext0
 5957 0716 0100     		.2byte	0x1
 5958 0718 50       		.byte	0x50
 5959 0719 7E000000 		.4byte	.LVL11-.Ltext0
 5960 071d 80000000 		.4byte	.LVL12-.Ltext0
 5961 0721 0400     		.2byte	0x4
 5962 0723 F3       		.byte	0xf3
 5963 0724 01       		.uleb128 0x1
 5964 0725 50       		.byte	0x50
 5965 0726 9F       		.byte	0x9f
 5966 0727 80000000 		.4byte	.LVL12-.Ltext0
 5967 072b 82000000 		.4byte	.LVL13-.Ltext0
 5968 072f 0100     		.2byte	0x1
 5969 0731 50       		.byte	0x50
 5970 0732 82000000 		.4byte	.LVL13-.Ltext0
 5971 0736 8C000000 		.4byte	.LVL14-.Ltext0
 5972 073a 0400     		.2byte	0x4
 5973 073c F3       		.byte	0xf3
 5974 073d 01       		.uleb128 0x1
 5975 073e 50       		.byte	0x50
 5976 073f 9F       		.byte	0x9f
 5977 0740 8C000000 		.4byte	.LVL14-.Ltext0
 5978 0744 8E000000 		.4byte	.LVL15-.Ltext0
ARM GAS  C:\Users\user\AppData\Local\Temp\cc7qV6fF.s 			page 143


 5979 0748 0100     		.2byte	0x1
 5980 074a 50       		.byte	0x50
 5981 074b 8E000000 		.4byte	.LVL15-.Ltext0
 5982 074f 90000000 		.4byte	.LVL16-.Ltext0
 5983 0753 0400     		.2byte	0x4
 5984 0755 F3       		.byte	0xf3
 5985 0756 01       		.uleb128 0x1
 5986 0757 50       		.byte	0x50
 5987 0758 9F       		.byte	0x9f
 5988 0759 90000000 		.4byte	.LVL16-.Ltext0
 5989 075d 92000000 		.4byte	.LVL17-.Ltext0
 5990 0761 0100     		.2byte	0x1
 5991 0763 50       		.byte	0x50
 5992 0764 92000000 		.4byte	.LVL17-.Ltext0
 5993 0768 94000000 		.4byte	.LVL18-.Ltext0
 5994 076c 0400     		.2byte	0x4
 5995 076e F3       		.byte	0xf3
 5996 076f 01       		.uleb128 0x1
 5997 0770 50       		.byte	0x50
 5998 0771 9F       		.byte	0x9f
 5999 0772 94000000 		.4byte	.LVL18-.Ltext0
 6000 0776 96000000 		.4byte	.LVL19-.Ltext0
 6001 077a 0100     		.2byte	0x1
 6002 077c 50       		.byte	0x50
 6003 077d 96000000 		.4byte	.LVL19-.Ltext0
 6004 0781 98000000 		.4byte	.LVL20-.Ltext0
 6005 0785 0400     		.2byte	0x4
 6006 0787 F3       		.byte	0xf3
 6007 0788 01       		.uleb128 0x1
 6008 0789 50       		.byte	0x50
 6009 078a 9F       		.byte	0x9f
 6010 078b 98000000 		.4byte	.LVL20-.Ltext0
 6011 078f 9A000000 		.4byte	.LVL21-.Ltext0
 6012 0793 0100     		.2byte	0x1
 6013 0795 50       		.byte	0x50
 6014 0796 9A000000 		.4byte	.LVL21-.Ltext0
 6015 079a 9C000000 		.4byte	.LVL22-.Ltext0
 6016 079e 0400     		.2byte	0x4
 6017 07a0 F3       		.byte	0xf3
 6018 07a1 01       		.uleb128 0x1
 6019 07a2 50       		.byte	0x50
 6020 07a3 9F       		.byte	0x9f
 6021 07a4 9C000000 		.4byte	.LVL22-.Ltext0
 6022 07a8 9E000000 		.4byte	.LVL23-.Ltext0
 6023 07ac 0100     		.2byte	0x1
 6024 07ae 50       		.byte	0x50
 6025 07af 9E000000 		.4byte	.LVL23-.Ltext0
 6026 07b3 A0000000 		.4byte	.LVL24-.Ltext0
 6027 07b7 0400     		.2byte	0x4
 6028 07b9 F3       		.byte	0xf3
 6029 07ba 01       		.uleb128 0x1
 6030 07bb 50       		.byte	0x50
 6031 07bc 9F       		.byte	0x9f
 6032 07bd A0000000 		.4byte	.LVL24-.Ltext0
 6033 07c1 A2000000 		.4byte	.LVL25-.Ltext0
 6034 07c5 0100     		.2byte	0x1
 6035 07c7 50       		.byte	0x50
ARM GAS  C:\Users\user\AppData\Local\Temp\cc7qV6fF.s 			page 144


 6036 07c8 A2000000 		.4byte	.LVL25-.Ltext0
 6037 07cc A4000000 		.4byte	.LVL26-.Ltext0
 6038 07d0 0400     		.2byte	0x4
 6039 07d2 F3       		.byte	0xf3
 6040 07d3 01       		.uleb128 0x1
 6041 07d4 50       		.byte	0x50
 6042 07d5 9F       		.byte	0x9f
 6043 07d6 A4000000 		.4byte	.LVL26-.Ltext0
 6044 07da A6000000 		.4byte	.LVL27-.Ltext0
 6045 07de 0100     		.2byte	0x1
 6046 07e0 50       		.byte	0x50
 6047 07e1 A6000000 		.4byte	.LVL27-.Ltext0
 6048 07e5 A8000000 		.4byte	.LFE34-.Ltext0
 6049 07e9 0400     		.2byte	0x4
 6050 07eb F3       		.byte	0xf3
 6051 07ec 01       		.uleb128 0x1
 6052 07ed 50       		.byte	0x50
 6053 07ee 9F       		.byte	0x9f
 6054 07ef 00000000 		.4byte	0
 6055 07f3 00000000 		.4byte	0
 6056              	.LVUS1:
 6057 07f7 02       		.uleb128 .LVU2
 6058 07f8 01       		.uleb128 .LVU14
 6059 07f9 01       		.uleb128 .LVU14
 6060 07fa 00       		.uleb128 .LVU17
 6061 07fb 00       		.uleb128 .LVU17
 6062 07fc 01       		.uleb128 .LVU18
 6063 07fd 01       		.uleb128 .LVU18
 6064 07fe 00       		.uleb128 .LVU21
 6065 07ff 00       		.uleb128 .LVU21
 6066 0800 00       		.uleb128 .LVU40
 6067 0801 00       		.uleb128 .LVU40
 6068 0802 00       		.uleb128 0
 6069              	.LLST1:
 6070 0803 00000000 		.4byte	.LVL0-.Ltext0
 6071 0807 74000000 		.4byte	.LVL8-.Ltext0
 6072 080b 0200     		.2byte	0x2
 6073 080d 40       		.byte	0x40
 6074 080e 9F       		.byte	0x9f
 6075 080f 74000000 		.4byte	.LVL8-.Ltext0
 6076 0813 78000000 		.4byte	.LVL9-.Ltext0
 6077 0817 0200     		.2byte	0x2
 6078 0819 32       		.byte	0x32
 6079 081a 9F       		.byte	0x9f
 6080 081b 78000000 		.4byte	.LVL9-.Ltext0
 6081 081f 78000000 		.4byte	.LVL9-.Ltext0
 6082 0823 0200     		.2byte	0x2
 6083 0825 40       		.byte	0x40
 6084 0826 9F       		.byte	0x9f
 6085 0827 78000000 		.4byte	.LVL9-.Ltext0
 6086 082b 7C000000 		.4byte	.LVL10-.Ltext0
 6087 082f 0200     		.2byte	0x2
 6088 0831 33       		.byte	0x33
 6089 0832 9F       		.byte	0x9f
 6090 0833 7C000000 		.4byte	.LVL10-.Ltext0
 6091 0837 A6000000 		.4byte	.LVL27-.Ltext0
 6092 083b 0200     		.2byte	0x2
ARM GAS  C:\Users\user\AppData\Local\Temp\cc7qV6fF.s 			page 145


 6093 083d 40       		.byte	0x40
 6094 083e 9F       		.byte	0x9f
 6095 083f A6000000 		.4byte	.LVL27-.Ltext0
 6096 0843 A8000000 		.4byte	.LFE34-.Ltext0
 6097 0847 0100     		.2byte	0x1
 6098 0849 50       		.byte	0x50
 6099 084a 00000000 		.4byte	0
 6100 084e 00000000 		.4byte	0
 6101              	.LVUS4:
 6102 0852 00       		.uleb128 0
 6103 0853 00       		.uleb128 .LVU65
 6104 0854 00       		.uleb128 .LVU65
 6105 0855 00       		.uleb128 .LVU66
 6106 0856 00       		.uleb128 .LVU66
 6107 0857 00       		.uleb128 .LVU68
 6108 0858 00       		.uleb128 .LVU68
 6109 0859 00       		.uleb128 .LVU69
 6110 085a 00       		.uleb128 .LVU69
 6111 085b 00       		.uleb128 .LVU70
 6112 085c 00       		.uleb128 .LVU70
 6113 085d 00       		.uleb128 .LVU71
 6114 085e 00       		.uleb128 .LVU71
 6115 085f 00       		.uleb128 .LVU72
 6116 0860 00       		.uleb128 .LVU72
 6117 0861 00       		.uleb128 .LVU73
 6118 0862 00       		.uleb128 .LVU73
 6119 0863 00       		.uleb128 .LVU74
 6120 0864 00       		.uleb128 .LVU74
 6121 0865 00       		.uleb128 .LVU75
 6122 0866 00       		.uleb128 .LVU75
 6123 0867 00       		.uleb128 .LVU76
 6124 0868 00       		.uleb128 .LVU76
 6125 0869 00       		.uleb128 .LVU77
 6126 086a 00       		.uleb128 .LVU77
 6127 086b 00       		.uleb128 .LVU78
 6128 086c 00       		.uleb128 .LVU78
 6129 086d 00       		.uleb128 0
 6130              	.LLST4:
 6131 086e BC000000 		.4byte	.LVL31-.Ltext0
 6132 0872 F8000000 		.4byte	.LVL33-.Ltext0
 6133 0876 0100     		.2byte	0x1
 6134 0878 50       		.byte	0x50
 6135 0879 F8000000 		.4byte	.LVL33-.Ltext0
 6136 087d FA000000 		.4byte	.LVL34-.Ltext0
 6137 0881 0400     		.2byte	0x4
 6138 0883 F3       		.byte	0xf3
 6139 0884 01       		.uleb128 0x1
 6140 0885 50       		.byte	0x50
 6141 0886 9F       		.byte	0x9f
 6142 0887 FA000000 		.4byte	.LVL34-.Ltext0
 6143 088b FC000000 		.4byte	.LVL35-.Ltext0
 6144 088f 0100     		.2byte	0x1
 6145 0891 50       		.byte	0x50
 6146 0892 FC000000 		.4byte	.LVL35-.Ltext0
 6147 0896 FE000000 		.4byte	.LVL36-.Ltext0
 6148 089a 0400     		.2byte	0x4
 6149 089c F3       		.byte	0xf3
ARM GAS  C:\Users\user\AppData\Local\Temp\cc7qV6fF.s 			page 146


 6150 089d 01       		.uleb128 0x1
 6151 089e 50       		.byte	0x50
 6152 089f 9F       		.byte	0x9f
 6153 08a0 FE000000 		.4byte	.LVL36-.Ltext0
 6154 08a4 00010000 		.4byte	.LVL37-.Ltext0
 6155 08a8 0100     		.2byte	0x1
 6156 08aa 50       		.byte	0x50
 6157 08ab 00010000 		.4byte	.LVL37-.Ltext0
 6158 08af 02010000 		.4byte	.LVL38-.Ltext0
 6159 08b3 0400     		.2byte	0x4
 6160 08b5 F3       		.byte	0xf3
 6161 08b6 01       		.uleb128 0x1
 6162 08b7 50       		.byte	0x50
 6163 08b8 9F       		.byte	0x9f
 6164 08b9 02010000 		.4byte	.LVL38-.Ltext0
 6165 08bd 04010000 		.4byte	.LVL39-.Ltext0
 6166 08c1 0100     		.2byte	0x1
 6167 08c3 50       		.byte	0x50
 6168 08c4 04010000 		.4byte	.LVL39-.Ltext0
 6169 08c8 06010000 		.4byte	.LVL40-.Ltext0
 6170 08cc 0400     		.2byte	0x4
 6171 08ce F3       		.byte	0xf3
 6172 08cf 01       		.uleb128 0x1
 6173 08d0 50       		.byte	0x50
 6174 08d1 9F       		.byte	0x9f
 6175 08d2 06010000 		.4byte	.LVL40-.Ltext0
 6176 08d6 08010000 		.4byte	.LVL41-.Ltext0
 6177 08da 0100     		.2byte	0x1
 6178 08dc 50       		.byte	0x50
 6179 08dd 08010000 		.4byte	.LVL41-.Ltext0
 6180 08e1 0A010000 		.4byte	.LVL42-.Ltext0
 6181 08e5 0400     		.2byte	0x4
 6182 08e7 F3       		.byte	0xf3
 6183 08e8 01       		.uleb128 0x1
 6184 08e9 50       		.byte	0x50
 6185 08ea 9F       		.byte	0x9f
 6186 08eb 0A010000 		.4byte	.LVL42-.Ltext0
 6187 08ef 0C010000 		.4byte	.LVL43-.Ltext0
 6188 08f3 0100     		.2byte	0x1
 6189 08f5 50       		.byte	0x50
 6190 08f6 0C010000 		.4byte	.LVL43-.Ltext0
 6191 08fa 0E010000 		.4byte	.LVL44-.Ltext0
 6192 08fe 0400     		.2byte	0x4
 6193 0900 F3       		.byte	0xf3
 6194 0901 01       		.uleb128 0x1
 6195 0902 50       		.byte	0x50
 6196 0903 9F       		.byte	0x9f
 6197 0904 0E010000 		.4byte	.LVL44-.Ltext0
 6198 0908 10010000 		.4byte	.LVL45-.Ltext0
 6199 090c 0100     		.2byte	0x1
 6200 090e 50       		.byte	0x50
 6201 090f 10010000 		.4byte	.LVL45-.Ltext0
 6202 0913 18010000 		.4byte	.LFE36-.Ltext0
 6203 0917 0400     		.2byte	0x4
 6204 0919 F3       		.byte	0xf3
 6205 091a 01       		.uleb128 0x1
 6206 091b 50       		.byte	0x50
ARM GAS  C:\Users\user\AppData\Local\Temp\cc7qV6fF.s 			page 147


 6207 091c 9F       		.byte	0x9f
 6208 091d 00000000 		.4byte	0
 6209 0921 00000000 		.4byte	0
 6210              	.LVUS5:
 6211 0925 00       		.uleb128 .LVU60
 6212 0926 00       		.uleb128 .LVU65
 6213 0927 00       		.uleb128 .LVU65
 6214 0928 00       		.uleb128 .LVU66
 6215 0929 00       		.uleb128 .LVU77
 6216 092a 00       		.uleb128 .LVU78
 6217 092b 00       		.uleb128 .LVU78
 6218 092c 00       		.uleb128 0
 6219              	.LLST5:
 6220 092d E2000000 		.4byte	.LVL32-.Ltext0
 6221 0931 F8000000 		.4byte	.LVL33-.Ltext0
 6222 0935 0100     		.2byte	0x1
 6223 0937 50       		.byte	0x50
 6224 0938 F8000000 		.4byte	.LVL33-.Ltext0
 6225 093c FA000000 		.4byte	.LVL34-.Ltext0
 6226 0940 0400     		.2byte	0x4
 6227 0942 F3       		.byte	0xf3
 6228 0943 01       		.uleb128 0x1
 6229 0944 50       		.byte	0x50
 6230 0945 9F       		.byte	0x9f
 6231 0946 0E010000 		.4byte	.LVL44-.Ltext0
 6232 094a 10010000 		.4byte	.LVL45-.Ltext0
 6233 094e 0100     		.2byte	0x1
 6234 0950 50       		.byte	0x50
 6235 0951 10010000 		.4byte	.LVL45-.Ltext0
 6236 0955 18010000 		.4byte	.LFE36-.Ltext0
 6237 0959 0400     		.2byte	0x4
 6238 095b F3       		.byte	0xf3
 6239 095c 01       		.uleb128 0x1
 6240 095d 50       		.byte	0x50
 6241 095e 9F       		.byte	0x9f
 6242 095f 00000000 		.4byte	0
 6243 0963 00000000 		.4byte	0
 6244              		.section	.debug_aranges,"",%progbits
 6245 0000 1C000000 		.4byte	0x1c
 6246 0004 0200     		.2byte	0x2
 6247 0006 00000000 		.4byte	.Ldebug_info0
 6248 000a 04       		.byte	0x4
 6249 000b 00       		.byte	0
 6250 000c 0000     		.2byte	0
 6251 000e 0000     		.2byte	0
 6252 0010 00000000 		.4byte	.Ltext0
 6253 0014 FC030000 		.4byte	.Letext0-.Ltext0
 6254 0018 00000000 		.4byte	0
 6255 001c 00000000 		.4byte	0
 6256              		.section	.debug_ranges,"",%progbits
 6257              	.Ldebug_ranges0:
 6258 0000 E2000000 		.4byte	.LBB4-.Ltext0
 6259 0004 FA000000 		.4byte	.LBE4-.Ltext0
 6260 0008 0E010000 		.4byte	.LBB7-.Ltext0
 6261 000c 10010000 		.4byte	.LBE7-.Ltext0
 6262 0010 00000000 		.4byte	0
 6263 0014 00000000 		.4byte	0
ARM GAS  C:\Users\user\AppData\Local\Temp\cc7qV6fF.s 			page 148


 6264 0018 24020000 		.4byte	.LBB12-.Ltext0
 6265 001c 2E020000 		.4byte	.LBE12-.Ltext0
 6266 0020 30020000 		.4byte	.LBB18-.Ltext0
 6267 0024 3A020000 		.4byte	.LBE18-.Ltext0
 6268 0028 00000000 		.4byte	0
 6269 002c 00000000 		.4byte	0
 6270 0030 2E020000 		.4byte	.LBB15-.Ltext0
 6271 0034 30020000 		.4byte	.LBE15-.Ltext0
 6272 0038 3A020000 		.4byte	.LBB19-.Ltext0
 6273 003c 54020000 		.4byte	.LBE19-.Ltext0
 6274 0040 00000000 		.4byte	0
 6275 0044 00000000 		.4byte	0
 6276 0048 B4020000 		.4byte	.LBB20-.Ltext0
 6277 004c BC020000 		.4byte	.LBE20-.Ltext0
 6278 0050 BE020000 		.4byte	.LBB21-.Ltext0
 6279 0054 CA020000 		.4byte	.LBE21-.Ltext0
 6280 0058 00000000 		.4byte	0
 6281 005c 00000000 		.4byte	0
 6282              		.section	.debug_line,"",%progbits
 6283              	.Ldebug_line0:
 6284 0000 7B060000 		.section	.debug_str,"MS",%progbits,1
 6284      03005002 
 6284      00000201 
 6284      FB0E0D00 
 6284      01010101 
 6285              	.LASF101:
 6286 0000 49435052 		.ascii	"ICPR\000"
 6286      00
 6287              	.LASF202:
 6288 0005 78517565 		.ascii	"xQueueGenericSendFromISR\000"
 6288      75654765 
 6288      6E657269 
 6288      6353656E 
 6288      6446726F 
 6289              	.LASF125:
 6290 001e 4C434B52 		.ascii	"LCKR\000"
 6290      00
 6291              	.LASF53:
 6292 0023 43414E31 		.ascii	"CAN1_RX0_IRQn\000"
 6292      5F525830 
 6292      5F495251 
 6292      6E00
 6293              	.LASF193:
 6294 0031 50696E53 		.ascii	"PinSourceDecode\000"
 6294      6F757263 
 6294      65446563 
 6294      6F646500 
 6295              	.LASF90:
 6296 0041 43414E32 		.ascii	"CAN2_RX0_IRQn\000"
 6296      5F525830 
 6296      5F495251 
 6296      6E00
 6297              	.LASF59:
 6298 004f 54494D31 		.ascii	"TIM1_TRG_COM_IRQn\000"
 6298      5F545247 
 6298      5F434F4D 
 6298      5F495251 
ARM GAS  C:\Users\user\AppData\Local\Temp\cc7qV6fF.s 			page 149


 6298      6E00
 6299              	.LASF18:
 6300 0061 434F4D31 		.ascii	"COM1\000"
 6300      00
 6301              	.LASF19:
 6302 0066 434F4D32 		.ascii	"COM2\000"
 6302      00
 6303              	.LASF20:
 6304 006b 434F4D33 		.ascii	"COM3\000"
 6304      00
 6305              	.LASF21:
 6306 0070 434F4D34 		.ascii	"COM4\000"
 6306      00
 6307              	.LASF22:
 6308 0075 434F4D35 		.ascii	"COM5\000"
 6308      00
 6309              	.LASF23:
 6310 007a 434F4D36 		.ascii	"COM6\000"
 6310      00
 6311              	.LASF64:
 6312 007f 49324331 		.ascii	"I2C1_EV_IRQn\000"
 6312      5F45565F 
 6312      4952516E 
 6312      00
 6313              	.LASF6:
 6314 008c 5F5F7569 		.ascii	"__uint8_t\000"
 6314      6E74385F 
 6314      7400
 6315              	.LASF131:
 6316 0096 4750494F 		.ascii	"GPIO_Speed_10MHz\000"
 6316      5F537065 
 6316      65645F31 
 6316      304D487A 
 6316      00
 6317              	.LASF34:
 6318 00a7 5056445F 		.ascii	"PVD_IRQn\000"
 6318      4952516E 
 6318      00
 6319              	.LASF214:
 6320 00b0 474E5520 		.ascii	"GNU C17 10.3.1 20210621 (release) -mcpu=cortex-m3 -"
 6320      43313720 
 6320      31302E33 
 6320      2E312032 
 6320      30323130 
 6321 00e3 6D746875 		.ascii	"mthumb -mfloat-abi=soft -march=armv7-m -g -gdwarf-2"
 6321      6D62202D 
 6321      6D666C6F 
 6321      61742D61 
 6321      62693D73 
 6322 0116 202D4F73 		.ascii	" -Os -fomit-frame-pointer\000"
 6322      202D666F 
 6322      6D69742D 
 6322      6672616D 
 6322      652D706F 
 6323              	.LASF122:
 6324 0130 44495341 		.ascii	"DISABLE\000"
 6324      424C4500 
ARM GAS  C:\Users\user\AppData\Local\Temp\cc7qV6fF.s 			page 150


 6325              	.LASF54:
 6326 0138 43414E31 		.ascii	"CAN1_RX1_IRQn\000"
 6326      5F525831 
 6326      5F495251 
 6326      6E00
 6327              	.LASF154:
 6328 0146 55534152 		.ascii	"USART_InitTypeDef\000"
 6328      545F496E 
 6328      69745479 
 6328      70654465 
 6328      6600
 6329              	.LASF12:
 6330 0158 6C6F6E67 		.ascii	"long long unsigned int\000"
 6330      206C6F6E 
 6330      6720756E 
 6330      7369676E 
 6330      65642069 
 6331              	.LASF82:
 6332 016f 444D4132 		.ascii	"DMA2_Channel1_IRQn\000"
 6332      5F436861 
 6332      6E6E656C 
 6332      315F4952 
 6332      516E00
 6333              	.LASF145:
 6334 0182 4750494F 		.ascii	"GPIO_Speed\000"
 6334      5F537065 
 6334      656400
 6335              	.LASF67:
 6336 018d 49324332 		.ascii	"I2C2_ER_IRQn\000"
 6336      5F45525F 
 6336      4952516E 
 6336      00
 6337              	.LASF63:
 6338 019a 54494D34 		.ascii	"TIM4_IRQn\000"
 6338      5F495251 
 6338      6E00
 6339              	.LASF156:
 6340 01a4 51756575 		.ascii	"QueueHandle_t\000"
 6340      6548616E 
 6340      646C655F 
 6340      7400
 6341              	.LASF41:
 6342 01b2 45585449 		.ascii	"EXTI2_IRQn\000"
 6342      325F4952 
 6342      516E00
 6343              	.LASF33:
 6344 01bd 57574447 		.ascii	"WWDG_IRQn\000"
 6344      5F495251 
 6344      6E00
 6345              	.LASF99:
 6346 01c7 49535052 		.ascii	"ISPR\000"
 6346      00
 6347              	.LASF204:
 6348 01cc 78517565 		.ascii	"xQueueGenericReceive\000"
 6348      75654765 
 6348      6E657269 
 6348      63526563 
ARM GAS  C:\Users\user\AppData\Local\Temp\cc7qV6fF.s 			page 151


 6348      65697665 
 6349              	.LASF120:
 6350 01e1 49534152 		.ascii	"ISAR\000"
 6350      00
 6351              	.LASF1:
 6352 01e6 6C6F6E67 		.ascii	"long long int\000"
 6352      206C6F6E 
 6352      6720696E 
 6352      7400
 6353              	.LASF3:
 6354 01f4 7369676E 		.ascii	"signed char\000"
 6354      65642063 
 6354      68617200 
 6355              	.LASF185:
 6356 0200 636F6E66 		.ascii	"config_gpio\000"
 6356      69675F67 
 6356      70696F00 
 6357              	.LASF206:
 6358 020c 55534152 		.ascii	"USART_GetFlagStatus\000"
 6358      545F4765 
 6358      74466C61 
 6358      67537461 
 6358      74757300 
 6359              	.LASF151:
 6360 0220 55534152 		.ascii	"USART_Parity\000"
 6360      545F5061 
 6360      72697479 
 6360      00
 6361              	.LASF128:
 6362 022d 47545052 		.ascii	"GTPR\000"
 6362      00
 6363              	.LASF162:
 6364 0232 75736172 		.ascii	"usart_handle_list\000"
 6364      745F6861 
 6364      6E646C65 
 6364      5F6C6973 
 6364      7400
 6365              	.LASF152:
 6366 0244 55534152 		.ascii	"USART_Mode\000"
 6366      545F4D6F 
 6366      646500
 6367              	.LASF138:
 6368 024f 4750494F 		.ascii	"GPIO_Mode_IPU\000"
 6368      5F4D6F64 
 6368      655F4950 
 6368      5500
 6369              	.LASF168:
 6370 025d 55534152 		.ascii	"USART1_IRQHandler\000"
 6370      54315F49 
 6370      52514861 
 6370      6E646C65 
 6370      7200
 6371              	.LASF86:
 6372 026f 444D4132 		.ascii	"DMA2_Channel5_IRQn\000"
 6372      5F436861 
 6372      6E6E656C 
 6372      355F4952 
ARM GAS  C:\Users\user\AppData\Local\Temp\cc7qV6fF.s 			page 152


 6372      516E00
 6373              	.LASF148:
 6374 0282 55534152 		.ascii	"USART_BaudRate\000"
 6374      545F4261 
 6374      75645261 
 6374      746500
 6375              	.LASF9:
 6376 0291 6C6F6E67 		.ascii	"long int\000"
 6376      20696E74 
 6376      00
 6377              	.LASF123:
 6378 029a 454E4142 		.ascii	"ENABLE\000"
 6378      4C4500
 6379              	.LASF66:
 6380 02a1 49324332 		.ascii	"I2C2_EV_IRQn\000"
 6380      5F45565F 
 6380      4952516E 
 6380      00
 6381              	.LASF56:
 6382 02ae 45585449 		.ascii	"EXTI9_5_IRQn\000"
 6382      395F355F 
 6382      4952516E 
 6382      00
 6383              	.LASF46:
 6384 02bb 444D4131 		.ascii	"DMA1_Channel3_IRQn\000"
 6384      5F436861 
 6384      6E6E656C 
 6384      335F4952 
 6384      516E00
 6385              	.LASF183:
 6386 02ce 636F6D5F 		.ascii	"com_handle\000"
 6386      68616E64 
 6386      6C6500
 6387              	.LASF179:
 6388 02d9 636F6E66 		.ascii	"config_usart\000"
 6388      69675F75 
 6388      73617274 
 6388      00
 6389              	.LASF15:
 6390 02e6 75696E74 		.ascii	"uint16_t\000"
 6390      31365F74 
 6390      00
 6391              	.LASF155:
 6392 02ef 42617365 		.ascii	"BaseType_t\000"
 6392      54797065 
 6392      5F7400
 6393              	.LASF51:
 6394 02fa 41444331 		.ascii	"ADC1_2_IRQn\000"
 6394      5F325F49 
 6394      52516E00 
 6395              	.LASF146:
 6396 0306 4750494F 		.ascii	"GPIO_Mode\000"
 6396      5F4D6F64 
 6396      6500
 6397              	.LASF27:
 6398 0310 42757346 		.ascii	"BusFault_IRQn\000"
 6398      61756C74 
ARM GAS  C:\Users\user\AppData\Local\Temp\cc7qV6fF.s 			page 153


 6398      5F495251 
 6398      6E00
 6399              	.LASF78:
 6400 031e 55415254 		.ascii	"UART4_IRQn\000"
 6400      345F4952 
 6400      516E00
 6401              	.LASF75:
 6402 0329 4F54475F 		.ascii	"OTG_FS_WKUP_IRQn\000"
 6402      46535F57 
 6402      4B55505F 
 6402      4952516E 
 6402      00
 6403              	.LASF31:
 6404 033a 50656E64 		.ascii	"PendSV_IRQn\000"
 6404      53565F49 
 6404      52516E00 
 6405              	.LASF117:
 6406 0346 42464152 		.ascii	"BFAR\000"
 6406      00
 6407              	.LASF47:
 6408 034b 444D4131 		.ascii	"DMA1_Channel4_IRQn\000"
 6408      5F436861 
 6408      6E6E656C 
 6408      345F4952 
 6408      516E00
 6409              	.LASF161:
 6410 035e 55736172 		.ascii	"UsartType\000"
 6410      74547970 
 6410      6500
 6411              	.LASF118:
 6412 0368 41465352 		.ascii	"AFSR\000"
 6412      00
 6413              	.LASF10:
 6414 036d 5F5F7569 		.ascii	"__uint32_t\000"
 6414      6E743332 
 6414      5F7400
 6415              	.LASF180:
 6416 0378 53746172 		.ascii	"StartUsartClock\000"
 6416      74557361 
 6416      7274436C 
 6416      6F636B00 
 6417              	.LASF150:
 6418 0388 55534152 		.ascii	"USART_StopBits\000"
 6418      545F5374 
 6418      6F704269 
 6418      747300
 6419              	.LASF121:
 6420 0397 5343425F 		.ascii	"SCB_Type\000"
 6420      54797065 
 6420      00
 6421              	.LASF186:
 6422 03a0 74785F70 		.ascii	"tx_port\000"
 6422      6F727400 
 6423              	.LASF211:
 6424 03a8 78517565 		.ascii	"xQueueGenericCreate\000"
 6424      75654765 
 6424      6E657269 
ARM GAS  C:\Users\user\AppData\Local\Temp\cc7qV6fF.s 			page 154


 6424      63437265 
 6424      61746500 
 6425              	.LASF134:
 6426 03bc 4750494F 		.ascii	"GPIOSpeed_TypeDef\000"
 6426      53706565 
 6426      645F5479 
 6426      70654465 
 6426      6600
 6427              	.LASF144:
 6428 03ce 4750494F 		.ascii	"GPIO_Pin\000"
 6428      5F50696E 
 6428      00
 6429              	.LASF176:
 6430 03d7 496E6974 		.ascii	"InitUsart\000"
 6430      55736172 
 6430      7400
 6431              	.LASF164:
 6432 03e1 75736172 		.ascii	"usart\000"
 6432      7400
 6433              	.LASF0:
 6434 03e7 756E7369 		.ascii	"unsigned int\000"
 6434      676E6564 
 6434      20696E74 
 6434      00
 6435              	.LASF97:
 6436 03f4 49434552 		.ascii	"ICER\000"
 6436      00
 6437              	.LASF26:
 6438 03f9 4D656D6F 		.ascii	"MemoryManagement_IRQn\000"
 6438      72794D61 
 6438      6E616765 
 6438      6D656E74 
 6438      5F495251 
 6439              	.LASF216:
 6440 040f 443A5C47 		.ascii	"D:\\Git Codes\\Lock\\Lock\000"
 6440      69742043 
 6440      6F646573 
 6440      5C4C6F63 
 6440      6B5C4C6F 
 6441              	.LASF11:
 6442 0426 6C6F6E67 		.ascii	"long unsigned int\000"
 6442      20756E73 
 6442      69676E65 
 6442      6420696E 
 6442      7400
 6443              	.LASF126:
 6444 0438 4750494F 		.ascii	"GPIO_TypeDef\000"
 6444      5F547970 
 6444      65446566 
 6444      00
 6445              	.LASF173:
 6446 0445 55736172 		.ascii	"UsartSendString\000"
 6446      7453656E 
 6446      64537472 
 6446      696E6700 
 6447              	.LASF182:
 6448 0455 4465636F 		.ascii	"DecodeUsartId\000"
ARM GAS  C:\Users\user\AppData\Local\Temp\cc7qV6fF.s 			page 155


 6448      64655573 
 6448      61727449 
 6448      6400
 6449              	.LASF136:
 6450 0463 4750494F 		.ascii	"GPIO_Mode_IN_FLOATING\000"
 6450      5F4D6F64 
 6450      655F494E 
 6450      5F464C4F 
 6450      4154494E 
 6451              	.LASF110:
 6452 0479 56544F52 		.ascii	"VTOR\000"
 6452      00
 6453              	.LASF165:
 6454 047e 64617461 		.ascii	"data\000"
 6454      00
 6455              	.LASF141:
 6456 0483 4750494F 		.ascii	"GPIO_Mode_AF_OD\000"
 6456      5F4D6F64 
 6456      655F4146 
 6456      5F4F4400 
 6457              	.LASF48:
 6458 0493 444D4131 		.ascii	"DMA1_Channel5_IRQn\000"
 6458      5F436861 
 6458      6E6E656C 
 6458      355F4952 
 6458      516E00
 6459              	.LASF158:
 6460 04a6 62617564 		.ascii	"baud\000"
 6460      00
 6461              	.LASF52:
 6462 04ab 43414E31 		.ascii	"CAN1_TX_IRQn\000"
 6462      5F54585F 
 6462      4952516E 
 6462      00
 6463              	.LASF109:
 6464 04b8 49435352 		.ascii	"ICSR\000"
 6464      00
 6465              	.LASF139:
 6466 04bd 4750494F 		.ascii	"GPIO_Mode_Out_OD\000"
 6466      5F4D6F64 
 6466      655F4F75 
 6466      745F4F44 
 6466      00
 6467              	.LASF111:
 6468 04ce 41495243 		.ascii	"AIRCR\000"
 6468      5200
 6469              	.LASF115:
 6470 04d4 44465352 		.ascii	"DFSR\000"
 6470      00
 6471              	.LASF73:
 6472 04d9 45585449 		.ascii	"EXTI15_10_IRQn\000"
 6472      31355F31 
 6472      305F4952 
 6472      516E00
 6473              	.LASF116:
 6474 04e8 4D4D4641 		.ascii	"MMFAR\000"
 6474      5200
ARM GAS  C:\Users\user\AppData\Local\Temp\cc7qV6fF.s 			page 156


 6475              	.LASF68:
 6476 04ee 53504931 		.ascii	"SPI1_IRQn\000"
 6476      5F495251 
 6476      6E00
 6477              	.LASF130:
 6478 04f8 55534152 		.ascii	"USART_TypeDef\000"
 6478      545F5479 
 6478      70654465 
 6478      6600
 6479              	.LASF24:
 6480 0506 436F6D49 		.ascii	"ComId\000"
 6480      6400
 6481              	.LASF217:
 6482 050c 47657447 		.ascii	"GetGpioClockMask\000"
 6482      70696F43 
 6482      6C6F636B 
 6482      4D61736B 
 6482      00
 6483              	.LASF169:
 6484 051d 52657365 		.ascii	"ResetUsartBuffer\000"
 6484      74557361 
 6484      72744275 
 6484      66666572 
 6484      00
 6485              	.LASF5:
 6486 052e 73686F72 		.ascii	"short int\000"
 6486      7420696E 
 6486      7400
 6487              	.LASF91:
 6488 0538 43414E32 		.ascii	"CAN2_RX1_IRQn\000"
 6488      5F525831 
 6488      5F495251 
 6488      6E00
 6489              	.LASF32:
 6490 0546 53797354 		.ascii	"SysTick_IRQn\000"
 6490      69636B5F 
 6490      4952516E 
 6490      00
 6491              	.LASF60:
 6492 0553 54494D31 		.ascii	"TIM1_CC_IRQn\000"
 6492      5F43435F 
 6492      4952516E 
 6492      00
 6493              	.LASF172:
 6494 0560 68616E64 		.ascii	"handle\000"
 6494      6C6500
 6495              	.LASF157:
 6496 0567 706F7274 		.ascii	"port_id\000"
 6496      5F696400 
 6497              	.LASF84:
 6498 056f 444D4132 		.ascii	"DMA2_Channel3_IRQn\000"
 6498      5F436861 
 6498      6E6E656C 
 6498      335F4952 
 6498      516E00
 6499              	.LASF196:
 6500 0582 4952516E 		.ascii	"IRQn\000"
ARM GAS  C:\Users\user\AppData\Local\Temp\cc7qV6fF.s 			page 157


 6500      00
 6501              	.LASF208:
 6502 0587 55534152 		.ascii	"USART_Init\000"
 6502      545F496E 
 6502      697400
 6503              	.LASF190:
 6504 0592 6770696F 		.ascii	"gpio_clock_cmd_mask\000"
 6504      5F636C6F 
 6504      636B5F63 
 6504      6D645F6D 
 6504      61736B00 
 6505              	.LASF45:
 6506 05a6 444D4131 		.ascii	"DMA1_Channel2_IRQn\000"
 6506      5F436861 
 6506      6E6E656C 
 6506      325F4952 
 6506      516E00
 6507              	.LASF178:
 6508 05b9 72785F62 		.ascii	"rx_buffer_limit\000"
 6508      75666665 
 6508      725F6C69 
 6508      6D697400 
 6509              	.LASF87:
 6510 05c9 4554485F 		.ascii	"ETH_IRQn\000"
 6510      4952516E 
 6510      00
 6511              	.LASF213:
 6512 05d2 4750494F 		.ascii	"GPIO_Init\000"
 6512      5F496E69 
 6512      7400
 6513              	.LASF29:
 6514 05dc 53564361 		.ascii	"SVCall_IRQn\000"
 6514      6C6C5F49 
 6514      52516E00 
 6515              	.LASF83:
 6516 05e8 444D4132 		.ascii	"DMA2_Channel2_IRQn\000"
 6516      5F436861 
 6516      6E6E656C 
 6516      325F4952 
 6516      516E00
 6517              	.LASF113:
 6518 05fb 43465352 		.ascii	"CFSR\000"
 6518      00
 6519              	.LASF191:
 6520 0600 47657449 		.ascii	"GetIRQnFromId\000"
 6520      52516E46 
 6520      726F6D49 
 6520      6400
 6521              	.LASF103:
 6522 060e 49414252 		.ascii	"IABR\000"
 6522      00
 6523              	.LASF181:
 6524 0613 75736172 		.ascii	"usart_clock_cmd_mask\000"
 6524      745F636C 
 6524      6F636B5F 
 6524      636D645F 
 6524      6D61736B 
ARM GAS  C:\Users\user\AppData\Local\Temp\cc7qV6fF.s 			page 158


 6525              	.LASF76:
 6526 0628 54494D35 		.ascii	"TIM5_IRQn\000"
 6526      5F495251 
 6526      6E00
 6527              	.LASF189:
 6528 0632 74785F70 		.ascii	"tx_pin\000"
 6528      696E00
 6529              	.LASF142:
 6530 0639 4750494F 		.ascii	"GPIO_Mode_AF_PP\000"
 6530      5F4D6F64 
 6530      655F4146 
 6530      5F505000 
 6531              	.LASF69:
 6532 0649 53504932 		.ascii	"SPI2_IRQn\000"
 6532      5F495251 
 6532      6E00
 6533              	.LASF160:
 6534 0653 69735F69 		.ascii	"is_initialised\000"
 6534      6E697469 
 6534      616C6973 
 6534      656400
 6535              	.LASF137:
 6536 0662 4750494F 		.ascii	"GPIO_Mode_IPD\000"
 6536      5F4D6F64 
 6536      655F4950 
 6536      4400
 6537              	.LASF89:
 6538 0670 43414E32 		.ascii	"CAN2_TX_IRQn\000"
 6538      5F54585F 
 6538      4952516E 
 6538      00
 6539              	.LASF147:
 6540 067d 4750494F 		.ascii	"GPIO_InitTypeDef\000"
 6540      5F496E69 
 6540      74547970 
 6540      65446566 
 6540      00
 6541              	.LASF187:
 6542 068e 72785F70 		.ascii	"rx_port\000"
 6542      6F727400 
 6543              	.LASF140:
 6544 0696 4750494F 		.ascii	"GPIO_Mode_Out_PP\000"
 6544      5F4D6F64 
 6544      655F4F75 
 6544      745F5050 
 6544      00
 6545              	.LASF171:
 6546 06a7 55736172 		.ascii	"UsartReceiveByte\000"
 6546      74526563 
 6546      65697665 
 6546      42797465 
 6546      00
 6547              	.LASF133:
 6548 06b8 4750494F 		.ascii	"GPIO_Speed_50MHz\000"
 6548      5F537065 
 6548      65645F35 
 6548      304D487A 
ARM GAS  C:\Users\user\AppData\Local\Temp\cc7qV6fF.s 			page 159


 6548      00
 6549              	.LASF215:
 6550 06c9 75736572 		.ascii	"user/driver/usart/usart.c\000"
 6550      2F647269 
 6550      7665722F 
 6550      75736172 
 6550      742F7573 
 6551              	.LASF159:
 6552 06e3 72785F66 		.ascii	"rx_fifo\000"
 6552      69666F00 
 6553              	.LASF108:
 6554 06eb 43505549 		.ascii	"CPUID\000"
 6554      4400
 6555              	.LASF197:
 6556 06f1 7072696F 		.ascii	"priority\000"
 6556      72697479 
 6556      00
 6557              	.LASF44:
 6558 06fa 444D4131 		.ascii	"DMA1_Channel1_IRQn\000"
 6558      5F436861 
 6558      6E6E656C 
 6558      315F4952 
 6558      516E00
 6559              	.LASF163:
 6560 070d 78486967 		.ascii	"xHigherPriorityTaskWoken\000"
 6560      68657250 
 6560      72696F72 
 6560      69747954 
 6560      61736B57 
 6561              	.LASF17:
 6562 0726 55736172 		.ascii	"UsartHandle\000"
 6562      7448616E 
 6562      646C6500 
 6563              	.LASF96:
 6564 0732 52455345 		.ascii	"RESERVED0\000"
 6564      52564544 
 6564      3000
 6565              	.LASF127:
 6566 073c 52455345 		.ascii	"RESERVED1\000"
 6566      52564544 
 6566      3100
 6567              	.LASF100:
 6568 0746 52455345 		.ascii	"RESERVED2\000"
 6568      52564544 
 6568      3200
 6569              	.LASF102:
 6570 0750 52455345 		.ascii	"RESERVED3\000"
 6570      52564544 
 6570      3300
 6571              	.LASF104:
 6572 075a 52455345 		.ascii	"RESERVED4\000"
 6572      52564544 
 6572      3400
 6573              	.LASF105:
 6574 0764 52455345 		.ascii	"RESERVED5\000"
 6574      52564544 
 6574      3500
ARM GAS  C:\Users\user\AppData\Local\Temp\cc7qV6fF.s 			page 160


 6575              	.LASF129:
 6576 076e 52455345 		.ascii	"RESERVED6\000"
 6576      52564544 
 6576      3600
 6577              	.LASF188:
 6578 0778 72785F70 		.ascii	"rx_pin\000"
 6578      696E00
 6579              	.LASF166:
 6580 077f 55415254 		.ascii	"UART4_IRQHandler\000"
 6580      345F4952 
 6580      5148616E 
 6580      646C6572 
 6580      00
 6581              	.LASF210:
 6582 0790 55534152 		.ascii	"USART_Cmd\000"
 6582      545F436D 
 6582      6400
 6583              	.LASF194:
 6584 079a 70696E5F 		.ascii	"pin_source\000"
 6584      736F7572 
 6584      636500
 6585              	.LASF4:
 6586 07a5 756E7369 		.ascii	"unsigned char\000"
 6586      676E6564 
 6586      20636861 
 6586      7200
 6587              	.LASF112:
 6588 07b3 53484353 		.ascii	"SHCSR\000"
 6588      5200
 6589              	.LASF43:
 6590 07b9 45585449 		.ascii	"EXTI4_IRQn\000"
 6590      345F4952 
 6590      516E00
 6591              	.LASF132:
 6592 07c4 4750494F 		.ascii	"GPIO_Speed_2MHz\000"
 6592      5F537065 
 6592      65645F32 
 6592      4D487A00 
 6593              	.LASF95:
 6594 07d4 49534552 		.ascii	"ISER\000"
 6594      00
 6595              	.LASF107:
 6596 07d9 4E564943 		.ascii	"NVIC_Type\000"
 6596      5F547970 
 6596      6500
 6597              	.LASF170:
 6598 07e3 4973496E 		.ascii	"IsInitialised\000"
 6598      69746961 
 6598      6C697365 
 6598      6400
 6599              	.LASF79:
 6600 07f1 55415254 		.ascii	"UART5_IRQn\000"
 6600      355F4952 
 6600      516E00
 6601              	.LASF199:
 6602 07fc 4E564943 		.ascii	"NVIC_EnableIRQ\000"
 6602      5F456E61 
ARM GAS  C:\Users\user\AppData\Local\Temp\cc7qV6fF.s 			page 161


 6602      626C6549 
 6602      525100
 6603              	.LASF135:
 6604 080b 4750494F 		.ascii	"GPIO_Mode_AIN\000"
 6604      5F4D6F64 
 6604      655F4149 
 6604      4E00
 6605              	.LASF8:
 6606 0819 73686F72 		.ascii	"short unsigned int\000"
 6606      7420756E 
 6606      7369676E 
 6606      65642069 
 6606      6E7400
 6607              	.LASF200:
 6608 082c 55534152 		.ascii	"USART_ClearITPendingBit\000"
 6608      545F436C 
 6608      65617249 
 6608      5450656E 
 6608      64696E67 
 6609              	.LASF175:
 6610 0844 55736172 		.ascii	"UsartSendByte\000"
 6610      7453656E 
 6610      64427974 
 6610      6500
 6611              	.LASF37:
 6612 0852 464C4153 		.ascii	"FLASH_IRQn\000"
 6612      485F4952 
 6612      516E00
 6613              	.LASF94:
 6614 085d 4952516E 		.ascii	"IRQn_Type\000"
 6614      5F547970 
 6614      6500
 6615              	.LASF174:
 6616 0867 73747269 		.ascii	"string\000"
 6616      6E6700
 6617              	.LASF93:
 6618 086e 4F54475F 		.ascii	"OTG_FS_IRQn\000"
 6618      46535F49 
 6618      52516E00 
 6619              	.LASF16:
 6620 087a 75696E74 		.ascii	"uint32_t\000"
 6620      33325F74 
 6620      00
 6621              	.LASF184:
 6622 0883 436F6E66 		.ascii	"ConfigUsartGpio\000"
 6622      69675573 
 6622      61727447 
 6622      70696F00 
 6623              	.LASF71:
 6624 0893 55534152 		.ascii	"USART2_IRQn\000"
 6624      54325F49 
 6624      52516E00 
 6625              	.LASF28:
 6626 089f 55736167 		.ascii	"UsageFault_IRQn\000"
 6626      65466175 
 6626      6C745F49 
 6626      52516E00 
ARM GAS  C:\Users\user\AppData\Local\Temp\cc7qV6fF.s 			page 162


 6627              	.LASF2:
 6628 08af 6C6F6E67 		.ascii	"long double\000"
 6628      20646F75 
 6628      626C6500 
 6629              	.LASF13:
 6630 08bb 63686172 		.ascii	"char\000"
 6630      00
 6631              	.LASF85:
 6632 08c0 444D4132 		.ascii	"DMA2_Channel4_IRQn\000"
 6632      5F436861 
 6632      6E6E656C 
 6632      345F4952 
 6632      516E00
 6633              	.LASF207:
 6634 08d3 5243435F 		.ascii	"RCC_APB2PeriphClockCmd\000"
 6634      41504232 
 6634      50657269 
 6634      7068436C 
 6634      6F636B43 
 6635              	.LASF80:
 6636 08ea 54494D36 		.ascii	"TIM6_IRQn\000"
 6636      5F495251 
 6636      6E00
 6637              	.LASF57:
 6638 08f4 54494D31 		.ascii	"TIM1_BRK_IRQn\000"
 6638      5F42524B 
 6638      5F495251 
 6638      6E00
 6639              	.LASF7:
 6640 0902 5F5F7569 		.ascii	"__uint16_t\000"
 6640      6E743136 
 6640      5F7400
 6641              	.LASF74:
 6642 090d 52544341 		.ascii	"RTCAlarm_IRQn\000"
 6642      6C61726D 
 6642      5F495251 
 6642      6E00
 6643              	.LASF81:
 6644 091b 54494D37 		.ascii	"TIM7_IRQn\000"
 6644      5F495251 
 6644      6E00
 6645              	.LASF149:
 6646 0925 55534152 		.ascii	"USART_WordLength\000"
 6646      545F576F 
 6646      72644C65 
 6646      6E677468 
 6646      00
 6647              	.LASF205:
 6648 0936 55534152 		.ascii	"USART_SendData\000"
 6648      545F5365 
 6648      6E644461 
 6648      746100
 6649              	.LASF119:
 6650 0945 4D4D4652 		.ascii	"MMFR\000"
 6650      00
 6651              	.LASF201:
 6652 094a 55534152 		.ascii	"USART_ReceiveData\000"
ARM GAS  C:\Users\user\AppData\Local\Temp\cc7qV6fF.s 			page 163


 6652      545F5265 
 6652      63656976 
 6652      65446174 
 6652      6100
 6653              	.LASF25:
 6654 095c 4E6F6E4D 		.ascii	"NonMaskableInt_IRQn\000"
 6654      61736B61 
 6654      626C6549 
 6654      6E745F49 
 6654      52516E00 
 6655              	.LASF49:
 6656 0970 444D4131 		.ascii	"DMA1_Channel6_IRQn\000"
 6656      5F436861 
 6656      6E6E656C 
 6656      365F4952 
 6656      516E00
 6657              	.LASF35:
 6658 0983 54414D50 		.ascii	"TAMPER_IRQn\000"
 6658      45525F49 
 6658      52516E00 
 6659              	.LASF203:
 6660 098f 55534152 		.ascii	"USART_GetITStatus\000"
 6660      545F4765 
 6660      74495453 
 6660      74617475 
 6660      7300
 6661              	.LASF30:
 6662 09a1 44656275 		.ascii	"DebugMonitor_IRQn\000"
 6662      674D6F6E 
 6662      69746F72 
 6662      5F495251 
 6662      6E00
 6663              	.LASF72:
 6664 09b3 55534152 		.ascii	"USART3_IRQn\000"
 6664      54335F49 
 6664      52516E00 
 6665              	.LASF61:
 6666 09bf 54494D32 		.ascii	"TIM2_IRQn\000"
 6666      5F495251 
 6666      6E00
 6667              	.LASF39:
 6668 09c9 45585449 		.ascii	"EXTI0_IRQn\000"
 6668      305F4952 
 6668      516E00
 6669              	.LASF58:
 6670 09d4 54494D31 		.ascii	"TIM1_UP_IRQn\000"
 6670      5F55505F 
 6670      4952516E 
 6670      00
 6671              	.LASF124:
 6672 09e1 42535252 		.ascii	"BSRR\000"
 6672      00
 6673              	.LASF70:
 6674 09e6 55534152 		.ascii	"USART1_IRQn\000"
 6674      54315F49 
 6674      52516E00 
 6675              	.LASF212:
ARM GAS  C:\Users\user\AppData\Local\Temp\cc7qV6fF.s 			page 164


 6676 09f2 5243435F 		.ascii	"RCC_APB1PeriphClockCmd\000"
 6676      41504231 
 6676      50657269 
 6676      7068436C 
 6676      6F636B43 
 6677              	.LASF42:
 6678 0a09 45585449 		.ascii	"EXTI3_IRQn\000"
 6678      335F4952 
 6678      516E00
 6679              	.LASF177:
 6680 0a14 74785F62 		.ascii	"tx_buffer_limit\000"
 6680      75666665 
 6680      725F6C69 
 6680      6D697400 
 6681              	.LASF14:
 6682 0a24 75696E74 		.ascii	"uint8_t\000"
 6682      385F7400 
 6683              	.LASF98:
 6684 0a2c 52534552 		.ascii	"RSERVED1\000"
 6684      56454431 
 6684      00
 6685              	.LASF106:
 6686 0a35 53544952 		.ascii	"STIR\000"
 6686      00
 6687              	.LASF88:
 6688 0a3a 4554485F 		.ascii	"ETH_WKUP_IRQn\000"
 6688      574B5550 
 6688      5F495251 
 6688      6E00
 6689              	.LASF195:
 6690 0a48 6770696F 		.ascii	"gpio\000"
 6690      00
 6691              	.LASF50:
 6692 0a4d 444D4131 		.ascii	"DMA1_Channel7_IRQn\000"
 6692      5F436861 
 6692      6E6E656C 
 6692      375F4952 
 6692      516E00
 6693              	.LASF209:
 6694 0a60 55534152 		.ascii	"USART_ITConfig\000"
 6694      545F4954 
 6694      436F6E66 
 6694      696700
 6695              	.LASF167:
 6696 0a6f 55534152 		.ascii	"USART2_IRQHandler\000"
 6696      54325F49 
 6696      52514861 
 6696      6E646C65 
 6696      7200
 6697              	.LASF143:
 6698 0a81 4750494F 		.ascii	"GPIOMode_TypeDef\000"
 6698      4D6F6465 
 6698      5F547970 
 6698      65446566 
 6698      00
 6699              	.LASF192:
 6700 0a92 6972715F 		.ascii	"irq_type\000"
ARM GAS  C:\Users\user\AppData\Local\Temp\cc7qV6fF.s 			page 165


 6700      74797065 
 6700      00
 6701              	.LASF65:
 6702 0a9b 49324331 		.ascii	"I2C1_ER_IRQn\000"
 6702      5F45525F 
 6702      4952516E 
 6702      00
 6703              	.LASF36:
 6704 0aa8 5254435F 		.ascii	"RTC_IRQn\000"
 6704      4952516E 
 6704      00
 6705              	.LASF77:
 6706 0ab1 53504933 		.ascii	"SPI3_IRQn\000"
 6706      5F495251 
 6706      6E00
 6707              	.LASF153:
 6708 0abb 55534152 		.ascii	"USART_HardwareFlowControl\000"
 6708      545F4861 
 6708      72647761 
 6708      7265466C 
 6708      6F77436F 
 6709              	.LASF114:
 6710 0ad5 48465352 		.ascii	"HFSR\000"
 6710      00
 6711              	.LASF55:
 6712 0ada 43414E31 		.ascii	"CAN1_SCE_IRQn\000"
 6712      5F534345 
 6712      5F495251 
 6712      6E00
 6713              	.LASF92:
 6714 0ae8 43414E32 		.ascii	"CAN2_SCE_IRQn\000"
 6714      5F534345 
 6714      5F495251 
 6714      6E00
 6715              	.LASF38:
 6716 0af6 5243435F 		.ascii	"RCC_IRQn\000"
 6716      4952516E 
 6716      00
 6717              	.LASF62:
 6718 0aff 54494D33 		.ascii	"TIM3_IRQn\000"
 6718      5F495251 
 6718      6E00
 6719              	.LASF40:
 6720 0b09 45585449 		.ascii	"EXTI1_IRQn\000"
 6720      315F4952 
 6720      516E00
 6721              	.LASF198:
 6722 0b14 4E564943 		.ascii	"NVIC_SetPriority\000"
 6722      5F536574 
 6722      5072696F 
 6722      72697479 
 6722      00
 6723              		.ident	"GCC: (GNU Arm Embedded Toolchain 10.3-2021.07) 10.3.1 20210621 (release)"
ARM GAS  C:\Users\user\AppData\Local\Temp\cc7qV6fF.s 			page 166


DEFINED SYMBOLS
                            *ABS*:00000000 usart.c
C:\Users\user\AppData\Local\Temp\cc7qV6fF.s:83     .text:00000000 $t
C:\Users\user\AppData\Local\Temp\cc7qV6fF.s:91     .text:00000000 PinSourceDecode
C:\Users\user\AppData\Local\Temp\cc7qV6fF.s:118    .text:0000001e $d
C:\Users\user\AppData\Local\Temp\cc7qV6fF.s:126    .text:00000026 $t
C:\Users\user\AppData\Local\Temp\cc7qV6fF.s:297    .text:000000a8 GetIRQnFromId
C:\Users\user\AppData\Local\Temp\cc7qV6fF.s:323    .text:000000b8 $d
C:\Users\user\AppData\Local\Temp\cc7qV6fF.s:327    .text:000000bc $t
C:\Users\user\AppData\Local\Temp\cc7qV6fF.s:334    .text:000000bc GetGpioClockMask
C:\Users\user\AppData\Local\Temp\cc7qV6fF.s:455    .text:00000114 $d
C:\Users\user\AppData\Local\Temp\cc7qV6fF.s:459    .text:00000118 $t
C:\Users\user\AppData\Local\Temp\cc7qV6fF.s:466    .text:00000118 ConfigUsartGpio
C:\Users\user\AppData\Local\Temp\cc7qV6fF.s:585    .text:0000017c $d
C:\Users\user\AppData\Local\Temp\cc7qV6fF.s:589    .text:00000180 $t
C:\Users\user\AppData\Local\Temp\cc7qV6fF.s:596    .text:00000180 DecodeUsartId
C:\Users\user\AppData\Local\Temp\cc7qV6fF.s:623    .text:00000190 $d
C:\Users\user\AppData\Local\Temp\cc7qV6fF.s:627    .text:00000194 $t
C:\Users\user\AppData\Local\Temp\cc7qV6fF.s:634    .text:00000194 StartUsartClock
C:\Users\user\AppData\Local\Temp\cc7qV6fF.s:648    .text:0000019c $d
C:\Users\user\AppData\Local\Temp\cc7qV6fF.s:716    .text:000001d0 InitUsart
C:\Users\user\AppData\Local\Temp\cc7qV6fF.s:932    .text:00000288 $d
C:\Users\user\AppData\Local\Temp\cc7qV6fF.s:937    .text:00000290 $t
C:\Users\user\AppData\Local\Temp\cc7qV6fF.s:944    .text:00000290 UsartSendByte
C:\Users\user\AppData\Local\Temp\cc7qV6fF.s:1003   .text:000002b0 UsartSendString
C:\Users\user\AppData\Local\Temp\cc7qV6fF.s:1065   .text:000002ca UsartReceiveByte
C:\Users\user\AppData\Local\Temp\cc7qV6fF.s:1108   .text:000002e0 ResetUsartBuffer
C:\Users\user\AppData\Local\Temp\cc7qV6fF.s:1130   .text:000002e2 IsInitialised
C:\Users\user\AppData\Local\Temp\cc7qV6fF.s:1157   .text:000002e6 USART1_IRQHandler
C:\Users\user\AppData\Local\Temp\cc7qV6fF.s:1247   .text:0000033c $d
C:\Users\user\AppData\Local\Temp\cc7qV6fF.s:1252   .text:00000344 $t
C:\Users\user\AppData\Local\Temp\cc7qV6fF.s:1259   .text:00000344 USART2_IRQHandler
C:\Users\user\AppData\Local\Temp\cc7qV6fF.s:1349   .text:00000398 $d
C:\Users\user\AppData\Local\Temp\cc7qV6fF.s:1354   .text:000003a0 $t
C:\Users\user\AppData\Local\Temp\cc7qV6fF.s:1361   .text:000003a0 UART4_IRQHandler
C:\Users\user\AppData\Local\Temp\cc7qV6fF.s:1451   .text:000003f4 $d
C:\Users\user\AppData\Local\Temp\cc7qV6fF.s:1457   .rodata:00000000 $d
C:\Users\user\AppData\Local\Temp\cc7qV6fF.s:1461   .rodata:00000000 CSWTCH.11
C:\Users\user\AppData\Local\Temp\cc7qV6fF.s:1470   .rodata:00000008 CSWTCH.14
C:\Users\user\AppData\Local\Temp\cc7qV6fF.s:1479   .rodata:00000020 CSWTCH.15
C:\Users\user\AppData\Local\Temp\cc7qV6fF.s:1488   .rodata:00000038 CSWTCH.17
C:\Users\user\AppData\Local\Temp\cc7qV6fF.s:1497   .rodata:00000044 CSWTCH.16
C:\Users\user\AppData\Local\Temp\cc7qV6fF.s:1506   .rodata:00000050 CSWTCH.19
C:\Users\user\AppData\Local\Temp\cc7qV6fF.s:1513   .bss:00000000 $d
C:\Users\user\AppData\Local\Temp\cc7qV6fF.s:1517   .bss:00000000 usart_handle_list
C:\Users\user\AppData\Local\Temp\cc7qV6fF.s:653    .text:000001a1 $d
C:\Users\user\AppData\Local\Temp\cc7qV6fF.s:653    .text:000001a2 $t

UNDEFINED SYMBOLS
RCC_APB2PeriphClockCmd
GPIO_Init
RCC_APB1PeriphClockCmd
USART_Init
USART_ITConfig
USART_Cmd
xQueueGenericCreate
USART_SendData
ARM GAS  C:\Users\user\AppData\Local\Temp\cc7qV6fF.s 			page 167


USART_GetFlagStatus
xQueueGenericReceive
USART_GetITStatus
USART_ClearITPendingBit
USART_ReceiveData
xQueueGenericSendFromISR
