ARM GAS  C:\Users\user\AppData\Local\Temp\cc7qV6fF.s 			page 1


   1              		.cpu cortex-m3
   2              		.eabi_attribute 20, 1	@ Tag_ABI_FP_denormal
   3              		.eabi_attribute 21, 1	@ Tag_ABI_FP_exceptions
   4              		.eabi_attribute 23, 3	@ Tag_ABI_FP_number_model
   5              		.eabi_attribute 24, 1	@ Tag_ABI_align8_needed
   6              		.eabi_attribute 25, 1	@ Tag_ABI_align8_preserved
   7              		.eabi_attribute 26, 1	@ Tag_ABI_enum_size
   8              		.eabi_attribute 30, 4	@ Tag_ABI_optimization_goals
   9              		.eabi_attribute 34, 1	@ Tag_CPU_unaligned_access
  10              		.eabi_attribute 18, 4	@ Tag_ABI_PCS_wchar_t
  11              		.file	"usart.c"
  12              	@ GNU C17 (GNU Arm Embedded Toolchain 10.3-2021.07) version 10.3.1 20210621 (release) (arm-none-eab
  13              	@	compiled by GNU C version 7.3-win32 20180312, GMP version 6.1.0, MPFR version 3.1.4, MPC version 
  14              	
  15              	@ GGC heuristics: --param ggc-min-expand=100 --param ggc-min-heapsize=131072
  16              	@ options passed:  -I . -I ./user -I ./user/driver -I ./user/driver/modem
  17              	@ -I ./user/driver/debug -I ./user/driver/gpio -I ./user/driver/usart
  18              	@ -I ./user/driver/gps -I ./user/driver/rtc -I ./user/driver/led
  19              	@ -I ./user/driver/mux -I ./user/driver/vibration -I ./user/driver/exti
  20              	@ -I ./user/driver/adc -I ./user/driver/18B20 -I ./user/driver/http
  21              	@ -I ./user/driver/w26 -I ./user/driver/i2c -I ./user/driver/system
  22              	@ -I ./user/driver/lock -I ./user/driver/memory -I ./user/driver/spi
  23              	@ -I ./user/driver/w25q -I ./user/driver/rms -I ./user/driver/sensor
  24              	@ -I ./stm32f10x_libraries/CMSIS/CM3/CoreSupport
  25              	@ -I ./stm32f10x_libraries/CMSIS/CM3/DeviceSupport/ST/STM32F10x
  26              	@ -I ./stm32f10x_libraries/STM32F10x_StdPeriph_Driver/inc
  27              	@ -I ./stm32f10x_libraries/STM32F10x_StdPeriph_Driver -I ./freertos/include
  28              	@ -I ./freertos/portable/GCC/ARM_CM3 -imultilib thumb/v7-m/nofp
  29              	@ -iprefix c:\program files (x86)\gnu arm embedded toolchain\10 2021.07\bin\../lib/gcc/arm-none-eab
  30              	@ -isysroot c:\program files (x86)\gnu arm embedded toolchain\10 2021.07\bin\../arm-none-eabi
  31              	@ -D__USES_INITFINI__ -D STM32F10X_CL -D USE_STDPERIPH_DRIVER
  32              	@ -D HSE_VALUE=8000000 -D RUN_FROM_FLASH=1 user/driver/usart/usart.c
  33              	@ -mcpu=cortex-m3 -mthumb -mfloat-abi=soft -mlibarch=armv7-m -march=armv7-m
  34              	@ -auxbase-strip user/driver/usart/usart.o -g -gdwarf-2 -Os -Wall
  35              	@ -fomit-frame-pointer -fverbose-asm
  36              	@ options enabled:  -faggressive-loop-optimizations -fallocation-dce
  37              	@ -fauto-inc-dec -fbranch-count-reg -fcaller-saves -fcode-hoisting
  38              	@ -fcombine-stack-adjustments -fcompare-elim -fcprop-registers
  39              	@ -fcrossjumping -fcse-follow-jumps -fdefer-pop
  40              	@ -fdelete-null-pointer-checks -fdevirtualize -fdevirtualize-speculatively
  41              	@ -fdwarf2-cfi-asm -fearly-inlining -feliminate-unused-debug-symbols
  42              	@ -feliminate-unused-debug-types -fexpensive-optimizations
  43              	@ -fforward-propagate -ffp-int-builtin-inexact -ffunction-cse -fgcse
  44              	@ -fgcse-lm -fgnu-unique -fguess-branch-probability -fhoist-adjacent-loads
  45              	@ -fident -fif-conversion -fif-conversion2 -findirect-inlining -finline
  46              	@ -finline-atomics -finline-functions -finline-functions-called-once
  47              	@ -finline-small-functions -fipa-bit-cp -fipa-cp -fipa-icf
  48              	@ -fipa-icf-functions -fipa-icf-variables -fipa-profile -fipa-pure-const
  49              	@ -fipa-ra -fipa-reference -fipa-reference-addressable -fipa-sra
  50              	@ -fipa-stack-alignment -fipa-vrp -fira-hoist-pressure
  51              	@ -fira-share-save-slots -fira-share-spill-slots
  52              	@ -fisolate-erroneous-paths-dereference -fivopts -fkeep-static-consts
  53              	@ -fleading-underscore -flifetime-dse -flra-remat -fmath-errno
  54              	@ -fmerge-constants -fmerge-debug-strings -fmove-loop-invariants
  55              	@ -fomit-frame-pointer -foptimize-sibling-calls -fpartial-inlining
  56              	@ -fpeephole -fpeephole2 -fplt -fprefetch-loop-arrays -freg-struct-return
  57              	@ -freorder-blocks -freorder-functions -frerun-cse-after-loop
ARM GAS  C:\Users\user\AppData\Local\Temp\cc7qV6fF.s 			page 2


  58              	@ -fsched-critical-path-heuristic -fsched-dep-count-heuristic
  59              	@ -fsched-group-heuristic -fsched-interblock -fsched-last-insn-heuristic
  60              	@ -fsched-pressure -fsched-rank-heuristic -fsched-spec
  61              	@ -fsched-spec-insn-heuristic -fsched-stalled-insns-dep -fschedule-insns2
  62              	@ -fsection-anchors -fsemantic-interposition -fshow-column
  63              	@ -fshrink-wrap-separate -fsigned-zeros -fsplit-ivs-in-unroller
  64              	@ -fsplit-wide-types -fssa-backprop -fssa-phiopt -fstdarg-opt
  65              	@ -fstore-merging -fstrict-aliasing -fstrict-volatile-bitfields
  66              	@ -fsync-libcalls -fthread-jumps -ftoplevel-reorder -ftrapping-math
  67              	@ -ftree-bit-ccp -ftree-builtin-call-dce -ftree-ccp -ftree-ch
  68              	@ -ftree-coalesce-vars -ftree-copy-prop -ftree-cselim -ftree-dce
  69              	@ -ftree-dominator-opts -ftree-dse -ftree-forwprop -ftree-fre
  70              	@ -ftree-loop-distribute-patterns -ftree-loop-if-convert -ftree-loop-im
  71              	@ -ftree-loop-ivcanon -ftree-loop-optimize -ftree-parallelize-loops=
  72              	@ -ftree-phiprop -ftree-pre -ftree-pta -ftree-reassoc -ftree-scev-cprop
  73              	@ -ftree-sink -ftree-slsr -ftree-sra -ftree-switch-conversion
  74              	@ -ftree-tail-merge -ftree-ter -ftree-vrp -funit-at-a-time -fvar-tracking
  75              	@ -fvar-tracking-assignments -fverbose-asm -fzero-initialized-in-bss
  76              	@ -masm-syntax-unified -mbe32 -mfix-cortex-m3-ldrd -mlittle-endian
  77              	@ -mpic-data-is-text-relative -msched-prolog -mthumb -munaligned-access
  78              	@ -mvectorize-with-neon-quad
  79              	
  80              		.text
  81              	.Ltext0:
  82              		.cfi_sections	.debug_frame
  83              		.align	1
  84              		.global	PinSourceDecode
  85              		.arch armv7-m
  86              		.syntax unified
  87              		.thumb
  88              		.thumb_func
  89              		.fpu softvfp
  90              		.type	PinSourceDecode, %function
  91              	PinSourceDecode:
  92              	.LVL0:
  93              	.LFB34:
  94              		.file 1 "user/driver/usart/usart.c"
   1:user/driver/usart/usart.c **** #include <stddef.h>
   2:user/driver/usart/usart.c **** #include <stdlib.h>
   3:user/driver/usart/usart.c **** #include "usart.h"
   4:user/driver/usart/usart.c **** #include "usart_config.h"
   5:user/driver/usart/usart.c **** #include "stm32f10x.h"
   6:user/driver/usart/usart.c **** #include "stm32f10x_usart.h"
   7:user/driver/usart/usart.c **** #include "stm32f10x_gpio.h"
   8:user/driver/usart/usart.c **** #include "stm32f10x_rcc.h"
   9:user/driver/usart/usart.c **** #include "debug.h"
  10:user/driver/usart/usart.c **** #include "FreeRTOS.h"
  11:user/driver/usart/usart.c **** #include "queue.h"
  12:user/driver/usart/usart.c **** 
  13:user/driver/usart/usart.c **** typedef struct
  14:user/driver/usart/usart.c **** {
  15:user/driver/usart/usart.c **** 	ComId port_id;
  16:user/driver/usart/usart.c **** 	uint32_t baud;
  17:user/driver/usart/usart.c **** 	xQueueHandle rx_fifo;
  18:user/driver/usart/usart.c **** 	uint32_t is_initialised;
  19:user/driver/usart/usart.c **** } UsartType;
  20:user/driver/usart/usart.c **** 
ARM GAS  C:\Users\user\AppData\Local\Temp\cc7qV6fF.s 			page 3


  21:user/driver/usart/usart.c **** static UsartType usart_handle_list[7];
  22:user/driver/usart/usart.c **** 
  23:user/driver/usart/usart.c **** uint16_t PinSourceDecode(uint16_t pin)
  24:user/driver/usart/usart.c **** {
  95              		.loc 1 24 1 view -0
  96              		.cfi_startproc
  97              		@ args = 0, pretend = 0, frame = 0
  98              		@ frame_needed = 0, uses_anonymous_args = 0
  99              		@ link register save eliminated.
  25:user/driver/usart/usart.c **** 	uint16_t pin_source = 0x10;
 100              		.loc 1 25 2 view .LVU1
  26:user/driver/usart/usart.c **** 	switch (pin)
 101              		.loc 1 26 2 view .LVU2
 102 0000 B0F5807F 		cmp	r0, #256	@ pin,
 103 0004 3AD0     		beq	.L11		@,
 104 0006 19D8     		bhi	.L3		@,
 105 0008 1028     		cmp	r0, #16	@ pin,
 106 000a 39D0     		beq	.L12		@,
 107 000c 0DD8     		bhi	.L4		@,
 108 000e 0138     		subs	r0, r0, #1	@ tmp120, pin,
 109              	.LVL1:
 110              		.loc 1 26 2 is_stmt 0 view .LVU3
 111 0010 83B2     		uxth	r3, r0	@ tmp123, tmp120
 112 0012 072B     		cmp	r3, #7	@ tmp123,
 113 0014 36D8     		bhi	.L13		@,
 114 0016 0728     		cmp	r0, #7	@ tmp120,
 115 0018 34D8     		bhi	.L13		@
 116 001a DFE800F0 		tbb	[pc, r0]	@ tmp120
 117              	.L7:
 118 001e 04       		.byte	(.L9-.L7)/2
 119 001f 35       		.byte	(.L14-.L7)/2
 120 0020 33       		.byte	(.L13-.L7)/2
 121 0021 2B       		.byte	(.L8-.L7)/2
 122 0022 33       		.byte	(.L13-.L7)/2
 123 0023 33       		.byte	(.L13-.L7)/2
 124 0024 33       		.byte	(.L13-.L7)/2
 125 0025 2D       		.byte	(.L6-.L7)/2
 126              		.p2align 1
 127              	.L9:
 128 0026 0020     		movs	r0, #0	@ <retval>,
 129 0028 7047     		bx	lr	@
 130              	.LVL2:
 131              	.L4:
 132              		.loc 1 26 2 view .LVU4
 133 002a 4028     		cmp	r0, #64	@ pin,
 134 002c 2ED0     		beq	.L15		@,
 135 002e 8028     		cmp	r0, #128	@ pin,
 136 0030 2ED0     		beq	.L16		@,
 137              	@ user/driver/usart/usart.c:44: 		pin_source = GPIO_PinSource5;
  27:user/driver/usart/usart.c **** 	{
  28:user/driver/usart/usart.c **** 	case GPIO_Pin_0:
  29:user/driver/usart/usart.c **** 		pin_source = GPIO_PinSource0;
  30:user/driver/usart/usart.c **** 		break;
  31:user/driver/usart/usart.c **** 	case GPIO_Pin_1:
  32:user/driver/usart/usart.c **** 		pin_source = GPIO_PinSource1;
  33:user/driver/usart/usart.c **** 		break;
  34:user/driver/usart/usart.c **** 	case GPIO_Pin_2:
ARM GAS  C:\Users\user\AppData\Local\Temp\cc7qV6fF.s 			page 4


  35:user/driver/usart/usart.c **** 		pin_source = GPIO_PinSource2;
  36:user/driver/usart/usart.c **** 		break;
  37:user/driver/usart/usart.c **** 	case GPIO_Pin_3:
  38:user/driver/usart/usart.c **** 		pin_source = GPIO_PinSource3;
  39:user/driver/usart/usart.c **** 		break;
  40:user/driver/usart/usart.c **** 	case GPIO_Pin_4:
  41:user/driver/usart/usart.c **** 		pin_source = GPIO_PinSource4;
  42:user/driver/usart/usart.c **** 		break;
  43:user/driver/usart/usart.c **** 	case GPIO_Pin_5:
  44:user/driver/usart/usart.c **** 		pin_source = GPIO_PinSource5;
 138              		.loc 1 44 14 view .LVU5
 139 0032 2028     		cmp	r0, #32	@ pin,
 140 0034 14BF     		ite	ne
 141 0036 1020     		movne	r0, #16	@ <retval>,
 142              	.LVL3:
 143              		.loc 1 44 14 view .LVU6
 144 0038 0520     		moveq	r0, #5	@ <retval>,
 145 003a 7047     		bx	lr	@
 146              	.LVL4:
 147              	.L3:
 148              	@ user/driver/usart/usart.c:26: 	switch (pin)
  26:user/driver/usart/usart.c **** 	switch (pin)
 149              		.loc 1 26 2 view .LVU7
 150 003c B0F5805F 		cmp	r0, #4096	@ pin,
 151 0040 28D0     		beq	.L18		@,
 152 0042 0BD8     		bhi	.L10		@,
 153 0044 B0F5806F 		cmp	r0, #1024	@ pin,
 154 0048 26D0     		beq	.L19		@,
 155 004a B0F5006F 		cmp	r0, #2048	@ pin,
 156 004e 25D0     		beq	.L20		@,
 157              	@ user/driver/usart/usart.c:56: 		pin_source = GPIO_PinSource9;
  45:user/driver/usart/usart.c **** 		break;
  46:user/driver/usart/usart.c **** 	case GPIO_Pin_6:
  47:user/driver/usart/usart.c **** 		pin_source = GPIO_PinSource6;
  48:user/driver/usart/usart.c **** 		break;
  49:user/driver/usart/usart.c **** 	case GPIO_Pin_7:
  50:user/driver/usart/usart.c **** 		pin_source = GPIO_PinSource7;
  51:user/driver/usart/usart.c **** 		break;
  52:user/driver/usart/usart.c **** 	case GPIO_Pin_8:
  53:user/driver/usart/usart.c **** 		pin_source = GPIO_PinSource8;
  54:user/driver/usart/usart.c **** 		break;
  55:user/driver/usart/usart.c **** 	case GPIO_Pin_9:
  56:user/driver/usart/usart.c **** 		pin_source = GPIO_PinSource9;
 158              		.loc 1 56 14 view .LVU8
 159 0050 B0F5007F 		cmp	r0, #512	@ pin,
 160 0054 14BF     		ite	ne
 161 0056 1020     		movne	r0, #16	@ <retval>,
 162              	.LVL5:
 163              		.loc 1 56 14 view .LVU9
 164 0058 0920     		moveq	r0, #9	@ <retval>,
 165 005a 7047     		bx	lr	@
 166              	.LVL6:
 167              	.L10:
 168              	@ user/driver/usart/usart.c:26: 	switch (pin)
  26:user/driver/usart/usart.c **** 	{
 169              		.loc 1 26 2 view .LVU10
 170 005c B0F5804F 		cmp	r0, #16384	@ pin,
ARM GAS  C:\Users\user\AppData\Local\Temp\cc7qV6fF.s 			page 5


 171 0060 1ED0     		beq	.L22		@,
 172 0062 B0F5004F 		cmp	r0, #32768	@ pin,
 173 0066 1DD0     		beq	.L23		@,
 174              	@ user/driver/usart/usart.c:68: 		pin_source = GPIO_PinSource13;
  57:user/driver/usart/usart.c **** 		break;
  58:user/driver/usart/usart.c **** 	case GPIO_Pin_10:
  59:user/driver/usart/usart.c **** 		pin_source = GPIO_PinSource10;
  60:user/driver/usart/usart.c **** 		break;
  61:user/driver/usart/usart.c **** 	case GPIO_Pin_11:
  62:user/driver/usart/usart.c **** 		pin_source = GPIO_PinSource11;
  63:user/driver/usart/usart.c **** 		break;
  64:user/driver/usart/usart.c **** 	case GPIO_Pin_12:
  65:user/driver/usart/usart.c **** 		pin_source = GPIO_PinSource12;
  66:user/driver/usart/usart.c **** 		break;
  67:user/driver/usart/usart.c **** 	case GPIO_Pin_13:
  68:user/driver/usart/usart.c **** 		pin_source = GPIO_PinSource13;
 175              		.loc 1 68 14 view .LVU11
 176 0068 B0F5005F 		cmp	r0, #8192	@ pin,
 177 006c 14BF     		ite	ne
 178 006e 1020     		movne	r0, #16	@ <retval>,
 179              	.LVL7:
 180              		.loc 1 68 14 view .LVU12
 181 0070 0D20     		moveq	r0, #13	@ <retval>,
 182 0072 7047     		bx	lr	@
 183              	.L8:
  35:user/driver/usart/usart.c **** 		break;
 184              		.loc 1 35 3 is_stmt 1 view .LVU13
 185              	.LVL8:
  36:user/driver/usart/usart.c **** 	case GPIO_Pin_3:
 186              		.loc 1 36 3 view .LVU14
 187              	@ user/driver/usart/usart.c:35: 		pin_source = GPIO_PinSource2;
  35:user/driver/usart/usart.c **** 		break;
 188              		.loc 1 35 14 is_stmt 0 view .LVU15
 189 0074 0220     		movs	r0, #2	@ <retval>,
 190              	@ user/driver/usart/usart.c:36: 		break;
  36:user/driver/usart/usart.c **** 	case GPIO_Pin_3:
 191              		.loc 1 36 3 view .LVU16
 192 0076 7047     		bx	lr	@
 193              	.LVL9:
 194              	.L6:
  38:user/driver/usart/usart.c **** 		break;
 195              		.loc 1 38 3 is_stmt 1 view .LVU17
  39:user/driver/usart/usart.c **** 	case GPIO_Pin_4:
 196              		.loc 1 39 3 view .LVU18
 197              	@ user/driver/usart/usart.c:38: 		pin_source = GPIO_PinSource3;
  38:user/driver/usart/usart.c **** 		break;
 198              		.loc 1 38 14 is_stmt 0 view .LVU19
 199 0078 0320     		movs	r0, #3	@ <retval>,
 200              	@ user/driver/usart/usart.c:39: 		break;
  39:user/driver/usart/usart.c **** 	case GPIO_Pin_4:
 201              		.loc 1 39 3 view .LVU20
 202 007a 7047     		bx	lr	@
 203              	.LVL10:
 204              	.L11:
 205              	@ user/driver/usart/usart.c:53: 		pin_source = GPIO_PinSource8;
  53:user/driver/usart/usart.c **** 		break;
 206              		.loc 1 53 14 view .LVU21
ARM GAS  C:\Users\user\AppData\Local\Temp\cc7qV6fF.s 			page 6


 207 007c 0820     		movs	r0, #8	@ <retval>,
 208              	.LVL11:
  53:user/driver/usart/usart.c **** 		break;
 209              		.loc 1 53 14 view .LVU22
 210 007e 7047     		bx	lr	@
 211              	.LVL12:
 212              	.L12:
 213              	@ user/driver/usart/usart.c:41: 		pin_source = GPIO_PinSource4;
  41:user/driver/usart/usart.c **** 		break;
 214              		.loc 1 41 14 view .LVU23
 215 0080 0420     		movs	r0, #4	@ <retval>,
 216              	.LVL13:
  41:user/driver/usart/usart.c **** 		break;
 217              		.loc 1 41 14 view .LVU24
 218 0082 7047     		bx	lr	@
 219              	.L13:
 220              	@ user/driver/usart/usart.c:25: 	uint16_t pin_source = 0x10;
  25:user/driver/usart/usart.c **** 	switch (pin)
 221              		.loc 1 25 11 view .LVU25
 222 0084 1020     		movs	r0, #16	@ <retval>,
 223 0086 7047     		bx	lr	@
 224              	.L14:
 225              	@ user/driver/usart/usart.c:32: 		pin_source = GPIO_PinSource1;
  32:user/driver/usart/usart.c **** 		break;
 226              		.loc 1 32 14 view .LVU26
 227 0088 0120     		movs	r0, #1	@ <retval>,
 228 008a 7047     		bx	lr	@
 229              	.LVL14:
 230              	.L15:
 231              	@ user/driver/usart/usart.c:47: 		pin_source = GPIO_PinSource6;
  47:user/driver/usart/usart.c **** 		break;
 232              		.loc 1 47 14 view .LVU27
 233 008c 0620     		movs	r0, #6	@ <retval>,
 234              	.LVL15:
  47:user/driver/usart/usart.c **** 		break;
 235              		.loc 1 47 14 view .LVU28
 236 008e 7047     		bx	lr	@
 237              	.LVL16:
 238              	.L16:
 239              	@ user/driver/usart/usart.c:50: 		pin_source = GPIO_PinSource7;
  50:user/driver/usart/usart.c **** 		break;
 240              		.loc 1 50 14 view .LVU29
 241 0090 0720     		movs	r0, #7	@ <retval>,
 242              	.LVL17:
  50:user/driver/usart/usart.c **** 		break;
 243              		.loc 1 50 14 view .LVU30
 244 0092 7047     		bx	lr	@
 245              	.LVL18:
 246              	.L18:
 247              	@ user/driver/usart/usart.c:65: 		pin_source = GPIO_PinSource12;
  65:user/driver/usart/usart.c **** 		break;
 248              		.loc 1 65 14 view .LVU31
 249 0094 0C20     		movs	r0, #12	@ <retval>,
 250              	.LVL19:
  65:user/driver/usart/usart.c **** 		break;
 251              		.loc 1 65 14 view .LVU32
 252 0096 7047     		bx	lr	@
ARM GAS  C:\Users\user\AppData\Local\Temp\cc7qV6fF.s 			page 7


 253              	.LVL20:
 254              	.L19:
 255              	@ user/driver/usart/usart.c:59: 		pin_source = GPIO_PinSource10;
  59:user/driver/usart/usart.c **** 		break;
 256              		.loc 1 59 14 view .LVU33
 257 0098 0A20     		movs	r0, #10	@ <retval>,
 258              	.LVL21:
  59:user/driver/usart/usart.c **** 		break;
 259              		.loc 1 59 14 view .LVU34
 260 009a 7047     		bx	lr	@
 261              	.LVL22:
 262              	.L20:
 263              	@ user/driver/usart/usart.c:62: 		pin_source = GPIO_PinSource11;
  62:user/driver/usart/usart.c **** 		break;
 264              		.loc 1 62 14 view .LVU35
 265 009c 0B20     		movs	r0, #11	@ <retval>,
 266              	.LVL23:
  62:user/driver/usart/usart.c **** 		break;
 267              		.loc 1 62 14 view .LVU36
 268 009e 7047     		bx	lr	@
 269              	.LVL24:
 270              	.L22:
 271              	@ user/driver/usart/usart.c:71: 		pin_source = GPIO_PinSource14;
  69:user/driver/usart/usart.c **** 		break;
  70:user/driver/usart/usart.c **** 	case GPIO_Pin_14:
  71:user/driver/usart/usart.c **** 		pin_source = GPIO_PinSource14;
 272              		.loc 1 71 14 view .LVU37
 273 00a0 0E20     		movs	r0, #14	@ <retval>,
 274              	.LVL25:
 275              		.loc 1 71 14 view .LVU38
 276 00a2 7047     		bx	lr	@
 277              	.LVL26:
 278              	.L23:
 279              	@ user/driver/usart/usart.c:74: 		pin_source = GPIO_PinSource15;
  72:user/driver/usart/usart.c **** 		break;
  73:user/driver/usart/usart.c **** 	case GPIO_Pin_15:
  74:user/driver/usart/usart.c **** 		pin_source = GPIO_PinSource15;
 280              		.loc 1 74 14 view .LVU39
 281 00a4 0F20     		movs	r0, #15	@ <retval>,
 282              	.LVL27:
  75:user/driver/usart/usart.c **** 		break;
  76:user/driver/usart/usart.c **** 	default:
  77:user/driver/usart/usart.c **** 		break;
  78:user/driver/usart/usart.c **** 	}
  79:user/driver/usart/usart.c **** 	return pin_source;
 283              		.loc 1 79 2 is_stmt 1 view .LVU40
 284              	@ user/driver/usart/usart.c:80: }
  80:user/driver/usart/usart.c **** }
 285              		.loc 1 80 1 is_stmt 0 view .LVU41
 286 00a6 7047     		bx	lr	@
 287              		.cfi_endproc
 288              	.LFE34:
 289              		.size	PinSourceDecode, .-PinSourceDecode
 290              		.align	1
 291              		.global	GetIRQnFromId
 292              		.syntax unified
 293              		.thumb
ARM GAS  C:\Users\user\AppData\Local\Temp\cc7qV6fF.s 			page 8


 294              		.thumb_func
 295              		.fpu softvfp
 296              		.type	GetIRQnFromId, %function
 297              	GetIRQnFromId:
 298              	.LVL28:
 299              	.LFB35:
  81:user/driver/usart/usart.c **** 
  82:user/driver/usart/usart.c **** IRQn_Type GetIRQnFromId(ComId id)
  83:user/driver/usart/usart.c **** {
 300              		.loc 1 83 1 is_stmt 1 view -0
 301              		.cfi_startproc
 302              		@ args = 0, pretend = 0, frame = 0
 303              		@ frame_needed = 0, uses_anonymous_args = 0
 304              		@ link register save eliminated.
  84:user/driver/usart/usart.c **** 	IRQn_Type irq_type = BusFault_IRQn;
 305              		.loc 1 84 2 view .LVU43
  85:user/driver/usart/usart.c **** 	switch (id)
 306              		.loc 1 85 2 view .LVU44
 307 00a8 0428     		cmp	r0, #4	@ id,
 308 00aa 9ABF     		itte	ls
 309 00ac 024B     		ldrls	r3, .L28	@ tmp117,
 310 00ae 1856     		ldrsbls	r0, [r3, r0]	@ <retval>, CSWTCH.11[id_4(D)]
 311              	.LVL29:
 312              	@ user/driver/usart/usart.c:83: {
  83:user/driver/usart/usart.c **** 	IRQn_Type irq_type = BusFault_IRQn;
 313              		.loc 1 83 1 is_stmt 0 view .LVU45
 314 00b0 6FF00A00 		mvnhi	r0, #10	@ <retval>,
 315              	.LVL30:
  86:user/driver/usart/usart.c **** 	{
  87:user/driver/usart/usart.c **** 	case COM1:
  88:user/driver/usart/usart.c **** 		irq_type = USART1_IRQn;
  89:user/driver/usart/usart.c **** 		break;
  90:user/driver/usart/usart.c **** 	case COM2:
  91:user/driver/usart/usart.c **** 		irq_type = USART2_IRQn;
  92:user/driver/usart/usart.c **** 		break;
  93:user/driver/usart/usart.c **** 	case COM3:
  94:user/driver/usart/usart.c **** 		irq_type = USART3_IRQn;
  95:user/driver/usart/usart.c **** 		break;
  96:user/driver/usart/usart.c **** 	case COM4:
  97:user/driver/usart/usart.c **** 		irq_type = UART4_IRQn;
  98:user/driver/usart/usart.c **** 		break;
  99:user/driver/usart/usart.c **** 	case COM5:
 100:user/driver/usart/usart.c **** 		irq_type = UART5_IRQn;
 101:user/driver/usart/usart.c **** 		break;
 102:user/driver/usart/usart.c **** 	default:
 103:user/driver/usart/usart.c **** 		break;
 104:user/driver/usart/usart.c **** 	}
 105:user/driver/usart/usart.c **** 	return irq_type;
 316              		.loc 1 105 2 is_stmt 1 view .LVU46
 317              	@ user/driver/usart/usart.c:106: }
 106:user/driver/usart/usart.c **** }
 318              		.loc 1 106 1 is_stmt 0 view .LVU47
 319 00b4 7047     		bx	lr	@
 320              	.L29:
 321 00b6 00BF     		.align	2
 322              	.L28:
 323 00b8 00000000 		.word	.LANCHOR0
ARM GAS  C:\Users\user\AppData\Local\Temp\cc7qV6fF.s 			page 9


 324              		.cfi_endproc
 325              	.LFE35:
 326              		.size	GetIRQnFromId, .-GetIRQnFromId
 327              		.align	1
 328              		.global	GetGpioClockMask
 329              		.syntax unified
 330              		.thumb
 331              		.thumb_func
 332              		.fpu softvfp
 333              		.type	GetGpioClockMask, %function
 334              	GetGpioClockMask:
 335              	.LVL31:
 336              	.LFB36:
 107:user/driver/usart/usart.c **** 
 108:user/driver/usart/usart.c **** uint32_t GetGpioClockMask(GPIO_TypeDef *gpio)
 109:user/driver/usart/usart.c **** {
 337              		.loc 1 109 1 is_stmt 1 view -0
 338              		.cfi_startproc
 339              		@ args = 0, pretend = 0, frame = 0
 340              		@ frame_needed = 0, uses_anonymous_args = 0
 341              		@ link register save eliminated.
 110:user/driver/usart/usart.c **** 	uint32_t gpio_clock_cmd_mask;
 342              		.loc 1 110 2 view .LVU49
 111:user/driver/usart/usart.c **** 	if (gpio == GPIOA)
 343              		.loc 1 111 2 view .LVU50
 344              	@ user/driver/usart/usart.c:111: 	if (gpio == GPIOA)
 345              		.loc 1 111 5 is_stmt 0 view .LVU51
 346 00bc 154B     		ldr	r3, .L39	@ tmp115,
 347 00be 9842     		cmp	r0, r3	@ gpio, tmp115
 348 00c0 1BD0     		beq	.L32		@,
 112:user/driver/usart/usart.c **** 		gpio_clock_cmd_mask = RCC_APB2Periph_GPIOA;
 113:user/driver/usart/usart.c **** 	else if (gpio == GPIOB)
 349              		.loc 1 113 7 is_stmt 1 view .LVU52
 350              	@ user/driver/usart/usart.c:113: 	else if (gpio == GPIOB)
 351              		.loc 1 113 10 is_stmt 0 view .LVU53
 352 00c2 03F58063 		add	r3, r3, #1024	@ tmp116, tmp116,
 353 00c6 9842     		cmp	r0, r3	@ gpio, tmp116
 354 00c8 19D0     		beq	.L33		@,
 114:user/driver/usart/usart.c **** 		gpio_clock_cmd_mask = RCC_APB2Periph_GPIOB;
 115:user/driver/usart/usart.c **** 	else if (gpio == GPIOC)
 355              		.loc 1 115 7 is_stmt 1 view .LVU54
 356              	@ user/driver/usart/usart.c:115: 	else if (gpio == GPIOC)
 357              		.loc 1 115 10 is_stmt 0 view .LVU55
 358 00ca 03F58063 		add	r3, r3, #1024	@ tmp117, tmp117,
 359 00ce 9842     		cmp	r0, r3	@ gpio, tmp117
 360 00d0 17D0     		beq	.L34		@,
 116:user/driver/usart/usart.c **** 		gpio_clock_cmd_mask = RCC_APB2Periph_GPIOC;
 117:user/driver/usart/usart.c **** 	else if (gpio == GPIOD)
 361              		.loc 1 117 7 is_stmt 1 view .LVU56
 362              	@ user/driver/usart/usart.c:117: 	else if (gpio == GPIOD)
 363              		.loc 1 117 10 is_stmt 0 view .LVU57
 364 00d2 03F58063 		add	r3, r3, #1024	@ tmp118, tmp118,
 365 00d6 9842     		cmp	r0, r3	@ gpio, tmp118
 366 00d8 15D0     		beq	.L35		@,
 118:user/driver/usart/usart.c **** 		gpio_clock_cmd_mask = RCC_APB2Periph_GPIOD;
 119:user/driver/usart/usart.c **** 	else if (gpio == GPIOE)
 367              		.loc 1 119 7 is_stmt 1 view .LVU58
ARM GAS  C:\Users\user\AppData\Local\Temp\cc7qV6fF.s 			page 10


 368              	@ user/driver/usart/usart.c:119: 	else if (gpio == GPIOE)
 369              		.loc 1 119 10 is_stmt 0 view .LVU59
 370 00da 03F58063 		add	r3, r3, #1024	@ tmp119, tmp119,
 371 00de 9842     		cmp	r0, r3	@ gpio, tmp119
 372 00e0 13D0     		beq	.L36		@,
 373              	.LVL32:
 374              	.LBB4:
 375              	.LBI4:
 108:user/driver/usart/usart.c **** {
 376              		.loc 1 108 10 is_stmt 1 view .LVU60
 377              	.LBB5:
 120:user/driver/usart/usart.c **** 		gpio_clock_cmd_mask = RCC_APB2Periph_GPIOE;
 121:user/driver/usart/usart.c **** 	else if (gpio == GPIOF)
 378              		.loc 1 121 7 view .LVU61
 379              	@ user/driver/usart/usart.c:121: 	else if (gpio == GPIOF)
 380              		.loc 1 121 10 is_stmt 0 view .LVU62
 381 00e2 03F58063 		add	r3, r3, #1024	@ tmp120, tmp120,
 382 00e6 9842     		cmp	r0, r3	@ gpio, tmp120
 383 00e8 11D0     		beq	.L37		@,
 122:user/driver/usart/usart.c **** 		gpio_clock_cmd_mask = RCC_APB2Periph_GPIOF;
 123:user/driver/usart/usart.c **** 	else if (gpio == GPIOG)
 384              		.loc 1 123 7 is_stmt 1 view .LVU63
 385              	@ user/driver/usart/usart.c:126: 		gpio_clock_cmd_mask = 0x00;
 124:user/driver/usart/usart.c **** 		gpio_clock_cmd_mask = RCC_APB2Periph_GPIOG;
 125:user/driver/usart/usart.c **** 	else
 126:user/driver/usart/usart.c **** 		gpio_clock_cmd_mask = 0x00;
 386              		.loc 1 126 23 is_stmt 0 view .LVU64
 387 00ea 03F58063 		add	r3, r3, #1024	@ tmp121, tmp121,
 388 00ee 9842     		cmp	r0, r3	@ gpio, tmp121
 389 00f0 0CBF     		ite	eq		@
 390 00f2 4FF48070 		moveq	r0, #256	@, <retval>,
 391 00f6 0020     		movne	r0, #0	@, <retval>,
 392              	.LVL33:
 393              		.loc 1 126 23 view .LVU65
 394 00f8 7047     		bx	lr	@
 395              	.LVL34:
 396              	.L32:
 397              		.loc 1 126 23 view .LVU66
 398              	.LBE5:
 399              	.LBE4:
 400              	@ user/driver/usart/usart.c:112: 		gpio_clock_cmd_mask = RCC_APB2Periph_GPIOA;
 112:user/driver/usart/usart.c **** 	else if (gpio == GPIOB)
 401              		.loc 1 112 23 view .LVU67
 402 00fa 0420     		movs	r0, #4	@ <retval>,
 403              	.LVL35:
 112:user/driver/usart/usart.c **** 	else if (gpio == GPIOB)
 404              		.loc 1 112 23 view .LVU68
 405 00fc 7047     		bx	lr	@
 406              	.LVL36:
 407              	.L33:
 408              	@ user/driver/usart/usart.c:114: 		gpio_clock_cmd_mask = RCC_APB2Periph_GPIOB;
 114:user/driver/usart/usart.c **** 	else if (gpio == GPIOC)
 409              		.loc 1 114 23 view .LVU69
 410 00fe 0820     		movs	r0, #8	@ <retval>,
 411              	.LVL37:
 114:user/driver/usart/usart.c **** 	else if (gpio == GPIOC)
 412              		.loc 1 114 23 view .LVU70
ARM GAS  C:\Users\user\AppData\Local\Temp\cc7qV6fF.s 			page 11


 413 0100 7047     		bx	lr	@
 414              	.LVL38:
 415              	.L34:
 416              	@ user/driver/usart/usart.c:116: 		gpio_clock_cmd_mask = RCC_APB2Periph_GPIOC;
 116:user/driver/usart/usart.c **** 	else if (gpio == GPIOD)
 417              		.loc 1 116 23 view .LVU71
 418 0102 1020     		movs	r0, #16	@ <retval>,
 419              	.LVL39:
 116:user/driver/usart/usart.c **** 	else if (gpio == GPIOD)
 420              		.loc 1 116 23 view .LVU72
 421 0104 7047     		bx	lr	@
 422              	.LVL40:
 423              	.L35:
 424              	@ user/driver/usart/usart.c:118: 		gpio_clock_cmd_mask = RCC_APB2Periph_GPIOD;
 118:user/driver/usart/usart.c **** 	else if (gpio == GPIOE)
 425              		.loc 1 118 23 view .LVU73
 426 0106 2020     		movs	r0, #32	@ <retval>,
 427              	.LVL41:
 118:user/driver/usart/usart.c **** 	else if (gpio == GPIOE)
 428              		.loc 1 118 23 view .LVU74
 429 0108 7047     		bx	lr	@
 430              	.LVL42:
 431              	.L36:
 432              	@ user/driver/usart/usart.c:120: 		gpio_clock_cmd_mask = RCC_APB2Periph_GPIOE;
 120:user/driver/usart/usart.c **** 	else if (gpio == GPIOF)
 433              		.loc 1 120 23 view .LVU75
 434 010a 4020     		movs	r0, #64	@ <retval>,
 435              	.LVL43:
 120:user/driver/usart/usart.c **** 	else if (gpio == GPIOF)
 436              		.loc 1 120 23 view .LVU76
 437 010c 7047     		bx	lr	@
 438              	.LVL44:
 439              	.L37:
 440              	.LBB7:
 441              	.LBB6:
 442              	@ user/driver/usart/usart.c:122: 		gpio_clock_cmd_mask = RCC_APB2Periph_GPIOF;
 122:user/driver/usart/usart.c **** 	else if (gpio == GPIOG)
 443              		.loc 1 122 23 view .LVU77
 444 010e 8020     		movs	r0, #128	@ <retval>,
 445              	.LVL45:
 122:user/driver/usart/usart.c **** 	else if (gpio == GPIOG)
 446              		.loc 1 122 23 view .LVU78
 447              	.LBE6:
 448              	.LBE7:
 449              	@ user/driver/usart/usart.c:129: }
 127:user/driver/usart/usart.c **** 
 128:user/driver/usart/usart.c **** 	return gpio_clock_cmd_mask;
 129:user/driver/usart/usart.c **** }
 450              		.loc 1 129 1 view .LVU79
 451 0110 7047     		bx	lr	@
 452              	.L40:
 453 0112 00BF     		.align	2
 454              	.L39:
 455 0114 00080140 		.word	1073809408
 456              		.cfi_endproc
 457              	.LFE36:
 458              		.size	GetGpioClockMask, .-GetGpioClockMask
ARM GAS  C:\Users\user\AppData\Local\Temp\cc7qV6fF.s 			page 12


 459              		.align	1
 460              		.global	ConfigUsartGpio
 461              		.syntax unified
 462              		.thumb
 463              		.thumb_func
 464              		.fpu softvfp
 465              		.type	ConfigUsartGpio, %function
 466              	ConfigUsartGpio:
 467              	.LVL46:
 468              	.LFB37:
 130:user/driver/usart/usart.c **** 
 131:user/driver/usart/usart.c **** uint32_t ConfigUsartGpio(ComId id)
 132:user/driver/usart/usart.c **** {
 469              		.loc 1 132 1 is_stmt 1 view -0
 470              		.cfi_startproc
 471              		@ args = 0, pretend = 0, frame = 8
 472              		@ frame_needed = 0, uses_anonymous_args = 0
 133:user/driver/usart/usart.c **** 	GPIO_InitTypeDef config_gpio;
 473              		.loc 1 133 2 view .LVU81
 134:user/driver/usart/usart.c **** 	GPIO_TypeDef *tx_port;
 474              		.loc 1 134 2 view .LVU82
 135:user/driver/usart/usart.c **** 	GPIO_TypeDef *rx_port;
 475              		.loc 1 135 2 view .LVU83
 136:user/driver/usart/usart.c **** 	uint16_t tx_pin;
 476              		.loc 1 136 2 view .LVU84
 137:user/driver/usart/usart.c **** 	uint16_t rx_pin;
 477              		.loc 1 137 2 view .LVU85
 138:user/driver/usart/usart.c **** 
 139:user/driver/usart/usart.c **** 	// Get pin and port name of current USART
 140:user/driver/usart/usart.c **** 	switch (id)
 478              		.loc 1 140 2 view .LVU86
 479 0118 0528     		cmp	r0, #5	@ id,
 480              	@ user/driver/usart/usart.c:132: {
 132:user/driver/usart/usart.c **** 	GPIO_InitTypeDef config_gpio;
 481              		.loc 1 132 1 is_stmt 0 view .LVU87
 482 011a 73B5     		push	{r0, r1, r4, r5, r6, lr}	@
 483              	.LCFI0:
 484              		.cfi_def_cfa_offset 24
 485              		.cfi_offset 4, -16
 486              		.cfi_offset 5, -12
 487              		.cfi_offset 6, -8
 488              		.cfi_offset 14, -4
 489 011c 2CD8     		bhi	.L43		@,
 490 011e 174B     		ldr	r3, .L44	@ tmp123,
 491              	@ user/driver/usart/usart.c:187: 	RCC_APB2PeriphClockCmd(GetGpioClockMask(tx_port), ENABLE);
 141:user/driver/usart/usart.c **** 	{
 142:user/driver/usart/usart.c **** 	case COM1:
 143:user/driver/usart/usart.c **** 		rx_port = USATR1_RX_PORT;
 144:user/driver/usart/usart.c **** 		tx_port = USATR1_TX_PORT;
 145:user/driver/usart/usart.c **** 		rx_pin = USART1_RX_PIN;
 146:user/driver/usart/usart.c **** 		tx_pin = USART1_TX_PIN;
 147:user/driver/usart/usart.c **** 		break;
 148:user/driver/usart/usart.c **** 	case COM2:
 149:user/driver/usart/usart.c **** 		rx_port = USATR2_RX_PORT;
 150:user/driver/usart/usart.c **** 		tx_port = USATR2_TX_PORT;
 151:user/driver/usart/usart.c **** 		rx_pin = USART2_RX_PIN;
 152:user/driver/usart/usart.c **** 		tx_pin = USART2_TX_PIN;
ARM GAS  C:\Users\user\AppData\Local\Temp\cc7qV6fF.s 			page 13


 153:user/driver/usart/usart.c **** 		break;
 154:user/driver/usart/usart.c **** 	case COM3:
 155:user/driver/usart/usart.c **** 		rx_port = USATR3_RX_PORT;
 156:user/driver/usart/usart.c **** 		tx_port = USATR3_TX_PORT;
 157:user/driver/usart/usart.c **** 		rx_pin = USART3_RX_PIN;
 158:user/driver/usart/usart.c **** 		tx_pin = USART3_TX_PIN;
 159:user/driver/usart/usart.c **** 		break;
 160:user/driver/usart/usart.c **** 	case COM4:
 161:user/driver/usart/usart.c **** 		rx_port = USATR4_RX_PORT;
 162:user/driver/usart/usart.c **** 		tx_port = USATR4_TX_PORT;
 163:user/driver/usart/usart.c **** 		rx_pin = USART4_RX_PIN;
 164:user/driver/usart/usart.c **** 		tx_pin = USART4_TX_PIN;
 165:user/driver/usart/usart.c **** 		break;
 166:user/driver/usart/usart.c **** 	case COM5:
 167:user/driver/usart/usart.c **** 		rx_port = USATR5_RX_PORT;
 168:user/driver/usart/usart.c **** 		tx_port = USATR5_TX_PORT;
 169:user/driver/usart/usart.c **** 		rx_pin = USART5_RX_PIN;
 170:user/driver/usart/usart.c **** 		tx_pin = USART5_TX_PIN;
 171:user/driver/usart/usart.c **** 		break;
 172:user/driver/usart/usart.c **** 	case COM6:
 173:user/driver/usart/usart.c **** 		rx_port = USATR6_RX_PORT;
 174:user/driver/usart/usart.c **** 		tx_port = USATR6_TX_PORT;
 175:user/driver/usart/usart.c **** 		rx_pin = USART6_RX_PIN;
 176:user/driver/usart/usart.c **** 		tx_pin = USART6_TX_PIN;
 177:user/driver/usart/usart.c **** 		break;
 178:user/driver/usart/usart.c **** 	default:
 179:user/driver/usart/usart.c **** 		return 0;
 180:user/driver/usart/usart.c **** 		break;
 181:user/driver/usart/usart.c **** 	}
 182:user/driver/usart/usart.c **** 	// Fill usart config struct member
 183:user/driver/usart/usart.c **** 	config_gpio.GPIO_Mode = GPIO_Mode_AF_PP;
 184:user/driver/usart/usart.c **** 	config_gpio.GPIO_Pin = tx_pin;
 185:user/driver/usart/usart.c **** 	config_gpio.GPIO_Speed = GPIO_Speed_50MHz;
 186:user/driver/usart/usart.c **** 	//enable gpio clock.
 187:user/driver/usart/usart.c **** 	RCC_APB2PeriphClockCmd(GetGpioClockMask(tx_port), ENABLE);
 492              		.loc 1 187 2 view .LVU88
 493 0120 0121     		movs	r1, #1	@,
 494 0122 03EB8002 		add	r2, r3, r0, lsl #2	@ tmp124, tmp123, id,
 495 0126 03EB4000 		add	r0, r3, r0, lsl #1	@ tmp130, tmp123, id,
 496              	.LVL47:
 497              	@ user/driver/usart/usart.c:184: 	config_gpio.GPIO_Pin = tx_pin;
 184:user/driver/usart/usart.c **** 	config_gpio.GPIO_Speed = GPIO_Speed_50MHz;
 498              		.loc 1 184 23 view .LVU89
 499 012a B0F84430 		ldrh	r3, [r0, #68]	@, CSWTCH.16[id_6(D)]
 500 012e 9568     		ldr	r5, [r2, #8]	@ tx_port, CSWTCH.14[id_6(D)]
 501 0130 ADF80430 		strh	r3, [sp, #4]	@ movhi	@ CSWTCH.16[id_6(D)], config_gpio.GPIO_Pin
 502              	@ user/driver/usart/usart.c:185: 	config_gpio.GPIO_Speed = GPIO_Speed_50MHz;
 185:user/driver/usart/usart.c **** 	//enable gpio clock.
 503              		.loc 1 185 25 view .LVU90
 504 0134 41F60303 		movw	r3, #6147	@ tmp137,
 505 0138 068F     		ldrh	r6, [r0, #56]	@ rx_pin, CSWTCH.17[id_6(D)]
 506              	@ user/driver/usart/usart.c:187: 	RCC_APB2PeriphClockCmd(GetGpioClockMask(tx_port), ENABLE);
 507              		.loc 1 187 2 view .LVU91
 508 013a 2846     		mov	r0, r5	@, tx_port
 509              	@ user/driver/usart/usart.c:185: 	config_gpio.GPIO_Speed = GPIO_Speed_50MHz;
 185:user/driver/usart/usart.c **** 	//enable gpio clock.
 510              		.loc 1 185 25 view .LVU92
ARM GAS  C:\Users\user\AppData\Local\Temp\cc7qV6fF.s 			page 14


 511 013c ADF80630 		strh	r3, [sp, #6]	@ movhi	@ tmp137, MEM <unsigned short> [(void *)&config_gpio + 2B]
 512              	@ user/driver/usart/usart.c:187: 	RCC_APB2PeriphClockCmd(GetGpioClockMask(tx_port), ENABLE);
 513              		.loc 1 187 2 view .LVU93
 514 0140 FFF7FEFF 		bl	GetGpioClockMask		@
 515              	.LVL48:
 516 0144 146A     		ldr	r4, [r2, #32]	@ rx_port, CSWTCH.15[id_6(D)]
 517              	.LVL49:
 180:user/driver/usart/usart.c **** 	}
 518              		.loc 1 180 3 is_stmt 1 view .LVU94
 183:user/driver/usart/usart.c **** 	config_gpio.GPIO_Pin = tx_pin;
 519              		.loc 1 183 2 view .LVU95
 184:user/driver/usart/usart.c **** 	config_gpio.GPIO_Speed = GPIO_Speed_50MHz;
 520              		.loc 1 184 2 view .LVU96
 185:user/driver/usart/usart.c **** 	//enable gpio clock.
 521              		.loc 1 185 2 view .LVU97
 522              		.loc 1 187 2 view .LVU98
 523 0146 FFF7FEFF 		bl	RCC_APB2PeriphClockCmd		@
 524              	.LVL50:
 188:user/driver/usart/usart.c **** 	//now called hardware initialise function
 189:user/driver/usart/usart.c **** 	GPIO_Init(tx_port, &config_gpio);
 525              		.loc 1 189 2 view .LVU99
 526 014a 2846     		mov	r0, r5	@, tx_port
 527 014c 01A9     		add	r1, sp, #4	@ tmp146,,
 528 014e FFF7FEFF 		bl	GPIO_Init		@
 529              	.LVL51:
 190:user/driver/usart/usart.c **** 
 191:user/driver/usart/usart.c **** 	// Fill usart config struct member
 192:user/driver/usart/usart.c **** 	config_gpio.GPIO_Mode = GPIO_Mode_IN_FLOATING;
 530              		.loc 1 192 2 view .LVU100
 193:user/driver/usart/usart.c **** 	config_gpio.GPIO_Pin = rx_pin;
 531              		.loc 1 193 2 view .LVU101
 532              	@ user/driver/usart/usart.c:194: 	config_gpio.GPIO_Speed = GPIO_Speed_50MHz;
 194:user/driver/usart/usart.c **** 	config_gpio.GPIO_Speed = GPIO_Speed_50MHz;
 533              		.loc 1 194 25 is_stmt 0 view .LVU102
 534 0152 40F20343 		movw	r3, #1027	@ tmp141,
 535              	@ user/driver/usart/usart.c:196: 	RCC_APB2PeriphClockCmd(GetGpioClockMask(rx_port), ENABLE);
 195:user/driver/usart/usart.c **** 	//enable gpio clock.
 196:user/driver/usart/usart.c **** 	RCC_APB2PeriphClockCmd(GetGpioClockMask(rx_port), ENABLE);
 536              		.loc 1 196 2 view .LVU103
 537 0156 2046     		mov	r0, r4	@, rx_port
 538              	@ user/driver/usart/usart.c:194: 	config_gpio.GPIO_Speed = GPIO_Speed_50MHz;
 194:user/driver/usart/usart.c **** 	config_gpio.GPIO_Speed = GPIO_Speed_50MHz;
 539              		.loc 1 194 25 view .LVU104
 540 0158 ADF80630 		strh	r3, [sp, #6]	@ movhi	@ tmp141, MEM <unsigned short> [(void *)&config_gpio + 2B]
 541              	@ user/driver/usart/usart.c:196: 	RCC_APB2PeriphClockCmd(GetGpioClockMask(rx_port), ENABLE);
 542              		.loc 1 196 2 view .LVU105
 543 015c 0121     		movs	r1, #1	@,
 544              	@ user/driver/usart/usart.c:193: 	config_gpio.GPIO_Pin = rx_pin;
 193:user/driver/usart/usart.c **** 	config_gpio.GPIO_Speed = GPIO_Speed_50MHz;
 545              		.loc 1 193 23 view .LVU106
 546 015e ADF80460 		strh	r6, [sp, #4]	@ movhi	@ rx_pin, config_gpio.GPIO_Pin
 194:user/driver/usart/usart.c **** 	config_gpio.GPIO_Speed = GPIO_Speed_50MHz;
 547              		.loc 1 194 2 is_stmt 1 view .LVU107
 548              		.loc 1 196 2 view .LVU108
 549 0162 FFF7FEFF 		bl	GetGpioClockMask		@
 550              	.LVL52:
 551 0166 FFF7FEFF 		bl	RCC_APB2PeriphClockCmd		@
ARM GAS  C:\Users\user\AppData\Local\Temp\cc7qV6fF.s 			page 15


 552              	.LVL53:
 197:user/driver/usart/usart.c **** 	//now called hardware initialise function
 198:user/driver/usart/usart.c **** 	GPIO_Init(rx_port, &config_gpio);
 553              		.loc 1 198 2 view .LVU109
 554 016a 2046     		mov	r0, r4	@, rx_port
 555 016c 01A9     		add	r1, sp, #4	@ tmp147,,
 556 016e FFF7FEFF 		bl	GPIO_Init		@
 557              	.LVL54:
 199:user/driver/usart/usart.c **** 	return 1;
 558              		.loc 1 199 2 view .LVU110
 559              	@ user/driver/usart/usart.c:199: 	return 1;
 560              		.loc 1 199 9 is_stmt 0 view .LVU111
 561 0172 0120     		movs	r0, #1	@ <retval>,
 562              	.LVL55:
 563              	.L41:
 564              	@ user/driver/usart/usart.c:200: }
 200:user/driver/usart/usart.c **** }
 565              		.loc 1 200 1 view .LVU112
 566 0174 02B0     		add	sp, sp, #8	@,,
 567              	.LCFI1:
 568              		.cfi_remember_state
 569              		.cfi_def_cfa_offset 16
 570              		@ sp needed	@
 571 0176 70BD     		pop	{r4, r5, r6, pc}	@
 572              	.LVL56:
 573              	.L43:
 574              	.LCFI2:
 575              		.cfi_restore_state
 576              	@ user/driver/usart/usart.c:179: 		return 0;
 179:user/driver/usart/usart.c **** 		break;
 577              		.loc 1 179 10 view .LVU113
 578 0178 0020     		movs	r0, #0	@ <retval>,
 579              	.LVL57:
 179:user/driver/usart/usart.c **** 		break;
 580              		.loc 1 179 10 view .LVU114
 581 017a FBE7     		b	.L41		@
 582              	.L45:
 583              		.align	2
 584              	.L44:
 585 017c 00000000 		.word	.LANCHOR0
 586              		.cfi_endproc
 587              	.LFE37:
 588              		.size	ConfigUsartGpio, .-ConfigUsartGpio
 589              		.align	1
 590              		.global	DecodeUsartId
 591              		.syntax unified
 592              		.thumb
 593              		.thumb_func
 594              		.fpu softvfp
 595              		.type	DecodeUsartId, %function
 596              	DecodeUsartId:
 597              	.LVL58:
 598              	.LFB38:
 201:user/driver/usart/usart.c **** 
 202:user/driver/usart/usart.c **** USART_TypeDef *DecodeUsartId(ComId id)
 203:user/driver/usart/usart.c **** {
 599              		.loc 1 203 1 is_stmt 1 view -0
ARM GAS  C:\Users\user\AppData\Local\Temp\cc7qV6fF.s 			page 16


 600              		.cfi_startproc
 601              		@ args = 0, pretend = 0, frame = 0
 602              		@ frame_needed = 0, uses_anonymous_args = 0
 603              		@ link register save eliminated.
 204:user/driver/usart/usart.c **** 	USART_TypeDef *com_handle = NULL;
 604              		.loc 1 204 2 view .LVU116
 205:user/driver/usart/usart.c **** 	switch (id)
 605              		.loc 1 205 2 view .LVU117
 606 0180 0428     		cmp	r0, #4	@ id,
 607 0182 9DBF     		ittte	ls
 608 0184 024B     		ldrls	r3, .L49	@ tmp117,
 609 0186 03EB8000 		addls	r0, r3, r0, lsl #2	@ tmp118, tmp117, id,
 610              	.LVL59:
 611              		.loc 1 205 2 is_stmt 0 view .LVU118
 612 018a 006D     		ldrls	r0, [r0, #80]	@ <retval>, CSWTCH.19[id_4(D)]
 613              	@ user/driver/usart/usart.c:203: {
 203:user/driver/usart/usart.c **** 	USART_TypeDef *com_handle = NULL;
 614              		.loc 1 203 1 view .LVU119
 615 018c 0020     		movhi	r0, #0	@ <retval>,
 206:user/driver/usart/usart.c **** 	{
 207:user/driver/usart/usart.c **** 	case COM1:
 208:user/driver/usart/usart.c **** 		com_handle = USART1;
 209:user/driver/usart/usart.c **** 		break;
 210:user/driver/usart/usart.c **** 	case COM2:
 211:user/driver/usart/usart.c **** 		com_handle = USART2;
 212:user/driver/usart/usart.c **** 		break;
 213:user/driver/usart/usart.c **** 	case COM3:
 214:user/driver/usart/usart.c **** 		com_handle = USART3;
 215:user/driver/usart/usart.c **** 		break;
 216:user/driver/usart/usart.c **** 	case COM4:
 217:user/driver/usart/usart.c **** 		com_handle = UART4;
 218:user/driver/usart/usart.c **** 		break;
 219:user/driver/usart/usart.c **** 	case COM5:
 220:user/driver/usart/usart.c **** 		com_handle = UART5;
 221:user/driver/usart/usart.c **** 		break;
 222:user/driver/usart/usart.c **** 	default:
 223:user/driver/usart/usart.c **** 		com_handle = NULL;
 224:user/driver/usart/usart.c **** 		break;
 225:user/driver/usart/usart.c **** 	}
 226:user/driver/usart/usart.c **** 	return com_handle;
 616              		.loc 1 226 2 is_stmt 1 view .LVU120
 617              	@ user/driver/usart/usart.c:227: }
 227:user/driver/usart/usart.c **** }
 618              		.loc 1 227 1 is_stmt 0 view .LVU121
 619 018e 7047     		bx	lr	@
 620              	.L50:
 621              		.align	2
 622              	.L49:
 623 0190 00000000 		.word	.LANCHOR0
 624              		.cfi_endproc
 625              	.LFE38:
 626              		.size	DecodeUsartId, .-DecodeUsartId
 627              		.align	1
 628              		.global	StartUsartClock
 629              		.syntax unified
 630              		.thumb
 631              		.thumb_func
ARM GAS  C:\Users\user\AppData\Local\Temp\cc7qV6fF.s 			page 17


 632              		.fpu softvfp
 633              		.type	StartUsartClock, %function
 634              	StartUsartClock:
 635              	.LVL60:
 636              	.LFB39:
 228:user/driver/usart/usart.c **** 
 229:user/driver/usart/usart.c **** void StartUsartClock(ComId id)
 230:user/driver/usart/usart.c **** {
 637              		.loc 1 230 1 is_stmt 1 view -0
 638              		.cfi_startproc
 639              		@ args = 0, pretend = 0, frame = 0
 640              		@ frame_needed = 0, uses_anonymous_args = 0
 641              		@ link register save eliminated.
 231:user/driver/usart/usart.c **** 	uint32_t usart_clock_cmd_mask = 0x00;
 642              		.loc 1 231 2 view .LVU123
 232:user/driver/usart/usart.c **** 
 233:user/driver/usart/usart.c **** 	switch (id)
 643              		.loc 1 233 2 view .LVU124
 644 0194 0428     		cmp	r0, #4	@ tmp114,
 645 0196 1AD8     		bhi	.L51		@
 646 0198 DFE800F0 		tbb	[pc, r0]	@ tmp114
 647              	.L54:
 648 019c 03       		.byte	(.L58-.L54)/2
 649 019d 08       		.byte	(.L57-.L54)/2
 650 019e 0D       		.byte	(.L56-.L54)/2
 651 019f 11       		.byte	(.L55-.L54)/2
 652 01a0 15       		.byte	(.L53-.L54)/2
 653 01a1 00       		.p2align 1
 654              	.L58:
 234:user/driver/usart/usart.c **** 	{
 235:user/driver/usart/usart.c **** 	case COM1:
 236:user/driver/usart/usart.c **** 		usart_clock_cmd_mask = RCC_APB2Periph_USART1;
 655              		.loc 1 236 3 view .LVU125
 656              	.LVL61:
 237:user/driver/usart/usart.c **** 		RCC_APB2PeriphClockCmd(usart_clock_cmd_mask, ENABLE);
 657              		.loc 1 237 3 view .LVU126
 658 01a2 0121     		movs	r1, #1	@,
 659 01a4 4FF48040 		mov	r0, #16384	@,
 660              	.LVL62:
 661              		.loc 1 237 3 is_stmt 0 view .LVU127
 662 01a8 FFF7FEBF 		b	RCC_APB2PeriphClockCmd		@
 663              	.LVL63:
 664              	.L57:
 238:user/driver/usart/usart.c **** 		break;
 239:user/driver/usart/usart.c **** 	case COM2:
 240:user/driver/usart/usart.c **** 		usart_clock_cmd_mask = RCC_APB1Periph_USART2;
 665              		.loc 1 240 3 is_stmt 1 view .LVU128
 241:user/driver/usart/usart.c **** 		RCC_APB1PeriphClockCmd(usart_clock_cmd_mask, ENABLE);
 666              		.loc 1 241 3 view .LVU129
 667 01ac 0121     		movs	r1, #1	@,
 668 01ae 4FF40030 		mov	r0, #131072	@,
 669              	.LVL64:
 670              	.L59:
 671              	@ user/driver/usart/usart.c:253: 		RCC_APB1PeriphClockCmd(usart_clock_cmd_mask, ENABLE);
 242:user/driver/usart/usart.c **** 		break;
 243:user/driver/usart/usart.c **** 	case COM3:
 244:user/driver/usart/usart.c **** 		usart_clock_cmd_mask = RCC_APB1Periph_USART3;
ARM GAS  C:\Users\user\AppData\Local\Temp\cc7qV6fF.s 			page 18


 245:user/driver/usart/usart.c **** 		RCC_APB1PeriphClockCmd(usart_clock_cmd_mask, ENABLE);
 246:user/driver/usart/usart.c **** 		break;
 247:user/driver/usart/usart.c **** 	case COM4:
 248:user/driver/usart/usart.c **** 		usart_clock_cmd_mask = RCC_APB1Periph_UART4;
 249:user/driver/usart/usart.c **** 		RCC_APB1PeriphClockCmd(usart_clock_cmd_mask, ENABLE);
 250:user/driver/usart/usart.c **** 		break;
 251:user/driver/usart/usart.c **** 	case COM5:
 252:user/driver/usart/usart.c **** 		usart_clock_cmd_mask = RCC_APB1Periph_UART5;
 253:user/driver/usart/usart.c **** 		RCC_APB1PeriphClockCmd(usart_clock_cmd_mask, ENABLE);
 672              		.loc 1 253 3 is_stmt 0 view .LVU130
 673 01b2 FFF7FEBF 		b	RCC_APB1PeriphClockCmd		@
 674              	.LVL65:
 675              	.L56:
 244:user/driver/usart/usart.c **** 		RCC_APB1PeriphClockCmd(usart_clock_cmd_mask, ENABLE);
 676              		.loc 1 244 3 is_stmt 1 view .LVU131
 245:user/driver/usart/usart.c **** 		break;
 677              		.loc 1 245 3 view .LVU132
 678 01b6 0121     		movs	r1, #1	@,
 679 01b8 4FF48020 		mov	r0, #262144	@,
 680              	.LVL66:
 245:user/driver/usart/usart.c **** 		break;
 681              		.loc 1 245 3 is_stmt 0 view .LVU133
 682 01bc F9E7     		b	.L59		@
 683              	.LVL67:
 684              	.L55:
 248:user/driver/usart/usart.c **** 		RCC_APB1PeriphClockCmd(usart_clock_cmd_mask, ENABLE);
 685              		.loc 1 248 3 is_stmt 1 view .LVU134
 249:user/driver/usart/usart.c **** 		break;
 686              		.loc 1 249 3 view .LVU135
 687 01be 0121     		movs	r1, #1	@,
 688 01c0 4FF40020 		mov	r0, #524288	@,
 689              	.LVL68:
 249:user/driver/usart/usart.c **** 		break;
 690              		.loc 1 249 3 is_stmt 0 view .LVU136
 691 01c4 F5E7     		b	.L59		@
 692              	.LVL69:
 693              	.L53:
 252:user/driver/usart/usart.c **** 		RCC_APB1PeriphClockCmd(usart_clock_cmd_mask, ENABLE);
 694              		.loc 1 252 3 is_stmt 1 view .LVU137
 695              		.loc 1 253 3 view .LVU138
 696 01c6 0121     		movs	r1, #1	@,
 697 01c8 4FF48010 		mov	r0, #1048576	@,
 698              	.LVL70:
 699              		.loc 1 253 3 is_stmt 0 view .LVU139
 700 01cc F1E7     		b	.L59		@
 701              	.LVL71:
 702              	.L51:
 703              	@ user/driver/usart/usart.c:258: }
 254:user/driver/usart/usart.c **** 		break;
 255:user/driver/usart/usart.c **** 	default:
 256:user/driver/usart/usart.c **** 		break;
 257:user/driver/usart/usart.c **** 	}
 258:user/driver/usart/usart.c **** }
 704              		.loc 1 258 1 view .LVU140
 705 01ce 7047     		bx	lr	@
 706              		.cfi_endproc
 707              	.LFE39:
ARM GAS  C:\Users\user\AppData\Local\Temp\cc7qV6fF.s 			page 19


 708              		.size	StartUsartClock, .-StartUsartClock
 709              		.align	1
 710              		.global	InitUsart
 711              		.syntax unified
 712              		.thumb
 713              		.thumb_func
 714              		.fpu softvfp
 715              		.type	InitUsart, %function
 716              	InitUsart:
 717              	.LVL72:
 718              	.LFB40:
 259:user/driver/usart/usart.c **** 
 260:user/driver/usart/usart.c **** UsartHandle InitUsart(ComId id, uint32_t baud, uint32_t tx_buffer_limit, uint32_t rx_buffer_limit)
 261:user/driver/usart/usart.c **** {
 719              		.loc 1 261 1 is_stmt 1 view -0
 720              		.cfi_startproc
 721              		@ args = 0, pretend = 0, frame = 16
 722              		@ frame_needed = 0, uses_anonymous_args = 0
 262:user/driver/usart/usart.c **** 
 263:user/driver/usart/usart.c **** 	if (ConfigUsartGpio(id) == 0)
 723              		.loc 1 263 2 view .LVU142
 724              	@ user/driver/usart/usart.c:261: {
 261:user/driver/usart/usart.c **** 
 725              		.loc 1 261 1 is_stmt 0 view .LVU143
 726 01d0 2DE9F043 		push	{r4, r5, r6, r7, r8, r9, lr}	@
 727              	.LCFI3:
 728              		.cfi_def_cfa_offset 28
 729              		.cfi_offset 4, -28
 730              		.cfi_offset 5, -24
 731              		.cfi_offset 6, -20
 732              		.cfi_offset 7, -16
 733              		.cfi_offset 8, -12
 734              		.cfi_offset 9, -8
 735              		.cfi_offset 14, -4
 736 01d4 85B0     		sub	sp, sp, #20	@,,
 737              	.LCFI4:
 738              		.cfi_def_cfa_offset 48
 739              	@ user/driver/usart/usart.c:261: {
 261:user/driver/usart/usart.c **** 
 740              		.loc 1 261 1 view .LVU144
 741 01d6 0546     		mov	r5, r0	@ id, tmp177
 742 01d8 0E46     		mov	r6, r1	@ baud, tmp178
 743 01da 1F46     		mov	r7, r3	@ rx_buffer_limit, tmp179
 744              	@ user/driver/usart/usart.c:263: 	if (ConfigUsartGpio(id) == 0)
 745              		.loc 1 263 6 view .LVU145
 746 01dc FFF7FEFF 		bl	ConfigUsartGpio		@
 747              	.LVL73:
 748              	@ user/driver/usart/usart.c:263: 	if (ConfigUsartGpio(id) == 0)
 749              		.loc 1 263 5 view .LVU146
 750 01e0 0446     		mov	r4, r0	@ _1, tmp180
 751 01e2 0028     		cmp	r0, #0	@ _1
 752 01e4 4BD0     		beq	.L60	@
 264:user/driver/usart/usart.c **** 		return NULL;
 265:user/driver/usart/usart.c **** 
 266:user/driver/usart/usart.c **** 	RCC_APB2PeriphClockCmd(RCC_APB2Periph_AFIO, ENABLE);
 753              		.loc 1 266 2 is_stmt 1 view .LVU147
 754 01e6 0121     		movs	r1, #1	@,
ARM GAS  C:\Users\user\AppData\Local\Temp\cc7qV6fF.s 			page 20


 755 01e8 0846     		mov	r0, r1	@,
 756 01ea FFF7FEFF 		bl	RCC_APB2PeriphClockCmd		@
 757              	.LVL74:
 267:user/driver/usart/usart.c **** 
 268:user/driver/usart/usart.c **** 	USART_InitTypeDef config_usart;
 758              		.loc 1 268 2 view .LVU148
 269:user/driver/usart/usart.c **** 	// fill usart configuration structure.
 270:user/driver/usart/usart.c **** 	config_usart.USART_BaudRate = baud;
 759              		.loc 1 270 2 view .LVU149
 760              	@ user/driver/usart/usart.c:273: 	config_usart.USART_Parity = USART_Parity_No;
 271:user/driver/usart/usart.c **** 	config_usart.USART_HardwareFlowControl = USART_HardwareFlowControl_None;
 272:user/driver/usart/usart.c **** 	config_usart.USART_Mode = USART_Mode_Rx | USART_Mode_Tx;
 273:user/driver/usart/usart.c **** 	config_usart.USART_Parity = USART_Parity_No;
 761              		.loc 1 273 28 is_stmt 0 view .LVU150
 762 01ee 0023     		movs	r3, #0	@ tmp135,
 763 01f0 4FF44022 		mov	r2, #786432	@ tmp136,
 764              	@ user/driver/usart/usart.c:277: 	StartUsartClock(id);
 274:user/driver/usart/usart.c **** 	config_usart.USART_StopBits = USART_StopBits_1;
 275:user/driver/usart/usart.c **** 	config_usart.USART_WordLength = USART_WordLength_8b;
 276:user/driver/usart/usart.c **** 	//Enable UART clock.
 277:user/driver/usart/usart.c **** 	StartUsartClock(id);
 765              		.loc 1 277 2 view .LVU151
 766 01f4 2846     		mov	r0, r5	@, id
 767              	@ user/driver/usart/usart.c:273: 	config_usart.USART_Parity = USART_Parity_No;
 273:user/driver/usart/usart.c **** 	config_usart.USART_StopBits = USART_StopBits_1;
 768              		.loc 1 273 28 view .LVU152
 769 01f6 CDE90132 		strd	r3, r2, [sp, #4]	@ tmp135, tmp136,,
 770              	@ user/driver/usart/usart.c:271: 	config_usart.USART_HardwareFlowControl = USART_HardwareFlowContro
 271:user/driver/usart/usart.c **** 	config_usart.USART_HardwareFlowControl = USART_HardwareFlowControl_None;
 771              		.loc 1 271 41 view .LVU153
 772 01fa ADF80C30 		strh	r3, [sp, #12]	@ movhi	@ tmp135, config_usart.USART_HardwareFlowControl
 773              	@ user/driver/usart/usart.c:270: 	config_usart.USART_BaudRate = baud;
 270:user/driver/usart/usart.c **** 	config_usart.USART_HardwareFlowControl = USART_HardwareFlowControl_None;
 774              		.loc 1 270 30 view .LVU154
 775 01fe 0096     		str	r6, [sp]	@ baud, config_usart.USART_BaudRate
 271:user/driver/usart/usart.c **** 	config_usart.USART_Mode = USART_Mode_Rx | USART_Mode_Tx;
 776              		.loc 1 271 2 is_stmt 1 view .LVU155
 272:user/driver/usart/usart.c **** 	config_usart.USART_Parity = USART_Parity_No;
 777              		.loc 1 272 2 view .LVU156
 273:user/driver/usart/usart.c **** 	config_usart.USART_StopBits = USART_StopBits_1;
 778              		.loc 1 273 2 view .LVU157
 274:user/driver/usart/usart.c **** 	config_usart.USART_WordLength = USART_WordLength_8b;
 779              		.loc 1 274 2 view .LVU158
 275:user/driver/usart/usart.c **** 	//Enable UART clock.
 780              		.loc 1 275 2 view .LVU159
 781              		.loc 1 277 2 view .LVU160
 782 0200 FFF7FEFF 		bl	StartUsartClock		@
 783              	.LVL75:
 278:user/driver/usart/usart.c **** 
 279:user/driver/usart/usart.c **** 	//Initialise UART using configuration structure.
 280:user/driver/usart/usart.c **** 
 281:user/driver/usart/usart.c **** 	USART_Init(DecodeUsartId(id), &config_usart);
 784              		.loc 1 281 2 view .LVU161
 785 0204 2846     		mov	r0, r5	@, id
 786 0206 FFF7FEFF 		bl	DecodeUsartId		@
 787              	.LVL76:
 788 020a 0446     		mov	r4, r0	@ _2, tmp181
ARM GAS  C:\Users\user\AppData\Local\Temp\cc7qV6fF.s 			page 21


 789 020c 6946     		mov	r1, sp	@,
 790 020e FFF7FEFF 		bl	USART_Init		@
 791              	.LVL77:
 282:user/driver/usart/usart.c **** 	//Enable UART receive interrupt service
 283:user/driver/usart/usart.c **** 	USART_ITConfig(DecodeUsartId(id), USART_IT_RXNE, ENABLE);
 792              		.loc 1 283 2 view .LVU162
 793 0212 2046     		mov	r0, r4	@, _2
 794 0214 0122     		movs	r2, #1	@,
 795 0216 40F22551 		movw	r1, #1317	@,
 796 021a FFF7FEFF 		bl	USART_ITConfig		@
 797              	.LVL78:
 284:user/driver/usart/usart.c **** 	// Enable the specific UART
 285:user/driver/usart/usart.c **** 	NVIC_EnableIRQ(GetIRQnFromId(id));
 798              		.loc 1 285 2 view .LVU163
 799 021e 2846     		mov	r0, r5	@, id
 800 0220 FFF7FEFF 		bl	GetIRQnFromId		@
 801              	.LVL79:
 802              	.LBB12:
 803              	.LBI12:
 804              		.file 2 "./stm32f10x_libraries/CMSIS/CM3/CoreSupport/core_cm3.h"
   1:./stm32f10x_libraries/CMSIS/CM3/CoreSupport/core_cm3.h **** /**************************************************************************//**
   2:./stm32f10x_libraries/CMSIS/CM3/CoreSupport/core_cm3.h ****  * @file     core_cm3.h
   3:./stm32f10x_libraries/CMSIS/CM3/CoreSupport/core_cm3.h ****  * @brief    CMSIS Cortex-M3 Core Peripheral Access Layer Header File
   4:./stm32f10x_libraries/CMSIS/CM3/CoreSupport/core_cm3.h ****  * @version  V1.30
   5:./stm32f10x_libraries/CMSIS/CM3/CoreSupport/core_cm3.h ****  * @date     30. October 2009
   6:./stm32f10x_libraries/CMSIS/CM3/CoreSupport/core_cm3.h ****  *
   7:./stm32f10x_libraries/CMSIS/CM3/CoreSupport/core_cm3.h ****  * @note
   8:./stm32f10x_libraries/CMSIS/CM3/CoreSupport/core_cm3.h ****  * Copyright (C) 2009 ARM Limited. All rights reserved.
   9:./stm32f10x_libraries/CMSIS/CM3/CoreSupport/core_cm3.h ****  *
  10:./stm32f10x_libraries/CMSIS/CM3/CoreSupport/core_cm3.h ****  * @par
  11:./stm32f10x_libraries/CMSIS/CM3/CoreSupport/core_cm3.h ****  * ARM Limited (ARM) is supplying this software for use with Cortex-M 
  12:./stm32f10x_libraries/CMSIS/CM3/CoreSupport/core_cm3.h ****  * processor based microcontrollers.  This file can be freely distributed 
  13:./stm32f10x_libraries/CMSIS/CM3/CoreSupport/core_cm3.h ****  * within development tools that are supporting such ARM based processors. 
  14:./stm32f10x_libraries/CMSIS/CM3/CoreSupport/core_cm3.h ****  *
  15:./stm32f10x_libraries/CMSIS/CM3/CoreSupport/core_cm3.h ****  * @par
  16:./stm32f10x_libraries/CMSIS/CM3/CoreSupport/core_cm3.h ****  * THIS SOFTWARE IS PROVIDED "AS IS".  NO WARRANTIES, WHETHER EXPRESS, IMPLIED
  17:./stm32f10x_libraries/CMSIS/CM3/CoreSupport/core_cm3.h ****  * OR STATUTORY, INCLUDING, BUT NOT LIMITED TO, IMPLIED WARRANTIES OF
  18:./stm32f10x_libraries/CMSIS/CM3/CoreSupport/core_cm3.h ****  * MERCHANTABILITY AND FITNESS FOR A PARTICULAR PURPOSE APPLY TO THIS SOFTWARE.
  19:./stm32f10x_libraries/CMSIS/CM3/CoreSupport/core_cm3.h ****  * ARM SHALL NOT, IN ANY CIRCUMSTANCES, BE LIABLE FOR SPECIAL, INCIDENTAL, OR
  20:./stm32f10x_libraries/CMSIS/CM3/CoreSupport/core_cm3.h ****  * CONSEQUENTIAL DAMAGES, FOR ANY REASON WHATSOEVER.
  21:./stm32f10x_libraries/CMSIS/CM3/CoreSupport/core_cm3.h ****  *
  22:./stm32f10x_libraries/CMSIS/CM3/CoreSupport/core_cm3.h ****  ******************************************************************************/
  23:./stm32f10x_libraries/CMSIS/CM3/CoreSupport/core_cm3.h **** 
  24:./stm32f10x_libraries/CMSIS/CM3/CoreSupport/core_cm3.h **** #ifndef __CM3_CORE_H__
  25:./stm32f10x_libraries/CMSIS/CM3/CoreSupport/core_cm3.h **** #define __CM3_CORE_H__
  26:./stm32f10x_libraries/CMSIS/CM3/CoreSupport/core_cm3.h **** 
  27:./stm32f10x_libraries/CMSIS/CM3/CoreSupport/core_cm3.h **** /** @addtogroup CMSIS_CM3_core_LintCinfiguration CMSIS CM3 Core Lint Configuration
  28:./stm32f10x_libraries/CMSIS/CM3/CoreSupport/core_cm3.h ****  *
  29:./stm32f10x_libraries/CMSIS/CM3/CoreSupport/core_cm3.h ****  * List of Lint messages which will be suppressed and not shown:
  30:./stm32f10x_libraries/CMSIS/CM3/CoreSupport/core_cm3.h ****  *   - Error 10: \n
  31:./stm32f10x_libraries/CMSIS/CM3/CoreSupport/core_cm3.h ****  *     register uint32_t __regBasePri         __asm("basepri"); \n
  32:./stm32f10x_libraries/CMSIS/CM3/CoreSupport/core_cm3.h ****  *     Error 10: Expecting ';'
  33:./stm32f10x_libraries/CMSIS/CM3/CoreSupport/core_cm3.h ****  * .
  34:./stm32f10x_libraries/CMSIS/CM3/CoreSupport/core_cm3.h ****  *   - Error 530: \n
  35:./stm32f10x_libraries/CMSIS/CM3/CoreSupport/core_cm3.h ****  *     return(__regBasePri); \n
  36:./stm32f10x_libraries/CMSIS/CM3/CoreSupport/core_cm3.h ****  *     Warning 530: Symbol '__regBasePri' (line 264) not initialized
  37:./stm32f10x_libraries/CMSIS/CM3/CoreSupport/core_cm3.h ****  * . 
ARM GAS  C:\Users\user\AppData\Local\Temp\cc7qV6fF.s 			page 22


  38:./stm32f10x_libraries/CMSIS/CM3/CoreSupport/core_cm3.h ****  *   - Error 550: \n
  39:./stm32f10x_libraries/CMSIS/CM3/CoreSupport/core_cm3.h ****  *     __regBasePri = (basePri & 0x1ff); \n
  40:./stm32f10x_libraries/CMSIS/CM3/CoreSupport/core_cm3.h ****  *     Warning 550: Symbol '__regBasePri' (line 271) not accessed
  41:./stm32f10x_libraries/CMSIS/CM3/CoreSupport/core_cm3.h ****  * .
  42:./stm32f10x_libraries/CMSIS/CM3/CoreSupport/core_cm3.h ****  *   - Error 754: \n
  43:./stm32f10x_libraries/CMSIS/CM3/CoreSupport/core_cm3.h ****  *     uint32_t RESERVED0[24]; \n
  44:./stm32f10x_libraries/CMSIS/CM3/CoreSupport/core_cm3.h ****  *     Info 754: local structure member '<some, not used in the HAL>' (line 109, file ./cm3_core.h)
  45:./stm32f10x_libraries/CMSIS/CM3/CoreSupport/core_cm3.h ****  * .
  46:./stm32f10x_libraries/CMSIS/CM3/CoreSupport/core_cm3.h ****  *   - Error 750: \n
  47:./stm32f10x_libraries/CMSIS/CM3/CoreSupport/core_cm3.h ****  *     #define __CM3_CORE_H__ \n
  48:./stm32f10x_libraries/CMSIS/CM3/CoreSupport/core_cm3.h ****  *     Info 750: local macro '__CM3_CORE_H__' (line 43, file./cm3_core.h) not referenced
  49:./stm32f10x_libraries/CMSIS/CM3/CoreSupport/core_cm3.h ****  * .
  50:./stm32f10x_libraries/CMSIS/CM3/CoreSupport/core_cm3.h ****  *   - Error 528: \n
  51:./stm32f10x_libraries/CMSIS/CM3/CoreSupport/core_cm3.h ****  *     static __INLINE void NVIC_DisableIRQ(uint32_t IRQn) \n
  52:./stm32f10x_libraries/CMSIS/CM3/CoreSupport/core_cm3.h ****  *     Warning 528: Symbol 'NVIC_DisableIRQ(unsigned int)' (line 419, file ./cm3_core.h) not refere
  53:./stm32f10x_libraries/CMSIS/CM3/CoreSupport/core_cm3.h ****  * .
  54:./stm32f10x_libraries/CMSIS/CM3/CoreSupport/core_cm3.h ****  *   - Error 751: \n
  55:./stm32f10x_libraries/CMSIS/CM3/CoreSupport/core_cm3.h ****  *     } InterruptType_Type; \n
  56:./stm32f10x_libraries/CMSIS/CM3/CoreSupport/core_cm3.h ****  *     Info 751: local typedef 'InterruptType_Type' (line 170, file ./cm3_core.h) not referenced
  57:./stm32f10x_libraries/CMSIS/CM3/CoreSupport/core_cm3.h ****  * .
  58:./stm32f10x_libraries/CMSIS/CM3/CoreSupport/core_cm3.h ****  * Note:  To re-enable a Message, insert a space before 'lint' *
  59:./stm32f10x_libraries/CMSIS/CM3/CoreSupport/core_cm3.h ****  *
  60:./stm32f10x_libraries/CMSIS/CM3/CoreSupport/core_cm3.h ****  */
  61:./stm32f10x_libraries/CMSIS/CM3/CoreSupport/core_cm3.h **** 
  62:./stm32f10x_libraries/CMSIS/CM3/CoreSupport/core_cm3.h **** /*lint -save */
  63:./stm32f10x_libraries/CMSIS/CM3/CoreSupport/core_cm3.h **** /*lint -e10  */
  64:./stm32f10x_libraries/CMSIS/CM3/CoreSupport/core_cm3.h **** /*lint -e530 */
  65:./stm32f10x_libraries/CMSIS/CM3/CoreSupport/core_cm3.h **** /*lint -e550 */
  66:./stm32f10x_libraries/CMSIS/CM3/CoreSupport/core_cm3.h **** /*lint -e754 */
  67:./stm32f10x_libraries/CMSIS/CM3/CoreSupport/core_cm3.h **** /*lint -e750 */
  68:./stm32f10x_libraries/CMSIS/CM3/CoreSupport/core_cm3.h **** /*lint -e528 */
  69:./stm32f10x_libraries/CMSIS/CM3/CoreSupport/core_cm3.h **** /*lint -e751 */
  70:./stm32f10x_libraries/CMSIS/CM3/CoreSupport/core_cm3.h **** 
  71:./stm32f10x_libraries/CMSIS/CM3/CoreSupport/core_cm3.h **** 
  72:./stm32f10x_libraries/CMSIS/CM3/CoreSupport/core_cm3.h **** /** @addtogroup CMSIS_CM3_core_definitions CM3 Core Definitions
  73:./stm32f10x_libraries/CMSIS/CM3/CoreSupport/core_cm3.h ****   This file defines all structures and symbols for CMSIS core:
  74:./stm32f10x_libraries/CMSIS/CM3/CoreSupport/core_cm3.h ****     - CMSIS version number
  75:./stm32f10x_libraries/CMSIS/CM3/CoreSupport/core_cm3.h ****     - Cortex-M core registers and bitfields
  76:./stm32f10x_libraries/CMSIS/CM3/CoreSupport/core_cm3.h ****     - Cortex-M core peripheral base address
  77:./stm32f10x_libraries/CMSIS/CM3/CoreSupport/core_cm3.h ****   @{
  78:./stm32f10x_libraries/CMSIS/CM3/CoreSupport/core_cm3.h ****  */
  79:./stm32f10x_libraries/CMSIS/CM3/CoreSupport/core_cm3.h **** 
  80:./stm32f10x_libraries/CMSIS/CM3/CoreSupport/core_cm3.h **** #ifdef __cplusplus
  81:./stm32f10x_libraries/CMSIS/CM3/CoreSupport/core_cm3.h ****  extern "C" {
  82:./stm32f10x_libraries/CMSIS/CM3/CoreSupport/core_cm3.h **** #endif 
  83:./stm32f10x_libraries/CMSIS/CM3/CoreSupport/core_cm3.h **** 
  84:./stm32f10x_libraries/CMSIS/CM3/CoreSupport/core_cm3.h **** #define __CM3_CMSIS_VERSION_MAIN  (0x01)                                                       /*!<
  85:./stm32f10x_libraries/CMSIS/CM3/CoreSupport/core_cm3.h **** #define __CM3_CMSIS_VERSION_SUB   (0x30)                                                       /*!<
  86:./stm32f10x_libraries/CMSIS/CM3/CoreSupport/core_cm3.h **** #define __CM3_CMSIS_VERSION       ((__CM3_CMSIS_VERSION_MAIN << 16) | __CM3_CMSIS_VERSION_SUB) /*!<
  87:./stm32f10x_libraries/CMSIS/CM3/CoreSupport/core_cm3.h **** 
  88:./stm32f10x_libraries/CMSIS/CM3/CoreSupport/core_cm3.h **** #define __CORTEX_M                (0x03)                                                       /*!<
  89:./stm32f10x_libraries/CMSIS/CM3/CoreSupport/core_cm3.h **** 
  90:./stm32f10x_libraries/CMSIS/CM3/CoreSupport/core_cm3.h **** #include <stdint.h>                           /* Include standard types */
  91:./stm32f10x_libraries/CMSIS/CM3/CoreSupport/core_cm3.h **** 
  92:./stm32f10x_libraries/CMSIS/CM3/CoreSupport/core_cm3.h **** #if defined (__ICCARM__)
  93:./stm32f10x_libraries/CMSIS/CM3/CoreSupport/core_cm3.h ****   #include <intrinsics.h>                     /* IAR Intrinsics   */
  94:./stm32f10x_libraries/CMSIS/CM3/CoreSupport/core_cm3.h **** #endif
ARM GAS  C:\Users\user\AppData\Local\Temp\cc7qV6fF.s 			page 23


  95:./stm32f10x_libraries/CMSIS/CM3/CoreSupport/core_cm3.h **** 
  96:./stm32f10x_libraries/CMSIS/CM3/CoreSupport/core_cm3.h **** 
  97:./stm32f10x_libraries/CMSIS/CM3/CoreSupport/core_cm3.h **** #ifndef __NVIC_PRIO_BITS
  98:./stm32f10x_libraries/CMSIS/CM3/CoreSupport/core_cm3.h ****   #define __NVIC_PRIO_BITS    4               /*!< standard definition for NVIC Priority Bits */
  99:./stm32f10x_libraries/CMSIS/CM3/CoreSupport/core_cm3.h **** #endif
 100:./stm32f10x_libraries/CMSIS/CM3/CoreSupport/core_cm3.h **** 
 101:./stm32f10x_libraries/CMSIS/CM3/CoreSupport/core_cm3.h **** 
 102:./stm32f10x_libraries/CMSIS/CM3/CoreSupport/core_cm3.h **** 
 103:./stm32f10x_libraries/CMSIS/CM3/CoreSupport/core_cm3.h **** 
 104:./stm32f10x_libraries/CMSIS/CM3/CoreSupport/core_cm3.h **** /**
 105:./stm32f10x_libraries/CMSIS/CM3/CoreSupport/core_cm3.h ****  * IO definitions
 106:./stm32f10x_libraries/CMSIS/CM3/CoreSupport/core_cm3.h ****  *
 107:./stm32f10x_libraries/CMSIS/CM3/CoreSupport/core_cm3.h ****  * define access restrictions to peripheral registers
 108:./stm32f10x_libraries/CMSIS/CM3/CoreSupport/core_cm3.h ****  */
 109:./stm32f10x_libraries/CMSIS/CM3/CoreSupport/core_cm3.h **** 
 110:./stm32f10x_libraries/CMSIS/CM3/CoreSupport/core_cm3.h **** #ifdef __cplusplus
 111:./stm32f10x_libraries/CMSIS/CM3/CoreSupport/core_cm3.h ****   #define     __I     volatile                /*!< defines 'read only' permissions      */
 112:./stm32f10x_libraries/CMSIS/CM3/CoreSupport/core_cm3.h **** #else
 113:./stm32f10x_libraries/CMSIS/CM3/CoreSupport/core_cm3.h ****   #define     __I     volatile const          /*!< defines 'read only' permissions      */
 114:./stm32f10x_libraries/CMSIS/CM3/CoreSupport/core_cm3.h **** #endif
 115:./stm32f10x_libraries/CMSIS/CM3/CoreSupport/core_cm3.h **** #define     __O     volatile                  /*!< defines 'write only' permissions     */
 116:./stm32f10x_libraries/CMSIS/CM3/CoreSupport/core_cm3.h **** #define     __IO    volatile                  /*!< defines 'read / write' permissions   */
 117:./stm32f10x_libraries/CMSIS/CM3/CoreSupport/core_cm3.h **** 
 118:./stm32f10x_libraries/CMSIS/CM3/CoreSupport/core_cm3.h **** 
 119:./stm32f10x_libraries/CMSIS/CM3/CoreSupport/core_cm3.h **** 
 120:./stm32f10x_libraries/CMSIS/CM3/CoreSupport/core_cm3.h **** /*******************************************************************************
 121:./stm32f10x_libraries/CMSIS/CM3/CoreSupport/core_cm3.h ****  *                 Register Abstraction
 122:./stm32f10x_libraries/CMSIS/CM3/CoreSupport/core_cm3.h ****  ******************************************************************************/
 123:./stm32f10x_libraries/CMSIS/CM3/CoreSupport/core_cm3.h **** /** @addtogroup CMSIS_CM3_core_register CMSIS CM3 Core Register
 124:./stm32f10x_libraries/CMSIS/CM3/CoreSupport/core_cm3.h ****  @{
 125:./stm32f10x_libraries/CMSIS/CM3/CoreSupport/core_cm3.h **** */
 126:./stm32f10x_libraries/CMSIS/CM3/CoreSupport/core_cm3.h **** 
 127:./stm32f10x_libraries/CMSIS/CM3/CoreSupport/core_cm3.h **** 
 128:./stm32f10x_libraries/CMSIS/CM3/CoreSupport/core_cm3.h **** /** @addtogroup CMSIS_CM3_NVIC CMSIS CM3 NVIC
 129:./stm32f10x_libraries/CMSIS/CM3/CoreSupport/core_cm3.h ****   memory mapped structure for Nested Vectored Interrupt Controller (NVIC)
 130:./stm32f10x_libraries/CMSIS/CM3/CoreSupport/core_cm3.h ****   @{
 131:./stm32f10x_libraries/CMSIS/CM3/CoreSupport/core_cm3.h ****  */
 132:./stm32f10x_libraries/CMSIS/CM3/CoreSupport/core_cm3.h **** typedef struct
 133:./stm32f10x_libraries/CMSIS/CM3/CoreSupport/core_cm3.h **** {
 134:./stm32f10x_libraries/CMSIS/CM3/CoreSupport/core_cm3.h ****   __IO uint32_t ISER[8];                      /*!< Offset: 0x000  Interrupt Set Enable Register    
 135:./stm32f10x_libraries/CMSIS/CM3/CoreSupport/core_cm3.h ****        uint32_t RESERVED0[24];                                   
 136:./stm32f10x_libraries/CMSIS/CM3/CoreSupport/core_cm3.h ****   __IO uint32_t ICER[8];                      /*!< Offset: 0x080  Interrupt Clear Enable Register  
 137:./stm32f10x_libraries/CMSIS/CM3/CoreSupport/core_cm3.h ****        uint32_t RSERVED1[24];                                    
 138:./stm32f10x_libraries/CMSIS/CM3/CoreSupport/core_cm3.h ****   __IO uint32_t ISPR[8];                      /*!< Offset: 0x100  Interrupt Set Pending Register   
 139:./stm32f10x_libraries/CMSIS/CM3/CoreSupport/core_cm3.h ****        uint32_t RESERVED2[24];                                   
 140:./stm32f10x_libraries/CMSIS/CM3/CoreSupport/core_cm3.h ****   __IO uint32_t ICPR[8];                      /*!< Offset: 0x180  Interrupt Clear Pending Register 
 141:./stm32f10x_libraries/CMSIS/CM3/CoreSupport/core_cm3.h ****        uint32_t RESERVED3[24];                                   
 142:./stm32f10x_libraries/CMSIS/CM3/CoreSupport/core_cm3.h ****   __IO uint32_t IABR[8];                      /*!< Offset: 0x200  Interrupt Active bit Register    
 143:./stm32f10x_libraries/CMSIS/CM3/CoreSupport/core_cm3.h ****        uint32_t RESERVED4[56];                                   
 144:./stm32f10x_libraries/CMSIS/CM3/CoreSupport/core_cm3.h ****   __IO uint8_t  IP[240];                      /*!< Offset: 0x300  Interrupt Priority Register (8Bit
 145:./stm32f10x_libraries/CMSIS/CM3/CoreSupport/core_cm3.h ****        uint32_t RESERVED5[644];                                  
 146:./stm32f10x_libraries/CMSIS/CM3/CoreSupport/core_cm3.h ****   __O  uint32_t STIR;                         /*!< Offset: 0xE00  Software Trigger Interrupt Regist
 147:./stm32f10x_libraries/CMSIS/CM3/CoreSupport/core_cm3.h **** }  NVIC_Type;                                               
 148:./stm32f10x_libraries/CMSIS/CM3/CoreSupport/core_cm3.h **** /*@}*/ /* end of group CMSIS_CM3_NVIC */
 149:./stm32f10x_libraries/CMSIS/CM3/CoreSupport/core_cm3.h **** 
 150:./stm32f10x_libraries/CMSIS/CM3/CoreSupport/core_cm3.h **** 
 151:./stm32f10x_libraries/CMSIS/CM3/CoreSupport/core_cm3.h **** /** @addtogroup CMSIS_CM3_SCB CMSIS CM3 SCB
ARM GAS  C:\Users\user\AppData\Local\Temp\cc7qV6fF.s 			page 24


 152:./stm32f10x_libraries/CMSIS/CM3/CoreSupport/core_cm3.h ****   memory mapped structure for System Control Block (SCB)
 153:./stm32f10x_libraries/CMSIS/CM3/CoreSupport/core_cm3.h ****   @{
 154:./stm32f10x_libraries/CMSIS/CM3/CoreSupport/core_cm3.h ****  */
 155:./stm32f10x_libraries/CMSIS/CM3/CoreSupport/core_cm3.h **** typedef struct
 156:./stm32f10x_libraries/CMSIS/CM3/CoreSupport/core_cm3.h **** {
 157:./stm32f10x_libraries/CMSIS/CM3/CoreSupport/core_cm3.h ****   __I  uint32_t CPUID;                        /*!< Offset: 0x00  CPU ID Base Register              
 158:./stm32f10x_libraries/CMSIS/CM3/CoreSupport/core_cm3.h ****   __IO uint32_t ICSR;                         /*!< Offset: 0x04  Interrupt Control State Register  
 159:./stm32f10x_libraries/CMSIS/CM3/CoreSupport/core_cm3.h ****   __IO uint32_t VTOR;                         /*!< Offset: 0x08  Vector Table Offset Register      
 160:./stm32f10x_libraries/CMSIS/CM3/CoreSupport/core_cm3.h ****   __IO uint32_t AIRCR;                        /*!< Offset: 0x0C  Application Interrupt / Reset Cont
 161:./stm32f10x_libraries/CMSIS/CM3/CoreSupport/core_cm3.h ****   __IO uint32_t SCR;                          /*!< Offset: 0x10  System Control Register           
 162:./stm32f10x_libraries/CMSIS/CM3/CoreSupport/core_cm3.h ****   __IO uint32_t CCR;                          /*!< Offset: 0x14  Configuration Control Register    
 163:./stm32f10x_libraries/CMSIS/CM3/CoreSupport/core_cm3.h ****   __IO uint8_t  SHP[12];                      /*!< Offset: 0x18  System Handlers Priority Registers
 164:./stm32f10x_libraries/CMSIS/CM3/CoreSupport/core_cm3.h ****   __IO uint32_t SHCSR;                        /*!< Offset: 0x24  System Handler Control and State R
 165:./stm32f10x_libraries/CMSIS/CM3/CoreSupport/core_cm3.h ****   __IO uint32_t CFSR;                         /*!< Offset: 0x28  Configurable Fault Status Register
 166:./stm32f10x_libraries/CMSIS/CM3/CoreSupport/core_cm3.h ****   __IO uint32_t HFSR;                         /*!< Offset: 0x2C  Hard Fault Status Register        
 167:./stm32f10x_libraries/CMSIS/CM3/CoreSupport/core_cm3.h ****   __IO uint32_t DFSR;                         /*!< Offset: 0x30  Debug Fault Status Register       
 168:./stm32f10x_libraries/CMSIS/CM3/CoreSupport/core_cm3.h ****   __IO uint32_t MMFAR;                        /*!< Offset: 0x34  Mem Manage Address Register       
 169:./stm32f10x_libraries/CMSIS/CM3/CoreSupport/core_cm3.h ****   __IO uint32_t BFAR;                         /*!< Offset: 0x38  Bus Fault Address Register        
 170:./stm32f10x_libraries/CMSIS/CM3/CoreSupport/core_cm3.h ****   __IO uint32_t AFSR;                         /*!< Offset: 0x3C  Auxiliary Fault Status Register   
 171:./stm32f10x_libraries/CMSIS/CM3/CoreSupport/core_cm3.h ****   __I  uint32_t PFR[2];                       /*!< Offset: 0x40  Processor Feature Register        
 172:./stm32f10x_libraries/CMSIS/CM3/CoreSupport/core_cm3.h ****   __I  uint32_t DFR;                          /*!< Offset: 0x48  Debug Feature Register            
 173:./stm32f10x_libraries/CMSIS/CM3/CoreSupport/core_cm3.h ****   __I  uint32_t ADR;                          /*!< Offset: 0x4C  Auxiliary Feature Register        
 174:./stm32f10x_libraries/CMSIS/CM3/CoreSupport/core_cm3.h ****   __I  uint32_t MMFR[4];                      /*!< Offset: 0x50  Memory Model Feature Register     
 175:./stm32f10x_libraries/CMSIS/CM3/CoreSupport/core_cm3.h ****   __I  uint32_t ISAR[5];                      /*!< Offset: 0x60  ISA Feature Register              
 176:./stm32f10x_libraries/CMSIS/CM3/CoreSupport/core_cm3.h **** } SCB_Type;                                                
 177:./stm32f10x_libraries/CMSIS/CM3/CoreSupport/core_cm3.h **** 
 178:./stm32f10x_libraries/CMSIS/CM3/CoreSupport/core_cm3.h **** /* SCB CPUID Register Definitions */
 179:./stm32f10x_libraries/CMSIS/CM3/CoreSupport/core_cm3.h **** #define SCB_CPUID_IMPLEMENTER_Pos          24                                             /*!< SCB 
 180:./stm32f10x_libraries/CMSIS/CM3/CoreSupport/core_cm3.h **** #define SCB_CPUID_IMPLEMENTER_Msk          (0xFFul << SCB_CPUID_IMPLEMENTER_Pos)          /*!< SCB 
 181:./stm32f10x_libraries/CMSIS/CM3/CoreSupport/core_cm3.h **** 
 182:./stm32f10x_libraries/CMSIS/CM3/CoreSupport/core_cm3.h **** #define SCB_CPUID_VARIANT_Pos              20                                             /*!< SCB 
 183:./stm32f10x_libraries/CMSIS/CM3/CoreSupport/core_cm3.h **** #define SCB_CPUID_VARIANT_Msk              (0xFul << SCB_CPUID_VARIANT_Pos)               /*!< SCB 
 184:./stm32f10x_libraries/CMSIS/CM3/CoreSupport/core_cm3.h **** 
 185:./stm32f10x_libraries/CMSIS/CM3/CoreSupport/core_cm3.h **** #define SCB_CPUID_PARTNO_Pos                4                                             /*!< SCB 
 186:./stm32f10x_libraries/CMSIS/CM3/CoreSupport/core_cm3.h **** #define SCB_CPUID_PARTNO_Msk               (0xFFFul << SCB_CPUID_PARTNO_Pos)              /*!< SCB 
 187:./stm32f10x_libraries/CMSIS/CM3/CoreSupport/core_cm3.h **** 
 188:./stm32f10x_libraries/CMSIS/CM3/CoreSupport/core_cm3.h **** #define SCB_CPUID_REVISION_Pos              0                                             /*!< SCB 
 189:./stm32f10x_libraries/CMSIS/CM3/CoreSupport/core_cm3.h **** #define SCB_CPUID_REVISION_Msk             (0xFul << SCB_CPUID_REVISION_Pos)              /*!< SCB 
 190:./stm32f10x_libraries/CMSIS/CM3/CoreSupport/core_cm3.h **** 
 191:./stm32f10x_libraries/CMSIS/CM3/CoreSupport/core_cm3.h **** /* SCB Interrupt Control State Register Definitions */
 192:./stm32f10x_libraries/CMSIS/CM3/CoreSupport/core_cm3.h **** #define SCB_ICSR_NMIPENDSET_Pos            31                                             /*!< SCB 
 193:./stm32f10x_libraries/CMSIS/CM3/CoreSupport/core_cm3.h **** #define SCB_ICSR_NMIPENDSET_Msk            (1ul << SCB_ICSR_NMIPENDSET_Pos)               /*!< SCB 
 194:./stm32f10x_libraries/CMSIS/CM3/CoreSupport/core_cm3.h **** 
 195:./stm32f10x_libraries/CMSIS/CM3/CoreSupport/core_cm3.h **** #define SCB_ICSR_PENDSVSET_Pos             28                                             /*!< SCB 
 196:./stm32f10x_libraries/CMSIS/CM3/CoreSupport/core_cm3.h **** #define SCB_ICSR_PENDSVSET_Msk             (1ul << SCB_ICSR_PENDSVSET_Pos)                /*!< SCB 
 197:./stm32f10x_libraries/CMSIS/CM3/CoreSupport/core_cm3.h **** 
 198:./stm32f10x_libraries/CMSIS/CM3/CoreSupport/core_cm3.h **** #define SCB_ICSR_PENDSVCLR_Pos             27                                             /*!< SCB 
 199:./stm32f10x_libraries/CMSIS/CM3/CoreSupport/core_cm3.h **** #define SCB_ICSR_PENDSVCLR_Msk             (1ul << SCB_ICSR_PENDSVCLR_Pos)                /*!< SCB 
 200:./stm32f10x_libraries/CMSIS/CM3/CoreSupport/core_cm3.h **** 
 201:./stm32f10x_libraries/CMSIS/CM3/CoreSupport/core_cm3.h **** #define SCB_ICSR_PENDSTSET_Pos             26                                             /*!< SCB 
 202:./stm32f10x_libraries/CMSIS/CM3/CoreSupport/core_cm3.h **** #define SCB_ICSR_PENDSTSET_Msk             (1ul << SCB_ICSR_PENDSTSET_Pos)                /*!< SCB 
 203:./stm32f10x_libraries/CMSIS/CM3/CoreSupport/core_cm3.h **** 
 204:./stm32f10x_libraries/CMSIS/CM3/CoreSupport/core_cm3.h **** #define SCB_ICSR_PENDSTCLR_Pos             25                                             /*!< SCB 
 205:./stm32f10x_libraries/CMSIS/CM3/CoreSupport/core_cm3.h **** #define SCB_ICSR_PENDSTCLR_Msk             (1ul << SCB_ICSR_PENDSTCLR_Pos)                /*!< SCB 
 206:./stm32f10x_libraries/CMSIS/CM3/CoreSupport/core_cm3.h **** 
 207:./stm32f10x_libraries/CMSIS/CM3/CoreSupport/core_cm3.h **** #define SCB_ICSR_ISRPREEMPT_Pos            23                                             /*!< SCB 
 208:./stm32f10x_libraries/CMSIS/CM3/CoreSupport/core_cm3.h **** #define SCB_ICSR_ISRPREEMPT_Msk            (1ul << SCB_ICSR_ISRPREEMPT_Pos)               /*!< SCB 
ARM GAS  C:\Users\user\AppData\Local\Temp\cc7qV6fF.s 			page 25


 209:./stm32f10x_libraries/CMSIS/CM3/CoreSupport/core_cm3.h **** 
 210:./stm32f10x_libraries/CMSIS/CM3/CoreSupport/core_cm3.h **** #define SCB_ICSR_ISRPENDING_Pos            22                                             /*!< SCB 
 211:./stm32f10x_libraries/CMSIS/CM3/CoreSupport/core_cm3.h **** #define SCB_ICSR_ISRPENDING_Msk            (1ul << SCB_ICSR_ISRPENDING_Pos)               /*!< SCB 
 212:./stm32f10x_libraries/CMSIS/CM3/CoreSupport/core_cm3.h **** 
 213:./stm32f10x_libraries/CMSIS/CM3/CoreSupport/core_cm3.h **** #define SCB_ICSR_VECTPENDING_Pos           12                                             /*!< SCB 
 214:./stm32f10x_libraries/CMSIS/CM3/CoreSupport/core_cm3.h **** #define SCB_ICSR_VECTPENDING_Msk           (0x1FFul << SCB_ICSR_VECTPENDING_Pos)          /*!< SCB 
 215:./stm32f10x_libraries/CMSIS/CM3/CoreSupport/core_cm3.h **** 
 216:./stm32f10x_libraries/CMSIS/CM3/CoreSupport/core_cm3.h **** #define SCB_ICSR_RETTOBASE_Pos             11                                             /*!< SCB 
 217:./stm32f10x_libraries/CMSIS/CM3/CoreSupport/core_cm3.h **** #define SCB_ICSR_RETTOBASE_Msk             (1ul << SCB_ICSR_RETTOBASE_Pos)                /*!< SCB 
 218:./stm32f10x_libraries/CMSIS/CM3/CoreSupport/core_cm3.h **** 
 219:./stm32f10x_libraries/CMSIS/CM3/CoreSupport/core_cm3.h **** #define SCB_ICSR_VECTACTIVE_Pos             0                                             /*!< SCB 
 220:./stm32f10x_libraries/CMSIS/CM3/CoreSupport/core_cm3.h **** #define SCB_ICSR_VECTACTIVE_Msk            (0x1FFul << SCB_ICSR_VECTACTIVE_Pos)           /*!< SCB 
 221:./stm32f10x_libraries/CMSIS/CM3/CoreSupport/core_cm3.h **** 
 222:./stm32f10x_libraries/CMSIS/CM3/CoreSupport/core_cm3.h **** /* SCB Interrupt Control State Register Definitions */
 223:./stm32f10x_libraries/CMSIS/CM3/CoreSupport/core_cm3.h **** #define SCB_VTOR_TBLBASE_Pos               29                                             /*!< SCB 
 224:./stm32f10x_libraries/CMSIS/CM3/CoreSupport/core_cm3.h **** #define SCB_VTOR_TBLBASE_Msk               (0x1FFul << SCB_VTOR_TBLBASE_Pos)              /*!< SCB 
 225:./stm32f10x_libraries/CMSIS/CM3/CoreSupport/core_cm3.h **** 
 226:./stm32f10x_libraries/CMSIS/CM3/CoreSupport/core_cm3.h **** #define SCB_VTOR_TBLOFF_Pos                 7                                             /*!< SCB 
 227:./stm32f10x_libraries/CMSIS/CM3/CoreSupport/core_cm3.h **** #define SCB_VTOR_TBLOFF_Msk                (0x3FFFFFul << SCB_VTOR_TBLOFF_Pos)            /*!< SCB 
 228:./stm32f10x_libraries/CMSIS/CM3/CoreSupport/core_cm3.h **** 
 229:./stm32f10x_libraries/CMSIS/CM3/CoreSupport/core_cm3.h **** /* SCB Application Interrupt and Reset Control Register Definitions */
 230:./stm32f10x_libraries/CMSIS/CM3/CoreSupport/core_cm3.h **** #define SCB_AIRCR_VECTKEY_Pos              16                                             /*!< SCB 
 231:./stm32f10x_libraries/CMSIS/CM3/CoreSupport/core_cm3.h **** #define SCB_AIRCR_VECTKEY_Msk              (0xFFFFul << SCB_AIRCR_VECTKEY_Pos)            /*!< SCB 
 232:./stm32f10x_libraries/CMSIS/CM3/CoreSupport/core_cm3.h **** 
 233:./stm32f10x_libraries/CMSIS/CM3/CoreSupport/core_cm3.h **** #define SCB_AIRCR_VECTKEYSTAT_Pos          16                                             /*!< SCB 
 234:./stm32f10x_libraries/CMSIS/CM3/CoreSupport/core_cm3.h **** #define SCB_AIRCR_VECTKEYSTAT_Msk          (0xFFFFul << SCB_AIRCR_VECTKEYSTAT_Pos)        /*!< SCB 
 235:./stm32f10x_libraries/CMSIS/CM3/CoreSupport/core_cm3.h **** 
 236:./stm32f10x_libraries/CMSIS/CM3/CoreSupport/core_cm3.h **** #define SCB_AIRCR_ENDIANESS_Pos            15                                             /*!< SCB 
 237:./stm32f10x_libraries/CMSIS/CM3/CoreSupport/core_cm3.h **** #define SCB_AIRCR_ENDIANESS_Msk            (1ul << SCB_AIRCR_ENDIANESS_Pos)               /*!< SCB 
 238:./stm32f10x_libraries/CMSIS/CM3/CoreSupport/core_cm3.h **** 
 239:./stm32f10x_libraries/CMSIS/CM3/CoreSupport/core_cm3.h **** #define SCB_AIRCR_PRIGROUP_Pos              8                                             /*!< SCB 
 240:./stm32f10x_libraries/CMSIS/CM3/CoreSupport/core_cm3.h **** #define SCB_AIRCR_PRIGROUP_Msk             (7ul << SCB_AIRCR_PRIGROUP_Pos)                /*!< SCB 
 241:./stm32f10x_libraries/CMSIS/CM3/CoreSupport/core_cm3.h **** 
 242:./stm32f10x_libraries/CMSIS/CM3/CoreSupport/core_cm3.h **** #define SCB_AIRCR_SYSRESETREQ_Pos           2                                             /*!< SCB 
 243:./stm32f10x_libraries/CMSIS/CM3/CoreSupport/core_cm3.h **** #define SCB_AIRCR_SYSRESETREQ_Msk          (1ul << SCB_AIRCR_SYSRESETREQ_Pos)             /*!< SCB 
 244:./stm32f10x_libraries/CMSIS/CM3/CoreSupport/core_cm3.h **** 
 245:./stm32f10x_libraries/CMSIS/CM3/CoreSupport/core_cm3.h **** #define SCB_AIRCR_VECTCLRACTIVE_Pos         1                                             /*!< SCB 
 246:./stm32f10x_libraries/CMSIS/CM3/CoreSupport/core_cm3.h **** #define SCB_AIRCR_VECTCLRACTIVE_Msk        (1ul << SCB_AIRCR_VECTCLRACTIVE_Pos)           /*!< SCB 
 247:./stm32f10x_libraries/CMSIS/CM3/CoreSupport/core_cm3.h **** 
 248:./stm32f10x_libraries/CMSIS/CM3/CoreSupport/core_cm3.h **** #define SCB_AIRCR_VECTRESET_Pos             0                                             /*!< SCB 
 249:./stm32f10x_libraries/CMSIS/CM3/CoreSupport/core_cm3.h **** #define SCB_AIRCR_VECTRESET_Msk            (1ul << SCB_AIRCR_VECTRESET_Pos)               /*!< SCB 
 250:./stm32f10x_libraries/CMSIS/CM3/CoreSupport/core_cm3.h **** 
 251:./stm32f10x_libraries/CMSIS/CM3/CoreSupport/core_cm3.h **** /* SCB System Control Register Definitions */
 252:./stm32f10x_libraries/CMSIS/CM3/CoreSupport/core_cm3.h **** #define SCB_SCR_SEVONPEND_Pos               4                                             /*!< SCB 
 253:./stm32f10x_libraries/CMSIS/CM3/CoreSupport/core_cm3.h **** #define SCB_SCR_SEVONPEND_Msk              (1ul << SCB_SCR_SEVONPEND_Pos)                 /*!< SCB 
 254:./stm32f10x_libraries/CMSIS/CM3/CoreSupport/core_cm3.h **** 
 255:./stm32f10x_libraries/CMSIS/CM3/CoreSupport/core_cm3.h **** #define SCB_SCR_SLEEPDEEP_Pos               2                                             /*!< SCB 
 256:./stm32f10x_libraries/CMSIS/CM3/CoreSupport/core_cm3.h **** #define SCB_SCR_SLEEPDEEP_Msk              (1ul << SCB_SCR_SLEEPDEEP_Pos)                 /*!< SCB 
 257:./stm32f10x_libraries/CMSIS/CM3/CoreSupport/core_cm3.h **** 
 258:./stm32f10x_libraries/CMSIS/CM3/CoreSupport/core_cm3.h **** #define SCB_SCR_SLEEPONEXIT_Pos             1                                             /*!< SCB 
 259:./stm32f10x_libraries/CMSIS/CM3/CoreSupport/core_cm3.h **** #define SCB_SCR_SLEEPONEXIT_Msk            (1ul << SCB_SCR_SLEEPONEXIT_Pos)               /*!< SCB 
 260:./stm32f10x_libraries/CMSIS/CM3/CoreSupport/core_cm3.h **** 
 261:./stm32f10x_libraries/CMSIS/CM3/CoreSupport/core_cm3.h **** /* SCB Configuration Control Register Definitions */
 262:./stm32f10x_libraries/CMSIS/CM3/CoreSupport/core_cm3.h **** #define SCB_CCR_STKALIGN_Pos                9                                             /*!< SCB 
 263:./stm32f10x_libraries/CMSIS/CM3/CoreSupport/core_cm3.h **** #define SCB_CCR_STKALIGN_Msk               (1ul << SCB_CCR_STKALIGN_Pos)                  /*!< SCB 
 264:./stm32f10x_libraries/CMSIS/CM3/CoreSupport/core_cm3.h **** 
 265:./stm32f10x_libraries/CMSIS/CM3/CoreSupport/core_cm3.h **** #define SCB_CCR_BFHFNMIGN_Pos               8                                             /*!< SCB 
ARM GAS  C:\Users\user\AppData\Local\Temp\cc7qV6fF.s 			page 26


 266:./stm32f10x_libraries/CMSIS/CM3/CoreSupport/core_cm3.h **** #define SCB_CCR_BFHFNMIGN_Msk              (1ul << SCB_CCR_BFHFNMIGN_Pos)                 /*!< SCB 
 267:./stm32f10x_libraries/CMSIS/CM3/CoreSupport/core_cm3.h **** 
 268:./stm32f10x_libraries/CMSIS/CM3/CoreSupport/core_cm3.h **** #define SCB_CCR_DIV_0_TRP_Pos               4                                             /*!< SCB 
 269:./stm32f10x_libraries/CMSIS/CM3/CoreSupport/core_cm3.h **** #define SCB_CCR_DIV_0_TRP_Msk              (1ul << SCB_CCR_DIV_0_TRP_Pos)                 /*!< SCB 
 270:./stm32f10x_libraries/CMSIS/CM3/CoreSupport/core_cm3.h **** 
 271:./stm32f10x_libraries/CMSIS/CM3/CoreSupport/core_cm3.h **** #define SCB_CCR_UNALIGN_TRP_Pos             3                                             /*!< SCB 
 272:./stm32f10x_libraries/CMSIS/CM3/CoreSupport/core_cm3.h **** #define SCB_CCR_UNALIGN_TRP_Msk            (1ul << SCB_CCR_UNALIGN_TRP_Pos)               /*!< SCB 
 273:./stm32f10x_libraries/CMSIS/CM3/CoreSupport/core_cm3.h **** 
 274:./stm32f10x_libraries/CMSIS/CM3/CoreSupport/core_cm3.h **** #define SCB_CCR_USERSETMPEND_Pos            1                                             /*!< SCB 
 275:./stm32f10x_libraries/CMSIS/CM3/CoreSupport/core_cm3.h **** #define SCB_CCR_USERSETMPEND_Msk           (1ul << SCB_CCR_USERSETMPEND_Pos)              /*!< SCB 
 276:./stm32f10x_libraries/CMSIS/CM3/CoreSupport/core_cm3.h **** 
 277:./stm32f10x_libraries/CMSIS/CM3/CoreSupport/core_cm3.h **** #define SCB_CCR_NONBASETHRDENA_Pos          0                                             /*!< SCB 
 278:./stm32f10x_libraries/CMSIS/CM3/CoreSupport/core_cm3.h **** #define SCB_CCR_NONBASETHRDENA_Msk         (1ul << SCB_CCR_NONBASETHRDENA_Pos)            /*!< SCB 
 279:./stm32f10x_libraries/CMSIS/CM3/CoreSupport/core_cm3.h **** 
 280:./stm32f10x_libraries/CMSIS/CM3/CoreSupport/core_cm3.h **** /* SCB System Handler Control and State Register Definitions */
 281:./stm32f10x_libraries/CMSIS/CM3/CoreSupport/core_cm3.h **** #define SCB_SHCSR_USGFAULTENA_Pos          18                                             /*!< SCB 
 282:./stm32f10x_libraries/CMSIS/CM3/CoreSupport/core_cm3.h **** #define SCB_SHCSR_USGFAULTENA_Msk          (1ul << SCB_SHCSR_USGFAULTENA_Pos)             /*!< SCB 
 283:./stm32f10x_libraries/CMSIS/CM3/CoreSupport/core_cm3.h **** 
 284:./stm32f10x_libraries/CMSIS/CM3/CoreSupport/core_cm3.h **** #define SCB_SHCSR_BUSFAULTENA_Pos          17                                             /*!< SCB 
 285:./stm32f10x_libraries/CMSIS/CM3/CoreSupport/core_cm3.h **** #define SCB_SHCSR_BUSFAULTENA_Msk          (1ul << SCB_SHCSR_BUSFAULTENA_Pos)             /*!< SCB 
 286:./stm32f10x_libraries/CMSIS/CM3/CoreSupport/core_cm3.h **** 
 287:./stm32f10x_libraries/CMSIS/CM3/CoreSupport/core_cm3.h **** #define SCB_SHCSR_MEMFAULTENA_Pos          16                                             /*!< SCB 
 288:./stm32f10x_libraries/CMSIS/CM3/CoreSupport/core_cm3.h **** #define SCB_SHCSR_MEMFAULTENA_Msk          (1ul << SCB_SHCSR_MEMFAULTENA_Pos)             /*!< SCB 
 289:./stm32f10x_libraries/CMSIS/CM3/CoreSupport/core_cm3.h **** 
 290:./stm32f10x_libraries/CMSIS/CM3/CoreSupport/core_cm3.h **** #define SCB_SHCSR_SVCALLPENDED_Pos         15                                             /*!< SCB 
 291:./stm32f10x_libraries/CMSIS/CM3/CoreSupport/core_cm3.h **** #define SCB_SHCSR_SVCALLPENDED_Msk         (1ul << SCB_SHCSR_SVCALLPENDED_Pos)            /*!< SCB 
 292:./stm32f10x_libraries/CMSIS/CM3/CoreSupport/core_cm3.h **** 
 293:./stm32f10x_libraries/CMSIS/CM3/CoreSupport/core_cm3.h **** #define SCB_SHCSR_BUSFAULTPENDED_Pos       14                                             /*!< SCB 
 294:./stm32f10x_libraries/CMSIS/CM3/CoreSupport/core_cm3.h **** #define SCB_SHCSR_BUSFAULTPENDED_Msk       (1ul << SCB_SHCSR_BUSFAULTPENDED_Pos)          /*!< SCB 
 295:./stm32f10x_libraries/CMSIS/CM3/CoreSupport/core_cm3.h **** 
 296:./stm32f10x_libraries/CMSIS/CM3/CoreSupport/core_cm3.h **** #define SCB_SHCSR_MEMFAULTPENDED_Pos       13                                             /*!< SCB 
 297:./stm32f10x_libraries/CMSIS/CM3/CoreSupport/core_cm3.h **** #define SCB_SHCSR_MEMFAULTPENDED_Msk       (1ul << SCB_SHCSR_MEMFAULTPENDED_Pos)          /*!< SCB 
 298:./stm32f10x_libraries/CMSIS/CM3/CoreSupport/core_cm3.h **** 
 299:./stm32f10x_libraries/CMSIS/CM3/CoreSupport/core_cm3.h **** #define SCB_SHCSR_USGFAULTPENDED_Pos       12                                             /*!< SCB 
 300:./stm32f10x_libraries/CMSIS/CM3/CoreSupport/core_cm3.h **** #define SCB_SHCSR_USGFAULTPENDED_Msk       (1ul << SCB_SHCSR_USGFAULTPENDED_Pos)          /*!< SCB 
 301:./stm32f10x_libraries/CMSIS/CM3/CoreSupport/core_cm3.h **** 
 302:./stm32f10x_libraries/CMSIS/CM3/CoreSupport/core_cm3.h **** #define SCB_SHCSR_SYSTICKACT_Pos           11                                             /*!< SCB 
 303:./stm32f10x_libraries/CMSIS/CM3/CoreSupport/core_cm3.h **** #define SCB_SHCSR_SYSTICKACT_Msk           (1ul << SCB_SHCSR_SYSTICKACT_Pos)              /*!< SCB 
 304:./stm32f10x_libraries/CMSIS/CM3/CoreSupport/core_cm3.h **** 
 305:./stm32f10x_libraries/CMSIS/CM3/CoreSupport/core_cm3.h **** #define SCB_SHCSR_PENDSVACT_Pos            10                                             /*!< SCB 
 306:./stm32f10x_libraries/CMSIS/CM3/CoreSupport/core_cm3.h **** #define SCB_SHCSR_PENDSVACT_Msk            (1ul << SCB_SHCSR_PENDSVACT_Pos)               /*!< SCB 
 307:./stm32f10x_libraries/CMSIS/CM3/CoreSupport/core_cm3.h **** 
 308:./stm32f10x_libraries/CMSIS/CM3/CoreSupport/core_cm3.h **** #define SCB_SHCSR_MONITORACT_Pos            8                                             /*!< SCB 
 309:./stm32f10x_libraries/CMSIS/CM3/CoreSupport/core_cm3.h **** #define SCB_SHCSR_MONITORACT_Msk           (1ul << SCB_SHCSR_MONITORACT_Pos)              /*!< SCB 
 310:./stm32f10x_libraries/CMSIS/CM3/CoreSupport/core_cm3.h **** 
 311:./stm32f10x_libraries/CMSIS/CM3/CoreSupport/core_cm3.h **** #define SCB_SHCSR_SVCALLACT_Pos             7                                             /*!< SCB 
 312:./stm32f10x_libraries/CMSIS/CM3/CoreSupport/core_cm3.h **** #define SCB_SHCSR_SVCALLACT_Msk            (1ul << SCB_SHCSR_SVCALLACT_Pos)               /*!< SCB 
 313:./stm32f10x_libraries/CMSIS/CM3/CoreSupport/core_cm3.h ****                                      
 314:./stm32f10x_libraries/CMSIS/CM3/CoreSupport/core_cm3.h **** #define SCB_SHCSR_USGFAULTACT_Pos           3                                             /*!< SCB 
 315:./stm32f10x_libraries/CMSIS/CM3/CoreSupport/core_cm3.h **** #define SCB_SHCSR_USGFAULTACT_Msk          (1ul << SCB_SHCSR_USGFAULTACT_Pos)             /*!< SCB 
 316:./stm32f10x_libraries/CMSIS/CM3/CoreSupport/core_cm3.h **** 
 317:./stm32f10x_libraries/CMSIS/CM3/CoreSupport/core_cm3.h **** #define SCB_SHCSR_BUSFAULTACT_Pos           1                                             /*!< SCB 
 318:./stm32f10x_libraries/CMSIS/CM3/CoreSupport/core_cm3.h **** #define SCB_SHCSR_BUSFAULTACT_Msk          (1ul << SCB_SHCSR_BUSFAULTACT_Pos)             /*!< SCB 
 319:./stm32f10x_libraries/CMSIS/CM3/CoreSupport/core_cm3.h **** 
 320:./stm32f10x_libraries/CMSIS/CM3/CoreSupport/core_cm3.h **** #define SCB_SHCSR_MEMFAULTACT_Pos           0                                             /*!< SCB 
 321:./stm32f10x_libraries/CMSIS/CM3/CoreSupport/core_cm3.h **** #define SCB_SHCSR_MEMFAULTACT_Msk          (1ul << SCB_SHCSR_MEMFAULTACT_Pos)             /*!< SCB 
 322:./stm32f10x_libraries/CMSIS/CM3/CoreSupport/core_cm3.h **** 
ARM GAS  C:\Users\user\AppData\Local\Temp\cc7qV6fF.s 			page 27


 323:./stm32f10x_libraries/CMSIS/CM3/CoreSupport/core_cm3.h **** /* SCB Configurable Fault Status Registers Definitions */
 324:./stm32f10x_libraries/CMSIS/CM3/CoreSupport/core_cm3.h **** #define SCB_CFSR_USGFAULTSR_Pos            16                                             /*!< SCB 
 325:./stm32f10x_libraries/CMSIS/CM3/CoreSupport/core_cm3.h **** #define SCB_CFSR_USGFAULTSR_Msk            (0xFFFFul << SCB_CFSR_USGFAULTSR_Pos)          /*!< SCB 
 326:./stm32f10x_libraries/CMSIS/CM3/CoreSupport/core_cm3.h **** 
 327:./stm32f10x_libraries/CMSIS/CM3/CoreSupport/core_cm3.h **** #define SCB_CFSR_BUSFAULTSR_Pos             8                                             /*!< SCB 
 328:./stm32f10x_libraries/CMSIS/CM3/CoreSupport/core_cm3.h **** #define SCB_CFSR_BUSFAULTSR_Msk            (0xFFul << SCB_CFSR_BUSFAULTSR_Pos)            /*!< SCB 
 329:./stm32f10x_libraries/CMSIS/CM3/CoreSupport/core_cm3.h **** 
 330:./stm32f10x_libraries/CMSIS/CM3/CoreSupport/core_cm3.h **** #define SCB_CFSR_MEMFAULTSR_Pos             0                                             /*!< SCB 
 331:./stm32f10x_libraries/CMSIS/CM3/CoreSupport/core_cm3.h **** #define SCB_CFSR_MEMFAULTSR_Msk            (0xFFul << SCB_CFSR_MEMFAULTSR_Pos)            /*!< SCB 
 332:./stm32f10x_libraries/CMSIS/CM3/CoreSupport/core_cm3.h **** 
 333:./stm32f10x_libraries/CMSIS/CM3/CoreSupport/core_cm3.h **** /* SCB Hard Fault Status Registers Definitions */
 334:./stm32f10x_libraries/CMSIS/CM3/CoreSupport/core_cm3.h **** #define SCB_HFSR_DEBUGEVT_Pos              31                                             /*!< SCB 
 335:./stm32f10x_libraries/CMSIS/CM3/CoreSupport/core_cm3.h **** #define SCB_HFSR_DEBUGEVT_Msk              (1ul << SCB_HFSR_DEBUGEVT_Pos)                 /*!< SCB 
 336:./stm32f10x_libraries/CMSIS/CM3/CoreSupport/core_cm3.h **** 
 337:./stm32f10x_libraries/CMSIS/CM3/CoreSupport/core_cm3.h **** #define SCB_HFSR_FORCED_Pos                30                                             /*!< SCB 
 338:./stm32f10x_libraries/CMSIS/CM3/CoreSupport/core_cm3.h **** #define SCB_HFSR_FORCED_Msk                (1ul << SCB_HFSR_FORCED_Pos)                   /*!< SCB 
 339:./stm32f10x_libraries/CMSIS/CM3/CoreSupport/core_cm3.h **** 
 340:./stm32f10x_libraries/CMSIS/CM3/CoreSupport/core_cm3.h **** #define SCB_HFSR_VECTTBL_Pos                1                                             /*!< SCB 
 341:./stm32f10x_libraries/CMSIS/CM3/CoreSupport/core_cm3.h **** #define SCB_HFSR_VECTTBL_Msk               (1ul << SCB_HFSR_VECTTBL_Pos)                  /*!< SCB 
 342:./stm32f10x_libraries/CMSIS/CM3/CoreSupport/core_cm3.h **** 
 343:./stm32f10x_libraries/CMSIS/CM3/CoreSupport/core_cm3.h **** /* SCB Debug Fault Status Register Definitions */
 344:./stm32f10x_libraries/CMSIS/CM3/CoreSupport/core_cm3.h **** #define SCB_DFSR_EXTERNAL_Pos               4                                             /*!< SCB 
 345:./stm32f10x_libraries/CMSIS/CM3/CoreSupport/core_cm3.h **** #define SCB_DFSR_EXTERNAL_Msk              (1ul << SCB_DFSR_EXTERNAL_Pos)                 /*!< SCB 
 346:./stm32f10x_libraries/CMSIS/CM3/CoreSupport/core_cm3.h **** 
 347:./stm32f10x_libraries/CMSIS/CM3/CoreSupport/core_cm3.h **** #define SCB_DFSR_VCATCH_Pos                 3                                             /*!< SCB 
 348:./stm32f10x_libraries/CMSIS/CM3/CoreSupport/core_cm3.h **** #define SCB_DFSR_VCATCH_Msk                (1ul << SCB_DFSR_VCATCH_Pos)                   /*!< SCB 
 349:./stm32f10x_libraries/CMSIS/CM3/CoreSupport/core_cm3.h **** 
 350:./stm32f10x_libraries/CMSIS/CM3/CoreSupport/core_cm3.h **** #define SCB_DFSR_DWTTRAP_Pos                2                                             /*!< SCB 
 351:./stm32f10x_libraries/CMSIS/CM3/CoreSupport/core_cm3.h **** #define SCB_DFSR_DWTTRAP_Msk               (1ul << SCB_DFSR_DWTTRAP_Pos)                  /*!< SCB 
 352:./stm32f10x_libraries/CMSIS/CM3/CoreSupport/core_cm3.h **** 
 353:./stm32f10x_libraries/CMSIS/CM3/CoreSupport/core_cm3.h **** #define SCB_DFSR_BKPT_Pos                   1                                             /*!< SCB 
 354:./stm32f10x_libraries/CMSIS/CM3/CoreSupport/core_cm3.h **** #define SCB_DFSR_BKPT_Msk                  (1ul << SCB_DFSR_BKPT_Pos)                     /*!< SCB 
 355:./stm32f10x_libraries/CMSIS/CM3/CoreSupport/core_cm3.h **** 
 356:./stm32f10x_libraries/CMSIS/CM3/CoreSupport/core_cm3.h **** #define SCB_DFSR_HALTED_Pos                 0                                             /*!< SCB 
 357:./stm32f10x_libraries/CMSIS/CM3/CoreSupport/core_cm3.h **** #define SCB_DFSR_HALTED_Msk                (1ul << SCB_DFSR_HALTED_Pos)                   /*!< SCB 
 358:./stm32f10x_libraries/CMSIS/CM3/CoreSupport/core_cm3.h **** /*@}*/ /* end of group CMSIS_CM3_SCB */
 359:./stm32f10x_libraries/CMSIS/CM3/CoreSupport/core_cm3.h **** 
 360:./stm32f10x_libraries/CMSIS/CM3/CoreSupport/core_cm3.h **** 
 361:./stm32f10x_libraries/CMSIS/CM3/CoreSupport/core_cm3.h **** /** @addtogroup CMSIS_CM3_SysTick CMSIS CM3 SysTick
 362:./stm32f10x_libraries/CMSIS/CM3/CoreSupport/core_cm3.h ****   memory mapped structure for SysTick
 363:./stm32f10x_libraries/CMSIS/CM3/CoreSupport/core_cm3.h ****   @{
 364:./stm32f10x_libraries/CMSIS/CM3/CoreSupport/core_cm3.h ****  */
 365:./stm32f10x_libraries/CMSIS/CM3/CoreSupport/core_cm3.h **** typedef struct
 366:./stm32f10x_libraries/CMSIS/CM3/CoreSupport/core_cm3.h **** {
 367:./stm32f10x_libraries/CMSIS/CM3/CoreSupport/core_cm3.h ****   __IO uint32_t CTRL;                         /*!< Offset: 0x00  SysTick Control and Status Registe
 368:./stm32f10x_libraries/CMSIS/CM3/CoreSupport/core_cm3.h ****   __IO uint32_t LOAD;                         /*!< Offset: 0x04  SysTick Reload Value Register     
 369:./stm32f10x_libraries/CMSIS/CM3/CoreSupport/core_cm3.h ****   __IO uint32_t VAL;                          /*!< Offset: 0x08  SysTick Current Value Register    
 370:./stm32f10x_libraries/CMSIS/CM3/CoreSupport/core_cm3.h ****   __I  uint32_t CALIB;                        /*!< Offset: 0x0C  SysTick Calibration Register      
 371:./stm32f10x_libraries/CMSIS/CM3/CoreSupport/core_cm3.h **** } SysTick_Type;
 372:./stm32f10x_libraries/CMSIS/CM3/CoreSupport/core_cm3.h **** 
 373:./stm32f10x_libraries/CMSIS/CM3/CoreSupport/core_cm3.h **** /* SysTick Control / Status Register Definitions */
 374:./stm32f10x_libraries/CMSIS/CM3/CoreSupport/core_cm3.h **** #define SysTick_CTRL_COUNTFLAG_Pos         16                                             /*!< SysT
 375:./stm32f10x_libraries/CMSIS/CM3/CoreSupport/core_cm3.h **** #define SysTick_CTRL_COUNTFLAG_Msk         (1ul << SysTick_CTRL_COUNTFLAG_Pos)            /*!< SysT
 376:./stm32f10x_libraries/CMSIS/CM3/CoreSupport/core_cm3.h **** 
 377:./stm32f10x_libraries/CMSIS/CM3/CoreSupport/core_cm3.h **** #define SysTick_CTRL_CLKSOURCE_Pos          2                                             /*!< SysT
 378:./stm32f10x_libraries/CMSIS/CM3/CoreSupport/core_cm3.h **** #define SysTick_CTRL_CLKSOURCE_Msk         (1ul << SysTick_CTRL_CLKSOURCE_Pos)            /*!< SysT
 379:./stm32f10x_libraries/CMSIS/CM3/CoreSupport/core_cm3.h **** 
ARM GAS  C:\Users\user\AppData\Local\Temp\cc7qV6fF.s 			page 28


 380:./stm32f10x_libraries/CMSIS/CM3/CoreSupport/core_cm3.h **** #define SysTick_CTRL_TICKINT_Pos            1                                             /*!< SysT
 381:./stm32f10x_libraries/CMSIS/CM3/CoreSupport/core_cm3.h **** #define SysTick_CTRL_TICKINT_Msk           (1ul << SysTick_CTRL_TICKINT_Pos)              /*!< SysT
 382:./stm32f10x_libraries/CMSIS/CM3/CoreSupport/core_cm3.h **** 
 383:./stm32f10x_libraries/CMSIS/CM3/CoreSupport/core_cm3.h **** #define SysTick_CTRL_ENABLE_Pos             0                                             /*!< SysT
 384:./stm32f10x_libraries/CMSIS/CM3/CoreSupport/core_cm3.h **** #define SysTick_CTRL_ENABLE_Msk            (1ul << SysTick_CTRL_ENABLE_Pos)               /*!< SysT
 385:./stm32f10x_libraries/CMSIS/CM3/CoreSupport/core_cm3.h **** 
 386:./stm32f10x_libraries/CMSIS/CM3/CoreSupport/core_cm3.h **** /* SysTick Reload Register Definitions */
 387:./stm32f10x_libraries/CMSIS/CM3/CoreSupport/core_cm3.h **** #define SysTick_LOAD_RELOAD_Pos             0                                             /*!< SysT
 388:./stm32f10x_libraries/CMSIS/CM3/CoreSupport/core_cm3.h **** #define SysTick_LOAD_RELOAD_Msk            (0xFFFFFFul << SysTick_LOAD_RELOAD_Pos)        /*!< SysT
 389:./stm32f10x_libraries/CMSIS/CM3/CoreSupport/core_cm3.h **** 
 390:./stm32f10x_libraries/CMSIS/CM3/CoreSupport/core_cm3.h **** /* SysTick Current Register Definitions */
 391:./stm32f10x_libraries/CMSIS/CM3/CoreSupport/core_cm3.h **** #define SysTick_VAL_CURRENT_Pos             0                                             /*!< SysT
 392:./stm32f10x_libraries/CMSIS/CM3/CoreSupport/core_cm3.h **** #define SysTick_VAL_CURRENT_Msk            (0xFFFFFFul << SysTick_VAL_CURRENT_Pos)        /*!< SysT
 393:./stm32f10x_libraries/CMSIS/CM3/CoreSupport/core_cm3.h **** 
 394:./stm32f10x_libraries/CMSIS/CM3/CoreSupport/core_cm3.h **** /* SysTick Calibration Register Definitions */
 395:./stm32f10x_libraries/CMSIS/CM3/CoreSupport/core_cm3.h **** #define SysTick_CALIB_NOREF_Pos            31                                             /*!< SysT
 396:./stm32f10x_libraries/CMSIS/CM3/CoreSupport/core_cm3.h **** #define SysTick_CALIB_NOREF_Msk            (1ul << SysTick_CALIB_NOREF_Pos)               /*!< SysT
 397:./stm32f10x_libraries/CMSIS/CM3/CoreSupport/core_cm3.h **** 
 398:./stm32f10x_libraries/CMSIS/CM3/CoreSupport/core_cm3.h **** #define SysTick_CALIB_SKEW_Pos             30                                             /*!< SysT
 399:./stm32f10x_libraries/CMSIS/CM3/CoreSupport/core_cm3.h **** #define SysTick_CALIB_SKEW_Msk             (1ul << SysTick_CALIB_SKEW_Pos)                /*!< SysT
 400:./stm32f10x_libraries/CMSIS/CM3/CoreSupport/core_cm3.h **** 
 401:./stm32f10x_libraries/CMSIS/CM3/CoreSupport/core_cm3.h **** #define SysTick_CALIB_TENMS_Pos             0                                             /*!< SysT
 402:./stm32f10x_libraries/CMSIS/CM3/CoreSupport/core_cm3.h **** #define SysTick_CALIB_TENMS_Msk            (0xFFFFFFul << SysTick_VAL_CURRENT_Pos)        /*!< SysT
 403:./stm32f10x_libraries/CMSIS/CM3/CoreSupport/core_cm3.h **** /*@}*/ /* end of group CMSIS_CM3_SysTick */
 404:./stm32f10x_libraries/CMSIS/CM3/CoreSupport/core_cm3.h **** 
 405:./stm32f10x_libraries/CMSIS/CM3/CoreSupport/core_cm3.h **** 
 406:./stm32f10x_libraries/CMSIS/CM3/CoreSupport/core_cm3.h **** /** @addtogroup CMSIS_CM3_ITM CMSIS CM3 ITM
 407:./stm32f10x_libraries/CMSIS/CM3/CoreSupport/core_cm3.h ****   memory mapped structure for Instrumentation Trace Macrocell (ITM)
 408:./stm32f10x_libraries/CMSIS/CM3/CoreSupport/core_cm3.h ****   @{
 409:./stm32f10x_libraries/CMSIS/CM3/CoreSupport/core_cm3.h ****  */
 410:./stm32f10x_libraries/CMSIS/CM3/CoreSupport/core_cm3.h **** typedef struct
 411:./stm32f10x_libraries/CMSIS/CM3/CoreSupport/core_cm3.h **** {
 412:./stm32f10x_libraries/CMSIS/CM3/CoreSupport/core_cm3.h ****   __O  union  
 413:./stm32f10x_libraries/CMSIS/CM3/CoreSupport/core_cm3.h ****   {
 414:./stm32f10x_libraries/CMSIS/CM3/CoreSupport/core_cm3.h ****     __O  uint8_t    u8;                       /*!< Offset:       ITM Stimulus Port 8-bit           
 415:./stm32f10x_libraries/CMSIS/CM3/CoreSupport/core_cm3.h ****     __O  uint16_t   u16;                      /*!< Offset:       ITM Stimulus Port 16-bit          
 416:./stm32f10x_libraries/CMSIS/CM3/CoreSupport/core_cm3.h ****     __O  uint32_t   u32;                      /*!< Offset:       ITM Stimulus Port 32-bit          
 417:./stm32f10x_libraries/CMSIS/CM3/CoreSupport/core_cm3.h ****   }  PORT [32];                               /*!< Offset: 0x00  ITM Stimulus Port Registers       
 418:./stm32f10x_libraries/CMSIS/CM3/CoreSupport/core_cm3.h ****        uint32_t RESERVED0[864];                                 
 419:./stm32f10x_libraries/CMSIS/CM3/CoreSupport/core_cm3.h ****   __IO uint32_t TER;                          /*!< Offset:       ITM Trace Enable Register         
 420:./stm32f10x_libraries/CMSIS/CM3/CoreSupport/core_cm3.h ****        uint32_t RESERVED1[15];                                  
 421:./stm32f10x_libraries/CMSIS/CM3/CoreSupport/core_cm3.h ****   __IO uint32_t TPR;                          /*!< Offset:       ITM Trace Privilege Register      
 422:./stm32f10x_libraries/CMSIS/CM3/CoreSupport/core_cm3.h ****        uint32_t RESERVED2[15];                                  
 423:./stm32f10x_libraries/CMSIS/CM3/CoreSupport/core_cm3.h ****   __IO uint32_t TCR;                          /*!< Offset:       ITM Trace Control Register        
 424:./stm32f10x_libraries/CMSIS/CM3/CoreSupport/core_cm3.h ****        uint32_t RESERVED3[29];                                  
 425:./stm32f10x_libraries/CMSIS/CM3/CoreSupport/core_cm3.h ****   __IO uint32_t IWR;                          /*!< Offset:       ITM Integration Write Register    
 426:./stm32f10x_libraries/CMSIS/CM3/CoreSupport/core_cm3.h ****   __IO uint32_t IRR;                          /*!< Offset:       ITM Integration Read Register     
 427:./stm32f10x_libraries/CMSIS/CM3/CoreSupport/core_cm3.h ****   __IO uint32_t IMCR;                         /*!< Offset:       ITM Integration Mode Control Regis
 428:./stm32f10x_libraries/CMSIS/CM3/CoreSupport/core_cm3.h ****        uint32_t RESERVED4[43];                                  
 429:./stm32f10x_libraries/CMSIS/CM3/CoreSupport/core_cm3.h ****   __IO uint32_t LAR;                          /*!< Offset:       ITM Lock Access Register          
 430:./stm32f10x_libraries/CMSIS/CM3/CoreSupport/core_cm3.h ****   __IO uint32_t LSR;                          /*!< Offset:       ITM Lock Status Register          
 431:./stm32f10x_libraries/CMSIS/CM3/CoreSupport/core_cm3.h ****        uint32_t RESERVED5[6];                                   
 432:./stm32f10x_libraries/CMSIS/CM3/CoreSupport/core_cm3.h ****   __I  uint32_t PID4;                         /*!< Offset:       ITM Peripheral Identification Regi
 433:./stm32f10x_libraries/CMSIS/CM3/CoreSupport/core_cm3.h ****   __I  uint32_t PID5;                         /*!< Offset:       ITM Peripheral Identification Regi
 434:./stm32f10x_libraries/CMSIS/CM3/CoreSupport/core_cm3.h ****   __I  uint32_t PID6;                         /*!< Offset:       ITM Peripheral Identification Regi
 435:./stm32f10x_libraries/CMSIS/CM3/CoreSupport/core_cm3.h ****   __I  uint32_t PID7;                         /*!< Offset:       ITM Peripheral Identification Regi
 436:./stm32f10x_libraries/CMSIS/CM3/CoreSupport/core_cm3.h ****   __I  uint32_t PID0;                         /*!< Offset:       ITM Peripheral Identification Regi
ARM GAS  C:\Users\user\AppData\Local\Temp\cc7qV6fF.s 			page 29


 437:./stm32f10x_libraries/CMSIS/CM3/CoreSupport/core_cm3.h ****   __I  uint32_t PID1;                         /*!< Offset:       ITM Peripheral Identification Regi
 438:./stm32f10x_libraries/CMSIS/CM3/CoreSupport/core_cm3.h ****   __I  uint32_t PID2;                         /*!< Offset:       ITM Peripheral Identification Regi
 439:./stm32f10x_libraries/CMSIS/CM3/CoreSupport/core_cm3.h ****   __I  uint32_t PID3;                         /*!< Offset:       ITM Peripheral Identification Regi
 440:./stm32f10x_libraries/CMSIS/CM3/CoreSupport/core_cm3.h ****   __I  uint32_t CID0;                         /*!< Offset:       ITM Component  Identification Regi
 441:./stm32f10x_libraries/CMSIS/CM3/CoreSupport/core_cm3.h ****   __I  uint32_t CID1;                         /*!< Offset:       ITM Component  Identification Regi
 442:./stm32f10x_libraries/CMSIS/CM3/CoreSupport/core_cm3.h ****   __I  uint32_t CID2;                         /*!< Offset:       ITM Component  Identification Regi
 443:./stm32f10x_libraries/CMSIS/CM3/CoreSupport/core_cm3.h ****   __I  uint32_t CID3;                         /*!< Offset:       ITM Component  Identification Regi
 444:./stm32f10x_libraries/CMSIS/CM3/CoreSupport/core_cm3.h **** } ITM_Type;                                                
 445:./stm32f10x_libraries/CMSIS/CM3/CoreSupport/core_cm3.h **** 
 446:./stm32f10x_libraries/CMSIS/CM3/CoreSupport/core_cm3.h **** /* ITM Trace Privilege Register Definitions */
 447:./stm32f10x_libraries/CMSIS/CM3/CoreSupport/core_cm3.h **** #define ITM_TPR_PRIVMASK_Pos                0                                             /*!< ITM 
 448:./stm32f10x_libraries/CMSIS/CM3/CoreSupport/core_cm3.h **** #define ITM_TPR_PRIVMASK_Msk               (0xFul << ITM_TPR_PRIVMASK_Pos)                /*!< ITM 
 449:./stm32f10x_libraries/CMSIS/CM3/CoreSupport/core_cm3.h **** 
 450:./stm32f10x_libraries/CMSIS/CM3/CoreSupport/core_cm3.h **** /* ITM Trace Control Register Definitions */
 451:./stm32f10x_libraries/CMSIS/CM3/CoreSupport/core_cm3.h **** #define ITM_TCR_BUSY_Pos                   23                                             /*!< ITM 
 452:./stm32f10x_libraries/CMSIS/CM3/CoreSupport/core_cm3.h **** #define ITM_TCR_BUSY_Msk                   (1ul << ITM_TCR_BUSY_Pos)                      /*!< ITM 
 453:./stm32f10x_libraries/CMSIS/CM3/CoreSupport/core_cm3.h **** 
 454:./stm32f10x_libraries/CMSIS/CM3/CoreSupport/core_cm3.h **** #define ITM_TCR_ATBID_Pos                  16                                             /*!< ITM 
 455:./stm32f10x_libraries/CMSIS/CM3/CoreSupport/core_cm3.h **** #define ITM_TCR_ATBID_Msk                  (0x7Ful << ITM_TCR_ATBID_Pos)                  /*!< ITM 
 456:./stm32f10x_libraries/CMSIS/CM3/CoreSupport/core_cm3.h **** 
 457:./stm32f10x_libraries/CMSIS/CM3/CoreSupport/core_cm3.h **** #define ITM_TCR_TSPrescale_Pos              8                                             /*!< ITM 
 458:./stm32f10x_libraries/CMSIS/CM3/CoreSupport/core_cm3.h **** #define ITM_TCR_TSPrescale_Msk             (3ul << ITM_TCR_TSPrescale_Pos)                /*!< ITM 
 459:./stm32f10x_libraries/CMSIS/CM3/CoreSupport/core_cm3.h **** 
 460:./stm32f10x_libraries/CMSIS/CM3/CoreSupport/core_cm3.h **** #define ITM_TCR_SWOENA_Pos                  4                                             /*!< ITM 
 461:./stm32f10x_libraries/CMSIS/CM3/CoreSupport/core_cm3.h **** #define ITM_TCR_SWOENA_Msk                 (1ul << ITM_TCR_SWOENA_Pos)                    /*!< ITM 
 462:./stm32f10x_libraries/CMSIS/CM3/CoreSupport/core_cm3.h **** 
 463:./stm32f10x_libraries/CMSIS/CM3/CoreSupport/core_cm3.h **** #define ITM_TCR_DWTENA_Pos                  3                                             /*!< ITM 
 464:./stm32f10x_libraries/CMSIS/CM3/CoreSupport/core_cm3.h **** #define ITM_TCR_DWTENA_Msk                 (1ul << ITM_TCR_DWTENA_Pos)                    /*!< ITM 
 465:./stm32f10x_libraries/CMSIS/CM3/CoreSupport/core_cm3.h **** 
 466:./stm32f10x_libraries/CMSIS/CM3/CoreSupport/core_cm3.h **** #define ITM_TCR_SYNCENA_Pos                 2                                             /*!< ITM 
 467:./stm32f10x_libraries/CMSIS/CM3/CoreSupport/core_cm3.h **** #define ITM_TCR_SYNCENA_Msk                (1ul << ITM_TCR_SYNCENA_Pos)                   /*!< ITM 
 468:./stm32f10x_libraries/CMSIS/CM3/CoreSupport/core_cm3.h **** 
 469:./stm32f10x_libraries/CMSIS/CM3/CoreSupport/core_cm3.h **** #define ITM_TCR_TSENA_Pos                   1                                             /*!< ITM 
 470:./stm32f10x_libraries/CMSIS/CM3/CoreSupport/core_cm3.h **** #define ITM_TCR_TSENA_Msk                  (1ul << ITM_TCR_TSENA_Pos)                     /*!< ITM 
 471:./stm32f10x_libraries/CMSIS/CM3/CoreSupport/core_cm3.h **** 
 472:./stm32f10x_libraries/CMSIS/CM3/CoreSupport/core_cm3.h **** #define ITM_TCR_ITMENA_Pos                  0                                             /*!< ITM 
 473:./stm32f10x_libraries/CMSIS/CM3/CoreSupport/core_cm3.h **** #define ITM_TCR_ITMENA_Msk                 (1ul << ITM_TCR_ITMENA_Pos)                    /*!< ITM 
 474:./stm32f10x_libraries/CMSIS/CM3/CoreSupport/core_cm3.h **** 
 475:./stm32f10x_libraries/CMSIS/CM3/CoreSupport/core_cm3.h **** /* ITM Integration Write Register Definitions */
 476:./stm32f10x_libraries/CMSIS/CM3/CoreSupport/core_cm3.h **** #define ITM_IWR_ATVALIDM_Pos                0                                             /*!< ITM 
 477:./stm32f10x_libraries/CMSIS/CM3/CoreSupport/core_cm3.h **** #define ITM_IWR_ATVALIDM_Msk               (1ul << ITM_IWR_ATVALIDM_Pos)                  /*!< ITM 
 478:./stm32f10x_libraries/CMSIS/CM3/CoreSupport/core_cm3.h **** 
 479:./stm32f10x_libraries/CMSIS/CM3/CoreSupport/core_cm3.h **** /* ITM Integration Read Register Definitions */
 480:./stm32f10x_libraries/CMSIS/CM3/CoreSupport/core_cm3.h **** #define ITM_IRR_ATREADYM_Pos                0                                             /*!< ITM 
 481:./stm32f10x_libraries/CMSIS/CM3/CoreSupport/core_cm3.h **** #define ITM_IRR_ATREADYM_Msk               (1ul << ITM_IRR_ATREADYM_Pos)                  /*!< ITM 
 482:./stm32f10x_libraries/CMSIS/CM3/CoreSupport/core_cm3.h **** 
 483:./stm32f10x_libraries/CMSIS/CM3/CoreSupport/core_cm3.h **** /* ITM Integration Mode Control Register Definitions */
 484:./stm32f10x_libraries/CMSIS/CM3/CoreSupport/core_cm3.h **** #define ITM_IMCR_INTEGRATION_Pos            0                                             /*!< ITM 
 485:./stm32f10x_libraries/CMSIS/CM3/CoreSupport/core_cm3.h **** #define ITM_IMCR_INTEGRATION_Msk           (1ul << ITM_IMCR_INTEGRATION_Pos)              /*!< ITM 
 486:./stm32f10x_libraries/CMSIS/CM3/CoreSupport/core_cm3.h **** 
 487:./stm32f10x_libraries/CMSIS/CM3/CoreSupport/core_cm3.h **** /* ITM Lock Status Register Definitions */
 488:./stm32f10x_libraries/CMSIS/CM3/CoreSupport/core_cm3.h **** #define ITM_LSR_ByteAcc_Pos                 2                                             /*!< ITM 
 489:./stm32f10x_libraries/CMSIS/CM3/CoreSupport/core_cm3.h **** #define ITM_LSR_ByteAcc_Msk                (1ul << ITM_LSR_ByteAcc_Pos)                   /*!< ITM 
 490:./stm32f10x_libraries/CMSIS/CM3/CoreSupport/core_cm3.h **** 
 491:./stm32f10x_libraries/CMSIS/CM3/CoreSupport/core_cm3.h **** #define ITM_LSR_Access_Pos                  1                                             /*!< ITM 
 492:./stm32f10x_libraries/CMSIS/CM3/CoreSupport/core_cm3.h **** #define ITM_LSR_Access_Msk                 (1ul << ITM_LSR_Access_Pos)                    /*!< ITM 
 493:./stm32f10x_libraries/CMSIS/CM3/CoreSupport/core_cm3.h **** 
ARM GAS  C:\Users\user\AppData\Local\Temp\cc7qV6fF.s 			page 30


 494:./stm32f10x_libraries/CMSIS/CM3/CoreSupport/core_cm3.h **** #define ITM_LSR_Present_Pos                 0                                             /*!< ITM 
 495:./stm32f10x_libraries/CMSIS/CM3/CoreSupport/core_cm3.h **** #define ITM_LSR_Present_Msk                (1ul << ITM_LSR_Present_Pos)                   /*!< ITM 
 496:./stm32f10x_libraries/CMSIS/CM3/CoreSupport/core_cm3.h **** /*@}*/ /* end of group CMSIS_CM3_ITM */
 497:./stm32f10x_libraries/CMSIS/CM3/CoreSupport/core_cm3.h **** 
 498:./stm32f10x_libraries/CMSIS/CM3/CoreSupport/core_cm3.h **** 
 499:./stm32f10x_libraries/CMSIS/CM3/CoreSupport/core_cm3.h **** /** @addtogroup CMSIS_CM3_InterruptType CMSIS CM3 Interrupt Type
 500:./stm32f10x_libraries/CMSIS/CM3/CoreSupport/core_cm3.h ****   memory mapped structure for Interrupt Type
 501:./stm32f10x_libraries/CMSIS/CM3/CoreSupport/core_cm3.h ****   @{
 502:./stm32f10x_libraries/CMSIS/CM3/CoreSupport/core_cm3.h ****  */
 503:./stm32f10x_libraries/CMSIS/CM3/CoreSupport/core_cm3.h **** typedef struct
 504:./stm32f10x_libraries/CMSIS/CM3/CoreSupport/core_cm3.h **** {
 505:./stm32f10x_libraries/CMSIS/CM3/CoreSupport/core_cm3.h ****        uint32_t RESERVED0;
 506:./stm32f10x_libraries/CMSIS/CM3/CoreSupport/core_cm3.h ****   __I  uint32_t ICTR;                         /*!< Offset: 0x04  Interrupt Control Type Register */
 507:./stm32f10x_libraries/CMSIS/CM3/CoreSupport/core_cm3.h **** #if ((defined __CM3_REV) && (__CM3_REV >= 0x200))
 508:./stm32f10x_libraries/CMSIS/CM3/CoreSupport/core_cm3.h ****   __IO uint32_t ACTLR;                        /*!< Offset: 0x08  Auxiliary Control Register      */
 509:./stm32f10x_libraries/CMSIS/CM3/CoreSupport/core_cm3.h **** #else
 510:./stm32f10x_libraries/CMSIS/CM3/CoreSupport/core_cm3.h ****        uint32_t RESERVED1;
 511:./stm32f10x_libraries/CMSIS/CM3/CoreSupport/core_cm3.h **** #endif
 512:./stm32f10x_libraries/CMSIS/CM3/CoreSupport/core_cm3.h **** } InterruptType_Type;
 513:./stm32f10x_libraries/CMSIS/CM3/CoreSupport/core_cm3.h **** 
 514:./stm32f10x_libraries/CMSIS/CM3/CoreSupport/core_cm3.h **** /* Interrupt Controller Type Register Definitions */
 515:./stm32f10x_libraries/CMSIS/CM3/CoreSupport/core_cm3.h **** #define InterruptType_ICTR_INTLINESNUM_Pos  0                                             /*!< Inte
 516:./stm32f10x_libraries/CMSIS/CM3/CoreSupport/core_cm3.h **** #define InterruptType_ICTR_INTLINESNUM_Msk (0x1Ful << InterruptType_ICTR_INTLINESNUM_Pos) /*!< Inte
 517:./stm32f10x_libraries/CMSIS/CM3/CoreSupport/core_cm3.h **** 
 518:./stm32f10x_libraries/CMSIS/CM3/CoreSupport/core_cm3.h **** /* Auxiliary Control Register Definitions */
 519:./stm32f10x_libraries/CMSIS/CM3/CoreSupport/core_cm3.h **** #define InterruptType_ACTLR_DISFOLD_Pos     2                                             /*!< Inte
 520:./stm32f10x_libraries/CMSIS/CM3/CoreSupport/core_cm3.h **** #define InterruptType_ACTLR_DISFOLD_Msk    (1ul << InterruptType_ACTLR_DISFOLD_Pos)       /*!< Inte
 521:./stm32f10x_libraries/CMSIS/CM3/CoreSupport/core_cm3.h **** 
 522:./stm32f10x_libraries/CMSIS/CM3/CoreSupport/core_cm3.h **** #define InterruptType_ACTLR_DISDEFWBUF_Pos  1                                             /*!< Inte
 523:./stm32f10x_libraries/CMSIS/CM3/CoreSupport/core_cm3.h **** #define InterruptType_ACTLR_DISDEFWBUF_Msk (1ul << InterruptType_ACTLR_DISDEFWBUF_Pos)    /*!< Inte
 524:./stm32f10x_libraries/CMSIS/CM3/CoreSupport/core_cm3.h **** 
 525:./stm32f10x_libraries/CMSIS/CM3/CoreSupport/core_cm3.h **** #define InterruptType_ACTLR_DISMCYCINT_Pos  0                                             /*!< Inte
 526:./stm32f10x_libraries/CMSIS/CM3/CoreSupport/core_cm3.h **** #define InterruptType_ACTLR_DISMCYCINT_Msk (1ul << InterruptType_ACTLR_DISMCYCINT_Pos)    /*!< Inte
 527:./stm32f10x_libraries/CMSIS/CM3/CoreSupport/core_cm3.h **** /*@}*/ /* end of group CMSIS_CM3_InterruptType */
 528:./stm32f10x_libraries/CMSIS/CM3/CoreSupport/core_cm3.h **** 
 529:./stm32f10x_libraries/CMSIS/CM3/CoreSupport/core_cm3.h **** 
 530:./stm32f10x_libraries/CMSIS/CM3/CoreSupport/core_cm3.h **** #if defined (__MPU_PRESENT) && (__MPU_PRESENT == 1)
 531:./stm32f10x_libraries/CMSIS/CM3/CoreSupport/core_cm3.h **** /** @addtogroup CMSIS_CM3_MPU CMSIS CM3 MPU
 532:./stm32f10x_libraries/CMSIS/CM3/CoreSupport/core_cm3.h ****   memory mapped structure for Memory Protection Unit (MPU)
 533:./stm32f10x_libraries/CMSIS/CM3/CoreSupport/core_cm3.h ****   @{
 534:./stm32f10x_libraries/CMSIS/CM3/CoreSupport/core_cm3.h ****  */
 535:./stm32f10x_libraries/CMSIS/CM3/CoreSupport/core_cm3.h **** typedef struct
 536:./stm32f10x_libraries/CMSIS/CM3/CoreSupport/core_cm3.h **** {
 537:./stm32f10x_libraries/CMSIS/CM3/CoreSupport/core_cm3.h ****   __I  uint32_t TYPE;                         /*!< Offset: 0x00  MPU Type Register                 
 538:./stm32f10x_libraries/CMSIS/CM3/CoreSupport/core_cm3.h ****   __IO uint32_t CTRL;                         /*!< Offset: 0x04  MPU Control Register              
 539:./stm32f10x_libraries/CMSIS/CM3/CoreSupport/core_cm3.h ****   __IO uint32_t RNR;                          /*!< Offset: 0x08  MPU Region RNRber Register        
 540:./stm32f10x_libraries/CMSIS/CM3/CoreSupport/core_cm3.h ****   __IO uint32_t RBAR;                         /*!< Offset: 0x0C  MPU Region Base Address Register  
 541:./stm32f10x_libraries/CMSIS/CM3/CoreSupport/core_cm3.h ****   __IO uint32_t RASR;                         /*!< Offset: 0x10  MPU Region Attribute and Size Regi
 542:./stm32f10x_libraries/CMSIS/CM3/CoreSupport/core_cm3.h ****   __IO uint32_t RBAR_A1;                      /*!< Offset: 0x14  MPU Alias 1 Region Base Address Re
 543:./stm32f10x_libraries/CMSIS/CM3/CoreSupport/core_cm3.h ****   __IO uint32_t RASR_A1;                      /*!< Offset: 0x18  MPU Alias 1 Region Attribute and S
 544:./stm32f10x_libraries/CMSIS/CM3/CoreSupport/core_cm3.h ****   __IO uint32_t RBAR_A2;                      /*!< Offset: 0x1C  MPU Alias 2 Region Base Address Re
 545:./stm32f10x_libraries/CMSIS/CM3/CoreSupport/core_cm3.h ****   __IO uint32_t RASR_A2;                      /*!< Offset: 0x20  MPU Alias 2 Region Attribute and S
 546:./stm32f10x_libraries/CMSIS/CM3/CoreSupport/core_cm3.h ****   __IO uint32_t RBAR_A3;                      /*!< Offset: 0x24  MPU Alias 3 Region Base Address Re
 547:./stm32f10x_libraries/CMSIS/CM3/CoreSupport/core_cm3.h ****   __IO uint32_t RASR_A3;                      /*!< Offset: 0x28  MPU Alias 3 Region Attribute and S
 548:./stm32f10x_libraries/CMSIS/CM3/CoreSupport/core_cm3.h **** } MPU_Type;                                                
 549:./stm32f10x_libraries/CMSIS/CM3/CoreSupport/core_cm3.h **** 
 550:./stm32f10x_libraries/CMSIS/CM3/CoreSupport/core_cm3.h **** /* MPU Type Register */
ARM GAS  C:\Users\user\AppData\Local\Temp\cc7qV6fF.s 			page 31


 551:./stm32f10x_libraries/CMSIS/CM3/CoreSupport/core_cm3.h **** #define MPU_TYPE_IREGION_Pos               16                                             /*!< MPU 
 552:./stm32f10x_libraries/CMSIS/CM3/CoreSupport/core_cm3.h **** #define MPU_TYPE_IREGION_Msk               (0xFFul << MPU_TYPE_IREGION_Pos)               /*!< MPU 
 553:./stm32f10x_libraries/CMSIS/CM3/CoreSupport/core_cm3.h **** 
 554:./stm32f10x_libraries/CMSIS/CM3/CoreSupport/core_cm3.h **** #define MPU_TYPE_DREGION_Pos                8                                             /*!< MPU 
 555:./stm32f10x_libraries/CMSIS/CM3/CoreSupport/core_cm3.h **** #define MPU_TYPE_DREGION_Msk               (0xFFul << MPU_TYPE_DREGION_Pos)               /*!< MPU 
 556:./stm32f10x_libraries/CMSIS/CM3/CoreSupport/core_cm3.h **** 
 557:./stm32f10x_libraries/CMSIS/CM3/CoreSupport/core_cm3.h **** #define MPU_TYPE_SEPARATE_Pos               0                                             /*!< MPU 
 558:./stm32f10x_libraries/CMSIS/CM3/CoreSupport/core_cm3.h **** #define MPU_TYPE_SEPARATE_Msk              (1ul << MPU_TYPE_SEPARATE_Pos)                 /*!< MPU 
 559:./stm32f10x_libraries/CMSIS/CM3/CoreSupport/core_cm3.h **** 
 560:./stm32f10x_libraries/CMSIS/CM3/CoreSupport/core_cm3.h **** /* MPU Control Register */
 561:./stm32f10x_libraries/CMSIS/CM3/CoreSupport/core_cm3.h **** #define MPU_CTRL_PRIVDEFENA_Pos             2                                             /*!< MPU 
 562:./stm32f10x_libraries/CMSIS/CM3/CoreSupport/core_cm3.h **** #define MPU_CTRL_PRIVDEFENA_Msk            (1ul << MPU_CTRL_PRIVDEFENA_Pos)               /*!< MPU 
 563:./stm32f10x_libraries/CMSIS/CM3/CoreSupport/core_cm3.h **** 
 564:./stm32f10x_libraries/CMSIS/CM3/CoreSupport/core_cm3.h **** #define MPU_CTRL_HFNMIENA_Pos               1                                             /*!< MPU 
 565:./stm32f10x_libraries/CMSIS/CM3/CoreSupport/core_cm3.h **** #define MPU_CTRL_HFNMIENA_Msk              (1ul << MPU_CTRL_HFNMIENA_Pos)                 /*!< MPU 
 566:./stm32f10x_libraries/CMSIS/CM3/CoreSupport/core_cm3.h **** 
 567:./stm32f10x_libraries/CMSIS/CM3/CoreSupport/core_cm3.h **** #define MPU_CTRL_ENABLE_Pos                 0                                             /*!< MPU 
 568:./stm32f10x_libraries/CMSIS/CM3/CoreSupport/core_cm3.h **** #define MPU_CTRL_ENABLE_Msk                (1ul << MPU_CTRL_ENABLE_Pos)                   /*!< MPU 
 569:./stm32f10x_libraries/CMSIS/CM3/CoreSupport/core_cm3.h **** 
 570:./stm32f10x_libraries/CMSIS/CM3/CoreSupport/core_cm3.h **** /* MPU Region Number Register */
 571:./stm32f10x_libraries/CMSIS/CM3/CoreSupport/core_cm3.h **** #define MPU_RNR_REGION_Pos                  0                                             /*!< MPU 
 572:./stm32f10x_libraries/CMSIS/CM3/CoreSupport/core_cm3.h **** #define MPU_RNR_REGION_Msk                 (0xFFul << MPU_RNR_REGION_Pos)                 /*!< MPU 
 573:./stm32f10x_libraries/CMSIS/CM3/CoreSupport/core_cm3.h **** 
 574:./stm32f10x_libraries/CMSIS/CM3/CoreSupport/core_cm3.h **** /* MPU Region Base Address Register */
 575:./stm32f10x_libraries/CMSIS/CM3/CoreSupport/core_cm3.h **** #define MPU_RBAR_ADDR_Pos                   5                                             /*!< MPU 
 576:./stm32f10x_libraries/CMSIS/CM3/CoreSupport/core_cm3.h **** #define MPU_RBAR_ADDR_Msk                  (0x7FFFFFFul << MPU_RBAR_ADDR_Pos)             /*!< MPU 
 577:./stm32f10x_libraries/CMSIS/CM3/CoreSupport/core_cm3.h **** 
 578:./stm32f10x_libraries/CMSIS/CM3/CoreSupport/core_cm3.h **** #define MPU_RBAR_VALID_Pos                  4                                             /*!< MPU 
 579:./stm32f10x_libraries/CMSIS/CM3/CoreSupport/core_cm3.h **** #define MPU_RBAR_VALID_Msk                 (1ul << MPU_RBAR_VALID_Pos)                    /*!< MPU 
 580:./stm32f10x_libraries/CMSIS/CM3/CoreSupport/core_cm3.h **** 
 581:./stm32f10x_libraries/CMSIS/CM3/CoreSupport/core_cm3.h **** #define MPU_RBAR_REGION_Pos                 0                                             /*!< MPU 
 582:./stm32f10x_libraries/CMSIS/CM3/CoreSupport/core_cm3.h **** #define MPU_RBAR_REGION_Msk                (0xFul << MPU_RBAR_REGION_Pos)                 /*!< MPU 
 583:./stm32f10x_libraries/CMSIS/CM3/CoreSupport/core_cm3.h **** 
 584:./stm32f10x_libraries/CMSIS/CM3/CoreSupport/core_cm3.h **** /* MPU Region Attribute and Size Register */
 585:./stm32f10x_libraries/CMSIS/CM3/CoreSupport/core_cm3.h **** #define MPU_RASR_XN_Pos                    28                                             /*!< MPU 
 586:./stm32f10x_libraries/CMSIS/CM3/CoreSupport/core_cm3.h **** #define MPU_RASR_XN_Msk                    (1ul << MPU_RASR_XN_Pos)                       /*!< MPU 
 587:./stm32f10x_libraries/CMSIS/CM3/CoreSupport/core_cm3.h **** 
 588:./stm32f10x_libraries/CMSIS/CM3/CoreSupport/core_cm3.h **** #define MPU_RASR_AP_Pos                    24                                             /*!< MPU 
 589:./stm32f10x_libraries/CMSIS/CM3/CoreSupport/core_cm3.h **** #define MPU_RASR_AP_Msk                    (7ul << MPU_RASR_AP_Pos)                       /*!< MPU 
 590:./stm32f10x_libraries/CMSIS/CM3/CoreSupport/core_cm3.h **** 
 591:./stm32f10x_libraries/CMSIS/CM3/CoreSupport/core_cm3.h **** #define MPU_RASR_TEX_Pos                   19                                             /*!< MPU 
 592:./stm32f10x_libraries/CMSIS/CM3/CoreSupport/core_cm3.h **** #define MPU_RASR_TEX_Msk                   (7ul << MPU_RASR_TEX_Pos)                      /*!< MPU 
 593:./stm32f10x_libraries/CMSIS/CM3/CoreSupport/core_cm3.h **** 
 594:./stm32f10x_libraries/CMSIS/CM3/CoreSupport/core_cm3.h **** #define MPU_RASR_S_Pos                     18                                             /*!< MPU 
 595:./stm32f10x_libraries/CMSIS/CM3/CoreSupport/core_cm3.h **** #define MPU_RASR_S_Msk                     (1ul << MPU_RASR_S_Pos)                        /*!< MPU 
 596:./stm32f10x_libraries/CMSIS/CM3/CoreSupport/core_cm3.h **** 
 597:./stm32f10x_libraries/CMSIS/CM3/CoreSupport/core_cm3.h **** #define MPU_RASR_C_Pos                     17                                             /*!< MPU 
 598:./stm32f10x_libraries/CMSIS/CM3/CoreSupport/core_cm3.h **** #define MPU_RASR_C_Msk                     (1ul << MPU_RASR_C_Pos)                        /*!< MPU 
 599:./stm32f10x_libraries/CMSIS/CM3/CoreSupport/core_cm3.h **** 
 600:./stm32f10x_libraries/CMSIS/CM3/CoreSupport/core_cm3.h **** #define MPU_RASR_B_Pos                     16                                             /*!< MPU 
 601:./stm32f10x_libraries/CMSIS/CM3/CoreSupport/core_cm3.h **** #define MPU_RASR_B_Msk                     (1ul << MPU_RASR_B_Pos)                        /*!< MPU 
 602:./stm32f10x_libraries/CMSIS/CM3/CoreSupport/core_cm3.h **** 
 603:./stm32f10x_libraries/CMSIS/CM3/CoreSupport/core_cm3.h **** #define MPU_RASR_SRD_Pos                    8                                             /*!< MPU 
 604:./stm32f10x_libraries/CMSIS/CM3/CoreSupport/core_cm3.h **** #define MPU_RASR_SRD_Msk                   (0xFFul << MPU_RASR_SRD_Pos)                   /*!< MPU 
 605:./stm32f10x_libraries/CMSIS/CM3/CoreSupport/core_cm3.h **** 
 606:./stm32f10x_libraries/CMSIS/CM3/CoreSupport/core_cm3.h **** #define MPU_RASR_SIZE_Pos                   1                                             /*!< MPU 
 607:./stm32f10x_libraries/CMSIS/CM3/CoreSupport/core_cm3.h **** #define MPU_RASR_SIZE_Msk                  (0x1Ful << MPU_RASR_SIZE_Pos)                  /*!< MPU 
ARM GAS  C:\Users\user\AppData\Local\Temp\cc7qV6fF.s 			page 32


 608:./stm32f10x_libraries/CMSIS/CM3/CoreSupport/core_cm3.h **** 
 609:./stm32f10x_libraries/CMSIS/CM3/CoreSupport/core_cm3.h **** #define MPU_RASR_ENA_Pos                     0                                            /*!< MPU 
 610:./stm32f10x_libraries/CMSIS/CM3/CoreSupport/core_cm3.h **** #define MPU_RASR_ENA_Msk                    (0x1Ful << MPU_RASR_ENA_Pos)                  /*!< MPU 
 611:./stm32f10x_libraries/CMSIS/CM3/CoreSupport/core_cm3.h **** 
 612:./stm32f10x_libraries/CMSIS/CM3/CoreSupport/core_cm3.h **** /*@}*/ /* end of group CMSIS_CM3_MPU */
 613:./stm32f10x_libraries/CMSIS/CM3/CoreSupport/core_cm3.h **** #endif
 614:./stm32f10x_libraries/CMSIS/CM3/CoreSupport/core_cm3.h **** 
 615:./stm32f10x_libraries/CMSIS/CM3/CoreSupport/core_cm3.h **** 
 616:./stm32f10x_libraries/CMSIS/CM3/CoreSupport/core_cm3.h **** /** @addtogroup CMSIS_CM3_CoreDebug CMSIS CM3 Core Debug
 617:./stm32f10x_libraries/CMSIS/CM3/CoreSupport/core_cm3.h ****   memory mapped structure for Core Debug Register
 618:./stm32f10x_libraries/CMSIS/CM3/CoreSupport/core_cm3.h ****   @{
 619:./stm32f10x_libraries/CMSIS/CM3/CoreSupport/core_cm3.h ****  */
 620:./stm32f10x_libraries/CMSIS/CM3/CoreSupport/core_cm3.h **** typedef struct
 621:./stm32f10x_libraries/CMSIS/CM3/CoreSupport/core_cm3.h **** {
 622:./stm32f10x_libraries/CMSIS/CM3/CoreSupport/core_cm3.h ****   __IO uint32_t DHCSR;                        /*!< Offset: 0x00  Debug Halting Control and Status R
 623:./stm32f10x_libraries/CMSIS/CM3/CoreSupport/core_cm3.h ****   __O  uint32_t DCRSR;                        /*!< Offset: 0x04  Debug Core Register Selector Regis
 624:./stm32f10x_libraries/CMSIS/CM3/CoreSupport/core_cm3.h ****   __IO uint32_t DCRDR;                        /*!< Offset: 0x08  Debug Core Register Data Register 
 625:./stm32f10x_libraries/CMSIS/CM3/CoreSupport/core_cm3.h ****   __IO uint32_t DEMCR;                        /*!< Offset: 0x0C  Debug Exception and Monitor Contro
 626:./stm32f10x_libraries/CMSIS/CM3/CoreSupport/core_cm3.h **** } CoreDebug_Type;
 627:./stm32f10x_libraries/CMSIS/CM3/CoreSupport/core_cm3.h **** 
 628:./stm32f10x_libraries/CMSIS/CM3/CoreSupport/core_cm3.h **** /* Debug Halting Control and Status Register */
 629:./stm32f10x_libraries/CMSIS/CM3/CoreSupport/core_cm3.h **** #define CoreDebug_DHCSR_DBGKEY_Pos         16                                             /*!< Core
 630:./stm32f10x_libraries/CMSIS/CM3/CoreSupport/core_cm3.h **** #define CoreDebug_DHCSR_DBGKEY_Msk         (0xFFFFul << CoreDebug_DHCSR_DBGKEY_Pos)       /*!< Core
 631:./stm32f10x_libraries/CMSIS/CM3/CoreSupport/core_cm3.h **** 
 632:./stm32f10x_libraries/CMSIS/CM3/CoreSupport/core_cm3.h **** #define CoreDebug_DHCSR_S_RESET_ST_Pos     25                                             /*!< Core
 633:./stm32f10x_libraries/CMSIS/CM3/CoreSupport/core_cm3.h **** #define CoreDebug_DHCSR_S_RESET_ST_Msk     (1ul << CoreDebug_DHCSR_S_RESET_ST_Pos)        /*!< Core
 634:./stm32f10x_libraries/CMSIS/CM3/CoreSupport/core_cm3.h **** 
 635:./stm32f10x_libraries/CMSIS/CM3/CoreSupport/core_cm3.h **** #define CoreDebug_DHCSR_S_RETIRE_ST_Pos    24                                             /*!< Core
 636:./stm32f10x_libraries/CMSIS/CM3/CoreSupport/core_cm3.h **** #define CoreDebug_DHCSR_S_RETIRE_ST_Msk    (1ul << CoreDebug_DHCSR_S_RETIRE_ST_Pos)       /*!< Core
 637:./stm32f10x_libraries/CMSIS/CM3/CoreSupport/core_cm3.h **** 
 638:./stm32f10x_libraries/CMSIS/CM3/CoreSupport/core_cm3.h **** #define CoreDebug_DHCSR_S_LOCKUP_Pos       19                                             /*!< Core
 639:./stm32f10x_libraries/CMSIS/CM3/CoreSupport/core_cm3.h **** #define CoreDebug_DHCSR_S_LOCKUP_Msk       (1ul << CoreDebug_DHCSR_S_LOCKUP_Pos)          /*!< Core
 640:./stm32f10x_libraries/CMSIS/CM3/CoreSupport/core_cm3.h **** 
 641:./stm32f10x_libraries/CMSIS/CM3/CoreSupport/core_cm3.h **** #define CoreDebug_DHCSR_S_SLEEP_Pos        18                                             /*!< Core
 642:./stm32f10x_libraries/CMSIS/CM3/CoreSupport/core_cm3.h **** #define CoreDebug_DHCSR_S_SLEEP_Msk        (1ul << CoreDebug_DHCSR_S_SLEEP_Pos)           /*!< Core
 643:./stm32f10x_libraries/CMSIS/CM3/CoreSupport/core_cm3.h **** 
 644:./stm32f10x_libraries/CMSIS/CM3/CoreSupport/core_cm3.h **** #define CoreDebug_DHCSR_S_HALT_Pos         17                                             /*!< Core
 645:./stm32f10x_libraries/CMSIS/CM3/CoreSupport/core_cm3.h **** #define CoreDebug_DHCSR_S_HALT_Msk         (1ul << CoreDebug_DHCSR_S_HALT_Pos)            /*!< Core
 646:./stm32f10x_libraries/CMSIS/CM3/CoreSupport/core_cm3.h **** 
 647:./stm32f10x_libraries/CMSIS/CM3/CoreSupport/core_cm3.h **** #define CoreDebug_DHCSR_S_REGRDY_Pos       16                                             /*!< Core
 648:./stm32f10x_libraries/CMSIS/CM3/CoreSupport/core_cm3.h **** #define CoreDebug_DHCSR_S_REGRDY_Msk       (1ul << CoreDebug_DHCSR_S_REGRDY_Pos)          /*!< Core
 649:./stm32f10x_libraries/CMSIS/CM3/CoreSupport/core_cm3.h **** 
 650:./stm32f10x_libraries/CMSIS/CM3/CoreSupport/core_cm3.h **** #define CoreDebug_DHCSR_C_SNAPSTALL_Pos     5                                             /*!< Core
 651:./stm32f10x_libraries/CMSIS/CM3/CoreSupport/core_cm3.h **** #define CoreDebug_DHCSR_C_SNAPSTALL_Msk    (1ul << CoreDebug_DHCSR_C_SNAPSTALL_Pos)       /*!< Core
 652:./stm32f10x_libraries/CMSIS/CM3/CoreSupport/core_cm3.h **** 
 653:./stm32f10x_libraries/CMSIS/CM3/CoreSupport/core_cm3.h **** #define CoreDebug_DHCSR_C_MASKINTS_Pos      3                                             /*!< Core
 654:./stm32f10x_libraries/CMSIS/CM3/CoreSupport/core_cm3.h **** #define CoreDebug_DHCSR_C_MASKINTS_Msk     (1ul << CoreDebug_DHCSR_C_MASKINTS_Pos)        /*!< Core
 655:./stm32f10x_libraries/CMSIS/CM3/CoreSupport/core_cm3.h **** 
 656:./stm32f10x_libraries/CMSIS/CM3/CoreSupport/core_cm3.h **** #define CoreDebug_DHCSR_C_STEP_Pos          2                                             /*!< Core
 657:./stm32f10x_libraries/CMSIS/CM3/CoreSupport/core_cm3.h **** #define CoreDebug_DHCSR_C_STEP_Msk         (1ul << CoreDebug_DHCSR_C_STEP_Pos)            /*!< Core
 658:./stm32f10x_libraries/CMSIS/CM3/CoreSupport/core_cm3.h **** 
 659:./stm32f10x_libraries/CMSIS/CM3/CoreSupport/core_cm3.h **** #define CoreDebug_DHCSR_C_HALT_Pos          1                                             /*!< Core
 660:./stm32f10x_libraries/CMSIS/CM3/CoreSupport/core_cm3.h **** #define CoreDebug_DHCSR_C_HALT_Msk         (1ul << CoreDebug_DHCSR_C_HALT_Pos)            /*!< Core
 661:./stm32f10x_libraries/CMSIS/CM3/CoreSupport/core_cm3.h **** 
 662:./stm32f10x_libraries/CMSIS/CM3/CoreSupport/core_cm3.h **** #define CoreDebug_DHCSR_C_DEBUGEN_Pos       0                                             /*!< Core
 663:./stm32f10x_libraries/CMSIS/CM3/CoreSupport/core_cm3.h **** #define CoreDebug_DHCSR_C_DEBUGEN_Msk      (1ul << CoreDebug_DHCSR_C_DEBUGEN_Pos)         /*!< Core
 664:./stm32f10x_libraries/CMSIS/CM3/CoreSupport/core_cm3.h **** 
ARM GAS  C:\Users\user\AppData\Local\Temp\cc7qV6fF.s 			page 33


 665:./stm32f10x_libraries/CMSIS/CM3/CoreSupport/core_cm3.h **** /* Debug Core Register Selector Register */
 666:./stm32f10x_libraries/CMSIS/CM3/CoreSupport/core_cm3.h **** #define CoreDebug_DCRSR_REGWnR_Pos         16                                             /*!< Core
 667:./stm32f10x_libraries/CMSIS/CM3/CoreSupport/core_cm3.h **** #define CoreDebug_DCRSR_REGWnR_Msk         (1ul << CoreDebug_DCRSR_REGWnR_Pos)            /*!< Core
 668:./stm32f10x_libraries/CMSIS/CM3/CoreSupport/core_cm3.h **** 
 669:./stm32f10x_libraries/CMSIS/CM3/CoreSupport/core_cm3.h **** #define CoreDebug_DCRSR_REGSEL_Pos          0                                             /*!< Core
 670:./stm32f10x_libraries/CMSIS/CM3/CoreSupport/core_cm3.h **** #define CoreDebug_DCRSR_REGSEL_Msk         (0x1Ful << CoreDebug_DCRSR_REGSEL_Pos)         /*!< Core
 671:./stm32f10x_libraries/CMSIS/CM3/CoreSupport/core_cm3.h **** 
 672:./stm32f10x_libraries/CMSIS/CM3/CoreSupport/core_cm3.h **** /* Debug Exception and Monitor Control Register */
 673:./stm32f10x_libraries/CMSIS/CM3/CoreSupport/core_cm3.h **** #define CoreDebug_DEMCR_TRCENA_Pos         24                                             /*!< Core
 674:./stm32f10x_libraries/CMSIS/CM3/CoreSupport/core_cm3.h **** #define CoreDebug_DEMCR_TRCENA_Msk         (1ul << CoreDebug_DEMCR_TRCENA_Pos)            /*!< Core
 675:./stm32f10x_libraries/CMSIS/CM3/CoreSupport/core_cm3.h **** 
 676:./stm32f10x_libraries/CMSIS/CM3/CoreSupport/core_cm3.h **** #define CoreDebug_DEMCR_MON_REQ_Pos        19                                             /*!< Core
 677:./stm32f10x_libraries/CMSIS/CM3/CoreSupport/core_cm3.h **** #define CoreDebug_DEMCR_MON_REQ_Msk        (1ul << CoreDebug_DEMCR_MON_REQ_Pos)           /*!< Core
 678:./stm32f10x_libraries/CMSIS/CM3/CoreSupport/core_cm3.h **** 
 679:./stm32f10x_libraries/CMSIS/CM3/CoreSupport/core_cm3.h **** #define CoreDebug_DEMCR_MON_STEP_Pos       18                                             /*!< Core
 680:./stm32f10x_libraries/CMSIS/CM3/CoreSupport/core_cm3.h **** #define CoreDebug_DEMCR_MON_STEP_Msk       (1ul << CoreDebug_DEMCR_MON_STEP_Pos)          /*!< Core
 681:./stm32f10x_libraries/CMSIS/CM3/CoreSupport/core_cm3.h **** 
 682:./stm32f10x_libraries/CMSIS/CM3/CoreSupport/core_cm3.h **** #define CoreDebug_DEMCR_MON_PEND_Pos       17                                             /*!< Core
 683:./stm32f10x_libraries/CMSIS/CM3/CoreSupport/core_cm3.h **** #define CoreDebug_DEMCR_MON_PEND_Msk       (1ul << CoreDebug_DEMCR_MON_PEND_Pos)          /*!< Core
 684:./stm32f10x_libraries/CMSIS/CM3/CoreSupport/core_cm3.h **** 
 685:./stm32f10x_libraries/CMSIS/CM3/CoreSupport/core_cm3.h **** #define CoreDebug_DEMCR_MON_EN_Pos         16                                             /*!< Core
 686:./stm32f10x_libraries/CMSIS/CM3/CoreSupport/core_cm3.h **** #define CoreDebug_DEMCR_MON_EN_Msk         (1ul << CoreDebug_DEMCR_MON_EN_Pos)            /*!< Core
 687:./stm32f10x_libraries/CMSIS/CM3/CoreSupport/core_cm3.h **** 
 688:./stm32f10x_libraries/CMSIS/CM3/CoreSupport/core_cm3.h **** #define CoreDebug_DEMCR_VC_HARDERR_Pos     10                                             /*!< Core
 689:./stm32f10x_libraries/CMSIS/CM3/CoreSupport/core_cm3.h **** #define CoreDebug_DEMCR_VC_HARDERR_Msk     (1ul << CoreDebug_DEMCR_VC_HARDERR_Pos)        /*!< Core
 690:./stm32f10x_libraries/CMSIS/CM3/CoreSupport/core_cm3.h **** 
 691:./stm32f10x_libraries/CMSIS/CM3/CoreSupport/core_cm3.h **** #define CoreDebug_DEMCR_VC_INTERR_Pos       9                                             /*!< Core
 692:./stm32f10x_libraries/CMSIS/CM3/CoreSupport/core_cm3.h **** #define CoreDebug_DEMCR_VC_INTERR_Msk      (1ul << CoreDebug_DEMCR_VC_INTERR_Pos)         /*!< Core
 693:./stm32f10x_libraries/CMSIS/CM3/CoreSupport/core_cm3.h **** 
 694:./stm32f10x_libraries/CMSIS/CM3/CoreSupport/core_cm3.h **** #define CoreDebug_DEMCR_VC_BUSERR_Pos       8                                             /*!< Core
 695:./stm32f10x_libraries/CMSIS/CM3/CoreSupport/core_cm3.h **** #define CoreDebug_DEMCR_VC_BUSERR_Msk      (1ul << CoreDebug_DEMCR_VC_BUSERR_Pos)         /*!< Core
 696:./stm32f10x_libraries/CMSIS/CM3/CoreSupport/core_cm3.h **** 
 697:./stm32f10x_libraries/CMSIS/CM3/CoreSupport/core_cm3.h **** #define CoreDebug_DEMCR_VC_STATERR_Pos      7                                             /*!< Core
 698:./stm32f10x_libraries/CMSIS/CM3/CoreSupport/core_cm3.h **** #define CoreDebug_DEMCR_VC_STATERR_Msk     (1ul << CoreDebug_DEMCR_VC_STATERR_Pos)        /*!< Core
 699:./stm32f10x_libraries/CMSIS/CM3/CoreSupport/core_cm3.h **** 
 700:./stm32f10x_libraries/CMSIS/CM3/CoreSupport/core_cm3.h **** #define CoreDebug_DEMCR_VC_CHKERR_Pos       6                                             /*!< Core
 701:./stm32f10x_libraries/CMSIS/CM3/CoreSupport/core_cm3.h **** #define CoreDebug_DEMCR_VC_CHKERR_Msk      (1ul << CoreDebug_DEMCR_VC_CHKERR_Pos)         /*!< Core
 702:./stm32f10x_libraries/CMSIS/CM3/CoreSupport/core_cm3.h **** 
 703:./stm32f10x_libraries/CMSIS/CM3/CoreSupport/core_cm3.h **** #define CoreDebug_DEMCR_VC_NOCPERR_Pos      5                                             /*!< Core
 704:./stm32f10x_libraries/CMSIS/CM3/CoreSupport/core_cm3.h **** #define CoreDebug_DEMCR_VC_NOCPERR_Msk     (1ul << CoreDebug_DEMCR_VC_NOCPERR_Pos)        /*!< Core
 705:./stm32f10x_libraries/CMSIS/CM3/CoreSupport/core_cm3.h **** 
 706:./stm32f10x_libraries/CMSIS/CM3/CoreSupport/core_cm3.h **** #define CoreDebug_DEMCR_VC_MMERR_Pos        4                                             /*!< Core
 707:./stm32f10x_libraries/CMSIS/CM3/CoreSupport/core_cm3.h **** #define CoreDebug_DEMCR_VC_MMERR_Msk       (1ul << CoreDebug_DEMCR_VC_MMERR_Pos)          /*!< Core
 708:./stm32f10x_libraries/CMSIS/CM3/CoreSupport/core_cm3.h **** 
 709:./stm32f10x_libraries/CMSIS/CM3/CoreSupport/core_cm3.h **** #define CoreDebug_DEMCR_VC_CORERESET_Pos    0                                             /*!< Core
 710:./stm32f10x_libraries/CMSIS/CM3/CoreSupport/core_cm3.h **** #define CoreDebug_DEMCR_VC_CORERESET_Msk   (1ul << CoreDebug_DEMCR_VC_CORERESET_Pos)      /*!< Core
 711:./stm32f10x_libraries/CMSIS/CM3/CoreSupport/core_cm3.h **** /*@}*/ /* end of group CMSIS_CM3_CoreDebug */
 712:./stm32f10x_libraries/CMSIS/CM3/CoreSupport/core_cm3.h **** 
 713:./stm32f10x_libraries/CMSIS/CM3/CoreSupport/core_cm3.h **** 
 714:./stm32f10x_libraries/CMSIS/CM3/CoreSupport/core_cm3.h **** /* Memory mapping of Cortex-M3 Hardware */
 715:./stm32f10x_libraries/CMSIS/CM3/CoreSupport/core_cm3.h **** #define SCS_BASE            (0xE000E000)                              /*!< System Control Space Bas
 716:./stm32f10x_libraries/CMSIS/CM3/CoreSupport/core_cm3.h **** #define ITM_BASE            (0xE0000000)                              /*!< ITM Base Address        
 717:./stm32f10x_libraries/CMSIS/CM3/CoreSupport/core_cm3.h **** #define CoreDebug_BASE      (0xE000EDF0)                              /*!< Core Debug Base Address 
 718:./stm32f10x_libraries/CMSIS/CM3/CoreSupport/core_cm3.h **** #define SysTick_BASE        (SCS_BASE +  0x0010)                      /*!< SysTick Base Address    
 719:./stm32f10x_libraries/CMSIS/CM3/CoreSupport/core_cm3.h **** #define NVIC_BASE           (SCS_BASE +  0x0100)                      /*!< NVIC Base Address       
 720:./stm32f10x_libraries/CMSIS/CM3/CoreSupport/core_cm3.h **** #define SCB_BASE            (SCS_BASE +  0x0D00)                      /*!< System Control Block Bas
 721:./stm32f10x_libraries/CMSIS/CM3/CoreSupport/core_cm3.h **** 
ARM GAS  C:\Users\user\AppData\Local\Temp\cc7qV6fF.s 			page 34


 722:./stm32f10x_libraries/CMSIS/CM3/CoreSupport/core_cm3.h **** #define InterruptType       ((InterruptType_Type *) SCS_BASE)         /*!< Interrupt Type Register 
 723:./stm32f10x_libraries/CMSIS/CM3/CoreSupport/core_cm3.h **** #define SCB                 ((SCB_Type *)           SCB_BASE)         /*!< SCB configuration struct
 724:./stm32f10x_libraries/CMSIS/CM3/CoreSupport/core_cm3.h **** #define SysTick             ((SysTick_Type *)       SysTick_BASE)     /*!< SysTick configuration st
 725:./stm32f10x_libraries/CMSIS/CM3/CoreSupport/core_cm3.h **** #define NVIC                ((NVIC_Type *)          NVIC_BASE)        /*!< NVIC configuration struc
 726:./stm32f10x_libraries/CMSIS/CM3/CoreSupport/core_cm3.h **** #define ITM                 ((ITM_Type *)           ITM_BASE)         /*!< ITM configuration struct
 727:./stm32f10x_libraries/CMSIS/CM3/CoreSupport/core_cm3.h **** #define CoreDebug           ((CoreDebug_Type *)     CoreDebug_BASE)   /*!< Core Debug configuration
 728:./stm32f10x_libraries/CMSIS/CM3/CoreSupport/core_cm3.h **** 
 729:./stm32f10x_libraries/CMSIS/CM3/CoreSupport/core_cm3.h **** #if defined (__MPU_PRESENT) && (__MPU_PRESENT == 1)
 730:./stm32f10x_libraries/CMSIS/CM3/CoreSupport/core_cm3.h ****   #define MPU_BASE          (SCS_BASE +  0x0D90)                      /*!< Memory Protection Unit  
 731:./stm32f10x_libraries/CMSIS/CM3/CoreSupport/core_cm3.h ****   #define MPU               ((MPU_Type*)            MPU_BASE)         /*!< Memory Protection Unit  
 732:./stm32f10x_libraries/CMSIS/CM3/CoreSupport/core_cm3.h **** #endif
 733:./stm32f10x_libraries/CMSIS/CM3/CoreSupport/core_cm3.h **** 
 734:./stm32f10x_libraries/CMSIS/CM3/CoreSupport/core_cm3.h **** /*@}*/ /* end of group CMSIS_CM3_core_register */
 735:./stm32f10x_libraries/CMSIS/CM3/CoreSupport/core_cm3.h **** 
 736:./stm32f10x_libraries/CMSIS/CM3/CoreSupport/core_cm3.h **** 
 737:./stm32f10x_libraries/CMSIS/CM3/CoreSupport/core_cm3.h **** /*******************************************************************************
 738:./stm32f10x_libraries/CMSIS/CM3/CoreSupport/core_cm3.h ****  *                Hardware Abstraction Layer
 739:./stm32f10x_libraries/CMSIS/CM3/CoreSupport/core_cm3.h ****  ******************************************************************************/
 740:./stm32f10x_libraries/CMSIS/CM3/CoreSupport/core_cm3.h **** 
 741:./stm32f10x_libraries/CMSIS/CM3/CoreSupport/core_cm3.h **** #if defined ( __CC_ARM   )
 742:./stm32f10x_libraries/CMSIS/CM3/CoreSupport/core_cm3.h ****   #define __ASM            __asm                                      /*!< asm keyword for ARM Comp
 743:./stm32f10x_libraries/CMSIS/CM3/CoreSupport/core_cm3.h ****   #define __INLINE         __inline                                   /*!< inline keyword for ARM C
 744:./stm32f10x_libraries/CMSIS/CM3/CoreSupport/core_cm3.h **** 
 745:./stm32f10x_libraries/CMSIS/CM3/CoreSupport/core_cm3.h **** #elif defined ( __ICCARM__ )
 746:./stm32f10x_libraries/CMSIS/CM3/CoreSupport/core_cm3.h ****   #define __ASM           __asm                                       /*!< asm keyword for IAR Comp
 747:./stm32f10x_libraries/CMSIS/CM3/CoreSupport/core_cm3.h ****   #define __INLINE        inline                                      /*!< inline keyword for IAR C
 748:./stm32f10x_libraries/CMSIS/CM3/CoreSupport/core_cm3.h **** 
 749:./stm32f10x_libraries/CMSIS/CM3/CoreSupport/core_cm3.h **** #elif defined   (  __GNUC__  )
 750:./stm32f10x_libraries/CMSIS/CM3/CoreSupport/core_cm3.h ****   #define __ASM            __asm                                      /*!< asm keyword for GNU Comp
 751:./stm32f10x_libraries/CMSIS/CM3/CoreSupport/core_cm3.h ****   #define __INLINE         inline                                     /*!< inline keyword for GNU C
 752:./stm32f10x_libraries/CMSIS/CM3/CoreSupport/core_cm3.h **** 
 753:./stm32f10x_libraries/CMSIS/CM3/CoreSupport/core_cm3.h **** #elif defined   (  __TASKING__  )
 754:./stm32f10x_libraries/CMSIS/CM3/CoreSupport/core_cm3.h ****   #define __ASM            __asm                                      /*!< asm keyword for TASKING 
 755:./stm32f10x_libraries/CMSIS/CM3/CoreSupport/core_cm3.h ****   #define __INLINE         inline                                     /*!< inline keyword for TASKI
 756:./stm32f10x_libraries/CMSIS/CM3/CoreSupport/core_cm3.h **** 
 757:./stm32f10x_libraries/CMSIS/CM3/CoreSupport/core_cm3.h **** #endif
 758:./stm32f10x_libraries/CMSIS/CM3/CoreSupport/core_cm3.h **** 
 759:./stm32f10x_libraries/CMSIS/CM3/CoreSupport/core_cm3.h **** 
 760:./stm32f10x_libraries/CMSIS/CM3/CoreSupport/core_cm3.h **** /* ###################  Compiler specific Intrinsics  ########################### */
 761:./stm32f10x_libraries/CMSIS/CM3/CoreSupport/core_cm3.h **** 
 762:./stm32f10x_libraries/CMSIS/CM3/CoreSupport/core_cm3.h **** #if defined ( __CC_ARM   ) /*------------------RealView Compiler -----------------*/
 763:./stm32f10x_libraries/CMSIS/CM3/CoreSupport/core_cm3.h **** /* ARM armcc specific functions */
 764:./stm32f10x_libraries/CMSIS/CM3/CoreSupport/core_cm3.h **** 
 765:./stm32f10x_libraries/CMSIS/CM3/CoreSupport/core_cm3.h **** #define __enable_fault_irq                __enable_fiq
 766:./stm32f10x_libraries/CMSIS/CM3/CoreSupport/core_cm3.h **** #define __disable_fault_irq               __disable_fiq
 767:./stm32f10x_libraries/CMSIS/CM3/CoreSupport/core_cm3.h **** 
 768:./stm32f10x_libraries/CMSIS/CM3/CoreSupport/core_cm3.h **** #define __NOP                             __nop
 769:./stm32f10x_libraries/CMSIS/CM3/CoreSupport/core_cm3.h **** #define __WFI                             __wfi
 770:./stm32f10x_libraries/CMSIS/CM3/CoreSupport/core_cm3.h **** #define __WFE                             __wfe
 771:./stm32f10x_libraries/CMSIS/CM3/CoreSupport/core_cm3.h **** #define __SEV                             __sev
 772:./stm32f10x_libraries/CMSIS/CM3/CoreSupport/core_cm3.h **** #define __ISB()                           __isb(0)
 773:./stm32f10x_libraries/CMSIS/CM3/CoreSupport/core_cm3.h **** #define __DSB()                           __dsb(0)
 774:./stm32f10x_libraries/CMSIS/CM3/CoreSupport/core_cm3.h **** #define __DMB()                           __dmb(0)
 775:./stm32f10x_libraries/CMSIS/CM3/CoreSupport/core_cm3.h **** #define __REV                             __rev
 776:./stm32f10x_libraries/CMSIS/CM3/CoreSupport/core_cm3.h **** #define __RBIT                            __rbit
 777:./stm32f10x_libraries/CMSIS/CM3/CoreSupport/core_cm3.h **** #define __LDREXB(ptr)                     ((unsigned char ) __ldrex(ptr))
 778:./stm32f10x_libraries/CMSIS/CM3/CoreSupport/core_cm3.h **** #define __LDREXH(ptr)                     ((unsigned short) __ldrex(ptr))
ARM GAS  C:\Users\user\AppData\Local\Temp\cc7qV6fF.s 			page 35


 779:./stm32f10x_libraries/CMSIS/CM3/CoreSupport/core_cm3.h **** #define __LDREXW(ptr)                     ((unsigned int  ) __ldrex(ptr))
 780:./stm32f10x_libraries/CMSIS/CM3/CoreSupport/core_cm3.h **** #define __STREXB(value, ptr)              __strex(value, ptr)
 781:./stm32f10x_libraries/CMSIS/CM3/CoreSupport/core_cm3.h **** #define __STREXH(value, ptr)              __strex(value, ptr)
 782:./stm32f10x_libraries/CMSIS/CM3/CoreSupport/core_cm3.h **** #define __STREXW(value, ptr)              __strex(value, ptr)
 783:./stm32f10x_libraries/CMSIS/CM3/CoreSupport/core_cm3.h **** 
 784:./stm32f10x_libraries/CMSIS/CM3/CoreSupport/core_cm3.h **** 
 785:./stm32f10x_libraries/CMSIS/CM3/CoreSupport/core_cm3.h **** /* intrinsic unsigned long long __ldrexd(volatile void *ptr) */
 786:./stm32f10x_libraries/CMSIS/CM3/CoreSupport/core_cm3.h **** /* intrinsic int __strexd(unsigned long long val, volatile void *ptr) */
 787:./stm32f10x_libraries/CMSIS/CM3/CoreSupport/core_cm3.h **** /* intrinsic void __enable_irq();     */
 788:./stm32f10x_libraries/CMSIS/CM3/CoreSupport/core_cm3.h **** /* intrinsic void __disable_irq();    */
 789:./stm32f10x_libraries/CMSIS/CM3/CoreSupport/core_cm3.h **** 
 790:./stm32f10x_libraries/CMSIS/CM3/CoreSupport/core_cm3.h **** 
 791:./stm32f10x_libraries/CMSIS/CM3/CoreSupport/core_cm3.h **** /**
 792:./stm32f10x_libraries/CMSIS/CM3/CoreSupport/core_cm3.h ****  * @brief  Return the Process Stack Pointer
 793:./stm32f10x_libraries/CMSIS/CM3/CoreSupport/core_cm3.h ****  *
 794:./stm32f10x_libraries/CMSIS/CM3/CoreSupport/core_cm3.h ****  * @return ProcessStackPointer
 795:./stm32f10x_libraries/CMSIS/CM3/CoreSupport/core_cm3.h ****  *
 796:./stm32f10x_libraries/CMSIS/CM3/CoreSupport/core_cm3.h ****  * Return the actual process stack pointer
 797:./stm32f10x_libraries/CMSIS/CM3/CoreSupport/core_cm3.h ****  */
 798:./stm32f10x_libraries/CMSIS/CM3/CoreSupport/core_cm3.h **** extern uint32_t __get_PSP(void);
 799:./stm32f10x_libraries/CMSIS/CM3/CoreSupport/core_cm3.h **** 
 800:./stm32f10x_libraries/CMSIS/CM3/CoreSupport/core_cm3.h **** /**
 801:./stm32f10x_libraries/CMSIS/CM3/CoreSupport/core_cm3.h ****  * @brief  Set the Process Stack Pointer
 802:./stm32f10x_libraries/CMSIS/CM3/CoreSupport/core_cm3.h ****  *
 803:./stm32f10x_libraries/CMSIS/CM3/CoreSupport/core_cm3.h ****  * @param  topOfProcStack  Process Stack Pointer
 804:./stm32f10x_libraries/CMSIS/CM3/CoreSupport/core_cm3.h ****  *
 805:./stm32f10x_libraries/CMSIS/CM3/CoreSupport/core_cm3.h ****  * Assign the value ProcessStackPointer to the MSP 
 806:./stm32f10x_libraries/CMSIS/CM3/CoreSupport/core_cm3.h ****  * (process stack pointer) Cortex processor register
 807:./stm32f10x_libraries/CMSIS/CM3/CoreSupport/core_cm3.h ****  */
 808:./stm32f10x_libraries/CMSIS/CM3/CoreSupport/core_cm3.h **** extern void __set_PSP(uint32_t topOfProcStack);
 809:./stm32f10x_libraries/CMSIS/CM3/CoreSupport/core_cm3.h **** 
 810:./stm32f10x_libraries/CMSIS/CM3/CoreSupport/core_cm3.h **** /**
 811:./stm32f10x_libraries/CMSIS/CM3/CoreSupport/core_cm3.h ****  * @brief  Return the Main Stack Pointer
 812:./stm32f10x_libraries/CMSIS/CM3/CoreSupport/core_cm3.h ****  *
 813:./stm32f10x_libraries/CMSIS/CM3/CoreSupport/core_cm3.h ****  * @return Main Stack Pointer
 814:./stm32f10x_libraries/CMSIS/CM3/CoreSupport/core_cm3.h ****  *
 815:./stm32f10x_libraries/CMSIS/CM3/CoreSupport/core_cm3.h ****  * Return the current value of the MSP (main stack pointer)
 816:./stm32f10x_libraries/CMSIS/CM3/CoreSupport/core_cm3.h ****  * Cortex processor register
 817:./stm32f10x_libraries/CMSIS/CM3/CoreSupport/core_cm3.h ****  */
 818:./stm32f10x_libraries/CMSIS/CM3/CoreSupport/core_cm3.h **** extern uint32_t __get_MSP(void);
 819:./stm32f10x_libraries/CMSIS/CM3/CoreSupport/core_cm3.h **** 
 820:./stm32f10x_libraries/CMSIS/CM3/CoreSupport/core_cm3.h **** /**
 821:./stm32f10x_libraries/CMSIS/CM3/CoreSupport/core_cm3.h ****  * @brief  Set the Main Stack Pointer
 822:./stm32f10x_libraries/CMSIS/CM3/CoreSupport/core_cm3.h ****  *
 823:./stm32f10x_libraries/CMSIS/CM3/CoreSupport/core_cm3.h ****  * @param  topOfMainStack  Main Stack Pointer
 824:./stm32f10x_libraries/CMSIS/CM3/CoreSupport/core_cm3.h ****  *
 825:./stm32f10x_libraries/CMSIS/CM3/CoreSupport/core_cm3.h ****  * Assign the value mainStackPointer to the MSP 
 826:./stm32f10x_libraries/CMSIS/CM3/CoreSupport/core_cm3.h ****  * (main stack pointer) Cortex processor register
 827:./stm32f10x_libraries/CMSIS/CM3/CoreSupport/core_cm3.h ****  */
 828:./stm32f10x_libraries/CMSIS/CM3/CoreSupport/core_cm3.h **** extern void __set_MSP(uint32_t topOfMainStack);
 829:./stm32f10x_libraries/CMSIS/CM3/CoreSupport/core_cm3.h **** 
 830:./stm32f10x_libraries/CMSIS/CM3/CoreSupport/core_cm3.h **** /**
 831:./stm32f10x_libraries/CMSIS/CM3/CoreSupport/core_cm3.h ****  * @brief  Reverse byte order in unsigned short value
 832:./stm32f10x_libraries/CMSIS/CM3/CoreSupport/core_cm3.h ****  *
 833:./stm32f10x_libraries/CMSIS/CM3/CoreSupport/core_cm3.h ****  * @param   value  value to reverse
 834:./stm32f10x_libraries/CMSIS/CM3/CoreSupport/core_cm3.h ****  * @return         reversed value
 835:./stm32f10x_libraries/CMSIS/CM3/CoreSupport/core_cm3.h ****  *
ARM GAS  C:\Users\user\AppData\Local\Temp\cc7qV6fF.s 			page 36


 836:./stm32f10x_libraries/CMSIS/CM3/CoreSupport/core_cm3.h ****  * Reverse byte order in unsigned short value
 837:./stm32f10x_libraries/CMSIS/CM3/CoreSupport/core_cm3.h ****  */
 838:./stm32f10x_libraries/CMSIS/CM3/CoreSupport/core_cm3.h **** extern uint32_t __REV16(uint16_t value);
 839:./stm32f10x_libraries/CMSIS/CM3/CoreSupport/core_cm3.h **** 
 840:./stm32f10x_libraries/CMSIS/CM3/CoreSupport/core_cm3.h **** /**
 841:./stm32f10x_libraries/CMSIS/CM3/CoreSupport/core_cm3.h ****  * @brief  Reverse byte order in signed short value with sign extension to integer
 842:./stm32f10x_libraries/CMSIS/CM3/CoreSupport/core_cm3.h ****  *
 843:./stm32f10x_libraries/CMSIS/CM3/CoreSupport/core_cm3.h ****  * @param   value  value to reverse
 844:./stm32f10x_libraries/CMSIS/CM3/CoreSupport/core_cm3.h ****  * @return         reversed value
 845:./stm32f10x_libraries/CMSIS/CM3/CoreSupport/core_cm3.h ****  *
 846:./stm32f10x_libraries/CMSIS/CM3/CoreSupport/core_cm3.h ****  * Reverse byte order in signed short value with sign extension to integer
 847:./stm32f10x_libraries/CMSIS/CM3/CoreSupport/core_cm3.h ****  */
 848:./stm32f10x_libraries/CMSIS/CM3/CoreSupport/core_cm3.h **** extern int32_t __REVSH(int16_t value);
 849:./stm32f10x_libraries/CMSIS/CM3/CoreSupport/core_cm3.h **** 
 850:./stm32f10x_libraries/CMSIS/CM3/CoreSupport/core_cm3.h **** 
 851:./stm32f10x_libraries/CMSIS/CM3/CoreSupport/core_cm3.h **** #if (__ARMCC_VERSION < 400000)
 852:./stm32f10x_libraries/CMSIS/CM3/CoreSupport/core_cm3.h **** 
 853:./stm32f10x_libraries/CMSIS/CM3/CoreSupport/core_cm3.h **** /**
 854:./stm32f10x_libraries/CMSIS/CM3/CoreSupport/core_cm3.h ****  * @brief  Remove the exclusive lock created by ldrex
 855:./stm32f10x_libraries/CMSIS/CM3/CoreSupport/core_cm3.h ****  *
 856:./stm32f10x_libraries/CMSIS/CM3/CoreSupport/core_cm3.h ****  * Removes the exclusive lock which is created by ldrex.
 857:./stm32f10x_libraries/CMSIS/CM3/CoreSupport/core_cm3.h ****  */
 858:./stm32f10x_libraries/CMSIS/CM3/CoreSupport/core_cm3.h **** extern void __CLREX(void);
 859:./stm32f10x_libraries/CMSIS/CM3/CoreSupport/core_cm3.h **** 
 860:./stm32f10x_libraries/CMSIS/CM3/CoreSupport/core_cm3.h **** /**
 861:./stm32f10x_libraries/CMSIS/CM3/CoreSupport/core_cm3.h ****  * @brief  Return the Base Priority value
 862:./stm32f10x_libraries/CMSIS/CM3/CoreSupport/core_cm3.h ****  *
 863:./stm32f10x_libraries/CMSIS/CM3/CoreSupport/core_cm3.h ****  * @return BasePriority
 864:./stm32f10x_libraries/CMSIS/CM3/CoreSupport/core_cm3.h ****  *
 865:./stm32f10x_libraries/CMSIS/CM3/CoreSupport/core_cm3.h ****  * Return the content of the base priority register
 866:./stm32f10x_libraries/CMSIS/CM3/CoreSupport/core_cm3.h ****  */
 867:./stm32f10x_libraries/CMSIS/CM3/CoreSupport/core_cm3.h **** extern uint32_t __get_BASEPRI(void);
 868:./stm32f10x_libraries/CMSIS/CM3/CoreSupport/core_cm3.h **** 
 869:./stm32f10x_libraries/CMSIS/CM3/CoreSupport/core_cm3.h **** /**
 870:./stm32f10x_libraries/CMSIS/CM3/CoreSupport/core_cm3.h ****  * @brief  Set the Base Priority value
 871:./stm32f10x_libraries/CMSIS/CM3/CoreSupport/core_cm3.h ****  *
 872:./stm32f10x_libraries/CMSIS/CM3/CoreSupport/core_cm3.h ****  * @param  basePri  BasePriority
 873:./stm32f10x_libraries/CMSIS/CM3/CoreSupport/core_cm3.h ****  *
 874:./stm32f10x_libraries/CMSIS/CM3/CoreSupport/core_cm3.h ****  * Set the base priority register
 875:./stm32f10x_libraries/CMSIS/CM3/CoreSupport/core_cm3.h ****  */
 876:./stm32f10x_libraries/CMSIS/CM3/CoreSupport/core_cm3.h **** extern void __set_BASEPRI(uint32_t basePri);
 877:./stm32f10x_libraries/CMSIS/CM3/CoreSupport/core_cm3.h **** 
 878:./stm32f10x_libraries/CMSIS/CM3/CoreSupport/core_cm3.h **** /**
 879:./stm32f10x_libraries/CMSIS/CM3/CoreSupport/core_cm3.h ****  * @brief  Return the Priority Mask value
 880:./stm32f10x_libraries/CMSIS/CM3/CoreSupport/core_cm3.h ****  *
 881:./stm32f10x_libraries/CMSIS/CM3/CoreSupport/core_cm3.h ****  * @return PriMask
 882:./stm32f10x_libraries/CMSIS/CM3/CoreSupport/core_cm3.h ****  *
 883:./stm32f10x_libraries/CMSIS/CM3/CoreSupport/core_cm3.h ****  * Return state of the priority mask bit from the priority mask register
 884:./stm32f10x_libraries/CMSIS/CM3/CoreSupport/core_cm3.h ****  */
 885:./stm32f10x_libraries/CMSIS/CM3/CoreSupport/core_cm3.h **** extern uint32_t __get_PRIMASK(void);
 886:./stm32f10x_libraries/CMSIS/CM3/CoreSupport/core_cm3.h **** 
 887:./stm32f10x_libraries/CMSIS/CM3/CoreSupport/core_cm3.h **** /**
 888:./stm32f10x_libraries/CMSIS/CM3/CoreSupport/core_cm3.h ****  * @brief  Set the Priority Mask value
 889:./stm32f10x_libraries/CMSIS/CM3/CoreSupport/core_cm3.h ****  *
 890:./stm32f10x_libraries/CMSIS/CM3/CoreSupport/core_cm3.h ****  * @param   priMask  PriMask
 891:./stm32f10x_libraries/CMSIS/CM3/CoreSupport/core_cm3.h ****  *
 892:./stm32f10x_libraries/CMSIS/CM3/CoreSupport/core_cm3.h ****  * Set the priority mask bit in the priority mask register
ARM GAS  C:\Users\user\AppData\Local\Temp\cc7qV6fF.s 			page 37


 893:./stm32f10x_libraries/CMSIS/CM3/CoreSupport/core_cm3.h ****  */
 894:./stm32f10x_libraries/CMSIS/CM3/CoreSupport/core_cm3.h **** extern void __set_PRIMASK(uint32_t priMask);
 895:./stm32f10x_libraries/CMSIS/CM3/CoreSupport/core_cm3.h **** 
 896:./stm32f10x_libraries/CMSIS/CM3/CoreSupport/core_cm3.h **** /**
 897:./stm32f10x_libraries/CMSIS/CM3/CoreSupport/core_cm3.h ****  * @brief  Return the Fault Mask value
 898:./stm32f10x_libraries/CMSIS/CM3/CoreSupport/core_cm3.h ****  *
 899:./stm32f10x_libraries/CMSIS/CM3/CoreSupport/core_cm3.h ****  * @return FaultMask
 900:./stm32f10x_libraries/CMSIS/CM3/CoreSupport/core_cm3.h ****  *
 901:./stm32f10x_libraries/CMSIS/CM3/CoreSupport/core_cm3.h ****  * Return the content of the fault mask register
 902:./stm32f10x_libraries/CMSIS/CM3/CoreSupport/core_cm3.h ****  */
 903:./stm32f10x_libraries/CMSIS/CM3/CoreSupport/core_cm3.h **** extern uint32_t __get_FAULTMASK(void);
 904:./stm32f10x_libraries/CMSIS/CM3/CoreSupport/core_cm3.h **** 
 905:./stm32f10x_libraries/CMSIS/CM3/CoreSupport/core_cm3.h **** /**
 906:./stm32f10x_libraries/CMSIS/CM3/CoreSupport/core_cm3.h ****  * @brief  Set the Fault Mask value
 907:./stm32f10x_libraries/CMSIS/CM3/CoreSupport/core_cm3.h ****  *
 908:./stm32f10x_libraries/CMSIS/CM3/CoreSupport/core_cm3.h ****  * @param  faultMask faultMask value
 909:./stm32f10x_libraries/CMSIS/CM3/CoreSupport/core_cm3.h ****  *
 910:./stm32f10x_libraries/CMSIS/CM3/CoreSupport/core_cm3.h ****  * Set the fault mask register
 911:./stm32f10x_libraries/CMSIS/CM3/CoreSupport/core_cm3.h ****  */
 912:./stm32f10x_libraries/CMSIS/CM3/CoreSupport/core_cm3.h **** extern void __set_FAULTMASK(uint32_t faultMask);
 913:./stm32f10x_libraries/CMSIS/CM3/CoreSupport/core_cm3.h **** 
 914:./stm32f10x_libraries/CMSIS/CM3/CoreSupport/core_cm3.h **** /**
 915:./stm32f10x_libraries/CMSIS/CM3/CoreSupport/core_cm3.h ****  * @brief  Return the Control Register value
 916:./stm32f10x_libraries/CMSIS/CM3/CoreSupport/core_cm3.h ****  * 
 917:./stm32f10x_libraries/CMSIS/CM3/CoreSupport/core_cm3.h ****  * @return Control value
 918:./stm32f10x_libraries/CMSIS/CM3/CoreSupport/core_cm3.h ****  *
 919:./stm32f10x_libraries/CMSIS/CM3/CoreSupport/core_cm3.h ****  * Return the content of the control register
 920:./stm32f10x_libraries/CMSIS/CM3/CoreSupport/core_cm3.h ****  */
 921:./stm32f10x_libraries/CMSIS/CM3/CoreSupport/core_cm3.h **** extern uint32_t __get_CONTROL(void);
 922:./stm32f10x_libraries/CMSIS/CM3/CoreSupport/core_cm3.h **** 
 923:./stm32f10x_libraries/CMSIS/CM3/CoreSupport/core_cm3.h **** /**
 924:./stm32f10x_libraries/CMSIS/CM3/CoreSupport/core_cm3.h ****  * @brief  Set the Control Register value
 925:./stm32f10x_libraries/CMSIS/CM3/CoreSupport/core_cm3.h ****  *
 926:./stm32f10x_libraries/CMSIS/CM3/CoreSupport/core_cm3.h ****  * @param  control  Control value
 927:./stm32f10x_libraries/CMSIS/CM3/CoreSupport/core_cm3.h ****  *
 928:./stm32f10x_libraries/CMSIS/CM3/CoreSupport/core_cm3.h ****  * Set the control register
 929:./stm32f10x_libraries/CMSIS/CM3/CoreSupport/core_cm3.h ****  */
 930:./stm32f10x_libraries/CMSIS/CM3/CoreSupport/core_cm3.h **** extern void __set_CONTROL(uint32_t control);
 931:./stm32f10x_libraries/CMSIS/CM3/CoreSupport/core_cm3.h **** 
 932:./stm32f10x_libraries/CMSIS/CM3/CoreSupport/core_cm3.h **** #else  /* (__ARMCC_VERSION >= 400000)  */
 933:./stm32f10x_libraries/CMSIS/CM3/CoreSupport/core_cm3.h **** 
 934:./stm32f10x_libraries/CMSIS/CM3/CoreSupport/core_cm3.h **** /**
 935:./stm32f10x_libraries/CMSIS/CM3/CoreSupport/core_cm3.h ****  * @brief  Remove the exclusive lock created by ldrex
 936:./stm32f10x_libraries/CMSIS/CM3/CoreSupport/core_cm3.h ****  *
 937:./stm32f10x_libraries/CMSIS/CM3/CoreSupport/core_cm3.h ****  * Removes the exclusive lock which is created by ldrex.
 938:./stm32f10x_libraries/CMSIS/CM3/CoreSupport/core_cm3.h ****  */
 939:./stm32f10x_libraries/CMSIS/CM3/CoreSupport/core_cm3.h **** #define __CLREX                           __clrex
 940:./stm32f10x_libraries/CMSIS/CM3/CoreSupport/core_cm3.h **** 
 941:./stm32f10x_libraries/CMSIS/CM3/CoreSupport/core_cm3.h **** /**
 942:./stm32f10x_libraries/CMSIS/CM3/CoreSupport/core_cm3.h ****  * @brief  Return the Base Priority value
 943:./stm32f10x_libraries/CMSIS/CM3/CoreSupport/core_cm3.h ****  *
 944:./stm32f10x_libraries/CMSIS/CM3/CoreSupport/core_cm3.h ****  * @return BasePriority
 945:./stm32f10x_libraries/CMSIS/CM3/CoreSupport/core_cm3.h ****  *
 946:./stm32f10x_libraries/CMSIS/CM3/CoreSupport/core_cm3.h ****  * Return the content of the base priority register
 947:./stm32f10x_libraries/CMSIS/CM3/CoreSupport/core_cm3.h ****  */
 948:./stm32f10x_libraries/CMSIS/CM3/CoreSupport/core_cm3.h **** static __INLINE uint32_t  __get_BASEPRI(void)
 949:./stm32f10x_libraries/CMSIS/CM3/CoreSupport/core_cm3.h **** {
ARM GAS  C:\Users\user\AppData\Local\Temp\cc7qV6fF.s 			page 38


 950:./stm32f10x_libraries/CMSIS/CM3/CoreSupport/core_cm3.h ****   register uint32_t __regBasePri         __ASM("basepri");
 951:./stm32f10x_libraries/CMSIS/CM3/CoreSupport/core_cm3.h ****   return(__regBasePri);
 952:./stm32f10x_libraries/CMSIS/CM3/CoreSupport/core_cm3.h **** }
 953:./stm32f10x_libraries/CMSIS/CM3/CoreSupport/core_cm3.h **** 
 954:./stm32f10x_libraries/CMSIS/CM3/CoreSupport/core_cm3.h **** /**
 955:./stm32f10x_libraries/CMSIS/CM3/CoreSupport/core_cm3.h ****  * @brief  Set the Base Priority value
 956:./stm32f10x_libraries/CMSIS/CM3/CoreSupport/core_cm3.h ****  *
 957:./stm32f10x_libraries/CMSIS/CM3/CoreSupport/core_cm3.h ****  * @param  basePri  BasePriority
 958:./stm32f10x_libraries/CMSIS/CM3/CoreSupport/core_cm3.h ****  *
 959:./stm32f10x_libraries/CMSIS/CM3/CoreSupport/core_cm3.h ****  * Set the base priority register
 960:./stm32f10x_libraries/CMSIS/CM3/CoreSupport/core_cm3.h ****  */
 961:./stm32f10x_libraries/CMSIS/CM3/CoreSupport/core_cm3.h **** static __INLINE void __set_BASEPRI(uint32_t basePri)
 962:./stm32f10x_libraries/CMSIS/CM3/CoreSupport/core_cm3.h **** {
 963:./stm32f10x_libraries/CMSIS/CM3/CoreSupport/core_cm3.h ****   register uint32_t __regBasePri         __ASM("basepri");
 964:./stm32f10x_libraries/CMSIS/CM3/CoreSupport/core_cm3.h ****   __regBasePri = (basePri & 0xff);
 965:./stm32f10x_libraries/CMSIS/CM3/CoreSupport/core_cm3.h **** }
 966:./stm32f10x_libraries/CMSIS/CM3/CoreSupport/core_cm3.h **** 
 967:./stm32f10x_libraries/CMSIS/CM3/CoreSupport/core_cm3.h **** /**
 968:./stm32f10x_libraries/CMSIS/CM3/CoreSupport/core_cm3.h ****  * @brief  Return the Priority Mask value
 969:./stm32f10x_libraries/CMSIS/CM3/CoreSupport/core_cm3.h ****  *
 970:./stm32f10x_libraries/CMSIS/CM3/CoreSupport/core_cm3.h ****  * @return PriMask
 971:./stm32f10x_libraries/CMSIS/CM3/CoreSupport/core_cm3.h ****  *
 972:./stm32f10x_libraries/CMSIS/CM3/CoreSupport/core_cm3.h ****  * Return state of the priority mask bit from the priority mask register
 973:./stm32f10x_libraries/CMSIS/CM3/CoreSupport/core_cm3.h ****  */
 974:./stm32f10x_libraries/CMSIS/CM3/CoreSupport/core_cm3.h **** static __INLINE uint32_t __get_PRIMASK(void)
 975:./stm32f10x_libraries/CMSIS/CM3/CoreSupport/core_cm3.h **** {
 976:./stm32f10x_libraries/CMSIS/CM3/CoreSupport/core_cm3.h ****   register uint32_t __regPriMask         __ASM("primask");
 977:./stm32f10x_libraries/CMSIS/CM3/CoreSupport/core_cm3.h ****   return(__regPriMask);
 978:./stm32f10x_libraries/CMSIS/CM3/CoreSupport/core_cm3.h **** }
 979:./stm32f10x_libraries/CMSIS/CM3/CoreSupport/core_cm3.h **** 
 980:./stm32f10x_libraries/CMSIS/CM3/CoreSupport/core_cm3.h **** /**
 981:./stm32f10x_libraries/CMSIS/CM3/CoreSupport/core_cm3.h ****  * @brief  Set the Priority Mask value
 982:./stm32f10x_libraries/CMSIS/CM3/CoreSupport/core_cm3.h ****  *
 983:./stm32f10x_libraries/CMSIS/CM3/CoreSupport/core_cm3.h ****  * @param  priMask  PriMask
 984:./stm32f10x_libraries/CMSIS/CM3/CoreSupport/core_cm3.h ****  *
 985:./stm32f10x_libraries/CMSIS/CM3/CoreSupport/core_cm3.h ****  * Set the priority mask bit in the priority mask register
 986:./stm32f10x_libraries/CMSIS/CM3/CoreSupport/core_cm3.h ****  */
 987:./stm32f10x_libraries/CMSIS/CM3/CoreSupport/core_cm3.h **** static __INLINE void __set_PRIMASK(uint32_t priMask)
 988:./stm32f10x_libraries/CMSIS/CM3/CoreSupport/core_cm3.h **** {
 989:./stm32f10x_libraries/CMSIS/CM3/CoreSupport/core_cm3.h ****   register uint32_t __regPriMask         __ASM("primask");
 990:./stm32f10x_libraries/CMSIS/CM3/CoreSupport/core_cm3.h ****   __regPriMask = (priMask);
 991:./stm32f10x_libraries/CMSIS/CM3/CoreSupport/core_cm3.h **** }
 992:./stm32f10x_libraries/CMSIS/CM3/CoreSupport/core_cm3.h **** 
 993:./stm32f10x_libraries/CMSIS/CM3/CoreSupport/core_cm3.h **** /**
 994:./stm32f10x_libraries/CMSIS/CM3/CoreSupport/core_cm3.h ****  * @brief  Return the Fault Mask value
 995:./stm32f10x_libraries/CMSIS/CM3/CoreSupport/core_cm3.h ****  *
 996:./stm32f10x_libraries/CMSIS/CM3/CoreSupport/core_cm3.h ****  * @return FaultMask
 997:./stm32f10x_libraries/CMSIS/CM3/CoreSupport/core_cm3.h ****  *
 998:./stm32f10x_libraries/CMSIS/CM3/CoreSupport/core_cm3.h ****  * Return the content of the fault mask register
 999:./stm32f10x_libraries/CMSIS/CM3/CoreSupport/core_cm3.h ****  */
1000:./stm32f10x_libraries/CMSIS/CM3/CoreSupport/core_cm3.h **** static __INLINE uint32_t __get_FAULTMASK(void)
1001:./stm32f10x_libraries/CMSIS/CM3/CoreSupport/core_cm3.h **** {
1002:./stm32f10x_libraries/CMSIS/CM3/CoreSupport/core_cm3.h ****   register uint32_t __regFaultMask       __ASM("faultmask");
1003:./stm32f10x_libraries/CMSIS/CM3/CoreSupport/core_cm3.h ****   return(__regFaultMask);
1004:./stm32f10x_libraries/CMSIS/CM3/CoreSupport/core_cm3.h **** }
1005:./stm32f10x_libraries/CMSIS/CM3/CoreSupport/core_cm3.h **** 
1006:./stm32f10x_libraries/CMSIS/CM3/CoreSupport/core_cm3.h **** /**
ARM GAS  C:\Users\user\AppData\Local\Temp\cc7qV6fF.s 			page 39


1007:./stm32f10x_libraries/CMSIS/CM3/CoreSupport/core_cm3.h ****  * @brief  Set the Fault Mask value
1008:./stm32f10x_libraries/CMSIS/CM3/CoreSupport/core_cm3.h ****  *
1009:./stm32f10x_libraries/CMSIS/CM3/CoreSupport/core_cm3.h ****  * @param  faultMask  faultMask value
1010:./stm32f10x_libraries/CMSIS/CM3/CoreSupport/core_cm3.h ****  *
1011:./stm32f10x_libraries/CMSIS/CM3/CoreSupport/core_cm3.h ****  * Set the fault mask register
1012:./stm32f10x_libraries/CMSIS/CM3/CoreSupport/core_cm3.h ****  */
1013:./stm32f10x_libraries/CMSIS/CM3/CoreSupport/core_cm3.h **** static __INLINE void __set_FAULTMASK(uint32_t faultMask)
1014:./stm32f10x_libraries/CMSIS/CM3/CoreSupport/core_cm3.h **** {
1015:./stm32f10x_libraries/CMSIS/CM3/CoreSupport/core_cm3.h ****   register uint32_t __regFaultMask       __ASM("faultmask");
1016:./stm32f10x_libraries/CMSIS/CM3/CoreSupport/core_cm3.h ****   __regFaultMask = (faultMask & 1);
1017:./stm32f10x_libraries/CMSIS/CM3/CoreSupport/core_cm3.h **** }
1018:./stm32f10x_libraries/CMSIS/CM3/CoreSupport/core_cm3.h **** 
1019:./stm32f10x_libraries/CMSIS/CM3/CoreSupport/core_cm3.h **** /**
1020:./stm32f10x_libraries/CMSIS/CM3/CoreSupport/core_cm3.h ****  * @brief  Return the Control Register value
1021:./stm32f10x_libraries/CMSIS/CM3/CoreSupport/core_cm3.h ****  * 
1022:./stm32f10x_libraries/CMSIS/CM3/CoreSupport/core_cm3.h ****  * @return Control value
1023:./stm32f10x_libraries/CMSIS/CM3/CoreSupport/core_cm3.h ****  *
1024:./stm32f10x_libraries/CMSIS/CM3/CoreSupport/core_cm3.h ****  * Return the content of the control register
1025:./stm32f10x_libraries/CMSIS/CM3/CoreSupport/core_cm3.h ****  */
1026:./stm32f10x_libraries/CMSIS/CM3/CoreSupport/core_cm3.h **** static __INLINE uint32_t __get_CONTROL(void)
1027:./stm32f10x_libraries/CMSIS/CM3/CoreSupport/core_cm3.h **** {
1028:./stm32f10x_libraries/CMSIS/CM3/CoreSupport/core_cm3.h ****   register uint32_t __regControl         __ASM("control");
1029:./stm32f10x_libraries/CMSIS/CM3/CoreSupport/core_cm3.h ****   return(__regControl);
1030:./stm32f10x_libraries/CMSIS/CM3/CoreSupport/core_cm3.h **** }
1031:./stm32f10x_libraries/CMSIS/CM3/CoreSupport/core_cm3.h **** 
1032:./stm32f10x_libraries/CMSIS/CM3/CoreSupport/core_cm3.h **** /**
1033:./stm32f10x_libraries/CMSIS/CM3/CoreSupport/core_cm3.h ****  * @brief  Set the Control Register value
1034:./stm32f10x_libraries/CMSIS/CM3/CoreSupport/core_cm3.h ****  *
1035:./stm32f10x_libraries/CMSIS/CM3/CoreSupport/core_cm3.h ****  * @param  control  Control value
1036:./stm32f10x_libraries/CMSIS/CM3/CoreSupport/core_cm3.h ****  *
1037:./stm32f10x_libraries/CMSIS/CM3/CoreSupport/core_cm3.h ****  * Set the control register
1038:./stm32f10x_libraries/CMSIS/CM3/CoreSupport/core_cm3.h ****  */
1039:./stm32f10x_libraries/CMSIS/CM3/CoreSupport/core_cm3.h **** static __INLINE void __set_CONTROL(uint32_t control)
1040:./stm32f10x_libraries/CMSIS/CM3/CoreSupport/core_cm3.h **** {
1041:./stm32f10x_libraries/CMSIS/CM3/CoreSupport/core_cm3.h ****   register uint32_t __regControl         __ASM("control");
1042:./stm32f10x_libraries/CMSIS/CM3/CoreSupport/core_cm3.h ****   __regControl = control;
1043:./stm32f10x_libraries/CMSIS/CM3/CoreSupport/core_cm3.h **** }
1044:./stm32f10x_libraries/CMSIS/CM3/CoreSupport/core_cm3.h **** 
1045:./stm32f10x_libraries/CMSIS/CM3/CoreSupport/core_cm3.h **** #endif /* __ARMCC_VERSION  */ 
1046:./stm32f10x_libraries/CMSIS/CM3/CoreSupport/core_cm3.h **** 
1047:./stm32f10x_libraries/CMSIS/CM3/CoreSupport/core_cm3.h **** 
1048:./stm32f10x_libraries/CMSIS/CM3/CoreSupport/core_cm3.h **** 
1049:./stm32f10x_libraries/CMSIS/CM3/CoreSupport/core_cm3.h **** #elif (defined (__ICCARM__)) /*------------------ ICC Compiler -------------------*/
1050:./stm32f10x_libraries/CMSIS/CM3/CoreSupport/core_cm3.h **** /* IAR iccarm specific functions */
1051:./stm32f10x_libraries/CMSIS/CM3/CoreSupport/core_cm3.h **** 
1052:./stm32f10x_libraries/CMSIS/CM3/CoreSupport/core_cm3.h **** #define __enable_irq                              __enable_interrupt        /*!< global Interrupt e
1053:./stm32f10x_libraries/CMSIS/CM3/CoreSupport/core_cm3.h **** #define __disable_irq                             __disable_interrupt       /*!< global Interrupt d
1054:./stm32f10x_libraries/CMSIS/CM3/CoreSupport/core_cm3.h **** 
1055:./stm32f10x_libraries/CMSIS/CM3/CoreSupport/core_cm3.h **** static __INLINE void __enable_fault_irq()         { __ASM ("cpsie f"); }
1056:./stm32f10x_libraries/CMSIS/CM3/CoreSupport/core_cm3.h **** static __INLINE void __disable_fault_irq()        { __ASM ("cpsid f"); }
1057:./stm32f10x_libraries/CMSIS/CM3/CoreSupport/core_cm3.h **** 
1058:./stm32f10x_libraries/CMSIS/CM3/CoreSupport/core_cm3.h **** #define __NOP                                     __no_operation            /*!< no operation intri
1059:./stm32f10x_libraries/CMSIS/CM3/CoreSupport/core_cm3.h **** static __INLINE  void __WFI()                     { __ASM ("wfi"); }
1060:./stm32f10x_libraries/CMSIS/CM3/CoreSupport/core_cm3.h **** static __INLINE  void __WFE()                     { __ASM ("wfe"); }
1061:./stm32f10x_libraries/CMSIS/CM3/CoreSupport/core_cm3.h **** static __INLINE  void __SEV()                     { __ASM ("sev"); }
1062:./stm32f10x_libraries/CMSIS/CM3/CoreSupport/core_cm3.h **** static __INLINE  void __CLREX()                   { __ASM ("clrex"); }
1063:./stm32f10x_libraries/CMSIS/CM3/CoreSupport/core_cm3.h **** 
ARM GAS  C:\Users\user\AppData\Local\Temp\cc7qV6fF.s 			page 40


1064:./stm32f10x_libraries/CMSIS/CM3/CoreSupport/core_cm3.h **** /* intrinsic void __ISB(void)                                     */
1065:./stm32f10x_libraries/CMSIS/CM3/CoreSupport/core_cm3.h **** /* intrinsic void __DSB(void)                                     */
1066:./stm32f10x_libraries/CMSIS/CM3/CoreSupport/core_cm3.h **** /* intrinsic void __DMB(void)                                     */
1067:./stm32f10x_libraries/CMSIS/CM3/CoreSupport/core_cm3.h **** /* intrinsic void __set_PRIMASK();                                */
1068:./stm32f10x_libraries/CMSIS/CM3/CoreSupport/core_cm3.h **** /* intrinsic void __get_PRIMASK();                                */
1069:./stm32f10x_libraries/CMSIS/CM3/CoreSupport/core_cm3.h **** /* intrinsic void __set_FAULTMASK();                              */
1070:./stm32f10x_libraries/CMSIS/CM3/CoreSupport/core_cm3.h **** /* intrinsic void __get_FAULTMASK();                              */
1071:./stm32f10x_libraries/CMSIS/CM3/CoreSupport/core_cm3.h **** /* intrinsic uint32_t __REV(uint32_t value);                      */
1072:./stm32f10x_libraries/CMSIS/CM3/CoreSupport/core_cm3.h **** /* intrinsic uint32_t __REVSH(uint32_t value);                    */
1073:./stm32f10x_libraries/CMSIS/CM3/CoreSupport/core_cm3.h **** /* intrinsic unsigned long __STREX(unsigned long, unsigned long); */
1074:./stm32f10x_libraries/CMSIS/CM3/CoreSupport/core_cm3.h **** /* intrinsic unsigned long __LDREX(unsigned long *);              */
1075:./stm32f10x_libraries/CMSIS/CM3/CoreSupport/core_cm3.h **** 
1076:./stm32f10x_libraries/CMSIS/CM3/CoreSupport/core_cm3.h **** 
1077:./stm32f10x_libraries/CMSIS/CM3/CoreSupport/core_cm3.h **** /**
1078:./stm32f10x_libraries/CMSIS/CM3/CoreSupport/core_cm3.h ****  * @brief  Return the Process Stack Pointer
1079:./stm32f10x_libraries/CMSIS/CM3/CoreSupport/core_cm3.h ****  *
1080:./stm32f10x_libraries/CMSIS/CM3/CoreSupport/core_cm3.h ****  * @return ProcessStackPointer
1081:./stm32f10x_libraries/CMSIS/CM3/CoreSupport/core_cm3.h ****  *
1082:./stm32f10x_libraries/CMSIS/CM3/CoreSupport/core_cm3.h ****  * Return the actual process stack pointer
1083:./stm32f10x_libraries/CMSIS/CM3/CoreSupport/core_cm3.h ****  */
1084:./stm32f10x_libraries/CMSIS/CM3/CoreSupport/core_cm3.h **** extern uint32_t __get_PSP(void);
1085:./stm32f10x_libraries/CMSIS/CM3/CoreSupport/core_cm3.h **** 
1086:./stm32f10x_libraries/CMSIS/CM3/CoreSupport/core_cm3.h **** /**
1087:./stm32f10x_libraries/CMSIS/CM3/CoreSupport/core_cm3.h ****  * @brief  Set the Process Stack Pointer
1088:./stm32f10x_libraries/CMSIS/CM3/CoreSupport/core_cm3.h ****  *
1089:./stm32f10x_libraries/CMSIS/CM3/CoreSupport/core_cm3.h ****  * @param  topOfProcStack  Process Stack Pointer
1090:./stm32f10x_libraries/CMSIS/CM3/CoreSupport/core_cm3.h ****  *
1091:./stm32f10x_libraries/CMSIS/CM3/CoreSupport/core_cm3.h ****  * Assign the value ProcessStackPointer to the MSP 
1092:./stm32f10x_libraries/CMSIS/CM3/CoreSupport/core_cm3.h ****  * (process stack pointer) Cortex processor register
1093:./stm32f10x_libraries/CMSIS/CM3/CoreSupport/core_cm3.h ****  */
1094:./stm32f10x_libraries/CMSIS/CM3/CoreSupport/core_cm3.h **** extern void __set_PSP(uint32_t topOfProcStack);
1095:./stm32f10x_libraries/CMSIS/CM3/CoreSupport/core_cm3.h **** 
1096:./stm32f10x_libraries/CMSIS/CM3/CoreSupport/core_cm3.h **** /**
1097:./stm32f10x_libraries/CMSIS/CM3/CoreSupport/core_cm3.h ****  * @brief  Return the Main Stack Pointer
1098:./stm32f10x_libraries/CMSIS/CM3/CoreSupport/core_cm3.h ****  *
1099:./stm32f10x_libraries/CMSIS/CM3/CoreSupport/core_cm3.h ****  * @return Main Stack Pointer
1100:./stm32f10x_libraries/CMSIS/CM3/CoreSupport/core_cm3.h ****  *
1101:./stm32f10x_libraries/CMSIS/CM3/CoreSupport/core_cm3.h ****  * Return the current value of the MSP (main stack pointer)
1102:./stm32f10x_libraries/CMSIS/CM3/CoreSupport/core_cm3.h ****  * Cortex processor register
1103:./stm32f10x_libraries/CMSIS/CM3/CoreSupport/core_cm3.h ****  */
1104:./stm32f10x_libraries/CMSIS/CM3/CoreSupport/core_cm3.h **** extern uint32_t __get_MSP(void);
1105:./stm32f10x_libraries/CMSIS/CM3/CoreSupport/core_cm3.h **** 
1106:./stm32f10x_libraries/CMSIS/CM3/CoreSupport/core_cm3.h **** /**
1107:./stm32f10x_libraries/CMSIS/CM3/CoreSupport/core_cm3.h ****  * @brief  Set the Main Stack Pointer
1108:./stm32f10x_libraries/CMSIS/CM3/CoreSupport/core_cm3.h ****  *
1109:./stm32f10x_libraries/CMSIS/CM3/CoreSupport/core_cm3.h ****  * @param  topOfMainStack  Main Stack Pointer
1110:./stm32f10x_libraries/CMSIS/CM3/CoreSupport/core_cm3.h ****  *
1111:./stm32f10x_libraries/CMSIS/CM3/CoreSupport/core_cm3.h ****  * Assign the value mainStackPointer to the MSP 
1112:./stm32f10x_libraries/CMSIS/CM3/CoreSupport/core_cm3.h ****  * (main stack pointer) Cortex processor register
1113:./stm32f10x_libraries/CMSIS/CM3/CoreSupport/core_cm3.h ****  */
1114:./stm32f10x_libraries/CMSIS/CM3/CoreSupport/core_cm3.h **** extern void __set_MSP(uint32_t topOfMainStack);
1115:./stm32f10x_libraries/CMSIS/CM3/CoreSupport/core_cm3.h **** 
1116:./stm32f10x_libraries/CMSIS/CM3/CoreSupport/core_cm3.h **** /**
1117:./stm32f10x_libraries/CMSIS/CM3/CoreSupport/core_cm3.h ****  * @brief  Reverse byte order in unsigned short value
1118:./stm32f10x_libraries/CMSIS/CM3/CoreSupport/core_cm3.h ****  *
1119:./stm32f10x_libraries/CMSIS/CM3/CoreSupport/core_cm3.h ****  * @param  value  value to reverse
1120:./stm32f10x_libraries/CMSIS/CM3/CoreSupport/core_cm3.h ****  * @return        reversed value
ARM GAS  C:\Users\user\AppData\Local\Temp\cc7qV6fF.s 			page 41


1121:./stm32f10x_libraries/CMSIS/CM3/CoreSupport/core_cm3.h ****  *
1122:./stm32f10x_libraries/CMSIS/CM3/CoreSupport/core_cm3.h ****  * Reverse byte order in unsigned short value
1123:./stm32f10x_libraries/CMSIS/CM3/CoreSupport/core_cm3.h ****  */
1124:./stm32f10x_libraries/CMSIS/CM3/CoreSupport/core_cm3.h **** extern uint32_t __REV16(uint16_t value);
1125:./stm32f10x_libraries/CMSIS/CM3/CoreSupport/core_cm3.h **** 
1126:./stm32f10x_libraries/CMSIS/CM3/CoreSupport/core_cm3.h **** /**
1127:./stm32f10x_libraries/CMSIS/CM3/CoreSupport/core_cm3.h ****  * @brief  Reverse bit order of value
1128:./stm32f10x_libraries/CMSIS/CM3/CoreSupport/core_cm3.h ****  *
1129:./stm32f10x_libraries/CMSIS/CM3/CoreSupport/core_cm3.h ****  * @param  value  value to reverse
1130:./stm32f10x_libraries/CMSIS/CM3/CoreSupport/core_cm3.h ****  * @return        reversed value
1131:./stm32f10x_libraries/CMSIS/CM3/CoreSupport/core_cm3.h ****  *
1132:./stm32f10x_libraries/CMSIS/CM3/CoreSupport/core_cm3.h ****  * Reverse bit order of value
1133:./stm32f10x_libraries/CMSIS/CM3/CoreSupport/core_cm3.h ****  */
1134:./stm32f10x_libraries/CMSIS/CM3/CoreSupport/core_cm3.h **** extern uint32_t __RBIT(uint32_t value);
1135:./stm32f10x_libraries/CMSIS/CM3/CoreSupport/core_cm3.h **** 
1136:./stm32f10x_libraries/CMSIS/CM3/CoreSupport/core_cm3.h **** /**
1137:./stm32f10x_libraries/CMSIS/CM3/CoreSupport/core_cm3.h ****  * @brief  LDR Exclusive (8 bit)
1138:./stm32f10x_libraries/CMSIS/CM3/CoreSupport/core_cm3.h ****  *
1139:./stm32f10x_libraries/CMSIS/CM3/CoreSupport/core_cm3.h ****  * @param  *addr  address pointer
1140:./stm32f10x_libraries/CMSIS/CM3/CoreSupport/core_cm3.h ****  * @return        value of (*address)
1141:./stm32f10x_libraries/CMSIS/CM3/CoreSupport/core_cm3.h ****  *
1142:./stm32f10x_libraries/CMSIS/CM3/CoreSupport/core_cm3.h ****  * Exclusive LDR command for 8 bit values)
1143:./stm32f10x_libraries/CMSIS/CM3/CoreSupport/core_cm3.h ****  */
1144:./stm32f10x_libraries/CMSIS/CM3/CoreSupport/core_cm3.h **** extern uint8_t __LDREXB(uint8_t *addr);
1145:./stm32f10x_libraries/CMSIS/CM3/CoreSupport/core_cm3.h **** 
1146:./stm32f10x_libraries/CMSIS/CM3/CoreSupport/core_cm3.h **** /**
1147:./stm32f10x_libraries/CMSIS/CM3/CoreSupport/core_cm3.h ****  * @brief  LDR Exclusive (16 bit)
1148:./stm32f10x_libraries/CMSIS/CM3/CoreSupport/core_cm3.h ****  *
1149:./stm32f10x_libraries/CMSIS/CM3/CoreSupport/core_cm3.h ****  * @param  *addr  address pointer
1150:./stm32f10x_libraries/CMSIS/CM3/CoreSupport/core_cm3.h ****  * @return        value of (*address)
1151:./stm32f10x_libraries/CMSIS/CM3/CoreSupport/core_cm3.h ****  *
1152:./stm32f10x_libraries/CMSIS/CM3/CoreSupport/core_cm3.h ****  * Exclusive LDR command for 16 bit values
1153:./stm32f10x_libraries/CMSIS/CM3/CoreSupport/core_cm3.h ****  */
1154:./stm32f10x_libraries/CMSIS/CM3/CoreSupport/core_cm3.h **** extern uint16_t __LDREXH(uint16_t *addr);
1155:./stm32f10x_libraries/CMSIS/CM3/CoreSupport/core_cm3.h **** 
1156:./stm32f10x_libraries/CMSIS/CM3/CoreSupport/core_cm3.h **** /**
1157:./stm32f10x_libraries/CMSIS/CM3/CoreSupport/core_cm3.h ****  * @brief  LDR Exclusive (32 bit)
1158:./stm32f10x_libraries/CMSIS/CM3/CoreSupport/core_cm3.h ****  *
1159:./stm32f10x_libraries/CMSIS/CM3/CoreSupport/core_cm3.h ****  * @param  *addr  address pointer
1160:./stm32f10x_libraries/CMSIS/CM3/CoreSupport/core_cm3.h ****  * @return        value of (*address)
1161:./stm32f10x_libraries/CMSIS/CM3/CoreSupport/core_cm3.h ****  *
1162:./stm32f10x_libraries/CMSIS/CM3/CoreSupport/core_cm3.h ****  * Exclusive LDR command for 32 bit values
1163:./stm32f10x_libraries/CMSIS/CM3/CoreSupport/core_cm3.h ****  */
1164:./stm32f10x_libraries/CMSIS/CM3/CoreSupport/core_cm3.h **** extern uint32_t __LDREXW(uint32_t *addr);
1165:./stm32f10x_libraries/CMSIS/CM3/CoreSupport/core_cm3.h **** 
1166:./stm32f10x_libraries/CMSIS/CM3/CoreSupport/core_cm3.h **** /**
1167:./stm32f10x_libraries/CMSIS/CM3/CoreSupport/core_cm3.h ****  * @brief  STR Exclusive (8 bit)
1168:./stm32f10x_libraries/CMSIS/CM3/CoreSupport/core_cm3.h ****  *
1169:./stm32f10x_libraries/CMSIS/CM3/CoreSupport/core_cm3.h ****  * @param  value  value to store
1170:./stm32f10x_libraries/CMSIS/CM3/CoreSupport/core_cm3.h ****  * @param  *addr  address pointer
1171:./stm32f10x_libraries/CMSIS/CM3/CoreSupport/core_cm3.h ****  * @return        successful / failed
1172:./stm32f10x_libraries/CMSIS/CM3/CoreSupport/core_cm3.h ****  *
1173:./stm32f10x_libraries/CMSIS/CM3/CoreSupport/core_cm3.h ****  * Exclusive STR command for 8 bit values
1174:./stm32f10x_libraries/CMSIS/CM3/CoreSupport/core_cm3.h ****  */
1175:./stm32f10x_libraries/CMSIS/CM3/CoreSupport/core_cm3.h **** extern uint32_t __STREXB(uint8_t value, uint8_t *addr);
1176:./stm32f10x_libraries/CMSIS/CM3/CoreSupport/core_cm3.h **** 
1177:./stm32f10x_libraries/CMSIS/CM3/CoreSupport/core_cm3.h **** /**
ARM GAS  C:\Users\user\AppData\Local\Temp\cc7qV6fF.s 			page 42


1178:./stm32f10x_libraries/CMSIS/CM3/CoreSupport/core_cm3.h ****  * @brief  STR Exclusive (16 bit)
1179:./stm32f10x_libraries/CMSIS/CM3/CoreSupport/core_cm3.h ****  *
1180:./stm32f10x_libraries/CMSIS/CM3/CoreSupport/core_cm3.h ****  * @param  value  value to store
1181:./stm32f10x_libraries/CMSIS/CM3/CoreSupport/core_cm3.h ****  * @param  *addr  address pointer
1182:./stm32f10x_libraries/CMSIS/CM3/CoreSupport/core_cm3.h ****  * @return        successful / failed
1183:./stm32f10x_libraries/CMSIS/CM3/CoreSupport/core_cm3.h ****  *
1184:./stm32f10x_libraries/CMSIS/CM3/CoreSupport/core_cm3.h ****  * Exclusive STR command for 16 bit values
1185:./stm32f10x_libraries/CMSIS/CM3/CoreSupport/core_cm3.h ****  */
1186:./stm32f10x_libraries/CMSIS/CM3/CoreSupport/core_cm3.h **** extern uint32_t __STREXH(uint16_t value, uint16_t *addr);
1187:./stm32f10x_libraries/CMSIS/CM3/CoreSupport/core_cm3.h **** 
1188:./stm32f10x_libraries/CMSIS/CM3/CoreSupport/core_cm3.h **** /**
1189:./stm32f10x_libraries/CMSIS/CM3/CoreSupport/core_cm3.h ****  * @brief  STR Exclusive (32 bit)
1190:./stm32f10x_libraries/CMSIS/CM3/CoreSupport/core_cm3.h ****  *
1191:./stm32f10x_libraries/CMSIS/CM3/CoreSupport/core_cm3.h ****  * @param  value  value to store
1192:./stm32f10x_libraries/CMSIS/CM3/CoreSupport/core_cm3.h ****  * @param  *addr  address pointer
1193:./stm32f10x_libraries/CMSIS/CM3/CoreSupport/core_cm3.h ****  * @return        successful / failed
1194:./stm32f10x_libraries/CMSIS/CM3/CoreSupport/core_cm3.h ****  *
1195:./stm32f10x_libraries/CMSIS/CM3/CoreSupport/core_cm3.h ****  * Exclusive STR command for 32 bit values
1196:./stm32f10x_libraries/CMSIS/CM3/CoreSupport/core_cm3.h ****  */
1197:./stm32f10x_libraries/CMSIS/CM3/CoreSupport/core_cm3.h **** extern uint32_t __STREXW(uint32_t value, uint32_t *addr);
1198:./stm32f10x_libraries/CMSIS/CM3/CoreSupport/core_cm3.h **** 
1199:./stm32f10x_libraries/CMSIS/CM3/CoreSupport/core_cm3.h **** 
1200:./stm32f10x_libraries/CMSIS/CM3/CoreSupport/core_cm3.h **** 
1201:./stm32f10x_libraries/CMSIS/CM3/CoreSupport/core_cm3.h **** #elif (defined (__GNUC__)) /*------------------ GNU Compiler ---------------------*/
1202:./stm32f10x_libraries/CMSIS/CM3/CoreSupport/core_cm3.h **** /* GNU gcc specific functions */
1203:./stm32f10x_libraries/CMSIS/CM3/CoreSupport/core_cm3.h **** 
1204:./stm32f10x_libraries/CMSIS/CM3/CoreSupport/core_cm3.h **** static __INLINE void __enable_irq()               { __ASM volatile ("cpsie i"); }
1205:./stm32f10x_libraries/CMSIS/CM3/CoreSupport/core_cm3.h **** static __INLINE void __disable_irq()              { __ASM volatile ("cpsid i"); }
1206:./stm32f10x_libraries/CMSIS/CM3/CoreSupport/core_cm3.h **** 
1207:./stm32f10x_libraries/CMSIS/CM3/CoreSupport/core_cm3.h **** static __INLINE void __enable_fault_irq()         { __ASM volatile ("cpsie f"); }
1208:./stm32f10x_libraries/CMSIS/CM3/CoreSupport/core_cm3.h **** static __INLINE void __disable_fault_irq()        { __ASM volatile ("cpsid f"); }
1209:./stm32f10x_libraries/CMSIS/CM3/CoreSupport/core_cm3.h **** 
1210:./stm32f10x_libraries/CMSIS/CM3/CoreSupport/core_cm3.h **** static __INLINE void __NOP()                      { __ASM volatile ("nop"); }
1211:./stm32f10x_libraries/CMSIS/CM3/CoreSupport/core_cm3.h **** static __INLINE void __WFI()                      { __ASM volatile ("wfi"); }
1212:./stm32f10x_libraries/CMSIS/CM3/CoreSupport/core_cm3.h **** static __INLINE void __WFE()                      { __ASM volatile ("wfe"); }
1213:./stm32f10x_libraries/CMSIS/CM3/CoreSupport/core_cm3.h **** static __INLINE void __SEV()                      { __ASM volatile ("sev"); }
1214:./stm32f10x_libraries/CMSIS/CM3/CoreSupport/core_cm3.h **** static __INLINE void __ISB()                      { __ASM volatile ("isb"); }
1215:./stm32f10x_libraries/CMSIS/CM3/CoreSupport/core_cm3.h **** static __INLINE void __DSB()                      { __ASM volatile ("dsb"); }
1216:./stm32f10x_libraries/CMSIS/CM3/CoreSupport/core_cm3.h **** static __INLINE void __DMB()                      { __ASM volatile ("dmb"); }
1217:./stm32f10x_libraries/CMSIS/CM3/CoreSupport/core_cm3.h **** static __INLINE void __CLREX()                    { __ASM volatile ("clrex"); }
1218:./stm32f10x_libraries/CMSIS/CM3/CoreSupport/core_cm3.h **** 
1219:./stm32f10x_libraries/CMSIS/CM3/CoreSupport/core_cm3.h **** 
1220:./stm32f10x_libraries/CMSIS/CM3/CoreSupport/core_cm3.h **** /**
1221:./stm32f10x_libraries/CMSIS/CM3/CoreSupport/core_cm3.h ****  * @brief  Return the Process Stack Pointer
1222:./stm32f10x_libraries/CMSIS/CM3/CoreSupport/core_cm3.h ****  *
1223:./stm32f10x_libraries/CMSIS/CM3/CoreSupport/core_cm3.h ****  * @return ProcessStackPointer
1224:./stm32f10x_libraries/CMSIS/CM3/CoreSupport/core_cm3.h ****  *
1225:./stm32f10x_libraries/CMSIS/CM3/CoreSupport/core_cm3.h ****  * Return the actual process stack pointer
1226:./stm32f10x_libraries/CMSIS/CM3/CoreSupport/core_cm3.h ****  */
1227:./stm32f10x_libraries/CMSIS/CM3/CoreSupport/core_cm3.h **** extern uint32_t __get_PSP(void);
1228:./stm32f10x_libraries/CMSIS/CM3/CoreSupport/core_cm3.h **** 
1229:./stm32f10x_libraries/CMSIS/CM3/CoreSupport/core_cm3.h **** /**
1230:./stm32f10x_libraries/CMSIS/CM3/CoreSupport/core_cm3.h ****  * @brief  Set the Process Stack Pointer
1231:./stm32f10x_libraries/CMSIS/CM3/CoreSupport/core_cm3.h ****  *
1232:./stm32f10x_libraries/CMSIS/CM3/CoreSupport/core_cm3.h ****  * @param  topOfProcStack  Process Stack Pointer
1233:./stm32f10x_libraries/CMSIS/CM3/CoreSupport/core_cm3.h ****  *
1234:./stm32f10x_libraries/CMSIS/CM3/CoreSupport/core_cm3.h ****  * Assign the value ProcessStackPointer to the MSP 
ARM GAS  C:\Users\user\AppData\Local\Temp\cc7qV6fF.s 			page 43


1235:./stm32f10x_libraries/CMSIS/CM3/CoreSupport/core_cm3.h ****  * (process stack pointer) Cortex processor register
1236:./stm32f10x_libraries/CMSIS/CM3/CoreSupport/core_cm3.h ****  */
1237:./stm32f10x_libraries/CMSIS/CM3/CoreSupport/core_cm3.h **** extern void __set_PSP(uint32_t topOfProcStack);
1238:./stm32f10x_libraries/CMSIS/CM3/CoreSupport/core_cm3.h **** 
1239:./stm32f10x_libraries/CMSIS/CM3/CoreSupport/core_cm3.h **** /**
1240:./stm32f10x_libraries/CMSIS/CM3/CoreSupport/core_cm3.h ****  * @brief  Return the Main Stack Pointer
1241:./stm32f10x_libraries/CMSIS/CM3/CoreSupport/core_cm3.h ****  *
1242:./stm32f10x_libraries/CMSIS/CM3/CoreSupport/core_cm3.h ****  * @return Main Stack Pointer
1243:./stm32f10x_libraries/CMSIS/CM3/CoreSupport/core_cm3.h ****  *
1244:./stm32f10x_libraries/CMSIS/CM3/CoreSupport/core_cm3.h ****  * Return the current value of the MSP (main stack pointer)
1245:./stm32f10x_libraries/CMSIS/CM3/CoreSupport/core_cm3.h ****  * Cortex processor register
1246:./stm32f10x_libraries/CMSIS/CM3/CoreSupport/core_cm3.h ****  */
1247:./stm32f10x_libraries/CMSIS/CM3/CoreSupport/core_cm3.h **** extern uint32_t __get_MSP(void);
1248:./stm32f10x_libraries/CMSIS/CM3/CoreSupport/core_cm3.h **** 
1249:./stm32f10x_libraries/CMSIS/CM3/CoreSupport/core_cm3.h **** /**
1250:./stm32f10x_libraries/CMSIS/CM3/CoreSupport/core_cm3.h ****  * @brief  Set the Main Stack Pointer
1251:./stm32f10x_libraries/CMSIS/CM3/CoreSupport/core_cm3.h ****  *
1252:./stm32f10x_libraries/CMSIS/CM3/CoreSupport/core_cm3.h ****  * @param  topOfMainStack  Main Stack Pointer
1253:./stm32f10x_libraries/CMSIS/CM3/CoreSupport/core_cm3.h ****  *
1254:./stm32f10x_libraries/CMSIS/CM3/CoreSupport/core_cm3.h ****  * Assign the value mainStackPointer to the MSP 
1255:./stm32f10x_libraries/CMSIS/CM3/CoreSupport/core_cm3.h ****  * (main stack pointer) Cortex processor register
1256:./stm32f10x_libraries/CMSIS/CM3/CoreSupport/core_cm3.h ****  */
1257:./stm32f10x_libraries/CMSIS/CM3/CoreSupport/core_cm3.h **** extern void __set_MSP(uint32_t topOfMainStack);
1258:./stm32f10x_libraries/CMSIS/CM3/CoreSupport/core_cm3.h **** 
1259:./stm32f10x_libraries/CMSIS/CM3/CoreSupport/core_cm3.h **** /**
1260:./stm32f10x_libraries/CMSIS/CM3/CoreSupport/core_cm3.h ****  * @brief  Return the Base Priority value
1261:./stm32f10x_libraries/CMSIS/CM3/CoreSupport/core_cm3.h ****  *
1262:./stm32f10x_libraries/CMSIS/CM3/CoreSupport/core_cm3.h ****  * @return BasePriority
1263:./stm32f10x_libraries/CMSIS/CM3/CoreSupport/core_cm3.h ****  *
1264:./stm32f10x_libraries/CMSIS/CM3/CoreSupport/core_cm3.h ****  * Return the content of the base priority register
1265:./stm32f10x_libraries/CMSIS/CM3/CoreSupport/core_cm3.h ****  */
1266:./stm32f10x_libraries/CMSIS/CM3/CoreSupport/core_cm3.h **** extern uint32_t __get_BASEPRI(void);
1267:./stm32f10x_libraries/CMSIS/CM3/CoreSupport/core_cm3.h **** 
1268:./stm32f10x_libraries/CMSIS/CM3/CoreSupport/core_cm3.h **** /**
1269:./stm32f10x_libraries/CMSIS/CM3/CoreSupport/core_cm3.h ****  * @brief  Set the Base Priority value
1270:./stm32f10x_libraries/CMSIS/CM3/CoreSupport/core_cm3.h ****  *
1271:./stm32f10x_libraries/CMSIS/CM3/CoreSupport/core_cm3.h ****  * @param  basePri  BasePriority
1272:./stm32f10x_libraries/CMSIS/CM3/CoreSupport/core_cm3.h ****  *
1273:./stm32f10x_libraries/CMSIS/CM3/CoreSupport/core_cm3.h ****  * Set the base priority register
1274:./stm32f10x_libraries/CMSIS/CM3/CoreSupport/core_cm3.h ****  */
1275:./stm32f10x_libraries/CMSIS/CM3/CoreSupport/core_cm3.h **** extern void __set_BASEPRI(uint32_t basePri);
1276:./stm32f10x_libraries/CMSIS/CM3/CoreSupport/core_cm3.h **** 
1277:./stm32f10x_libraries/CMSIS/CM3/CoreSupport/core_cm3.h **** /**
1278:./stm32f10x_libraries/CMSIS/CM3/CoreSupport/core_cm3.h ****  * @brief  Return the Priority Mask value
1279:./stm32f10x_libraries/CMSIS/CM3/CoreSupport/core_cm3.h ****  *
1280:./stm32f10x_libraries/CMSIS/CM3/CoreSupport/core_cm3.h ****  * @return PriMask
1281:./stm32f10x_libraries/CMSIS/CM3/CoreSupport/core_cm3.h ****  *
1282:./stm32f10x_libraries/CMSIS/CM3/CoreSupport/core_cm3.h ****  * Return state of the priority mask bit from the priority mask register
1283:./stm32f10x_libraries/CMSIS/CM3/CoreSupport/core_cm3.h ****  */
1284:./stm32f10x_libraries/CMSIS/CM3/CoreSupport/core_cm3.h **** extern uint32_t  __get_PRIMASK(void);
1285:./stm32f10x_libraries/CMSIS/CM3/CoreSupport/core_cm3.h **** 
1286:./stm32f10x_libraries/CMSIS/CM3/CoreSupport/core_cm3.h **** /**
1287:./stm32f10x_libraries/CMSIS/CM3/CoreSupport/core_cm3.h ****  * @brief  Set the Priority Mask value
1288:./stm32f10x_libraries/CMSIS/CM3/CoreSupport/core_cm3.h ****  *
1289:./stm32f10x_libraries/CMSIS/CM3/CoreSupport/core_cm3.h ****  * @param  priMask  PriMask
1290:./stm32f10x_libraries/CMSIS/CM3/CoreSupport/core_cm3.h ****  *
1291:./stm32f10x_libraries/CMSIS/CM3/CoreSupport/core_cm3.h ****  * Set the priority mask bit in the priority mask register
ARM GAS  C:\Users\user\AppData\Local\Temp\cc7qV6fF.s 			page 44


1292:./stm32f10x_libraries/CMSIS/CM3/CoreSupport/core_cm3.h ****  */
1293:./stm32f10x_libraries/CMSIS/CM3/CoreSupport/core_cm3.h **** extern void __set_PRIMASK(uint32_t priMask);
1294:./stm32f10x_libraries/CMSIS/CM3/CoreSupport/core_cm3.h **** 
1295:./stm32f10x_libraries/CMSIS/CM3/CoreSupport/core_cm3.h **** /**
1296:./stm32f10x_libraries/CMSIS/CM3/CoreSupport/core_cm3.h ****  * @brief  Return the Fault Mask value
1297:./stm32f10x_libraries/CMSIS/CM3/CoreSupport/core_cm3.h ****  *
1298:./stm32f10x_libraries/CMSIS/CM3/CoreSupport/core_cm3.h ****  * @return FaultMask
1299:./stm32f10x_libraries/CMSIS/CM3/CoreSupport/core_cm3.h ****  *
1300:./stm32f10x_libraries/CMSIS/CM3/CoreSupport/core_cm3.h ****  * Return the content of the fault mask register
1301:./stm32f10x_libraries/CMSIS/CM3/CoreSupport/core_cm3.h ****  */
1302:./stm32f10x_libraries/CMSIS/CM3/CoreSupport/core_cm3.h **** extern uint32_t __get_FAULTMASK(void);
1303:./stm32f10x_libraries/CMSIS/CM3/CoreSupport/core_cm3.h **** 
1304:./stm32f10x_libraries/CMSIS/CM3/CoreSupport/core_cm3.h **** /**
1305:./stm32f10x_libraries/CMSIS/CM3/CoreSupport/core_cm3.h ****  * @brief  Set the Fault Mask value
1306:./stm32f10x_libraries/CMSIS/CM3/CoreSupport/core_cm3.h ****  *
1307:./stm32f10x_libraries/CMSIS/CM3/CoreSupport/core_cm3.h ****  * @param  faultMask  faultMask value
1308:./stm32f10x_libraries/CMSIS/CM3/CoreSupport/core_cm3.h ****  *
1309:./stm32f10x_libraries/CMSIS/CM3/CoreSupport/core_cm3.h ****  * Set the fault mask register
1310:./stm32f10x_libraries/CMSIS/CM3/CoreSupport/core_cm3.h ****  */
1311:./stm32f10x_libraries/CMSIS/CM3/CoreSupport/core_cm3.h **** extern void __set_FAULTMASK(uint32_t faultMask);
1312:./stm32f10x_libraries/CMSIS/CM3/CoreSupport/core_cm3.h **** 
1313:./stm32f10x_libraries/CMSIS/CM3/CoreSupport/core_cm3.h **** /**
1314:./stm32f10x_libraries/CMSIS/CM3/CoreSupport/core_cm3.h ****  * @brief  Return the Control Register value
1315:./stm32f10x_libraries/CMSIS/CM3/CoreSupport/core_cm3.h **** * 
1316:./stm32f10x_libraries/CMSIS/CM3/CoreSupport/core_cm3.h **** *  @return Control value
1317:./stm32f10x_libraries/CMSIS/CM3/CoreSupport/core_cm3.h ****  *
1318:./stm32f10x_libraries/CMSIS/CM3/CoreSupport/core_cm3.h ****  * Return the content of the control register
1319:./stm32f10x_libraries/CMSIS/CM3/CoreSupport/core_cm3.h ****  */
1320:./stm32f10x_libraries/CMSIS/CM3/CoreSupport/core_cm3.h **** extern uint32_t __get_CONTROL(void);
1321:./stm32f10x_libraries/CMSIS/CM3/CoreSupport/core_cm3.h **** 
1322:./stm32f10x_libraries/CMSIS/CM3/CoreSupport/core_cm3.h **** /**
1323:./stm32f10x_libraries/CMSIS/CM3/CoreSupport/core_cm3.h ****  * @brief  Set the Control Register value
1324:./stm32f10x_libraries/CMSIS/CM3/CoreSupport/core_cm3.h ****  *
1325:./stm32f10x_libraries/CMSIS/CM3/CoreSupport/core_cm3.h ****  * @param  control  Control value
1326:./stm32f10x_libraries/CMSIS/CM3/CoreSupport/core_cm3.h ****  *
1327:./stm32f10x_libraries/CMSIS/CM3/CoreSupport/core_cm3.h ****  * Set the control register
1328:./stm32f10x_libraries/CMSIS/CM3/CoreSupport/core_cm3.h ****  */
1329:./stm32f10x_libraries/CMSIS/CM3/CoreSupport/core_cm3.h **** extern void __set_CONTROL(uint32_t control);
1330:./stm32f10x_libraries/CMSIS/CM3/CoreSupport/core_cm3.h **** 
1331:./stm32f10x_libraries/CMSIS/CM3/CoreSupport/core_cm3.h **** /**
1332:./stm32f10x_libraries/CMSIS/CM3/CoreSupport/core_cm3.h ****  * @brief  Reverse byte order in integer value
1333:./stm32f10x_libraries/CMSIS/CM3/CoreSupport/core_cm3.h ****  *
1334:./stm32f10x_libraries/CMSIS/CM3/CoreSupport/core_cm3.h ****  * @param  value  value to reverse
1335:./stm32f10x_libraries/CMSIS/CM3/CoreSupport/core_cm3.h ****  * @return        reversed value
1336:./stm32f10x_libraries/CMSIS/CM3/CoreSupport/core_cm3.h ****  *
1337:./stm32f10x_libraries/CMSIS/CM3/CoreSupport/core_cm3.h ****  * Reverse byte order in integer value
1338:./stm32f10x_libraries/CMSIS/CM3/CoreSupport/core_cm3.h ****  */
1339:./stm32f10x_libraries/CMSIS/CM3/CoreSupport/core_cm3.h **** extern uint32_t __REV(uint32_t value);
1340:./stm32f10x_libraries/CMSIS/CM3/CoreSupport/core_cm3.h **** 
1341:./stm32f10x_libraries/CMSIS/CM3/CoreSupport/core_cm3.h **** /**
1342:./stm32f10x_libraries/CMSIS/CM3/CoreSupport/core_cm3.h ****  * @brief  Reverse byte order in unsigned short value
1343:./stm32f10x_libraries/CMSIS/CM3/CoreSupport/core_cm3.h ****  *
1344:./stm32f10x_libraries/CMSIS/CM3/CoreSupport/core_cm3.h ****  * @param  value  value to reverse
1345:./stm32f10x_libraries/CMSIS/CM3/CoreSupport/core_cm3.h ****  * @return        reversed value
1346:./stm32f10x_libraries/CMSIS/CM3/CoreSupport/core_cm3.h ****  *
1347:./stm32f10x_libraries/CMSIS/CM3/CoreSupport/core_cm3.h ****  * Reverse byte order in unsigned short value
1348:./stm32f10x_libraries/CMSIS/CM3/CoreSupport/core_cm3.h ****  */
ARM GAS  C:\Users\user\AppData\Local\Temp\cc7qV6fF.s 			page 45


1349:./stm32f10x_libraries/CMSIS/CM3/CoreSupport/core_cm3.h **** extern uint32_t __REV16(uint16_t value);
1350:./stm32f10x_libraries/CMSIS/CM3/CoreSupport/core_cm3.h **** 
1351:./stm32f10x_libraries/CMSIS/CM3/CoreSupport/core_cm3.h **** /**
1352:./stm32f10x_libraries/CMSIS/CM3/CoreSupport/core_cm3.h ****  * @brief  Reverse byte order in signed short value with sign extension to integer
1353:./stm32f10x_libraries/CMSIS/CM3/CoreSupport/core_cm3.h ****  *
1354:./stm32f10x_libraries/CMSIS/CM3/CoreSupport/core_cm3.h ****  * @param  value  value to reverse
1355:./stm32f10x_libraries/CMSIS/CM3/CoreSupport/core_cm3.h ****  * @return        reversed value
1356:./stm32f10x_libraries/CMSIS/CM3/CoreSupport/core_cm3.h ****  *
1357:./stm32f10x_libraries/CMSIS/CM3/CoreSupport/core_cm3.h ****  * Reverse byte order in signed short value with sign extension to integer
1358:./stm32f10x_libraries/CMSIS/CM3/CoreSupport/core_cm3.h ****  */
1359:./stm32f10x_libraries/CMSIS/CM3/CoreSupport/core_cm3.h **** extern int32_t __REVSH(int16_t value);
1360:./stm32f10x_libraries/CMSIS/CM3/CoreSupport/core_cm3.h **** 
1361:./stm32f10x_libraries/CMSIS/CM3/CoreSupport/core_cm3.h **** /**
1362:./stm32f10x_libraries/CMSIS/CM3/CoreSupport/core_cm3.h ****  * @brief  Reverse bit order of value
1363:./stm32f10x_libraries/CMSIS/CM3/CoreSupport/core_cm3.h ****  *
1364:./stm32f10x_libraries/CMSIS/CM3/CoreSupport/core_cm3.h ****  * @param  value  value to reverse
1365:./stm32f10x_libraries/CMSIS/CM3/CoreSupport/core_cm3.h ****  * @return        reversed value
1366:./stm32f10x_libraries/CMSIS/CM3/CoreSupport/core_cm3.h ****  *
1367:./stm32f10x_libraries/CMSIS/CM3/CoreSupport/core_cm3.h ****  * Reverse bit order of value
1368:./stm32f10x_libraries/CMSIS/CM3/CoreSupport/core_cm3.h ****  */
1369:./stm32f10x_libraries/CMSIS/CM3/CoreSupport/core_cm3.h **** extern uint32_t __RBIT(uint32_t value);
1370:./stm32f10x_libraries/CMSIS/CM3/CoreSupport/core_cm3.h **** 
1371:./stm32f10x_libraries/CMSIS/CM3/CoreSupport/core_cm3.h **** /**
1372:./stm32f10x_libraries/CMSIS/CM3/CoreSupport/core_cm3.h ****  * @brief  LDR Exclusive (8 bit)
1373:./stm32f10x_libraries/CMSIS/CM3/CoreSupport/core_cm3.h ****  *
1374:./stm32f10x_libraries/CMSIS/CM3/CoreSupport/core_cm3.h ****  * @param  *addr  address pointer
1375:./stm32f10x_libraries/CMSIS/CM3/CoreSupport/core_cm3.h ****  * @return        value of (*address)
1376:./stm32f10x_libraries/CMSIS/CM3/CoreSupport/core_cm3.h ****  *
1377:./stm32f10x_libraries/CMSIS/CM3/CoreSupport/core_cm3.h ****  * Exclusive LDR command for 8 bit value
1378:./stm32f10x_libraries/CMSIS/CM3/CoreSupport/core_cm3.h ****  */
1379:./stm32f10x_libraries/CMSIS/CM3/CoreSupport/core_cm3.h **** extern uint8_t __LDREXB(uint8_t *addr);
1380:./stm32f10x_libraries/CMSIS/CM3/CoreSupport/core_cm3.h **** 
1381:./stm32f10x_libraries/CMSIS/CM3/CoreSupport/core_cm3.h **** /**
1382:./stm32f10x_libraries/CMSIS/CM3/CoreSupport/core_cm3.h ****  * @brief  LDR Exclusive (16 bit)
1383:./stm32f10x_libraries/CMSIS/CM3/CoreSupport/core_cm3.h ****  *
1384:./stm32f10x_libraries/CMSIS/CM3/CoreSupport/core_cm3.h ****  * @param  *addr  address pointer
1385:./stm32f10x_libraries/CMSIS/CM3/CoreSupport/core_cm3.h ****  * @return        value of (*address)
1386:./stm32f10x_libraries/CMSIS/CM3/CoreSupport/core_cm3.h ****  *
1387:./stm32f10x_libraries/CMSIS/CM3/CoreSupport/core_cm3.h ****  * Exclusive LDR command for 16 bit values
1388:./stm32f10x_libraries/CMSIS/CM3/CoreSupport/core_cm3.h ****  */
1389:./stm32f10x_libraries/CMSIS/CM3/CoreSupport/core_cm3.h **** extern uint16_t __LDREXH(uint16_t *addr);
1390:./stm32f10x_libraries/CMSIS/CM3/CoreSupport/core_cm3.h **** 
1391:./stm32f10x_libraries/CMSIS/CM3/CoreSupport/core_cm3.h **** /**
1392:./stm32f10x_libraries/CMSIS/CM3/CoreSupport/core_cm3.h ****  * @brief  LDR Exclusive (32 bit)
1393:./stm32f10x_libraries/CMSIS/CM3/CoreSupport/core_cm3.h ****  *
1394:./stm32f10x_libraries/CMSIS/CM3/CoreSupport/core_cm3.h ****  * @param  *addr  address pointer
1395:./stm32f10x_libraries/CMSIS/CM3/CoreSupport/core_cm3.h ****  * @return        value of (*address)
1396:./stm32f10x_libraries/CMSIS/CM3/CoreSupport/core_cm3.h ****  *
1397:./stm32f10x_libraries/CMSIS/CM3/CoreSupport/core_cm3.h ****  * Exclusive LDR command for 32 bit values
1398:./stm32f10x_libraries/CMSIS/CM3/CoreSupport/core_cm3.h ****  */
1399:./stm32f10x_libraries/CMSIS/CM3/CoreSupport/core_cm3.h **** extern uint32_t __LDREXW(uint32_t *addr);
1400:./stm32f10x_libraries/CMSIS/CM3/CoreSupport/core_cm3.h **** 
1401:./stm32f10x_libraries/CMSIS/CM3/CoreSupport/core_cm3.h **** /**
1402:./stm32f10x_libraries/CMSIS/CM3/CoreSupport/core_cm3.h ****  * @brief  STR Exclusive (8 bit)
1403:./stm32f10x_libraries/CMSIS/CM3/CoreSupport/core_cm3.h ****  *
1404:./stm32f10x_libraries/CMSIS/CM3/CoreSupport/core_cm3.h ****  * @param  value  value to store
1405:./stm32f10x_libraries/CMSIS/CM3/CoreSupport/core_cm3.h ****  * @param  *addr  address pointer
ARM GAS  C:\Users\user\AppData\Local\Temp\cc7qV6fF.s 			page 46


1406:./stm32f10x_libraries/CMSIS/CM3/CoreSupport/core_cm3.h ****  * @return        successful / failed
1407:./stm32f10x_libraries/CMSIS/CM3/CoreSupport/core_cm3.h ****  *
1408:./stm32f10x_libraries/CMSIS/CM3/CoreSupport/core_cm3.h ****  * Exclusive STR command for 8 bit values
1409:./stm32f10x_libraries/CMSIS/CM3/CoreSupport/core_cm3.h ****  */
1410:./stm32f10x_libraries/CMSIS/CM3/CoreSupport/core_cm3.h **** extern uint32_t __STREXB(uint8_t value, uint8_t *addr);
1411:./stm32f10x_libraries/CMSIS/CM3/CoreSupport/core_cm3.h **** 
1412:./stm32f10x_libraries/CMSIS/CM3/CoreSupport/core_cm3.h **** /**
1413:./stm32f10x_libraries/CMSIS/CM3/CoreSupport/core_cm3.h ****  * @brief  STR Exclusive (16 bit)
1414:./stm32f10x_libraries/CMSIS/CM3/CoreSupport/core_cm3.h ****  *
1415:./stm32f10x_libraries/CMSIS/CM3/CoreSupport/core_cm3.h ****  * @param  value  value to store
1416:./stm32f10x_libraries/CMSIS/CM3/CoreSupport/core_cm3.h ****  * @param  *addr  address pointer
1417:./stm32f10x_libraries/CMSIS/CM3/CoreSupport/core_cm3.h ****  * @return        successful / failed
1418:./stm32f10x_libraries/CMSIS/CM3/CoreSupport/core_cm3.h ****  *
1419:./stm32f10x_libraries/CMSIS/CM3/CoreSupport/core_cm3.h ****  * Exclusive STR command for 16 bit values
1420:./stm32f10x_libraries/CMSIS/CM3/CoreSupport/core_cm3.h ****  */
1421:./stm32f10x_libraries/CMSIS/CM3/CoreSupport/core_cm3.h **** extern uint32_t __STREXH(uint16_t value, uint16_t *addr);
1422:./stm32f10x_libraries/CMSIS/CM3/CoreSupport/core_cm3.h **** 
1423:./stm32f10x_libraries/CMSIS/CM3/CoreSupport/core_cm3.h **** /**
1424:./stm32f10x_libraries/CMSIS/CM3/CoreSupport/core_cm3.h ****  * @brief  STR Exclusive (32 bit)
1425:./stm32f10x_libraries/CMSIS/CM3/CoreSupport/core_cm3.h ****  *
1426:./stm32f10x_libraries/CMSIS/CM3/CoreSupport/core_cm3.h ****  * @param  value  value to store
1427:./stm32f10x_libraries/CMSIS/CM3/CoreSupport/core_cm3.h ****  * @param  *addr  address pointer
1428:./stm32f10x_libraries/CMSIS/CM3/CoreSupport/core_cm3.h ****  * @return        successful / failed
1429:./stm32f10x_libraries/CMSIS/CM3/CoreSupport/core_cm3.h ****  *
1430:./stm32f10x_libraries/CMSIS/CM3/CoreSupport/core_cm3.h ****  * Exclusive STR command for 32 bit values
1431:./stm32f10x_libraries/CMSIS/CM3/CoreSupport/core_cm3.h ****  */
1432:./stm32f10x_libraries/CMSIS/CM3/CoreSupport/core_cm3.h **** extern uint32_t __STREXW(uint32_t value, uint32_t *addr);
1433:./stm32f10x_libraries/CMSIS/CM3/CoreSupport/core_cm3.h **** 
1434:./stm32f10x_libraries/CMSIS/CM3/CoreSupport/core_cm3.h **** 
1435:./stm32f10x_libraries/CMSIS/CM3/CoreSupport/core_cm3.h **** #elif (defined (__TASKING__)) /*------------------ TASKING Compiler ---------------------*/
1436:./stm32f10x_libraries/CMSIS/CM3/CoreSupport/core_cm3.h **** /* TASKING carm specific functions */
1437:./stm32f10x_libraries/CMSIS/CM3/CoreSupport/core_cm3.h **** 
1438:./stm32f10x_libraries/CMSIS/CM3/CoreSupport/core_cm3.h **** /*
1439:./stm32f10x_libraries/CMSIS/CM3/CoreSupport/core_cm3.h ****  * The CMSIS functions have been implemented as intrinsics in the compiler.
1440:./stm32f10x_libraries/CMSIS/CM3/CoreSupport/core_cm3.h ****  * Please use "carm -?i" to get an up to date list of all instrinsics,
1441:./stm32f10x_libraries/CMSIS/CM3/CoreSupport/core_cm3.h ****  * Including the CMSIS ones.
1442:./stm32f10x_libraries/CMSIS/CM3/CoreSupport/core_cm3.h ****  */
1443:./stm32f10x_libraries/CMSIS/CM3/CoreSupport/core_cm3.h **** 
1444:./stm32f10x_libraries/CMSIS/CM3/CoreSupport/core_cm3.h **** #endif
1445:./stm32f10x_libraries/CMSIS/CM3/CoreSupport/core_cm3.h **** 
1446:./stm32f10x_libraries/CMSIS/CM3/CoreSupport/core_cm3.h **** 
1447:./stm32f10x_libraries/CMSIS/CM3/CoreSupport/core_cm3.h **** /** @addtogroup CMSIS_CM3_Core_FunctionInterface CMSIS CM3 Core Function Interface
1448:./stm32f10x_libraries/CMSIS/CM3/CoreSupport/core_cm3.h ****   Core  Function Interface containing:
1449:./stm32f10x_libraries/CMSIS/CM3/CoreSupport/core_cm3.h ****   - Core NVIC Functions
1450:./stm32f10x_libraries/CMSIS/CM3/CoreSupport/core_cm3.h ****   - Core SysTick Functions
1451:./stm32f10x_libraries/CMSIS/CM3/CoreSupport/core_cm3.h ****   - Core Reset Functions
1452:./stm32f10x_libraries/CMSIS/CM3/CoreSupport/core_cm3.h **** */
1453:./stm32f10x_libraries/CMSIS/CM3/CoreSupport/core_cm3.h **** /*@{*/
1454:./stm32f10x_libraries/CMSIS/CM3/CoreSupport/core_cm3.h **** 
1455:./stm32f10x_libraries/CMSIS/CM3/CoreSupport/core_cm3.h **** /* ##########################   NVIC functions  #################################### */
1456:./stm32f10x_libraries/CMSIS/CM3/CoreSupport/core_cm3.h **** 
1457:./stm32f10x_libraries/CMSIS/CM3/CoreSupport/core_cm3.h **** /**
1458:./stm32f10x_libraries/CMSIS/CM3/CoreSupport/core_cm3.h ****  * @brief  Set the Priority Grouping in NVIC Interrupt Controller
1459:./stm32f10x_libraries/CMSIS/CM3/CoreSupport/core_cm3.h ****  *
1460:./stm32f10x_libraries/CMSIS/CM3/CoreSupport/core_cm3.h ****  * @param  PriorityGroup is priority grouping field
1461:./stm32f10x_libraries/CMSIS/CM3/CoreSupport/core_cm3.h ****  *
1462:./stm32f10x_libraries/CMSIS/CM3/CoreSupport/core_cm3.h ****  * Set the priority grouping field using the required unlock sequence.
ARM GAS  C:\Users\user\AppData\Local\Temp\cc7qV6fF.s 			page 47


1463:./stm32f10x_libraries/CMSIS/CM3/CoreSupport/core_cm3.h ****  * The parameter priority_grouping is assigned to the field 
1464:./stm32f10x_libraries/CMSIS/CM3/CoreSupport/core_cm3.h ****  * SCB->AIRCR [10:8] PRIGROUP field. Only values from 0..7 are used.
1465:./stm32f10x_libraries/CMSIS/CM3/CoreSupport/core_cm3.h ****  * In case of a conflict between priority grouping and available
1466:./stm32f10x_libraries/CMSIS/CM3/CoreSupport/core_cm3.h ****  * priority bits (__NVIC_PRIO_BITS) the smallest possible priority group is set.
1467:./stm32f10x_libraries/CMSIS/CM3/CoreSupport/core_cm3.h ****  */
1468:./stm32f10x_libraries/CMSIS/CM3/CoreSupport/core_cm3.h **** static __INLINE void NVIC_SetPriorityGrouping(uint32_t PriorityGroup)
1469:./stm32f10x_libraries/CMSIS/CM3/CoreSupport/core_cm3.h **** {
1470:./stm32f10x_libraries/CMSIS/CM3/CoreSupport/core_cm3.h ****   uint32_t reg_value;
1471:./stm32f10x_libraries/CMSIS/CM3/CoreSupport/core_cm3.h ****   uint32_t PriorityGroupTmp = (PriorityGroup & 0x07);                         /* only values 0..7 a
1472:./stm32f10x_libraries/CMSIS/CM3/CoreSupport/core_cm3.h ****   
1473:./stm32f10x_libraries/CMSIS/CM3/CoreSupport/core_cm3.h ****   reg_value  =  SCB->AIRCR;                                                   /* read old register 
1474:./stm32f10x_libraries/CMSIS/CM3/CoreSupport/core_cm3.h ****   reg_value &= ~(SCB_AIRCR_VECTKEY_Msk | SCB_AIRCR_PRIGROUP_Msk);             /* clear bits to chan
1475:./stm32f10x_libraries/CMSIS/CM3/CoreSupport/core_cm3.h ****   reg_value  =  (reg_value                       |
1476:./stm32f10x_libraries/CMSIS/CM3/CoreSupport/core_cm3.h ****                 (0x5FA << SCB_AIRCR_VECTKEY_Pos) | 
1477:./stm32f10x_libraries/CMSIS/CM3/CoreSupport/core_cm3.h ****                 (PriorityGroupTmp << 8));                                     /* Insert write key a
1478:./stm32f10x_libraries/CMSIS/CM3/CoreSupport/core_cm3.h ****   SCB->AIRCR =  reg_value;
1479:./stm32f10x_libraries/CMSIS/CM3/CoreSupport/core_cm3.h **** }
1480:./stm32f10x_libraries/CMSIS/CM3/CoreSupport/core_cm3.h **** 
1481:./stm32f10x_libraries/CMSIS/CM3/CoreSupport/core_cm3.h **** /**
1482:./stm32f10x_libraries/CMSIS/CM3/CoreSupport/core_cm3.h ****  * @brief  Get the Priority Grouping from NVIC Interrupt Controller
1483:./stm32f10x_libraries/CMSIS/CM3/CoreSupport/core_cm3.h ****  *
1484:./stm32f10x_libraries/CMSIS/CM3/CoreSupport/core_cm3.h ****  * @return priority grouping field 
1485:./stm32f10x_libraries/CMSIS/CM3/CoreSupport/core_cm3.h ****  *
1486:./stm32f10x_libraries/CMSIS/CM3/CoreSupport/core_cm3.h ****  * Get the priority grouping from NVIC Interrupt Controller.
1487:./stm32f10x_libraries/CMSIS/CM3/CoreSupport/core_cm3.h ****  * priority grouping is SCB->AIRCR [10:8] PRIGROUP field.
1488:./stm32f10x_libraries/CMSIS/CM3/CoreSupport/core_cm3.h ****  */
1489:./stm32f10x_libraries/CMSIS/CM3/CoreSupport/core_cm3.h **** static __INLINE uint32_t NVIC_GetPriorityGrouping(void)
1490:./stm32f10x_libraries/CMSIS/CM3/CoreSupport/core_cm3.h **** {
1491:./stm32f10x_libraries/CMSIS/CM3/CoreSupport/core_cm3.h ****   return ((SCB->AIRCR & SCB_AIRCR_PRIGROUP_Msk) >> SCB_AIRCR_PRIGROUP_Pos);   /* read priority grou
1492:./stm32f10x_libraries/CMSIS/CM3/CoreSupport/core_cm3.h **** }
1493:./stm32f10x_libraries/CMSIS/CM3/CoreSupport/core_cm3.h **** 
1494:./stm32f10x_libraries/CMSIS/CM3/CoreSupport/core_cm3.h **** /**
1495:./stm32f10x_libraries/CMSIS/CM3/CoreSupport/core_cm3.h ****  * @brief  Enable Interrupt in NVIC Interrupt Controller
1496:./stm32f10x_libraries/CMSIS/CM3/CoreSupport/core_cm3.h ****  *
1497:./stm32f10x_libraries/CMSIS/CM3/CoreSupport/core_cm3.h ****  * @param  IRQn   The positive number of the external interrupt to enable
1498:./stm32f10x_libraries/CMSIS/CM3/CoreSupport/core_cm3.h ****  *
1499:./stm32f10x_libraries/CMSIS/CM3/CoreSupport/core_cm3.h ****  * Enable a device specific interupt in the NVIC interrupt controller.
1500:./stm32f10x_libraries/CMSIS/CM3/CoreSupport/core_cm3.h ****  * The interrupt number cannot be a negative value.
1501:./stm32f10x_libraries/CMSIS/CM3/CoreSupport/core_cm3.h ****  */
1502:./stm32f10x_libraries/CMSIS/CM3/CoreSupport/core_cm3.h **** static __INLINE void NVIC_EnableIRQ(IRQn_Type IRQn)
 805              		.loc 2 1502 22 view .LVU164
 806              	.LBB13:
1503:./stm32f10x_libraries/CMSIS/CM3/CoreSupport/core_cm3.h **** {
1504:./stm32f10x_libraries/CMSIS/CM3/CoreSupport/core_cm3.h ****   NVIC->ISER[((uint32_t)(IRQn) >> 5)] = (1 << ((uint32_t)(IRQn) & 0x1F)); /* enable interrupt */
 807              		.loc 2 1504 3 view .LVU165
 808              	@ ./stm32f10x_libraries/CMSIS/CM3/CoreSupport/core_cm3.h:1504:   NVIC->ISER[((uint32_t)(IRQn) >> 5)
 809              		.loc 2 1504 44 is_stmt 0 view .LVU166
 810 0224 0121     		movs	r1, #1	@ tmp143,
 811              	@ ./stm32f10x_libraries/CMSIS/CM3/CoreSupport/core_cm3.h:1504:   NVIC->ISER[((uint32_t)(IRQn) >> 5)
 812              		.loc 2 1504 65 view .LVU167
 813 0226 00F01F03 		and	r3, r0, #31	@ tmp142, tmp140,
 814              	@ ./stm32f10x_libraries/CMSIS/CM3/CoreSupport/core_cm3.h:1504:   NVIC->ISER[((uint32_t)(IRQn) >> 5)
 815              		.loc 2 1504 44 view .LVU168
 816 022a 9940     		lsls	r1, r1, r3	@ _48, tmp143, tmp142
 817              	@ ./stm32f10x_libraries/CMSIS/CM3/CoreSupport/core_cm3.h:1504:   NVIC->ISER[((uint32_t)(IRQn) >> 5)
 818              		.loc 2 1504 39 view .LVU169
 819 022c 164B     		ldr	r3, .L65	@ tmp144,
ARM GAS  C:\Users\user\AppData\Local\Temp\cc7qV6fF.s 			page 48


 820              	.LBE13:
 821              	.LBE12:
 822              	.LBB15:
 823              	.LBB16:
 824              	@ ./stm32f10x_libraries/CMSIS/CM3/CoreSupport/core_cm3.h:1588:   if(IRQn < 0) {
1505:./stm32f10x_libraries/CMSIS/CM3/CoreSupport/core_cm3.h **** }
1506:./stm32f10x_libraries/CMSIS/CM3/CoreSupport/core_cm3.h **** 
1507:./stm32f10x_libraries/CMSIS/CM3/CoreSupport/core_cm3.h **** /**
1508:./stm32f10x_libraries/CMSIS/CM3/CoreSupport/core_cm3.h ****  * @brief  Disable the interrupt line for external interrupt specified
1509:./stm32f10x_libraries/CMSIS/CM3/CoreSupport/core_cm3.h ****  * 
1510:./stm32f10x_libraries/CMSIS/CM3/CoreSupport/core_cm3.h ****  * @param  IRQn   The positive number of the external interrupt to disable
1511:./stm32f10x_libraries/CMSIS/CM3/CoreSupport/core_cm3.h ****  * 
1512:./stm32f10x_libraries/CMSIS/CM3/CoreSupport/core_cm3.h ****  * Disable a device specific interupt in the NVIC interrupt controller.
1513:./stm32f10x_libraries/CMSIS/CM3/CoreSupport/core_cm3.h ****  * The interrupt number cannot be a negative value.
1514:./stm32f10x_libraries/CMSIS/CM3/CoreSupport/core_cm3.h ****  */
1515:./stm32f10x_libraries/CMSIS/CM3/CoreSupport/core_cm3.h **** static __INLINE void NVIC_DisableIRQ(IRQn_Type IRQn)
1516:./stm32f10x_libraries/CMSIS/CM3/CoreSupport/core_cm3.h **** {
1517:./stm32f10x_libraries/CMSIS/CM3/CoreSupport/core_cm3.h ****   NVIC->ICER[((uint32_t)(IRQn) >> 5)] = (1 << ((uint32_t)(IRQn) & 0x1F)); /* disable interrupt */
1518:./stm32f10x_libraries/CMSIS/CM3/CoreSupport/core_cm3.h **** }
1519:./stm32f10x_libraries/CMSIS/CM3/CoreSupport/core_cm3.h **** 
1520:./stm32f10x_libraries/CMSIS/CM3/CoreSupport/core_cm3.h **** /**
1521:./stm32f10x_libraries/CMSIS/CM3/CoreSupport/core_cm3.h ****  * @brief  Read the interrupt pending bit for a device specific interrupt source
1522:./stm32f10x_libraries/CMSIS/CM3/CoreSupport/core_cm3.h ****  * 
1523:./stm32f10x_libraries/CMSIS/CM3/CoreSupport/core_cm3.h ****  * @param  IRQn    The number of the device specifc interrupt
1524:./stm32f10x_libraries/CMSIS/CM3/CoreSupport/core_cm3.h ****  * @return         1 = interrupt pending, 0 = interrupt not pending
1525:./stm32f10x_libraries/CMSIS/CM3/CoreSupport/core_cm3.h ****  *
1526:./stm32f10x_libraries/CMSIS/CM3/CoreSupport/core_cm3.h ****  * Read the pending register in NVIC and return 1 if its status is pending, 
1527:./stm32f10x_libraries/CMSIS/CM3/CoreSupport/core_cm3.h ****  * otherwise it returns 0
1528:./stm32f10x_libraries/CMSIS/CM3/CoreSupport/core_cm3.h ****  */
1529:./stm32f10x_libraries/CMSIS/CM3/CoreSupport/core_cm3.h **** static __INLINE uint32_t NVIC_GetPendingIRQ(IRQn_Type IRQn)
1530:./stm32f10x_libraries/CMSIS/CM3/CoreSupport/core_cm3.h **** {
1531:./stm32f10x_libraries/CMSIS/CM3/CoreSupport/core_cm3.h ****   return((uint32_t) ((NVIC->ISPR[(uint32_t)(IRQn) >> 5] & (1 << ((uint32_t)(IRQn) & 0x1F)))?1:0)); 
1532:./stm32f10x_libraries/CMSIS/CM3/CoreSupport/core_cm3.h **** }
1533:./stm32f10x_libraries/CMSIS/CM3/CoreSupport/core_cm3.h **** 
1534:./stm32f10x_libraries/CMSIS/CM3/CoreSupport/core_cm3.h **** /**
1535:./stm32f10x_libraries/CMSIS/CM3/CoreSupport/core_cm3.h ****  * @brief  Set the pending bit for an external interrupt
1536:./stm32f10x_libraries/CMSIS/CM3/CoreSupport/core_cm3.h ****  * 
1537:./stm32f10x_libraries/CMSIS/CM3/CoreSupport/core_cm3.h ****  * @param  IRQn    The number of the interrupt for set pending
1538:./stm32f10x_libraries/CMSIS/CM3/CoreSupport/core_cm3.h ****  *
1539:./stm32f10x_libraries/CMSIS/CM3/CoreSupport/core_cm3.h ****  * Set the pending bit for the specified interrupt.
1540:./stm32f10x_libraries/CMSIS/CM3/CoreSupport/core_cm3.h ****  * The interrupt number cannot be a negative value.
1541:./stm32f10x_libraries/CMSIS/CM3/CoreSupport/core_cm3.h ****  */
1542:./stm32f10x_libraries/CMSIS/CM3/CoreSupport/core_cm3.h **** static __INLINE void NVIC_SetPendingIRQ(IRQn_Type IRQn)
1543:./stm32f10x_libraries/CMSIS/CM3/CoreSupport/core_cm3.h **** {
1544:./stm32f10x_libraries/CMSIS/CM3/CoreSupport/core_cm3.h ****   NVIC->ISPR[((uint32_t)(IRQn) >> 5)] = (1 << ((uint32_t)(IRQn) & 0x1F)); /* set interrupt pending 
1545:./stm32f10x_libraries/CMSIS/CM3/CoreSupport/core_cm3.h **** }
1546:./stm32f10x_libraries/CMSIS/CM3/CoreSupport/core_cm3.h **** 
1547:./stm32f10x_libraries/CMSIS/CM3/CoreSupport/core_cm3.h **** /**
1548:./stm32f10x_libraries/CMSIS/CM3/CoreSupport/core_cm3.h ****  * @brief  Clear the pending bit for an external interrupt
1549:./stm32f10x_libraries/CMSIS/CM3/CoreSupport/core_cm3.h ****  *
1550:./stm32f10x_libraries/CMSIS/CM3/CoreSupport/core_cm3.h ****  * @param  IRQn    The number of the interrupt for clear pending
1551:./stm32f10x_libraries/CMSIS/CM3/CoreSupport/core_cm3.h ****  *
1552:./stm32f10x_libraries/CMSIS/CM3/CoreSupport/core_cm3.h ****  * Clear the pending bit for the specified interrupt. 
1553:./stm32f10x_libraries/CMSIS/CM3/CoreSupport/core_cm3.h ****  * The interrupt number cannot be a negative value.
1554:./stm32f10x_libraries/CMSIS/CM3/CoreSupport/core_cm3.h ****  */
1555:./stm32f10x_libraries/CMSIS/CM3/CoreSupport/core_cm3.h **** static __INLINE void NVIC_ClearPendingIRQ(IRQn_Type IRQn)
1556:./stm32f10x_libraries/CMSIS/CM3/CoreSupport/core_cm3.h **** {
ARM GAS  C:\Users\user\AppData\Local\Temp\cc7qV6fF.s 			page 49


1557:./stm32f10x_libraries/CMSIS/CM3/CoreSupport/core_cm3.h ****   NVIC->ICPR[((uint32_t)(IRQn) >> 5)] = (1 << ((uint32_t)(IRQn) & 0x1F)); /* Clear pending interrup
1558:./stm32f10x_libraries/CMSIS/CM3/CoreSupport/core_cm3.h **** }
1559:./stm32f10x_libraries/CMSIS/CM3/CoreSupport/core_cm3.h **** 
1560:./stm32f10x_libraries/CMSIS/CM3/CoreSupport/core_cm3.h **** /**
1561:./stm32f10x_libraries/CMSIS/CM3/CoreSupport/core_cm3.h ****  * @brief  Read the active bit for an external interrupt
1562:./stm32f10x_libraries/CMSIS/CM3/CoreSupport/core_cm3.h ****  *
1563:./stm32f10x_libraries/CMSIS/CM3/CoreSupport/core_cm3.h ****  * @param  IRQn    The number of the interrupt for read active bit
1564:./stm32f10x_libraries/CMSIS/CM3/CoreSupport/core_cm3.h ****  * @return         1 = interrupt active, 0 = interrupt not active
1565:./stm32f10x_libraries/CMSIS/CM3/CoreSupport/core_cm3.h ****  *
1566:./stm32f10x_libraries/CMSIS/CM3/CoreSupport/core_cm3.h ****  * Read the active register in NVIC and returns 1 if its status is active, 
1567:./stm32f10x_libraries/CMSIS/CM3/CoreSupport/core_cm3.h ****  * otherwise it returns 0.
1568:./stm32f10x_libraries/CMSIS/CM3/CoreSupport/core_cm3.h ****  */
1569:./stm32f10x_libraries/CMSIS/CM3/CoreSupport/core_cm3.h **** static __INLINE uint32_t NVIC_GetActive(IRQn_Type IRQn)
1570:./stm32f10x_libraries/CMSIS/CM3/CoreSupport/core_cm3.h **** {
1571:./stm32f10x_libraries/CMSIS/CM3/CoreSupport/core_cm3.h ****   return((uint32_t)((NVIC->IABR[(uint32_t)(IRQn) >> 5] & (1 << ((uint32_t)(IRQn) & 0x1F)))?1:0)); /
1572:./stm32f10x_libraries/CMSIS/CM3/CoreSupport/core_cm3.h **** }
1573:./stm32f10x_libraries/CMSIS/CM3/CoreSupport/core_cm3.h **** 
1574:./stm32f10x_libraries/CMSIS/CM3/CoreSupport/core_cm3.h **** /**
1575:./stm32f10x_libraries/CMSIS/CM3/CoreSupport/core_cm3.h ****  * @brief  Set the priority for an interrupt
1576:./stm32f10x_libraries/CMSIS/CM3/CoreSupport/core_cm3.h ****  *
1577:./stm32f10x_libraries/CMSIS/CM3/CoreSupport/core_cm3.h ****  * @param  IRQn      The number of the interrupt for set priority
1578:./stm32f10x_libraries/CMSIS/CM3/CoreSupport/core_cm3.h ****  * @param  priority  The priority to set
1579:./stm32f10x_libraries/CMSIS/CM3/CoreSupport/core_cm3.h ****  *
1580:./stm32f10x_libraries/CMSIS/CM3/CoreSupport/core_cm3.h ****  * Set the priority for the specified interrupt. The interrupt 
1581:./stm32f10x_libraries/CMSIS/CM3/CoreSupport/core_cm3.h ****  * number can be positive to specify an external (device specific) 
1582:./stm32f10x_libraries/CMSIS/CM3/CoreSupport/core_cm3.h ****  * interrupt, or negative to specify an internal (core) interrupt.
1583:./stm32f10x_libraries/CMSIS/CM3/CoreSupport/core_cm3.h ****  *
1584:./stm32f10x_libraries/CMSIS/CM3/CoreSupport/core_cm3.h ****  * Note: The priority cannot be set for every core interrupt.
1585:./stm32f10x_libraries/CMSIS/CM3/CoreSupport/core_cm3.h ****  */
1586:./stm32f10x_libraries/CMSIS/CM3/CoreSupport/core_cm3.h **** static __INLINE void NVIC_SetPriority(IRQn_Type IRQn, uint32_t priority)
1587:./stm32f10x_libraries/CMSIS/CM3/CoreSupport/core_cm3.h **** {
1588:./stm32f10x_libraries/CMSIS/CM3/CoreSupport/core_cm3.h ****   if(IRQn < 0) {
 825              		.loc 2 1588 5 view .LVU170
 826 022e 0028     		cmp	r0, #0	@ tmp140,
 827              	.LBE16:
 828              	.LBE15:
 829              	.LBB18:
 830              	.LBB14:
 831              	@ ./stm32f10x_libraries/CMSIS/CM3/CoreSupport/core_cm3.h:1504:   NVIC->ISER[((uint32_t)(IRQn) >> 5)
1504:./stm32f10x_libraries/CMSIS/CM3/CoreSupport/core_cm3.h **** }
 832              		.loc 2 1504 65 view .LVU171
 833 0230 C2B2     		uxtb	r2, r0	@ IRQn.0_42, tmp140
 834              	@ ./stm32f10x_libraries/CMSIS/CM3/CoreSupport/core_cm3.h:1504:   NVIC->ISER[((uint32_t)(IRQn) >> 5)
1504:./stm32f10x_libraries/CMSIS/CM3/CoreSupport/core_cm3.h **** }
 835              		.loc 2 1504 32 view .LVU172
 836 0232 4FEA501C 		lsr	ip, r0, #5	@ _47, tmp140,
 837              	@ ./stm32f10x_libraries/CMSIS/CM3/CoreSupport/core_cm3.h:1504:   NVIC->ISER[((uint32_t)(IRQn) >> 5)
1504:./stm32f10x_libraries/CMSIS/CM3/CoreSupport/core_cm3.h **** }
 838              		.loc 2 1504 39 view .LVU173
 839 0236 43F82C10 		str	r1, [r3, ip, lsl #2]	@ _48, MEM[(struct NVIC_Type *)3758153984B].ISER[_47]
 840              	.LVL80:
1504:./stm32f10x_libraries/CMSIS/CM3/CoreSupport/core_cm3.h **** }
 841              		.loc 2 1504 39 view .LVU174
 842              	.LBE14:
 843              	.LBE18:
 286:user/driver/usart/usart.c **** 	NVIC_SetPriority(GetIRQnFromId(id), INTERRUPT_PRIORITY_USART);
 844              		.loc 1 286 2 is_stmt 1 view .LVU175
ARM GAS  C:\Users\user\AppData\Local\Temp\cc7qV6fF.s 			page 50


 845              	.LBB19:
 846              	.LBI15:
1586:./stm32f10x_libraries/CMSIS/CM3/CoreSupport/core_cm3.h **** {
 847              		.loc 2 1586 22 view .LVU176
 848              	.LBB17:
 849              		.loc 2 1588 3 view .LVU177
1589:./stm32f10x_libraries/CMSIS/CM3/CoreSupport/core_cm3.h ****     SCB->SHP[((uint32_t)(IRQn) & 0xF)-4] = ((priority << (8 - __NVIC_PRIO_BITS)) & 0xff); } /* set 
 850              		.loc 2 1589 5 view .LVU178
 851              	@ ./stm32f10x_libraries/CMSIS/CM3/CoreSupport/core_cm3.h:1589:     SCB->SHP[((uint32_t)(IRQn) & 0xF
 852              		.loc 2 1589 32 is_stmt 0 view .LVU179
 853 023a BDBF     		ittte	lt
 854 023c 02F00F02 		andlt	r2, r2, #15	@ tmp148, IRQn.0_42,
 855              	@ ./stm32f10x_libraries/CMSIS/CM3/CoreSupport/core_cm3.h:1589:     SCB->SHP[((uint32_t)(IRQn) & 0xF
 856              		.loc 2 1589 42 view .LVU180
 857 0240 03F6FC33 		addwlt	r3, r3, #3068	@ tmp150, tmp150,
 858 0244 9B18     		addlt	r3, r3, r2	@ tmp150, tmp148
 859              	@ ./stm32f10x_libraries/CMSIS/CM3/CoreSupport/core_cm3.h:1591:     NVIC->IP[(uint32_t)(IRQn)] = ((p
1590:./stm32f10x_libraries/CMSIS/CM3/CoreSupport/core_cm3.h ****   else {
1591:./stm32f10x_libraries/CMSIS/CM3/CoreSupport/core_cm3.h ****     NVIC->IP[(uint32_t)(IRQn)] = ((priority << (8 - __NVIC_PRIO_BITS)) & 0xff);    }        /* set 
 860              		.loc 2 1591 32 view .LVU181
 861 0246 C018     		addge	r0, r0, r3	@ tmp154, tmp144
 862              	.LVL81:
 863              	@ ./stm32f10x_libraries/CMSIS/CM3/CoreSupport/core_cm3.h:1589:     SCB->SHP[((uint32_t)(IRQn) & 0xF
1589:./stm32f10x_libraries/CMSIS/CM3/CoreSupport/core_cm3.h ****     SCB->SHP[((uint32_t)(IRQn) & 0xF)-4] = ((priority << (8 - __NVIC_PRIO_BITS)) & 0xff); } /* set 
 864              		.loc 2 1589 42 view .LVU182
 865 0248 B5BF     		itete	lt
 866 024a 6022     		movlt	r2, #96	@ tmp151,
 867              	@ ./stm32f10x_libraries/CMSIS/CM3/CoreSupport/core_cm3.h:1591:     NVIC->IP[(uint32_t)(IRQn)] = ((p
 868              		.loc 2 1591 32 view .LVU183
 869 024c 6023     		movge	r3, #96	@ tmp155,
 870              	@ ./stm32f10x_libraries/CMSIS/CM3/CoreSupport/core_cm3.h:1589:     SCB->SHP[((uint32_t)(IRQn) & 0xF
1589:./stm32f10x_libraries/CMSIS/CM3/CoreSupport/core_cm3.h ****     SCB->SHP[((uint32_t)(IRQn) & 0xF)-4] = ((priority << (8 - __NVIC_PRIO_BITS)) & 0xff); } /* set 
 871              		.loc 2 1589 42 view .LVU184
 872 024e 1A76     		strblt	r2, [r3, #24]	@ tmp151, MEM[(struct SCB_Type *)3758157056B].SHP[_37]
 873              		.loc 2 1591 5 is_stmt 1 view .LVU185
 874              	@ ./stm32f10x_libraries/CMSIS/CM3/CoreSupport/core_cm3.h:1591:     NVIC->IP[(uint32_t)(IRQn)] = ((p
 875              		.loc 2 1591 32 is_stmt 0 view .LVU186
 876 0250 80F80033 		strbge	r3, [r0, #768]	@ tmp155, MEM[(struct NVIC_Type *)3758153984B].IP[_46]
 877              	.LVL82:
 878              		.loc 2 1591 32 view .LVU187
 879              	.LBE17:
 880              	.LBE19:
 287:user/driver/usart/usart.c **** 	USART_Cmd(DecodeUsartId(id), ENABLE);
 881              		.loc 1 287 2 is_stmt 1 view .LVU188
 882 0254 0121     		movs	r1, #1	@,
 883 0256 2046     		mov	r0, r4	@, _2
 884 0258 FFF7FEFF 		bl	USART_Cmd		@
 885              	.LVL83:
 288:user/driver/usart/usart.c **** 
 289:user/driver/usart/usart.c **** 	// Hardware UART initialisation finished.
 290:user/driver/usart/usart.c **** 	// Now FIFO initialisation done here.
 291:user/driver/usart/usart.c **** 	UsartType *usart = &usart_handle_list[id];
 886              		.loc 1 291 2 view .LVU189
 887              	@ user/driver/usart/usart.c:295: 		usart->rx_fifo = xQueueCreate(rx_buffer_limit, sizeof(uint8_t));
 292:user/driver/usart/usart.c **** 
 293:user/driver/usart/usart.c **** 	if (usart != NULL)
 294:user/driver/usart/usart.c **** 	{
ARM GAS  C:\Users\user\AppData\Local\Temp\cc7qV6fF.s 			page 51


 295:user/driver/usart/usart.c **** 		usart->rx_fifo = xQueueCreate(rx_buffer_limit, sizeof(uint8_t));
 888              		.loc 1 295 20 is_stmt 0 view .LVU190
 889 025c 0022     		movs	r2, #0	@,
 890 025e 0121     		movs	r1, #1	@,
 891 0260 3846     		mov	r0, r7	@, rx_buffer_limit
 892 0262 FFF7FEFF 		bl	xQueueGenericCreate		@
 893              	.LVL84:
 894              	@ user/driver/usart/usart.c:300: 		usart->is_initialised = 1;
 296:user/driver/usart/usart.c **** 		usart->baud = baud;
 297:user/driver/usart/usart.c **** 		usart->port_id = id;
 298:user/driver/usart/usart.c **** 		// Initialise receiver buffer.
 299:user/driver/usart/usart.c **** 
 300:user/driver/usart/usart.c **** 		usart->is_initialised = 1;
 895              		.loc 1 300 25 view .LVU191
 896 0266 0123     		movs	r3, #1	@ tmp175,
 897              	@ user/driver/usart/usart.c:291: 	UsartType *usart = &usart_handle_list[id];
 291:user/driver/usart/usart.c **** 
 898              		.loc 1 291 13 view .LVU192
 899 0268 DFF82080 		ldr	r8, .L65+4	@ tmp157,
 900 026c 4FEA0519 		lsl	r9, r5, #4	@ tmp158, id,
 901 0270 08EB0514 		add	r4, r8, r5, lsl #4	@ <retval>, tmp157, id,
 902              	.LVL85:
 293:user/driver/usart/usart.c **** 	{
 903              		.loc 1 293 2 is_stmt 1 view .LVU193
 295:user/driver/usart/usart.c **** 		usart->baud = baud;
 904              		.loc 1 295 3 view .LVU194
 905              	@ user/driver/usart/usart.c:296: 		usart->baud = baud;
 296:user/driver/usart/usart.c **** 		usart->port_id = id;
 906              		.loc 1 296 15 is_stmt 0 view .LVU195
 907 0274 C4E90160 		strd	r6, r0, [r4, #4]	@ baud, tmp183, <retval>,
 297:user/driver/usart/usart.c **** 		// Initialise receiver buffer.
 908              		.loc 1 297 3 is_stmt 1 view .LVU196
 909              	@ user/driver/usart/usart.c:297: 		usart->port_id = id;
 297:user/driver/usart/usart.c **** 		// Initialise receiver buffer.
 910              		.loc 1 297 18 is_stmt 0 view .LVU197
 911 0278 08F80950 		strb	r5, [r8, r9]	@ id, MEM <struct UsartType[7]> [(struct UsartType *)&usart_handle_list][_4].por
 912              		.loc 1 300 3 is_stmt 1 view .LVU198
 913              	@ user/driver/usart/usart.c:300: 		usart->is_initialised = 1;
 914              		.loc 1 300 25 is_stmt 0 view .LVU199
 915 027c E360     		str	r3, [r4, #12]	@ tmp175, MEM <struct UsartType[7]> [(struct UsartType *)&usart_handle_list][_4]
 301:user/driver/usart/usart.c **** 	}
 302:user/driver/usart/usart.c **** 	else
 303:user/driver/usart/usart.c **** 	{
 304:user/driver/usart/usart.c **** 		return NULL;
 305:user/driver/usart/usart.c **** 	}
 306:user/driver/usart/usart.c **** 	return usart;
 916              		.loc 1 306 2 is_stmt 1 view .LVU200
 917              	.LVL86:
 918              	.L60:
 919              	@ user/driver/usart/usart.c:307: }
 307:user/driver/usart/usart.c **** }
 920              		.loc 1 307 1 is_stmt 0 view .LVU201
 921 027e 2046     		mov	r0, r4	@, <retval>
 922 0280 05B0     		add	sp, sp, #20	@,,
 923              	.LCFI5:
 924              		.cfi_def_cfa_offset 28
 925              		@ sp needed	@
ARM GAS  C:\Users\user\AppData\Local\Temp\cc7qV6fF.s 			page 52


 926 0282 BDE8F083 		pop	{r4, r5, r6, r7, r8, r9, pc}	@
 927              	.LVL87:
 928              	.L66:
 929              		.loc 1 307 1 view .LVU202
 930 0286 00BF     		.align	2
 931              	.L65:
 932 0288 00E100E0 		.word	-536813312
 933 028c 00000000 		.word	.LANCHOR1
 934              		.cfi_endproc
 935              	.LFE40:
 936              		.size	InitUsart, .-InitUsart
 937              		.align	1
 938              		.global	UsartSendByte
 939              		.syntax unified
 940              		.thumb
 941              		.thumb_func
 942              		.fpu softvfp
 943              		.type	UsartSendByte, %function
 944              	UsartSendByte:
 945              	.LVL88:
 946              	.LFB41:
 308:user/driver/usart/usart.c **** 
 309:user/driver/usart/usart.c **** void UsartSendByte(UsartHandle handle, uint8_t data)
 310:user/driver/usart/usart.c **** {
 947              		.loc 1 310 1 is_stmt 1 view -0
 948              		.cfi_startproc
 949              		@ args = 0, pretend = 0, frame = 0
 950              		@ frame_needed = 0, uses_anonymous_args = 0
 311:user/driver/usart/usart.c **** 	assert_param(handle);
 951              		.loc 1 311 2 view .LVU204
 312:user/driver/usart/usart.c **** 	UsartType *usart = (UsartType *)handle;
 952              		.loc 1 312 2 view .LVU205
 313:user/driver/usart/usart.c **** 	// Load transmit buffer with the value.
 314:user/driver/usart/usart.c **** 	//while(PushByte(usart->tx_buffer, data) != FIFOOK);
 315:user/driver/usart/usart.c **** 	//xQueueSend(usart->tx_buffer,&data, 100);
 316:user/driver/usart/usart.c **** 	USART_SendData(DecodeUsartId(usart->port_id), data);
 953              		.loc 1 316 2 view .LVU206
 954              	@ user/driver/usart/usart.c:310: {
 310:user/driver/usart/usart.c **** 	assert_param(handle);
 955              		.loc 1 310 1 is_stmt 0 view .LVU207
 956 0290 10B5     		push	{r4, lr}	@
 957              	.LCFI6:
 958              		.cfi_def_cfa_offset 8
 959              		.cfi_offset 4, -8
 960              		.cfi_offset 14, -4
 961              	@ user/driver/usart/usart.c:310: {
 310:user/driver/usart/usart.c **** 	assert_param(handle);
 962              		.loc 1 310 1 view .LVU208
 963 0292 0446     		mov	r4, r0	@ handle, tmp126
 964              	@ user/driver/usart/usart.c:316: 	USART_SendData(DecodeUsartId(usart->port_id), data);
 965              		.loc 1 316 2 view .LVU209
 966 0294 0078     		ldrb	r0, [r0]	@ zero_extendqisi2	@, MEM[(struct UsartType *)handle_8(D)].port_id
 967              	.LVL89:
 968              		.loc 1 316 2 view .LVU210
 969 0296 FFF7FEFF 		bl	DecodeUsartId		@
 970              	.LVL90:
 971 029a FFF7FEFF 		bl	USART_SendData		@
ARM GAS  C:\Users\user\AppData\Local\Temp\cc7qV6fF.s 			page 53


 972              	.LVL91:
 317:user/driver/usart/usart.c **** 	while (USART_GetFlagStatus(DecodeUsartId(usart->port_id), USART_FLAG_TXE) == 0)
 973              		.loc 1 317 2 is_stmt 1 view .LVU211
 974              	.L68:
 318:user/driver/usart/usart.c **** 		;
 975              		.loc 1 318 3 discriminator 1 view .LVU212
 317:user/driver/usart/usart.c **** 	while (USART_GetFlagStatus(DecodeUsartId(usart->port_id), USART_FLAG_TXE) == 0)
 976              		.loc 1 317 8 discriminator 1 view .LVU213
 977              	@ user/driver/usart/usart.c:317: 	while (USART_GetFlagStatus(DecodeUsartId(usart->port_id), USART_F
 317:user/driver/usart/usart.c **** 	while (USART_GetFlagStatus(DecodeUsartId(usart->port_id), USART_FLAG_TXE) == 0)
 978              		.loc 1 317 9 is_stmt 0 discriminator 1 view .LVU214
 979 029e 2078     		ldrb	r0, [r4]	@ zero_extendqisi2	@, MEM[(struct UsartType *)handle_8(D)].port_id
 980 02a0 FFF7FEFF 		bl	DecodeUsartId		@
 981              	.LVL92:
 982 02a4 8021     		movs	r1, #128	@,
 983 02a6 FFF7FEFF 		bl	USART_GetFlagStatus		@
 984              	.LVL93:
 985              	@ user/driver/usart/usart.c:317: 	while (USART_GetFlagStatus(DecodeUsartId(usart->port_id), USART_F
 317:user/driver/usart/usart.c **** 	while (USART_GetFlagStatus(DecodeUsartId(usart->port_id), USART_FLAG_TXE) == 0)
 986              		.loc 1 317 8 discriminator 1 view .LVU215
 987 02aa 0028     		cmp	r0, #0	@ tmp128
 988 02ac F7D0     		beq	.L68	@
 989              	@ user/driver/usart/usart.c:321: }
 319:user/driver/usart/usart.c **** 	//Enable Transmit Register Empty interrupt service so FIFO data transmission will began
 320:user/driver/usart/usart.c **** 	//USART_ITConfig(DecodeUsartId(usart->port_id), USART_IT_TXE, ENABLE);
 321:user/driver/usart/usart.c **** }
 990              		.loc 1 321 1 view .LVU216
 991 02ae 10BD     		pop	{r4, pc}	@
 992              		.loc 1 321 1 view .LVU217
 993              		.cfi_endproc
 994              	.LFE41:
 995              		.size	UsartSendByte, .-UsartSendByte
 996              		.align	1
 997              		.global	UsartSendString
 998              		.syntax unified
 999              		.thumb
 1000              		.thumb_func
 1001              		.fpu softvfp
 1002              		.type	UsartSendString, %function
 1003              	UsartSendString:
 1004              	.LVL94:
 1005              	.LFB42:
 322:user/driver/usart/usart.c **** 
 323:user/driver/usart/usart.c **** void UsartSendString(UsartHandle handle, const char *string, uint32_t len)
 324:user/driver/usart/usart.c **** {
 1006              		.loc 1 324 1 is_stmt 1 view -0
 1007              		.cfi_startproc
 1008              		@ args = 0, pretend = 0, frame = 0
 1009              		@ frame_needed = 0, uses_anonymous_args = 0
 1010              		.loc 1 324 1 is_stmt 0 view .LVU219
 1011 02b0 70B5     		push	{r4, r5, r6, lr}	@
 1012              	.LCFI7:
 1013              		.cfi_def_cfa_offset 16
 1014              		.cfi_offset 4, -16
 1015              		.cfi_offset 5, -12
 1016              		.cfi_offset 6, -8
 1017              		.cfi_offset 14, -4
ARM GAS  C:\Users\user\AppData\Local\Temp\cc7qV6fF.s 			page 54


 1018              	@ user/driver/usart/usart.c:324: {
 1019              		.loc 1 324 1 view .LVU220
 1020 02b2 0646     		mov	r6, r0	@ handle, tmp120
 325:user/driver/usart/usart.c **** 	assert_param(handle);
 1021              		.loc 1 325 2 is_stmt 1 view .LVU221
 326:user/driver/usart/usart.c **** 	assert_param(string);
 1022              		.loc 1 326 2 view .LVU222
 327:user/driver/usart/usart.c **** 
 328:user/driver/usart/usart.c **** 	for (int i = 0; i < len; i++)
 1023              		.loc 1 328 2 view .LVU223
 1024              	.LBB20:
 1025              		.loc 1 328 7 view .LVU224
 1026              	.LVL95:
 1027              		.loc 1 328 7 is_stmt 0 view .LVU225
 1028 02b4 0C46     		mov	r4, r1	@ ivtmp.63, tmp121
 1029 02b6 8D18     		adds	r5, r1, r2	@ _16, ivtmp.63, tmp122
 1030              	.LVL96:
 1031              	.L72:
 1032              		.loc 1 328 18 is_stmt 1 discriminator 1 view .LVU226
 1033              	@ user/driver/usart/usart.c:328: 	for (int i = 0; i < len; i++)
 1034              		.loc 1 328 2 is_stmt 0 discriminator 1 view .LVU227
 1035 02b8 AC42     		cmp	r4, r5	@ ivtmp.63, _16
 1036 02ba 00D1     		bne	.L73		@,
 1037              	.LBE20:
 1038              	@ user/driver/usart/usart.c:332: }
 329:user/driver/usart/usart.c **** 	{
 330:user/driver/usart/usart.c **** 		UsartSendByte(handle, string[i]);
 331:user/driver/usart/usart.c **** 	}
 332:user/driver/usart/usart.c **** }
 1039              		.loc 1 332 1 view .LVU228
 1040 02bc 70BD     		pop	{r4, r5, r6, pc}	@
 1041              	.LVL97:
 1042              	.L73:
 1043              	.LBB21:
 330:user/driver/usart/usart.c **** 	}
 1044              		.loc 1 330 3 is_stmt 1 discriminator 3 view .LVU229
 1045 02be 3046     		mov	r0, r6	@, handle
 1046 02c0 14F8011B 		ldrb	r1, [r4], #1	@ zero_extendqisi2	@, MEM[base: _17, offset: 0B]
 1047              	.LVL98:
 330:user/driver/usart/usart.c **** 	}
 1048              		.loc 1 330 3 is_stmt 0 discriminator 3 view .LVU230
 1049 02c4 FFF7FEFF 		bl	UsartSendByte		@
 1050              	.LVL99:
 328:user/driver/usart/usart.c **** 	{
 1051              		.loc 1 328 27 is_stmt 1 discriminator 3 view .LVU231
 328:user/driver/usart/usart.c **** 	{
 1052              		.loc 1 328 27 is_stmt 0 discriminator 3 view .LVU232
 1053 02c8 F6E7     		b	.L72		@
 1054              	.LBE21:
 1055              		.cfi_endproc
 1056              	.LFE42:
 1057              		.size	UsartSendString, .-UsartSendString
 1058              		.align	1
 1059              		.global	UsartReceiveByte
 1060              		.syntax unified
 1061              		.thumb
 1062              		.thumb_func
ARM GAS  C:\Users\user\AppData\Local\Temp\cc7qV6fF.s 			page 55


 1063              		.fpu softvfp
 1064              		.type	UsartReceiveByte, %function
